ARM GAS  /var/folders/kh/x4vltyy52lbg7p4pcyglc5080000gp/T//cc2IG9vv.s 			page 1


   1              		.syntax unified
   2              		.cpu cortex-m3
   3              		.fpu softvfp
   4              		.eabi_attribute 20, 1
   5              		.eabi_attribute 21, 1
   6              		.eabi_attribute 23, 3
   7              		.eabi_attribute 24, 1
   8              		.eabi_attribute 25, 1
   9              		.eabi_attribute 26, 1
  10              		.eabi_attribute 30, 6
  11              		.eabi_attribute 34, 1
  12              		.eabi_attribute 18, 4
  13              		.thumb
  14              		.syntax unified
  15              		.file	"ltp.c"
  16              		.text
  17              	.Ltext0:
  18              		.cfi_sections	.debug_frame
  19              		.section	.text.spx_ilog4,"ax",%progbits
  20              		.align	2
  21              		.thumb
  22              		.thumb_func
  24              	spx_ilog4:
  25              	.LFB1:
  26              		.file 1 "STM32F10x_Speex_Lib/libspeex/math_approx.h"
   1:STM32F10x_Speex_Lib/libspeex/math_approx.h **** /* Copyright (C) 2002 Jean-Marc Valin */
   2:STM32F10x_Speex_Lib/libspeex/math_approx.h **** /**
   3:STM32F10x_Speex_Lib/libspeex/math_approx.h ****    @file math_approx.h
   4:STM32F10x_Speex_Lib/libspeex/math_approx.h ****    @brief Various math approximation functions for Speex
   5:STM32F10x_Speex_Lib/libspeex/math_approx.h **** */
   6:STM32F10x_Speex_Lib/libspeex/math_approx.h **** /*
   7:STM32F10x_Speex_Lib/libspeex/math_approx.h ****    Redistribution and use in source and binary forms, with or without
   8:STM32F10x_Speex_Lib/libspeex/math_approx.h ****    modification, are permitted provided that the following conditions
   9:STM32F10x_Speex_Lib/libspeex/math_approx.h ****    are met:
  10:STM32F10x_Speex_Lib/libspeex/math_approx.h ****    
  11:STM32F10x_Speex_Lib/libspeex/math_approx.h ****    - Redistributions of source code must retain the above copyright
  12:STM32F10x_Speex_Lib/libspeex/math_approx.h ****    notice, this list of conditions and the following disclaimer.
  13:STM32F10x_Speex_Lib/libspeex/math_approx.h ****    
  14:STM32F10x_Speex_Lib/libspeex/math_approx.h ****    - Redistributions in binary form must reproduce the above copyright
  15:STM32F10x_Speex_Lib/libspeex/math_approx.h ****    notice, this list of conditions and the following disclaimer in the
  16:STM32F10x_Speex_Lib/libspeex/math_approx.h ****    documentation and/or other materials provided with the distribution.
  17:STM32F10x_Speex_Lib/libspeex/math_approx.h ****    
  18:STM32F10x_Speex_Lib/libspeex/math_approx.h ****    - Neither the name of the Xiph.org Foundation nor the names of its
  19:STM32F10x_Speex_Lib/libspeex/math_approx.h ****    contributors may be used to endorse or promote products derived from
  20:STM32F10x_Speex_Lib/libspeex/math_approx.h ****    this software without specific prior written permission.
  21:STM32F10x_Speex_Lib/libspeex/math_approx.h ****    
  22:STM32F10x_Speex_Lib/libspeex/math_approx.h ****    THIS SOFTWARE IS PROVIDED BY THE COPYRIGHT HOLDERS AND CONTRIBUTORS
  23:STM32F10x_Speex_Lib/libspeex/math_approx.h ****    ``AS IS'' AND ANY EXPRESS OR IMPLIED WARRANTIES, INCLUDING, BUT NOT
  24:STM32F10x_Speex_Lib/libspeex/math_approx.h ****    LIMITED TO, THE IMPLIED WARRANTIES OF MERCHANTABILITY AND FITNESS FOR
  25:STM32F10x_Speex_Lib/libspeex/math_approx.h ****    A PARTICULAR PURPOSE ARE DISCLAIMED.  IN NO EVENT SHALL THE FOUNDATION OR
  26:STM32F10x_Speex_Lib/libspeex/math_approx.h ****    CONTRIBUTORS BE LIABLE FOR ANY DIRECT, INDIRECT, INCIDENTAL, SPECIAL,
  27:STM32F10x_Speex_Lib/libspeex/math_approx.h ****    EXEMPLARY, OR CONSEQUENTIAL DAMAGES (INCLUDING, BUT NOT LIMITED TO,
  28:STM32F10x_Speex_Lib/libspeex/math_approx.h ****    PROCUREMENT OF SUBSTITUTE GOODS OR SERVICES; LOSS OF USE, DATA, OR
  29:STM32F10x_Speex_Lib/libspeex/math_approx.h ****    PROFITS; OR BUSINESS INTERRUPTION) HOWEVER CAUSED AND ON ANY THEORY OF
  30:STM32F10x_Speex_Lib/libspeex/math_approx.h ****    LIABILITY, WHETHER IN CONTRACT, STRICT LIABILITY, OR TORT (INCLUDING
  31:STM32F10x_Speex_Lib/libspeex/math_approx.h ****    NEGLIGENCE OR OTHERWISE) ARISING IN ANY WAY OUT OF THE USE OF THIS
  32:STM32F10x_Speex_Lib/libspeex/math_approx.h ****    SOFTWARE, EVEN IF ADVISED OF THE POSSIBILITY OF SUCH DAMAGE.
ARM GAS  /var/folders/kh/x4vltyy52lbg7p4pcyglc5080000gp/T//cc2IG9vv.s 			page 2


  33:STM32F10x_Speex_Lib/libspeex/math_approx.h **** */
  34:STM32F10x_Speex_Lib/libspeex/math_approx.h **** 
  35:STM32F10x_Speex_Lib/libspeex/math_approx.h **** #ifndef MATH_APPROX_H
  36:STM32F10x_Speex_Lib/libspeex/math_approx.h **** #define MATH_APPROX_H
  37:STM32F10x_Speex_Lib/libspeex/math_approx.h **** 
  38:STM32F10x_Speex_Lib/libspeex/math_approx.h **** #include "arch.h"
  39:STM32F10x_Speex_Lib/libspeex/math_approx.h **** 
  40:STM32F10x_Speex_Lib/libspeex/math_approx.h **** #ifndef FIXED_POINT
  41:STM32F10x_Speex_Lib/libspeex/math_approx.h **** 
  42:STM32F10x_Speex_Lib/libspeex/math_approx.h **** #define spx_sqrt sqrt
  43:STM32F10x_Speex_Lib/libspeex/math_approx.h **** #define spx_acos acos
  44:STM32F10x_Speex_Lib/libspeex/math_approx.h **** #define spx_exp exp
  45:STM32F10x_Speex_Lib/libspeex/math_approx.h **** #define spx_cos_norm(x) (cos((.5f*M_PI)*(x)))
  46:STM32F10x_Speex_Lib/libspeex/math_approx.h **** #define spx_atan atan
  47:STM32F10x_Speex_Lib/libspeex/math_approx.h **** 
  48:STM32F10x_Speex_Lib/libspeex/math_approx.h **** /** Generate a pseudo-random number */
  49:STM32F10x_Speex_Lib/libspeex/math_approx.h **** static inline spx_word16_t speex_rand(spx_word16_t std, spx_int32_t *seed)
  50:STM32F10x_Speex_Lib/libspeex/math_approx.h **** {
  51:STM32F10x_Speex_Lib/libspeex/math_approx.h ****    const unsigned int jflone = 0x3f800000;
  52:STM32F10x_Speex_Lib/libspeex/math_approx.h ****    const unsigned int jflmsk = 0x007fffff;
  53:STM32F10x_Speex_Lib/libspeex/math_approx.h ****    union {int i; float f;} ran;
  54:STM32F10x_Speex_Lib/libspeex/math_approx.h ****    *seed = 1664525 * *seed + 1013904223;
  55:STM32F10x_Speex_Lib/libspeex/math_approx.h ****    ran.i = jflone | (jflmsk & *seed);
  56:STM32F10x_Speex_Lib/libspeex/math_approx.h ****    ran.f -= 1.5;
  57:STM32F10x_Speex_Lib/libspeex/math_approx.h ****    return 3.4642*std*ran.f;
  58:STM32F10x_Speex_Lib/libspeex/math_approx.h **** }
  59:STM32F10x_Speex_Lib/libspeex/math_approx.h **** 
  60:STM32F10x_Speex_Lib/libspeex/math_approx.h **** 
  61:STM32F10x_Speex_Lib/libspeex/math_approx.h **** #endif
  62:STM32F10x_Speex_Lib/libspeex/math_approx.h **** 
  63:STM32F10x_Speex_Lib/libspeex/math_approx.h **** 
  64:STM32F10x_Speex_Lib/libspeex/math_approx.h **** static inline spx_int16_t spx_ilog2(spx_uint32_t x)
  65:STM32F10x_Speex_Lib/libspeex/math_approx.h **** {
  66:STM32F10x_Speex_Lib/libspeex/math_approx.h ****    int r=0;
  67:STM32F10x_Speex_Lib/libspeex/math_approx.h ****    if (x>=(spx_int32_t)65536)
  68:STM32F10x_Speex_Lib/libspeex/math_approx.h ****    {
  69:STM32F10x_Speex_Lib/libspeex/math_approx.h ****       x >>= 16;
  70:STM32F10x_Speex_Lib/libspeex/math_approx.h ****       r += 16;
  71:STM32F10x_Speex_Lib/libspeex/math_approx.h ****    }
  72:STM32F10x_Speex_Lib/libspeex/math_approx.h ****    if (x>=256)
  73:STM32F10x_Speex_Lib/libspeex/math_approx.h ****    {
  74:STM32F10x_Speex_Lib/libspeex/math_approx.h ****       x >>= 8;
  75:STM32F10x_Speex_Lib/libspeex/math_approx.h ****       r += 8;
  76:STM32F10x_Speex_Lib/libspeex/math_approx.h ****    }
  77:STM32F10x_Speex_Lib/libspeex/math_approx.h ****    if (x>=16)
  78:STM32F10x_Speex_Lib/libspeex/math_approx.h ****    {
  79:STM32F10x_Speex_Lib/libspeex/math_approx.h ****       x >>= 4;
  80:STM32F10x_Speex_Lib/libspeex/math_approx.h ****       r += 4;
  81:STM32F10x_Speex_Lib/libspeex/math_approx.h ****    }
  82:STM32F10x_Speex_Lib/libspeex/math_approx.h ****    if (x>=4)
  83:STM32F10x_Speex_Lib/libspeex/math_approx.h ****    {
  84:STM32F10x_Speex_Lib/libspeex/math_approx.h ****       x >>= 2;
  85:STM32F10x_Speex_Lib/libspeex/math_approx.h ****       r += 2;
  86:STM32F10x_Speex_Lib/libspeex/math_approx.h ****    }
  87:STM32F10x_Speex_Lib/libspeex/math_approx.h ****    if (x>=2)
  88:STM32F10x_Speex_Lib/libspeex/math_approx.h ****    {
  89:STM32F10x_Speex_Lib/libspeex/math_approx.h ****       r += 1;
ARM GAS  /var/folders/kh/x4vltyy52lbg7p4pcyglc5080000gp/T//cc2IG9vv.s 			page 3


  90:STM32F10x_Speex_Lib/libspeex/math_approx.h ****    }
  91:STM32F10x_Speex_Lib/libspeex/math_approx.h ****    return r;
  92:STM32F10x_Speex_Lib/libspeex/math_approx.h **** }
  93:STM32F10x_Speex_Lib/libspeex/math_approx.h **** 
  94:STM32F10x_Speex_Lib/libspeex/math_approx.h **** static inline spx_int16_t spx_ilog4(spx_uint32_t x)
  95:STM32F10x_Speex_Lib/libspeex/math_approx.h **** {
  27              		.loc 1 95 0
  28              		.cfi_startproc
  29              		@ args = 0, pretend = 0, frame = 16
  30              		@ frame_needed = 1, uses_anonymous_args = 0
  31              		@ link register save eliminated.
  32 0000 80B4     		push	{r7}
  33              	.LCFI0:
  34              		.cfi_def_cfa_offset 4
  35              		.cfi_offset 7, -4
  36 0002 85B0     		sub	sp, sp, #20
  37              	.LCFI1:
  38              		.cfi_def_cfa_offset 24
  39 0004 00AF     		add	r7, sp, #0
  40              	.LCFI2:
  41              		.cfi_def_cfa_register 7
  42 0006 7860     		str	r0, [r7, #4]
  96:STM32F10x_Speex_Lib/libspeex/math_approx.h ****    int r=0;
  43              		.loc 1 96 0
  44 0008 0023     		movs	r3, #0
  45 000a FB60     		str	r3, [r7, #12]
  97:STM32F10x_Speex_Lib/libspeex/math_approx.h ****    if (x>=(spx_int32_t)65536)
  46              		.loc 1 97 0
  47 000c 7B68     		ldr	r3, [r7, #4]
  48 000e B3F5803F 		cmp	r3, #65536
  49 0012 05D3     		bcc	.L2
  98:STM32F10x_Speex_Lib/libspeex/math_approx.h ****    {
  99:STM32F10x_Speex_Lib/libspeex/math_approx.h ****       x >>= 16;
  50              		.loc 1 99 0
  51 0014 7B68     		ldr	r3, [r7, #4]
  52 0016 1B0C     		lsrs	r3, r3, #16
  53 0018 7B60     		str	r3, [r7, #4]
 100:STM32F10x_Speex_Lib/libspeex/math_approx.h ****       r += 8;
  54              		.loc 1 100 0
  55 001a FB68     		ldr	r3, [r7, #12]
  56 001c 0833     		adds	r3, r3, #8
  57 001e FB60     		str	r3, [r7, #12]
  58              	.L2:
 101:STM32F10x_Speex_Lib/libspeex/math_approx.h ****    }
 102:STM32F10x_Speex_Lib/libspeex/math_approx.h ****    if (x>=256)
  59              		.loc 1 102 0
  60 0020 7B68     		ldr	r3, [r7, #4]
  61 0022 FF2B     		cmp	r3, #255
  62 0024 05D9     		bls	.L3
 103:STM32F10x_Speex_Lib/libspeex/math_approx.h ****    {
 104:STM32F10x_Speex_Lib/libspeex/math_approx.h ****       x >>= 8;
  63              		.loc 1 104 0
  64 0026 7B68     		ldr	r3, [r7, #4]
  65 0028 1B0A     		lsrs	r3, r3, #8
  66 002a 7B60     		str	r3, [r7, #4]
 105:STM32F10x_Speex_Lib/libspeex/math_approx.h ****       r += 4;
  67              		.loc 1 105 0
ARM GAS  /var/folders/kh/x4vltyy52lbg7p4pcyglc5080000gp/T//cc2IG9vv.s 			page 4


  68 002c FB68     		ldr	r3, [r7, #12]
  69 002e 0433     		adds	r3, r3, #4
  70 0030 FB60     		str	r3, [r7, #12]
  71              	.L3:
 106:STM32F10x_Speex_Lib/libspeex/math_approx.h ****    }
 107:STM32F10x_Speex_Lib/libspeex/math_approx.h ****    if (x>=16)
  72              		.loc 1 107 0
  73 0032 7B68     		ldr	r3, [r7, #4]
  74 0034 0F2B     		cmp	r3, #15
  75 0036 05D9     		bls	.L4
 108:STM32F10x_Speex_Lib/libspeex/math_approx.h ****    {
 109:STM32F10x_Speex_Lib/libspeex/math_approx.h ****       x >>= 4;
  76              		.loc 1 109 0
  77 0038 7B68     		ldr	r3, [r7, #4]
  78 003a 1B09     		lsrs	r3, r3, #4
  79 003c 7B60     		str	r3, [r7, #4]
 110:STM32F10x_Speex_Lib/libspeex/math_approx.h ****       r += 2;
  80              		.loc 1 110 0
  81 003e FB68     		ldr	r3, [r7, #12]
  82 0040 0233     		adds	r3, r3, #2
  83 0042 FB60     		str	r3, [r7, #12]
  84              	.L4:
 111:STM32F10x_Speex_Lib/libspeex/math_approx.h ****    }
 112:STM32F10x_Speex_Lib/libspeex/math_approx.h ****    if (x>=4)
  85              		.loc 1 112 0
  86 0044 7B68     		ldr	r3, [r7, #4]
  87 0046 032B     		cmp	r3, #3
  88 0048 02D9     		bls	.L5
 113:STM32F10x_Speex_Lib/libspeex/math_approx.h ****    {
 114:STM32F10x_Speex_Lib/libspeex/math_approx.h ****       r += 1;
  89              		.loc 1 114 0
  90 004a FB68     		ldr	r3, [r7, #12]
  91 004c 0133     		adds	r3, r3, #1
  92 004e FB60     		str	r3, [r7, #12]
  93              	.L5:
 115:STM32F10x_Speex_Lib/libspeex/math_approx.h ****    }
 116:STM32F10x_Speex_Lib/libspeex/math_approx.h ****    return r;
  94              		.loc 1 116 0
  95 0050 FB68     		ldr	r3, [r7, #12]
  96 0052 1BB2     		sxth	r3, r3
 117:STM32F10x_Speex_Lib/libspeex/math_approx.h **** }
  97              		.loc 1 117 0
  98 0054 1846     		mov	r0, r3
  99 0056 1437     		adds	r7, r7, #20
 100              	.LCFI3:
 101              		.cfi_def_cfa_offset 4
 102 0058 BD46     		mov	sp, r7
 103              	.LCFI4:
 104              		.cfi_def_cfa_register 13
 105              		@ sp needed
 106 005a 80BC     		pop	{r7}
 107              	.LCFI5:
 108              		.cfi_restore 7
 109              		.cfi_def_cfa_offset 0
 110 005c 7047     		bx	lr
 111              		.cfi_endproc
 112              	.LFE1:
ARM GAS  /var/folders/kh/x4vltyy52lbg7p4pcyglc5080000gp/T//cc2IG9vv.s 			page 5


 114 005e 00BF     		.section	.text.spx_sqrt,"ax",%progbits
 115              		.align	2
 116              		.thumb
 117              		.thumb_func
 119              	spx_sqrt:
 120              	.LFB3:
 118:STM32F10x_Speex_Lib/libspeex/math_approx.h **** 
 119:STM32F10x_Speex_Lib/libspeex/math_approx.h **** #ifdef FIXED_POINT
 120:STM32F10x_Speex_Lib/libspeex/math_approx.h **** 
 121:STM32F10x_Speex_Lib/libspeex/math_approx.h **** /** Generate a pseudo-random number */
 122:STM32F10x_Speex_Lib/libspeex/math_approx.h **** static inline spx_word16_t speex_rand(spx_word16_t std, spx_int32_t *seed)
 123:STM32F10x_Speex_Lib/libspeex/math_approx.h **** {
 124:STM32F10x_Speex_Lib/libspeex/math_approx.h ****    spx_word32_t res;
 125:STM32F10x_Speex_Lib/libspeex/math_approx.h ****    *seed = 1664525 * *seed + 1013904223;
 126:STM32F10x_Speex_Lib/libspeex/math_approx.h ****    res = MULT16_16(EXTRACT16(SHR32(*seed,16)),std);
 127:STM32F10x_Speex_Lib/libspeex/math_approx.h ****    return EXTRACT16(PSHR32(SUB32(res, SHR32(res, 3)),14));
 128:STM32F10x_Speex_Lib/libspeex/math_approx.h **** }
 129:STM32F10x_Speex_Lib/libspeex/math_approx.h **** 
 130:STM32F10x_Speex_Lib/libspeex/math_approx.h **** /* sqrt(x) ~= 0.22178 + 1.29227*x - 0.77070*x^2 + 0.25723*x^3 (for .25 < x < 1) */
 131:STM32F10x_Speex_Lib/libspeex/math_approx.h **** /*#define C0 3634
 132:STM32F10x_Speex_Lib/libspeex/math_approx.h **** #define C1 21173
 133:STM32F10x_Speex_Lib/libspeex/math_approx.h **** #define C2 -12627
 134:STM32F10x_Speex_Lib/libspeex/math_approx.h **** #define C3 4215*/
 135:STM32F10x_Speex_Lib/libspeex/math_approx.h **** 
 136:STM32F10x_Speex_Lib/libspeex/math_approx.h **** /* sqrt(x) ~= 0.22178 + 1.29227*x - 0.77070*x^2 + 0.25659*x^3 (for .25 < x < 1) */
 137:STM32F10x_Speex_Lib/libspeex/math_approx.h **** #define C0 3634
 138:STM32F10x_Speex_Lib/libspeex/math_approx.h **** #define C1 21173
 139:STM32F10x_Speex_Lib/libspeex/math_approx.h **** #define C2 -12627
 140:STM32F10x_Speex_Lib/libspeex/math_approx.h **** #define C3 4204
 141:STM32F10x_Speex_Lib/libspeex/math_approx.h **** 
 142:STM32F10x_Speex_Lib/libspeex/math_approx.h **** static inline spx_word16_t spx_sqrt(spx_word32_t x)
 143:STM32F10x_Speex_Lib/libspeex/math_approx.h **** {
 121              		.loc 1 143 0
 122              		.cfi_startproc
 123              		@ args = 0, pretend = 0, frame = 16
 124              		@ frame_needed = 1, uses_anonymous_args = 0
 125 0000 80B5     		push	{r7, lr}
 126              	.LCFI6:
 127              		.cfi_def_cfa_offset 8
 128              		.cfi_offset 7, -8
 129              		.cfi_offset 14, -4
 130 0002 84B0     		sub	sp, sp, #16
 131              	.LCFI7:
 132              		.cfi_def_cfa_offset 24
 133 0004 00AF     		add	r7, sp, #0
 134              	.LCFI8:
 135              		.cfi_def_cfa_register 7
 136 0006 7860     		str	r0, [r7, #4]
 144:STM32F10x_Speex_Lib/libspeex/math_approx.h ****    int k;
 145:STM32F10x_Speex_Lib/libspeex/math_approx.h ****    spx_word32_t rt;
 146:STM32F10x_Speex_Lib/libspeex/math_approx.h ****    k = spx_ilog4(x)-6;
 137              		.loc 1 146 0
 138 0008 7B68     		ldr	r3, [r7, #4]
 139 000a 1846     		mov	r0, r3
 140 000c FFF7FEFF 		bl	spx_ilog4
 141 0010 0346     		mov	r3, r0
 142 0012 063B     		subs	r3, r3, #6
ARM GAS  /var/folders/kh/x4vltyy52lbg7p4pcyglc5080000gp/T//cc2IG9vv.s 			page 6


 143 0014 FB60     		str	r3, [r7, #12]
 147:STM32F10x_Speex_Lib/libspeex/math_approx.h ****    x = VSHR32(x, (k<<1));
 144              		.loc 1 147 0
 145 0016 FB68     		ldr	r3, [r7, #12]
 146 0018 5B00     		lsls	r3, r3, #1
 147 001a 002B     		cmp	r3, #0
 148 001c 05DD     		ble	.L8
 149              		.loc 1 147 0 is_stmt 0 discriminator 1
 150 001e FB68     		ldr	r3, [r7, #12]
 151 0020 5B00     		lsls	r3, r3, #1
 152 0022 7A68     		ldr	r2, [r7, #4]
 153 0024 42FA03F3 		asr	r3, r2, r3
 154 0028 05E0     		b	.L9
 155              	.L8:
 156              		.loc 1 147 0 discriminator 2
 157 002a FB68     		ldr	r3, [r7, #12]
 158 002c 5B00     		lsls	r3, r3, #1
 159 002e 5B42     		negs	r3, r3
 160 0030 7A68     		ldr	r2, [r7, #4]
 161 0032 02FA03F3 		lsl	r3, r2, r3
 162              	.L9:
 163              		.loc 1 147 0 discriminator 4
 164 0036 7B60     		str	r3, [r7, #4]
 148:STM32F10x_Speex_Lib/libspeex/math_approx.h ****    rt = ADD16(C0, MULT16_16_Q14(x, ADD16(C1, MULT16_16_Q14(x, ADD16(C2, MULT16_16_Q14(x, (C3)))))))
 165              		.loc 1 148 0 is_stmt 1 discriminator 4
 166 0038 7B68     		ldr	r3, [r7, #4]
 167 003a 1BB2     		sxth	r3, r3
 168 003c 1A46     		mov	r2, r3
 169 003e 7B68     		ldr	r3, [r7, #4]
 170 0040 1BB2     		sxth	r3, r3
 171 0042 1946     		mov	r1, r3
 172 0044 7B68     		ldr	r3, [r7, #4]
 173 0046 1BB2     		sxth	r3, r3
 174 0048 1846     		mov	r0, r3
 175 004a 41F26C03 		movw	r3, #4204
 176 004e 03FB00F3 		mul	r3, r3, r0
 177 0052 9B13     		asrs	r3, r3, #14
 178 0054 9BB2     		uxth	r3, r3
 179 0056 A3F54553 		sub	r3, r3, #12608
 180 005a 133B     		subs	r3, r3, #19
 181 005c 9BB2     		uxth	r3, r3
 182 005e 1BB2     		sxth	r3, r3
 183 0060 03FB01F3 		mul	r3, r3, r1
 184 0064 9B13     		asrs	r3, r3, #14
 185 0066 9BB2     		uxth	r3, r3
 186 0068 03F5A543 		add	r3, r3, #21120
 187 006c 3533     		adds	r3, r3, #53
 188 006e 9BB2     		uxth	r3, r3
 189 0070 1BB2     		sxth	r3, r3
 190 0072 03FB02F3 		mul	r3, r3, r2
 191 0076 9B13     		asrs	r3, r3, #14
 192 0078 9BB2     		uxth	r3, r3
 193 007a 03F63263 		addw	r3, r3, #3634
 194 007e 9BB2     		uxth	r3, r3
 195 0080 1BB2     		sxth	r3, r3
 196 0082 BB60     		str	r3, [r7, #8]
 149:STM32F10x_Speex_Lib/libspeex/math_approx.h ****    rt = VSHR32(rt,7-k);
ARM GAS  /var/folders/kh/x4vltyy52lbg7p4pcyglc5080000gp/T//cc2IG9vv.s 			page 7


 197              		.loc 1 149 0 discriminator 4
 198 0084 FB68     		ldr	r3, [r7, #12]
 199 0086 C3F10703 		rsb	r3, r3, #7
 200 008a 002B     		cmp	r3, #0
 201 008c 06DD     		ble	.L10
 202              		.loc 1 149 0 is_stmt 0 discriminator 1
 203 008e FB68     		ldr	r3, [r7, #12]
 204 0090 C3F10703 		rsb	r3, r3, #7
 205 0094 BA68     		ldr	r2, [r7, #8]
 206 0096 42FA03F3 		asr	r3, r2, r3
 207 009a 04E0     		b	.L11
 208              	.L10:
 209              		.loc 1 149 0 discriminator 2
 210 009c FB68     		ldr	r3, [r7, #12]
 211 009e 073B     		subs	r3, r3, #7
 212 00a0 BA68     		ldr	r2, [r7, #8]
 213 00a2 02FA03F3 		lsl	r3, r2, r3
 214              	.L11:
 215              		.loc 1 149 0 discriminator 4
 216 00a6 BB60     		str	r3, [r7, #8]
 150:STM32F10x_Speex_Lib/libspeex/math_approx.h ****    return rt;
 217              		.loc 1 150 0 is_stmt 1 discriminator 4
 218 00a8 BB68     		ldr	r3, [r7, #8]
 219 00aa 1BB2     		sxth	r3, r3
 151:STM32F10x_Speex_Lib/libspeex/math_approx.h **** }
 220              		.loc 1 151 0 discriminator 4
 221 00ac 1846     		mov	r0, r3
 222 00ae 1037     		adds	r7, r7, #16
 223              	.LCFI9:
 224              		.cfi_def_cfa_offset 8
 225 00b0 BD46     		mov	sp, r7
 226              	.LCFI10:
 227              		.cfi_def_cfa_register 13
 228              		@ sp needed
 229 00b2 80BD     		pop	{r7, pc}
 230              		.cfi_endproc
 231              	.LFE3:
 233              		.section	.rodata
 234              		.align	2
 235              	.LC0:
 236 0000 0000     		.short	0
 237 0002 0100     		.short	1
 238 0004 F7FF     		.short	-9
 239 0006 E8FF     		.short	-24
 240 0008 1300     		.short	19
 241 000a 1C00     		.short	28
 242 000c F7FF     		.short	-9
 243 000e 1800     		.short	24
 244 0010 2100     		.short	33
 245 0012 0A00     		.short	10
 246 0014 FAFF     		.short	-6
 247 0016 0B00     		.short	11
 248 0018 2000     		.short	32
 249 001a EBFF     		.short	-21
 250 001c FBFF     		.short	-5
 251 001e 0D00     		.short	13
 252 0020 2600     		.short	38
ARM GAS  /var/folders/kh/x4vltyy52lbg7p4pcyglc5080000gp/T//cc2IG9vv.s 			page 8


 253 0022 FFFF     		.short	-1
 254 0024 F8FF     		.short	-8
 255 0026 0F00     		.short	15
 256 0028 0100     		.short	1
 257 002a 0900     		.short	9
 258 002c F5FF     		.short	-11
 259 002e FEFF     		.short	-2
 260 0030 1000     		.short	16
 261 0032 1200     		.short	18
 262 0034 0100     		.short	1
 263 0036 0B00     		.short	11
 264 0038 F1FF     		.short	-15
 265 003a F2FF     		.short	-14
 266 003c 0400     		.short	4
 267 003e 1600     		.short	22
 268              		.align	2
 269              	.LC1:
 270 0040 0000     		.short	0
 271 0042 E6FF     		.short	-26
 272 0044 0800     		.short	8
 273 0046 0A00     		.short	10
 274 0048 4100     		.short	65
 275 004a F9FF     		.short	-7
 276 004c 2F00     		.short	47
 277 004e 1100     		.short	17
 278 0050 2200     		.short	34
 279 0052 DEFF     		.short	-34
 280 0054 3C00     		.short	60
 281 0056 2E00     		.short	46
 282 0058 3500     		.short	53
 283 005a D9FF     		.short	-39
 284 005c 1F00     		.short	31
 285 005e 1B00     		.short	27
 286 0060 6100     		.short	97
 287 0062 F0FF     		.short	-16
 288 0064 5900     		.short	89
 289 0066 2400     		.short	36
 290 0068 4600     		.short	70
 291 006a 3C00     		.short	60
 292 006c 3D00     		.short	61
 293 006e 2D00     		.short	45
 294 0070 2F00     		.short	47
 295 0072 CEFF     		.short	-50
 296 0074 3900     		.short	57
 297 0076 2500     		.short	37
 298 0078 E1FF     		.short	-31
 299 007a 2C00     		.short	44
 300 007c 0F00     		.short	15
 301 007e 2E00     		.short	46
 302              		.align	2
 303              	.LC2:
 304 0080 0000     		.short	0
 305 0082 1000     		.short	16
 306 0084 F5FF     		.short	-11
 307 0086 E9FF     		.short	-23
 308 0088 F7FF     		.short	-9
 309 008a 1700     		.short	23
ARM GAS  /var/folders/kh/x4vltyy52lbg7p4pcyglc5080000gp/T//cc2IG9vv.s 			page 9


 310 008c 1400     		.short	20
 311 008e 1400     		.short	20
 312 0090 F4FF     		.short	-12
 313 0092 F6FF     		.short	-10
 314 0094 0900     		.short	9
 315 0096 FBFF     		.short	-5
 316 0098 EEFF     		.short	-18
 317 009a 0500     		.short	5
 318 009c 0D00     		.short	13
 319 009e 0400     		.short	4
 320 00a0 F4FF     		.short	-12
 321 00a2 FFFF     		.short	-1
 322 00a4 1200     		.short	18
 323 00a6 F3FF     		.short	-13
 324 00a8 FFFF     		.short	-1
 325 00aa F8FF     		.short	-8
 326 00ac 1400     		.short	20
 327 00ae 0900     		.short	9
 328 00b0 0500     		.short	5
 329 00b2 1100     		.short	17
 330 00b4 0000     		.short	0
 331 00b6 1B00     		.short	27
 332 00b8 EDFF     		.short	-19
 333 00ba 2300     		.short	35
 334 00bc 0300     		.short	3
 335 00be F8FF     		.short	-8
 336              		.align	2
 337              	.LC3:
 338 00c0 0000     		.short	0
 339 00c2 1600     		.short	22
 340 00c4 0E00     		.short	14
 341 00c6 1D00     		.short	29
 342 00c8 2F00     		.short	47
 343 00ca 1D00     		.short	29
 344 00cc 2600     		.short	38
 345 00ce 1F00     		.short	31
 346 00d0 2800     		.short	40
 347 00d2 1B00     		.short	27
 348 00d4 2600     		.short	38
 349 00d6 1F00     		.short	31
 350 00d8 3400     		.short	52
 351 00da 2100     		.short	33
 352 00dc 1900     		.short	25
 353 00de 1600     		.short	22
 354 00e0 4A00     		.short	74
 355 00e2 0900     		.short	9
 356 00e4 3A00     		.short	58
 357 00e6 2000     		.short	32
 358 00e8 2400     		.short	36
 359 00ea 2700     		.short	39
 360 00ec 2E00     		.short	46
 361 00ee 1C00     		.short	28
 362 00f0 2200     		.short	34
 363 00f2 2B00     		.short	43
 364 00f4 1D00     		.short	29
 365 00f6 2600     		.short	38
 366 00f8 2100     		.short	33
ARM GAS  /var/folders/kh/x4vltyy52lbg7p4pcyglc5080000gp/T//cc2IG9vv.s 			page 10


 367 00fa 2F00     		.short	47
 368 00fc 0B00     		.short	11
 369 00fe 2600     		.short	38
 370              		.section	.text.pitch_gain_search_3tap_vq,"ax",%progbits
 371              		.align	2
 372              		.global	pitch_gain_search_3tap_vq
 373              		.thumb
 374              		.thumb_func
 376              	pitch_gain_search_3tap_vq:
 377              	.LFB21:
 378              		.file 2 "STM32F10x_Speex_Lib/STM32/libspeex/gcc/ltp_cortexM3.h"
   1:STM32F10x_Speex_Lib/STM32/libspeex/gcc/ltp_cortexM3.h **** /* Copyright (C) 2008 STMicroelectronics, MCD */
   2:STM32F10x_Speex_Lib/STM32/libspeex/gcc/ltp_cortexM3.h **** /*
   3:STM32F10x_Speex_Lib/STM32/libspeex/gcc/ltp_cortexM3.h **** 
   4:STM32F10x_Speex_Lib/STM32/libspeex/gcc/ltp_cortexM3.h ****    Redistribution and use in source and binary forms, with or without
   5:STM32F10x_Speex_Lib/STM32/libspeex/gcc/ltp_cortexM3.h ****    modification, are permitted provided that the following conditions
   6:STM32F10x_Speex_Lib/STM32/libspeex/gcc/ltp_cortexM3.h ****    are met:
   7:STM32F10x_Speex_Lib/STM32/libspeex/gcc/ltp_cortexM3.h ****    
   8:STM32F10x_Speex_Lib/STM32/libspeex/gcc/ltp_cortexM3.h ****    - Redistributions of source code must retain the above copyright
   9:STM32F10x_Speex_Lib/STM32/libspeex/gcc/ltp_cortexM3.h ****    notice, this list of conditions and the following disclaimer.
  10:STM32F10x_Speex_Lib/STM32/libspeex/gcc/ltp_cortexM3.h ****    
  11:STM32F10x_Speex_Lib/STM32/libspeex/gcc/ltp_cortexM3.h ****    - Redistributions in binary form must reproduce the above copyright
  12:STM32F10x_Speex_Lib/STM32/libspeex/gcc/ltp_cortexM3.h ****    notice, this list of conditions and the following disclaimer in the
  13:STM32F10x_Speex_Lib/STM32/libspeex/gcc/ltp_cortexM3.h ****    documentation and/or other materials provided with the distribution.
  14:STM32F10x_Speex_Lib/STM32/libspeex/gcc/ltp_cortexM3.h ****    
  15:STM32F10x_Speex_Lib/STM32/libspeex/gcc/ltp_cortexM3.h ****    - Neither the name of the Xiph.org Foundation nor the names of its
  16:STM32F10x_Speex_Lib/STM32/libspeex/gcc/ltp_cortexM3.h ****    contributors may be used to endorse or promote products derived from
  17:STM32F10x_Speex_Lib/STM32/libspeex/gcc/ltp_cortexM3.h ****    this software without specific prior written permission.
  18:STM32F10x_Speex_Lib/STM32/libspeex/gcc/ltp_cortexM3.h ****    
  19:STM32F10x_Speex_Lib/STM32/libspeex/gcc/ltp_cortexM3.h ****    THIS SOFTWARE IS PROVIDED BY THE COPYRIGHT HOLDERS AND CONTRIBUTORS
  20:STM32F10x_Speex_Lib/STM32/libspeex/gcc/ltp_cortexM3.h ****    ``AS IS'' AND ANY EXPRESS OR IMPLIED WARRANTIES, INCLUDING, BUT NOT
  21:STM32F10x_Speex_Lib/STM32/libspeex/gcc/ltp_cortexM3.h ****    LIMITED TO, THE IMPLIED WARRANTIES OF MERCHANTABILITY AND FITNESS FOR
  22:STM32F10x_Speex_Lib/STM32/libspeex/gcc/ltp_cortexM3.h ****    A PARTICULAR PURPOSE ARE DISCLAIMED.  IN NO EVENT SHALL THE FOUNDATION OR
  23:STM32F10x_Speex_Lib/STM32/libspeex/gcc/ltp_cortexM3.h ****    CONTRIBUTORS BE LIABLE FOR ANY DIRECT, INDIRECT, INCIDENTAL, SPECIAL,
  24:STM32F10x_Speex_Lib/STM32/libspeex/gcc/ltp_cortexM3.h ****    EXEMPLARY, OR CONSEQUENTIAL DAMAGES (INCLUDING, BUT NOT LIMITED TO,
  25:STM32F10x_Speex_Lib/STM32/libspeex/gcc/ltp_cortexM3.h ****    PROCUREMENT OF SUBSTITUTE GOODS OR SERVICES; LOSS OF USE, DATA, OR
  26:STM32F10x_Speex_Lib/STM32/libspeex/gcc/ltp_cortexM3.h ****    PROFITS; OR BUSINESS INTERRUPTION) HOWEVER CAUSED AND ON ANY THEORY OF
  27:STM32F10x_Speex_Lib/STM32/libspeex/gcc/ltp_cortexM3.h ****    LIABILITY, WHETHER IN CONTRACT, STRICT LIABILITY, OR TORT (INCLUDING
  28:STM32F10x_Speex_Lib/STM32/libspeex/gcc/ltp_cortexM3.h ****    NEGLIGENCE OR OTHERWISE) ARISING IN ANY WAY OUT OF THE USE OF THIS
  29:STM32F10x_Speex_Lib/STM32/libspeex/gcc/ltp_cortexM3.h ****    SOFTWARE, EVEN IF ADVISED OF THE POSSIBILITY OF SUCH DAMAGE.
  30:STM32F10x_Speex_Lib/STM32/libspeex/gcc/ltp_cortexM3.h **** */
  31:STM32F10x_Speex_Lib/STM32/libspeex/gcc/ltp_cortexM3.h **** 
  32:STM32F10x_Speex_Lib/STM32/libspeex/gcc/ltp_cortexM3.h **** #ifndef __LTP_M3_H
  33:STM32F10x_Speex_Lib/STM32/libspeex/gcc/ltp_cortexM3.h **** #define __LTP_M3_H
  34:STM32F10x_Speex_Lib/STM32/libspeex/gcc/ltp_cortexM3.h **** 
  35:STM32F10x_Speex_Lib/STM32/libspeex/gcc/ltp_cortexM3.h **** 
  36:STM32F10x_Speex_Lib/STM32/libspeex/gcc/ltp_cortexM3.h **** #define OVERRIDE_COMPUTE_PITCH_ERROR
  37:STM32F10x_Speex_Lib/STM32/libspeex/gcc/ltp_cortexM3.h **** #define OVERRIDE_PITCH_GAIN_SEARCH_3TAP_VQ
  38:STM32F10x_Speex_Lib/STM32/libspeex/gcc/ltp_cortexM3.h **** int pitch_gain_search_3tap_vq(
  39:STM32F10x_Speex_Lib/STM32/libspeex/gcc/ltp_cortexM3.h ****   const signed char *gain_cdbk,
  40:STM32F10x_Speex_Lib/STM32/libspeex/gcc/ltp_cortexM3.h ****   int                gain_cdbk_size,
  41:STM32F10x_Speex_Lib/STM32/libspeex/gcc/ltp_cortexM3.h ****   spx_word16_t      *C16,
  42:STM32F10x_Speex_Lib/STM32/libspeex/gcc/ltp_cortexM3.h ****   spx_word16_t       max_gain
  43:STM32F10x_Speex_Lib/STM32/libspeex/gcc/ltp_cortexM3.h **** )
  44:STM32F10x_Speex_Lib/STM32/libspeex/gcc/ltp_cortexM3.h **** {
 379              		.loc 2 44 0
 380              		.cfi_startproc
ARM GAS  /var/folders/kh/x4vltyy52lbg7p4pcyglc5080000gp/T//cc2IG9vv.s 			page 11


 381              		@ args = 0, pretend = 0, frame = 288
 382              		@ frame_needed = 1, uses_anonymous_args = 0
 383 0000 F0B5     		push	{r4, r5, r6, r7, lr}
 384              	.LCFI11:
 385              		.cfi_def_cfa_offset 20
 386              		.cfi_offset 4, -20
 387              		.cfi_offset 5, -16
 388              		.cfi_offset 6, -12
 389              		.cfi_offset 7, -8
 390              		.cfi_offset 14, -4
 391 0002 C9B0     		sub	sp, sp, #292
 392              	.LCFI12:
 393              		.cfi_def_cfa_offset 312
 394 0004 00AF     		add	r7, sp, #0
 395              	.LCFI13:
 396              		.cfi_def_cfa_register 7
 397 0006 07F10C04 		add	r4, r7, #12
 398 000a 2060     		str	r0, [r4]
 399 000c 07F10800 		add	r0, r7, #8
 400 0010 0160     		str	r1, [r0]
 401 0012 391D     		adds	r1, r7, #4
 402 0014 0A60     		str	r2, [r1]
 403 0016 1A46     		mov	r2, r3
 404 0018 BB1C     		adds	r3, r7, #2
 405 001a 1A80     		strh	r2, [r3]	@ movhi
  45:STM32F10x_Speex_Lib/STM32/libspeex/gcc/ltp_cortexM3.h ****   int                best_cdbk=0;
 406              		.loc 2 45 0
 407 001c 0023     		movs	r3, #0
 408 001e C7F81C31 		str	r3, [r7, #284]
  46:STM32F10x_Speex_Lib/STM32/libspeex/gcc/ltp_cortexM3.h ****   spx_word32_t       best_sum=-VERY_LARGE32;
 409              		.loc 2 46 0
 410 0022 CA4B     		ldr	r3, .L22
 411 0024 C7F81831 		str	r3, [r7, #280]
  47:STM32F10x_Speex_Lib/STM32/libspeex/gcc/ltp_cortexM3.h **** 
  48:STM32F10x_Speex_Lib/STM32/libspeex/gcc/ltp_cortexM3.h ****   int                i;
  49:STM32F10x_Speex_Lib/STM32/libspeex/gcc/ltp_cortexM3.h **** 
  50:STM32F10x_Speex_Lib/STM32/libspeex/gcc/ltp_cortexM3.h **** 
  51:STM32F10x_Speex_Lib/STM32/libspeex/gcc/ltp_cortexM3.h **** spx_word16_t g_0[32]={
 412              		.loc 2 51 0
 413 0028 C94B     		ldr	r3, .L22+4
 414 002a 1C46     		mov	r4, r3
 415 002c 07F1D006 		add	r6, r7, #208
 416 0030 04F1400E 		add	lr, r4, #64
 417              	.L14:
 418 0034 3546     		mov	r5, r6
 419 0036 2346     		mov	r3, r4
 420 0038 1868     		ldr	r0, [r3]	@ unaligned
 421 003a 5968     		ldr	r1, [r3, #4]	@ unaligned
 422 003c 9A68     		ldr	r2, [r3, #8]	@ unaligned
 423 003e DB68     		ldr	r3, [r3, #12]	@ unaligned
 424 0040 0FC5     		stmia	r5!, {r0, r1, r2, r3}
 425 0042 1034     		adds	r4, r4, #16
 426 0044 1036     		adds	r6, r6, #16
 427 0046 7445     		cmp	r4, lr
 428 0048 F4D1     		bne	.L14
  52:STM32F10x_Speex_Lib/STM32/libspeex/gcc/ltp_cortexM3.h **** 0, 1, -9, -24, 
  53:STM32F10x_Speex_Lib/STM32/libspeex/gcc/ltp_cortexM3.h **** 19, 28, -9, 24, 
ARM GAS  /var/folders/kh/x4vltyy52lbg7p4pcyglc5080000gp/T//cc2IG9vv.s 			page 12


  54:STM32F10x_Speex_Lib/STM32/libspeex/gcc/ltp_cortexM3.h **** 33, 10, -6, 11, 
  55:STM32F10x_Speex_Lib/STM32/libspeex/gcc/ltp_cortexM3.h **** 32, -21, -5, 13, 
  56:STM32F10x_Speex_Lib/STM32/libspeex/gcc/ltp_cortexM3.h **** 38, -1, -8, 15,
  57:STM32F10x_Speex_Lib/STM32/libspeex/gcc/ltp_cortexM3.h **** 1, 9, -11, -2, 
  58:STM32F10x_Speex_Lib/STM32/libspeex/gcc/ltp_cortexM3.h **** 16, 18, 1, 11,
  59:STM32F10x_Speex_Lib/STM32/libspeex/gcc/ltp_cortexM3.h **** -15, -14, 4, 22};
  60:STM32F10x_Speex_Lib/STM32/libspeex/gcc/ltp_cortexM3.h **** 
  61:STM32F10x_Speex_Lib/STM32/libspeex/gcc/ltp_cortexM3.h **** spx_word16_t g_1[32]={
 429              		.loc 2 61 0
 430 004a C24B     		ldr	r3, .L22+8
 431 004c 1C46     		mov	r4, r3
 432 004e 07F19006 		add	r6, r7, #144
 433 0052 04F1400E 		add	lr, r4, #64
 434              	.L15:
 435 0056 3546     		mov	r5, r6
 436 0058 2346     		mov	r3, r4
 437 005a 1868     		ldr	r0, [r3]	@ unaligned
 438 005c 5968     		ldr	r1, [r3, #4]	@ unaligned
 439 005e 9A68     		ldr	r2, [r3, #8]	@ unaligned
 440 0060 DB68     		ldr	r3, [r3, #12]	@ unaligned
 441 0062 0FC5     		stmia	r5!, {r0, r1, r2, r3}
 442 0064 1034     		adds	r4, r4, #16
 443 0066 1036     		adds	r6, r6, #16
 444 0068 7445     		cmp	r4, lr
 445 006a F4D1     		bne	.L15
  62:STM32F10x_Speex_Lib/STM32/libspeex/gcc/ltp_cortexM3.h **** 0, -26, 8, 10, 
  63:STM32F10x_Speex_Lib/STM32/libspeex/gcc/ltp_cortexM3.h **** 65, -7, 47, 17, 
  64:STM32F10x_Speex_Lib/STM32/libspeex/gcc/ltp_cortexM3.h **** 34, -34, 60, 46, 
  65:STM32F10x_Speex_Lib/STM32/libspeex/gcc/ltp_cortexM3.h **** 53, -39, 31, 27, 
  66:STM32F10x_Speex_Lib/STM32/libspeex/gcc/ltp_cortexM3.h **** 97, -16, 89, 36, 
  67:STM32F10x_Speex_Lib/STM32/libspeex/gcc/ltp_cortexM3.h **** 70, 60, 61, 45, 
  68:STM32F10x_Speex_Lib/STM32/libspeex/gcc/ltp_cortexM3.h **** 47, -50, 57, 37, 
  69:STM32F10x_Speex_Lib/STM32/libspeex/gcc/ltp_cortexM3.h **** -31, 44, 15, 46};
  70:STM32F10x_Speex_Lib/STM32/libspeex/gcc/ltp_cortexM3.h **** 
  71:STM32F10x_Speex_Lib/STM32/libspeex/gcc/ltp_cortexM3.h **** spx_word16_t g_2[32]={
 446              		.loc 2 71 0
 447 006c BA4B     		ldr	r3, .L22+12
 448 006e 1C46     		mov	r4, r3
 449 0070 07F15006 		add	r6, r7, #80
 450 0074 04F1400E 		add	lr, r4, #64
 451              	.L16:
 452 0078 3546     		mov	r5, r6
 453 007a 2346     		mov	r3, r4
 454 007c 1868     		ldr	r0, [r3]	@ unaligned
 455 007e 5968     		ldr	r1, [r3, #4]	@ unaligned
 456 0080 9A68     		ldr	r2, [r3, #8]	@ unaligned
 457 0082 DB68     		ldr	r3, [r3, #12]	@ unaligned
 458 0084 0FC5     		stmia	r5!, {r0, r1, r2, r3}
 459 0086 1034     		adds	r4, r4, #16
 460 0088 1036     		adds	r6, r6, #16
 461 008a 7445     		cmp	r4, lr
 462 008c F4D1     		bne	.L16
  72:STM32F10x_Speex_Lib/STM32/libspeex/gcc/ltp_cortexM3.h **** 0, 16, -11, -23, 
  73:STM32F10x_Speex_Lib/STM32/libspeex/gcc/ltp_cortexM3.h **** -9, 23, 20, 20, 
  74:STM32F10x_Speex_Lib/STM32/libspeex/gcc/ltp_cortexM3.h **** -12, -10, 9, -5, 
  75:STM32F10x_Speex_Lib/STM32/libspeex/gcc/ltp_cortexM3.h **** -18, 5, 13, 4, 
  76:STM32F10x_Speex_Lib/STM32/libspeex/gcc/ltp_cortexM3.h **** -12, -1, 18, -13, 
ARM GAS  /var/folders/kh/x4vltyy52lbg7p4pcyglc5080000gp/T//cc2IG9vv.s 			page 13


  77:STM32F10x_Speex_Lib/STM32/libspeex/gcc/ltp_cortexM3.h **** -1, -8, 20, 9, 
  78:STM32F10x_Speex_Lib/STM32/libspeex/gcc/ltp_cortexM3.h **** 5, 17, 0, 27, 
  79:STM32F10x_Speex_Lib/STM32/libspeex/gcc/ltp_cortexM3.h **** -19, 35, 3, -8};
  80:STM32F10x_Speex_Lib/STM32/libspeex/gcc/ltp_cortexM3.h **** 
  81:STM32F10x_Speex_Lib/STM32/libspeex/gcc/ltp_cortexM3.h **** spx_word16_t gain_sum[32]={
 463              		.loc 2 81 0
 464 008e 07F11003 		add	r3, r7, #16
 465 0092 B24A     		ldr	r2, .L22+16
 466 0094 1446     		mov	r4, r2
 467 0096 1E46     		mov	r6, r3
 468 0098 04F1400E 		add	lr, r4, #64
 469              	.L17:
 470 009c 3546     		mov	r5, r6
 471 009e 2346     		mov	r3, r4
 472 00a0 1868     		ldr	r0, [r3]	@ unaligned
 473 00a2 5968     		ldr	r1, [r3, #4]	@ unaligned
 474 00a4 9A68     		ldr	r2, [r3, #8]	@ unaligned
 475 00a6 DB68     		ldr	r3, [r3, #12]	@ unaligned
 476 00a8 0FC5     		stmia	r5!, {r0, r1, r2, r3}
 477 00aa 1034     		adds	r4, r4, #16
 478 00ac 1036     		adds	r6, r6, #16
 479 00ae 7445     		cmp	r4, lr
 480 00b0 F4D1     		bne	.L17
  82:STM32F10x_Speex_Lib/STM32/libspeex/gcc/ltp_cortexM3.h **** 0, 22, 14, 29, 
  83:STM32F10x_Speex_Lib/STM32/libspeex/gcc/ltp_cortexM3.h **** 47, 29, 38, 31, 
  84:STM32F10x_Speex_Lib/STM32/libspeex/gcc/ltp_cortexM3.h **** 40, 27, 38, 31, 
  85:STM32F10x_Speex_Lib/STM32/libspeex/gcc/ltp_cortexM3.h **** 52, 33, 25, 22, 
  86:STM32F10x_Speex_Lib/STM32/libspeex/gcc/ltp_cortexM3.h **** 74, 9, 58, 32, 
  87:STM32F10x_Speex_Lib/STM32/libspeex/gcc/ltp_cortexM3.h **** 36, 39, 46, 28, 
  88:STM32F10x_Speex_Lib/STM32/libspeex/gcc/ltp_cortexM3.h **** 34, 43, 29, 38, 
  89:STM32F10x_Speex_Lib/STM32/libspeex/gcc/ltp_cortexM3.h **** 33, 47, 11, 38};
  90:STM32F10x_Speex_Lib/STM32/libspeex/gcc/ltp_cortexM3.h **** 
  91:STM32F10x_Speex_Lib/STM32/libspeex/gcc/ltp_cortexM3.h ****   for (i=0;i<32;i++) 
 481              		.loc 2 91 0
 482 00b2 0023     		movs	r3, #0
 483 00b4 C7F81431 		str	r3, [r7, #276]
 484 00b8 3CE1     		b	.L18
 485              	.L20:
 486              	.LBB2:
  92:STM32F10x_Speex_Lib/STM32/libspeex/gcc/ltp_cortexM3.h ****   {
  93:STM32F10x_Speex_Lib/STM32/libspeex/gcc/ltp_cortexM3.h ****     
  94:STM32F10x_Speex_Lib/STM32/libspeex/gcc/ltp_cortexM3.h **** 	spx_word32_t sum = 0;     
 487              		.loc 2 94 0
 488 00ba 0023     		movs	r3, #0
 489 00bc C7F81031 		str	r3, [r7, #272]
  95:STM32F10x_Speex_Lib/STM32/libspeex/gcc/ltp_cortexM3.h ****          
  96:STM32F10x_Speex_Lib/STM32/libspeex/gcc/ltp_cortexM3.h ****     sum = ADD32(sum,MULT16_16(MULT16_16_16(g_0[i],64),C16[0]));
 490              		.loc 2 96 0
 491 00c0 D7F81431 		ldr	r3, [r7, #276]
 492 00c4 5B00     		lsls	r3, r3, #1
 493 00c6 07F59072 		add	r2, r7, #288
 494 00ca 1344     		add	r3, r3, r2
 495 00cc 33F9503C 		ldrsh	r3, [r3, #-80]
 496 00d0 9BB2     		uxth	r3, r3
 497 00d2 9B01     		lsls	r3, r3, #6
 498 00d4 9BB2     		uxth	r3, r3
 499 00d6 1BB2     		sxth	r3, r3
ARM GAS  /var/folders/kh/x4vltyy52lbg7p4pcyglc5080000gp/T//cc2IG9vv.s 			page 14


 500 00d8 1A46     		mov	r2, r3
 501 00da 3B1D     		adds	r3, r7, #4
 502 00dc 1B68     		ldr	r3, [r3]
 503 00de B3F90030 		ldrsh	r3, [r3]
 504 00e2 03FB02F3 		mul	r3, r3, r2
 505 00e6 D7F81021 		ldr	r2, [r7, #272]
 506 00ea 1344     		add	r3, r3, r2
 507 00ec C7F81031 		str	r3, [r7, #272]
  97:STM32F10x_Speex_Lib/STM32/libspeex/gcc/ltp_cortexM3.h ****     sum = ADD32(sum,MULT16_16(MULT16_16_16(g_1[i],64),C16[1]));
 508              		.loc 2 97 0
 509 00f0 D7F81431 		ldr	r3, [r7, #276]
 510 00f4 5B00     		lsls	r3, r3, #1
 511 00f6 07F59072 		add	r2, r7, #288
 512 00fa 1344     		add	r3, r3, r2
 513 00fc 33F9903C 		ldrsh	r3, [r3, #-144]
 514 0100 9BB2     		uxth	r3, r3
 515 0102 9B01     		lsls	r3, r3, #6
 516 0104 9BB2     		uxth	r3, r3
 517 0106 1BB2     		sxth	r3, r3
 518 0108 1A46     		mov	r2, r3
 519 010a 3B1D     		adds	r3, r7, #4
 520 010c 1B68     		ldr	r3, [r3]
 521 010e 0233     		adds	r3, r3, #2
 522 0110 B3F90030 		ldrsh	r3, [r3]
 523 0114 03FB02F3 		mul	r3, r3, r2
 524 0118 D7F81021 		ldr	r2, [r7, #272]
 525 011c 1344     		add	r3, r3, r2
 526 011e C7F81031 		str	r3, [r7, #272]
  98:STM32F10x_Speex_Lib/STM32/libspeex/gcc/ltp_cortexM3.h ****     sum = ADD32(sum,MULT16_16(MULT16_16_16(g_2[i],64),C16[2]));
 527              		.loc 2 98 0
 528 0122 D7F81431 		ldr	r3, [r7, #276]
 529 0126 5B00     		lsls	r3, r3, #1
 530 0128 07F59072 		add	r2, r7, #288
 531 012c 1344     		add	r3, r3, r2
 532 012e 33F9D03C 		ldrsh	r3, [r3, #-208]
 533 0132 9BB2     		uxth	r3, r3
 534 0134 9B01     		lsls	r3, r3, #6
 535 0136 9BB2     		uxth	r3, r3
 536 0138 1BB2     		sxth	r3, r3
 537 013a 1A46     		mov	r2, r3
 538 013c 3B1D     		adds	r3, r7, #4
 539 013e 1B68     		ldr	r3, [r3]
 540 0140 0433     		adds	r3, r3, #4
 541 0142 B3F90030 		ldrsh	r3, [r3]
 542 0146 03FB02F3 		mul	r3, r3, r2
 543 014a D7F81021 		ldr	r2, [r7, #272]
 544 014e 1344     		add	r3, r3, r2
 545 0150 C7F81031 		str	r3, [r7, #272]
  99:STM32F10x_Speex_Lib/STM32/libspeex/gcc/ltp_cortexM3.h ****     sum = SUB32(sum,MULT16_16(MULT16_16_16(g_0[i],g_1[i]),C16[3]));
 546              		.loc 2 99 0
 547 0154 D7F81431 		ldr	r3, [r7, #276]
 548 0158 5B00     		lsls	r3, r3, #1
 549 015a 07F59072 		add	r2, r7, #288
 550 015e 1344     		add	r3, r3, r2
 551 0160 33F9503C 		ldrsh	r3, [r3, #-80]
 552 0164 9AB2     		uxth	r2, r3
 553 0166 D7F81431 		ldr	r3, [r7, #276]
ARM GAS  /var/folders/kh/x4vltyy52lbg7p4pcyglc5080000gp/T//cc2IG9vv.s 			page 15


 554 016a 5B00     		lsls	r3, r3, #1
 555 016c 07F59071 		add	r1, r7, #288
 556 0170 0B44     		add	r3, r3, r1
 557 0172 33F9903C 		ldrsh	r3, [r3, #-144]
 558 0176 9BB2     		uxth	r3, r3
 559 0178 03FB02F3 		mul	r3, r3, r2
 560 017c 9BB2     		uxth	r3, r3
 561 017e 1BB2     		sxth	r3, r3
 562 0180 1A46     		mov	r2, r3
 563 0182 3B1D     		adds	r3, r7, #4
 564 0184 1B68     		ldr	r3, [r3]
 565 0186 0633     		adds	r3, r3, #6
 566 0188 B3F90030 		ldrsh	r3, [r3]
 567 018c 03FB02F3 		mul	r3, r3, r2
 568 0190 D7F81021 		ldr	r2, [r7, #272]
 569 0194 D31A     		subs	r3, r2, r3
 570 0196 C7F81031 		str	r3, [r7, #272]
 100:STM32F10x_Speex_Lib/STM32/libspeex/gcc/ltp_cortexM3.h ****     sum = SUB32(sum,MULT16_16(MULT16_16_16(g_2[i],g_1[i]),C16[4]));
 571              		.loc 2 100 0
 572 019a D7F81431 		ldr	r3, [r7, #276]
 573 019e 5B00     		lsls	r3, r3, #1
 574 01a0 07F59072 		add	r2, r7, #288
 575 01a4 1344     		add	r3, r3, r2
 576 01a6 33F9D03C 		ldrsh	r3, [r3, #-208]
 577 01aa 9AB2     		uxth	r2, r3
 578 01ac D7F81431 		ldr	r3, [r7, #276]
 579 01b0 5B00     		lsls	r3, r3, #1
 580 01b2 07F59071 		add	r1, r7, #288
 581 01b6 0B44     		add	r3, r3, r1
 582 01b8 33F9903C 		ldrsh	r3, [r3, #-144]
 583 01bc 9BB2     		uxth	r3, r3
 584 01be 03FB02F3 		mul	r3, r3, r2
 585 01c2 9BB2     		uxth	r3, r3
 586 01c4 1BB2     		sxth	r3, r3
 587 01c6 1A46     		mov	r2, r3
 588 01c8 3B1D     		adds	r3, r7, #4
 589 01ca 1B68     		ldr	r3, [r3]
 590 01cc 0833     		adds	r3, r3, #8
 591 01ce B3F90030 		ldrsh	r3, [r3]
 592 01d2 03FB02F3 		mul	r3, r3, r2
 593 01d6 D7F81021 		ldr	r2, [r7, #272]
 594 01da D31A     		subs	r3, r2, r3
 595 01dc C7F81031 		str	r3, [r7, #272]
 101:STM32F10x_Speex_Lib/STM32/libspeex/gcc/ltp_cortexM3.h ****     sum = SUB32(sum,MULT16_16(MULT16_16_16(g_2[i],g_0[i]),C16[5]));
 596              		.loc 2 101 0
 597 01e0 D7F81431 		ldr	r3, [r7, #276]
 598 01e4 5B00     		lsls	r3, r3, #1
 599 01e6 07F59072 		add	r2, r7, #288
 600 01ea 1344     		add	r3, r3, r2
 601 01ec 33F9D03C 		ldrsh	r3, [r3, #-208]
 602 01f0 9AB2     		uxth	r2, r3
 603 01f2 D7F81431 		ldr	r3, [r7, #276]
 604 01f6 5B00     		lsls	r3, r3, #1
 605 01f8 07F59071 		add	r1, r7, #288
 606 01fc 0B44     		add	r3, r3, r1
 607 01fe 33F9503C 		ldrsh	r3, [r3, #-80]
 608 0202 9BB2     		uxth	r3, r3
ARM GAS  /var/folders/kh/x4vltyy52lbg7p4pcyglc5080000gp/T//cc2IG9vv.s 			page 16


 609 0204 03FB02F3 		mul	r3, r3, r2
 610 0208 9BB2     		uxth	r3, r3
 611 020a 1BB2     		sxth	r3, r3
 612 020c 1A46     		mov	r2, r3
 613 020e 3B1D     		adds	r3, r7, #4
 614 0210 1B68     		ldr	r3, [r3]
 615 0212 0A33     		adds	r3, r3, #10
 616 0214 B3F90030 		ldrsh	r3, [r3]
 617 0218 03FB02F3 		mul	r3, r3, r2
 618 021c D7F81021 		ldr	r2, [r7, #272]
 619 0220 D31A     		subs	r3, r2, r3
 620 0222 C7F81031 		str	r3, [r7, #272]
 102:STM32F10x_Speex_Lib/STM32/libspeex/gcc/ltp_cortexM3.h ****     sum = SUB32(sum,MULT16_16(MULT16_16_16(g_0[i],g_0[i]),C16[6]));
 621              		.loc 2 102 0
 622 0226 D7F81431 		ldr	r3, [r7, #276]
 623 022a 5B00     		lsls	r3, r3, #1
 624 022c 07F59072 		add	r2, r7, #288
 625 0230 1344     		add	r3, r3, r2
 626 0232 33F9503C 		ldrsh	r3, [r3, #-80]
 627 0236 9AB2     		uxth	r2, r3
 628 0238 D7F81431 		ldr	r3, [r7, #276]
 629 023c 5B00     		lsls	r3, r3, #1
 630 023e 07F59071 		add	r1, r7, #288
 631 0242 0B44     		add	r3, r3, r1
 632 0244 33F9503C 		ldrsh	r3, [r3, #-80]
 633 0248 9BB2     		uxth	r3, r3
 634 024a 03FB02F3 		mul	r3, r3, r2
 635 024e 9BB2     		uxth	r3, r3
 636 0250 1BB2     		sxth	r3, r3
 637 0252 1A46     		mov	r2, r3
 638 0254 3B1D     		adds	r3, r7, #4
 639 0256 1B68     		ldr	r3, [r3]
 640 0258 0C33     		adds	r3, r3, #12
 641 025a B3F90030 		ldrsh	r3, [r3]
 642 025e 03FB02F3 		mul	r3, r3, r2
 643 0262 D7F81021 		ldr	r2, [r7, #272]
 644 0266 D31A     		subs	r3, r2, r3
 645 0268 C7F81031 		str	r3, [r7, #272]
 103:STM32F10x_Speex_Lib/STM32/libspeex/gcc/ltp_cortexM3.h ****     sum = SUB32(sum,MULT16_16(MULT16_16_16(g_1[i],g_1[i]),C16[7]));
 646              		.loc 2 103 0
 647 026c D7F81431 		ldr	r3, [r7, #276]
 648 0270 5B00     		lsls	r3, r3, #1
 649 0272 07F59072 		add	r2, r7, #288
 650 0276 1344     		add	r3, r3, r2
 651 0278 33F9903C 		ldrsh	r3, [r3, #-144]
 652 027c 9AB2     		uxth	r2, r3
 653 027e D7F81431 		ldr	r3, [r7, #276]
 654 0282 5B00     		lsls	r3, r3, #1
 655 0284 07F59071 		add	r1, r7, #288
 656 0288 0B44     		add	r3, r3, r1
 657 028a 33F9903C 		ldrsh	r3, [r3, #-144]
 658 028e 9BB2     		uxth	r3, r3
 659 0290 03FB02F3 		mul	r3, r3, r2
 660 0294 9BB2     		uxth	r3, r3
 661 0296 1BB2     		sxth	r3, r3
 662 0298 1A46     		mov	r2, r3
 663 029a 3B1D     		adds	r3, r7, #4
ARM GAS  /var/folders/kh/x4vltyy52lbg7p4pcyglc5080000gp/T//cc2IG9vv.s 			page 17


 664 029c 1B68     		ldr	r3, [r3]
 665 029e 0E33     		adds	r3, r3, #14
 666 02a0 B3F90030 		ldrsh	r3, [r3]
 667 02a4 03FB02F3 		mul	r3, r3, r2
 668 02a8 D7F81021 		ldr	r2, [r7, #272]
 669 02ac D31A     		subs	r3, r2, r3
 670 02ae C7F81031 		str	r3, [r7, #272]
 104:STM32F10x_Speex_Lib/STM32/libspeex/gcc/ltp_cortexM3.h ****     sum = SUB32(sum,MULT16_16(MULT16_16_16(g_2[i],g_2[i]),C16[8]));
 671              		.loc 2 104 0
 672 02b2 D7F81431 		ldr	r3, [r7, #276]
 673 02b6 5B00     		lsls	r3, r3, #1
 674 02b8 07F59072 		add	r2, r7, #288
 675 02bc 1344     		add	r3, r3, r2
 676 02be 33F9D03C 		ldrsh	r3, [r3, #-208]
 677 02c2 9AB2     		uxth	r2, r3
 678 02c4 D7F81431 		ldr	r3, [r7, #276]
 679 02c8 5B00     		lsls	r3, r3, #1
 680 02ca 07F59071 		add	r1, r7, #288
 681 02ce 0B44     		add	r3, r3, r1
 682 02d0 33F9D03C 		ldrsh	r3, [r3, #-208]
 683 02d4 9BB2     		uxth	r3, r3
 684 02d6 03FB02F3 		mul	r3, r3, r2
 685 02da 9BB2     		uxth	r3, r3
 686 02dc 1BB2     		sxth	r3, r3
 687 02de 1A46     		mov	r2, r3
 688 02e0 3B1D     		adds	r3, r7, #4
 689 02e2 1B68     		ldr	r3, [r3]
 690 02e4 1033     		adds	r3, r3, #16
 691 02e6 B3F90030 		ldrsh	r3, [r3]
 692 02ea 03FB02F3 		mul	r3, r3, r2
 693 02ee D7F81021 		ldr	r2, [r7, #272]
 694 02f2 D31A     		subs	r3, r2, r3
 695 02f4 C7F81031 		str	r3, [r7, #272]
 105:STM32F10x_Speex_Lib/STM32/libspeex/gcc/ltp_cortexM3.h ****          
 106:STM32F10x_Speex_Lib/STM32/libspeex/gcc/ltp_cortexM3.h ****     if (sum>best_sum && gain_sum[i]<=max_gain) {
 696              		.loc 2 106 0
 697 02f8 D7F81021 		ldr	r2, [r7, #272]
 698 02fc D7F81831 		ldr	r3, [r7, #280]
 699 0300 9A42     		cmp	r2, r3
 700 0302 12DD     		ble	.L19
 701              		.loc 2 106 0 is_stmt 0 discriminator 1
 702 0304 07F11003 		add	r3, r7, #16
 703 0308 D7F81421 		ldr	r2, [r7, #276]
 704 030c 33F91230 		ldrsh	r3, [r3, r2, lsl #1]
 705 0310 BA1C     		adds	r2, r7, #2
 706 0312 B2F90020 		ldrsh	r2, [r2]
 707 0316 9A42     		cmp	r2, r3
 708 0318 07DB     		blt	.L19
 107:STM32F10x_Speex_Lib/STM32/libspeex/gcc/ltp_cortexM3.h ****       best_sum=sum;
 709              		.loc 2 107 0 is_stmt 1
 710 031a D7F81031 		ldr	r3, [r7, #272]
 711 031e C7F81831 		str	r3, [r7, #280]
 108:STM32F10x_Speex_Lib/STM32/libspeex/gcc/ltp_cortexM3.h ****       best_cdbk=i;
 712              		.loc 2 108 0
 713 0322 D7F81431 		ldr	r3, [r7, #276]
 714 0326 C7F81C31 		str	r3, [r7, #284]
 715              	.L19:
ARM GAS  /var/folders/kh/x4vltyy52lbg7p4pcyglc5080000gp/T//cc2IG9vv.s 			page 18


 716              	.LBE2:
  91:STM32F10x_Speex_Lib/STM32/libspeex/gcc/ltp_cortexM3.h ****   {
 717              		.loc 2 91 0 discriminator 2
 718 032a D7F81431 		ldr	r3, [r7, #276]
 719 032e 0133     		adds	r3, r3, #1
 720 0330 C7F81431 		str	r3, [r7, #276]
 721              	.L18:
  91:STM32F10x_Speex_Lib/STM32/libspeex/gcc/ltp_cortexM3.h ****   {
 722              		.loc 2 91 0 is_stmt 0 discriminator 1
 723 0334 D7F81431 		ldr	r3, [r7, #276]
 724 0338 1F2B     		cmp	r3, #31
 725 033a 7FF7BEAE 		ble	.L20
 109:STM32F10x_Speex_Lib/STM32/libspeex/gcc/ltp_cortexM3.h ****     }
 110:STM32F10x_Speex_Lib/STM32/libspeex/gcc/ltp_cortexM3.h ****   }
 111:STM32F10x_Speex_Lib/STM32/libspeex/gcc/ltp_cortexM3.h **** 
 112:STM32F10x_Speex_Lib/STM32/libspeex/gcc/ltp_cortexM3.h ****   return best_cdbk;
 726              		.loc 2 112 0 is_stmt 1
 727 033e D7F81C31 		ldr	r3, [r7, #284]
 113:STM32F10x_Speex_Lib/STM32/libspeex/gcc/ltp_cortexM3.h **** }
 728              		.loc 2 113 0
 729 0342 1846     		mov	r0, r3
 730 0344 07F59277 		add	r7, r7, #292
 731              	.LCFI14:
 732              		.cfi_def_cfa_offset 20
 733 0348 BD46     		mov	sp, r7
 734              	.LCFI15:
 735              		.cfi_def_cfa_register 13
 736              		@ sp needed
 737 034a F0BD     		pop	{r4, r5, r6, r7, pc}
 738              	.L23:
 739              		.align	2
 740              	.L22:
 741 034c 01000080 		.word	-2147483647
 742 0350 00000000 		.word	.LC0
 743 0354 40000000 		.word	.LC1
 744 0358 80000000 		.word	.LC2
 745 035c C0000000 		.word	.LC3
 746              		.cfi_endproc
 747              	.LFE21:
 749              		.section	.text.pitch_xcorr,"ax",%progbits
 750              		.align	2
 751              		.global	pitch_xcorr
 752              		.thumb
 753              		.thumb_func
 755              	pitch_xcorr:
 756              	.LFB22:
 757              		.file 3 "STM32F10x_Speex_Lib/STM32/libspeex/ltp.c"
   1:STM32F10x_Speex_Lib/STM32/libspeex/ltp.c **** /* Copyright (C) 2002-2006 Jean-Marc Valin 
   2:STM32F10x_Speex_Lib/STM32/libspeex/ltp.c ****    File: ltp.c
   3:STM32F10x_Speex_Lib/STM32/libspeex/ltp.c ****    Long-Term Prediction functions
   4:STM32F10x_Speex_Lib/STM32/libspeex/ltp.c **** 
   5:STM32F10x_Speex_Lib/STM32/libspeex/ltp.c ****    Redistribution and use in source and binary forms, with or without
   6:STM32F10x_Speex_Lib/STM32/libspeex/ltp.c ****    modification, are permitted provided that the following conditions
   7:STM32F10x_Speex_Lib/STM32/libspeex/ltp.c ****    are met:
   8:STM32F10x_Speex_Lib/STM32/libspeex/ltp.c ****    
   9:STM32F10x_Speex_Lib/STM32/libspeex/ltp.c ****    - Redistributions of source code must retain the above copyright
  10:STM32F10x_Speex_Lib/STM32/libspeex/ltp.c ****    notice, this list of conditions and the following disclaimer.
ARM GAS  /var/folders/kh/x4vltyy52lbg7p4pcyglc5080000gp/T//cc2IG9vv.s 			page 19


  11:STM32F10x_Speex_Lib/STM32/libspeex/ltp.c ****    
  12:STM32F10x_Speex_Lib/STM32/libspeex/ltp.c ****    - Redistributions in binary form must reproduce the above copyright
  13:STM32F10x_Speex_Lib/STM32/libspeex/ltp.c ****    notice, this list of conditions and the following disclaimer in the
  14:STM32F10x_Speex_Lib/STM32/libspeex/ltp.c ****    documentation and/or other materials provided with the distribution.
  15:STM32F10x_Speex_Lib/STM32/libspeex/ltp.c ****    
  16:STM32F10x_Speex_Lib/STM32/libspeex/ltp.c ****    - Neither the name of the Xiph.org Foundation nor the names of its
  17:STM32F10x_Speex_Lib/STM32/libspeex/ltp.c ****    contributors may be used to endorse or promote products derived from
  18:STM32F10x_Speex_Lib/STM32/libspeex/ltp.c ****    this software without specific prior written permission.
  19:STM32F10x_Speex_Lib/STM32/libspeex/ltp.c ****    
  20:STM32F10x_Speex_Lib/STM32/libspeex/ltp.c ****    THIS SOFTWARE IS PROVIDED BY THE COPYRIGHT HOLDERS AND CONTRIBUTORS
  21:STM32F10x_Speex_Lib/STM32/libspeex/ltp.c ****    ``AS IS'' AND ANY EXPRESS OR IMPLIED WARRANTIES, INCLUDING, BUT NOT
  22:STM32F10x_Speex_Lib/STM32/libspeex/ltp.c ****    LIMITED TO, THE IMPLIED WARRANTIES OF MERCHANTABILITY AND FITNESS FOR
  23:STM32F10x_Speex_Lib/STM32/libspeex/ltp.c ****    A PARTICULAR PURPOSE ARE DISCLAIMED.  IN NO EVENT SHALL THE FOUNDATION OR
  24:STM32F10x_Speex_Lib/STM32/libspeex/ltp.c ****    CONTRIBUTORS BE LIABLE FOR ANY DIRECT, INDIRECT, INCIDENTAL, SPECIAL,
  25:STM32F10x_Speex_Lib/STM32/libspeex/ltp.c ****    EXEMPLARY, OR CONSEQUENTIAL DAMAGES (INCLUDING, BUT NOT LIMITED TO,
  26:STM32F10x_Speex_Lib/STM32/libspeex/ltp.c ****    PROCUREMENT OF SUBSTITUTE GOODS OR SERVICES; LOSS OF USE, DATA, OR
  27:STM32F10x_Speex_Lib/STM32/libspeex/ltp.c ****    PROFITS; OR BUSINESS INTERRUPTION) HOWEVER CAUSED AND ON ANY THEORY OF
  28:STM32F10x_Speex_Lib/STM32/libspeex/ltp.c ****    LIABILITY, WHETHER IN CONTRACT, STRICT LIABILITY, OR TORT (INCLUDING
  29:STM32F10x_Speex_Lib/STM32/libspeex/ltp.c ****    NEGLIGENCE OR OTHERWISE) ARISING IN ANY WAY OUT OF THE USE OF THIS
  30:STM32F10x_Speex_Lib/STM32/libspeex/ltp.c ****    SOFTWARE, EVEN IF ADVISED OF THE POSSIBILITY OF SUCH DAMAGE.
  31:STM32F10x_Speex_Lib/STM32/libspeex/ltp.c **** */
  32:STM32F10x_Speex_Lib/STM32/libspeex/ltp.c **** 
  33:STM32F10x_Speex_Lib/STM32/libspeex/ltp.c **** // #ifdef HAVE_CONFIG_H
  34:STM32F10x_Speex_Lib/STM32/libspeex/ltp.c **** #include "config.h"
  35:STM32F10x_Speex_Lib/STM32/libspeex/ltp.c **** // #endif
  36:STM32F10x_Speex_Lib/STM32/libspeex/ltp.c **** 
  37:STM32F10x_Speex_Lib/STM32/libspeex/ltp.c **** #include <math.h>
  38:STM32F10x_Speex_Lib/STM32/libspeex/ltp.c **** #include "ltp.h"
  39:STM32F10x_Speex_Lib/STM32/libspeex/ltp.c **** #include "stack_alloc.h"
  40:STM32F10x_Speex_Lib/STM32/libspeex/ltp.c **** #include "filters.h"
  41:STM32F10x_Speex_Lib/STM32/libspeex/ltp.c **** #include <speex/speex_bits.h>
  42:STM32F10x_Speex_Lib/STM32/libspeex/ltp.c **** #include "math_approx.h"
  43:STM32F10x_Speex_Lib/STM32/libspeex/ltp.c **** #include "os_support.h"
  44:STM32F10x_Speex_Lib/STM32/libspeex/ltp.c **** 
  45:STM32F10x_Speex_Lib/STM32/libspeex/ltp.c **** #ifndef NULL
  46:STM32F10x_Speex_Lib/STM32/libspeex/ltp.c **** #define NULL 0
  47:STM32F10x_Speex_Lib/STM32/libspeex/ltp.c **** #endif
  48:STM32F10x_Speex_Lib/STM32/libspeex/ltp.c **** 
  49:STM32F10x_Speex_Lib/STM32/libspeex/ltp.c **** 
  50:STM32F10x_Speex_Lib/STM32/libspeex/ltp.c **** #ifdef _USE_SSE
  51:STM32F10x_Speex_Lib/STM32/libspeex/ltp.c **** #include "ltp_sse.h"
  52:STM32F10x_Speex_Lib/STM32/libspeex/ltp.c **** #elif defined (ARM4_ASM) || defined(ARM5E_ASM)
  53:STM32F10x_Speex_Lib/STM32/libspeex/ltp.c **** #include "ltp_arm4.h"
  54:STM32F10x_Speex_Lib/STM32/libspeex/ltp.c **** #elif defined (BFIN_ASM)
  55:STM32F10x_Speex_Lib/STM32/libspeex/ltp.c **** #include "ltp_bfin.h"
  56:STM32F10x_Speex_Lib/STM32/libspeex/ltp.c **** #endif
  57:STM32F10x_Speex_Lib/STM32/libspeex/ltp.c **** 
  58:STM32F10x_Speex_Lib/STM32/libspeex/ltp.c **** //added by MCD Application Team June 2008
  59:STM32F10x_Speex_Lib/STM32/libspeex/ltp.c **** #ifdef  __CC_ARM 
  60:STM32F10x_Speex_Lib/STM32/libspeex/ltp.c **** #include "ltp_cortexM3.h"
  61:STM32F10x_Speex_Lib/STM32/libspeex/ltp.c **** #endif
  62:STM32F10x_Speex_Lib/STM32/libspeex/ltp.c **** 
  63:STM32F10x_Speex_Lib/STM32/libspeex/ltp.c **** #ifdef __IAR_SYSTEMS_ICC__     /* IAR Compiler */
  64:STM32F10x_Speex_Lib/STM32/libspeex/ltp.c **** #define OVERRIDE_INNER_PROD
  65:STM32F10x_Speex_Lib/STM32/libspeex/ltp.c **** #include "ltp_cortexM3.h"
  66:STM32F10x_Speex_Lib/STM32/libspeex/ltp.c **** #endif
  67:STM32F10x_Speex_Lib/STM32/libspeex/ltp.c **** 
ARM GAS  /var/folders/kh/x4vltyy52lbg7p4pcyglc5080000gp/T//cc2IG9vv.s 			page 20


  68:STM32F10x_Speex_Lib/STM32/libspeex/ltp.c **** #ifdef __GNUC__     /* GNU Compiler */
  69:STM32F10x_Speex_Lib/STM32/libspeex/ltp.c **** #define OVERRIDE_INNER_PROD
  70:STM32F10x_Speex_Lib/STM32/libspeex/ltp.c **** #include "ltp_cortexM3.h"
  71:STM32F10x_Speex_Lib/STM32/libspeex/ltp.c **** #endif
  72:STM32F10x_Speex_Lib/STM32/libspeex/ltp.c **** 
  73:STM32F10x_Speex_Lib/STM32/libspeex/ltp.c **** #ifndef OVERRIDE_INNER_PROD
  74:STM32F10x_Speex_Lib/STM32/libspeex/ltp.c **** spx_word32_t inner_prod(const spx_word16_t *x, const spx_word16_t *y, int len)
  75:STM32F10x_Speex_Lib/STM32/libspeex/ltp.c **** {
  76:STM32F10x_Speex_Lib/STM32/libspeex/ltp.c ****    spx_word32_t sum=0;
  77:STM32F10x_Speex_Lib/STM32/libspeex/ltp.c ****    len >>= 2;
  78:STM32F10x_Speex_Lib/STM32/libspeex/ltp.c ****    while(len--)
  79:STM32F10x_Speex_Lib/STM32/libspeex/ltp.c ****    {
  80:STM32F10x_Speex_Lib/STM32/libspeex/ltp.c ****       spx_word32_t part=0;
  81:STM32F10x_Speex_Lib/STM32/libspeex/ltp.c ****       part = MAC16_16(part,*x++,*y++);
  82:STM32F10x_Speex_Lib/STM32/libspeex/ltp.c ****       part = MAC16_16(part,*x++,*y++);
  83:STM32F10x_Speex_Lib/STM32/libspeex/ltp.c ****       part = MAC16_16(part,*x++,*y++);
  84:STM32F10x_Speex_Lib/STM32/libspeex/ltp.c ****       part = MAC16_16(part,*x++,*y++);
  85:STM32F10x_Speex_Lib/STM32/libspeex/ltp.c ****       /* HINT: If you had a 40-bit accumulator, you could shift only at the end */
  86:STM32F10x_Speex_Lib/STM32/libspeex/ltp.c ****       sum = ADD32(sum,SHR32(part,6));
  87:STM32F10x_Speex_Lib/STM32/libspeex/ltp.c ****    }
  88:STM32F10x_Speex_Lib/STM32/libspeex/ltp.c ****    return sum;
  89:STM32F10x_Speex_Lib/STM32/libspeex/ltp.c **** }
  90:STM32F10x_Speex_Lib/STM32/libspeex/ltp.c **** #endif
  91:STM32F10x_Speex_Lib/STM32/libspeex/ltp.c **** 
  92:STM32F10x_Speex_Lib/STM32/libspeex/ltp.c **** #ifndef OVERRIDE_PITCH_XCORR
  93:STM32F10x_Speex_Lib/STM32/libspeex/ltp.c **** #if 0 /* HINT: Enable this for machines with enough registers (i.e. not x86) */
  94:STM32F10x_Speex_Lib/STM32/libspeex/ltp.c **** void pitch_xcorr(const spx_word16_t *_x, const spx_word16_t *_y, spx_word32_t *corr, int len, int n
  95:STM32F10x_Speex_Lib/STM32/libspeex/ltp.c **** {
  96:STM32F10x_Speex_Lib/STM32/libspeex/ltp.c ****    int i,j;
  97:STM32F10x_Speex_Lib/STM32/libspeex/ltp.c ****    for (i=0;i<nb_pitch;i+=4)
  98:STM32F10x_Speex_Lib/STM32/libspeex/ltp.c ****    {
  99:STM32F10x_Speex_Lib/STM32/libspeex/ltp.c ****       /* Compute correlation*/
 100:STM32F10x_Speex_Lib/STM32/libspeex/ltp.c ****       /*corr[nb_pitch-1-i]=inner_prod(x, _y+i, len);*/
 101:STM32F10x_Speex_Lib/STM32/libspeex/ltp.c ****       spx_word32_t sum1=0;
 102:STM32F10x_Speex_Lib/STM32/libspeex/ltp.c ****       spx_word32_t sum2=0;
 103:STM32F10x_Speex_Lib/STM32/libspeex/ltp.c ****       spx_word32_t sum3=0;
 104:STM32F10x_Speex_Lib/STM32/libspeex/ltp.c ****       spx_word32_t sum4=0;
 105:STM32F10x_Speex_Lib/STM32/libspeex/ltp.c ****       const spx_word16_t *y = _y+i;
 106:STM32F10x_Speex_Lib/STM32/libspeex/ltp.c ****       const spx_word16_t *x = _x;
 107:STM32F10x_Speex_Lib/STM32/libspeex/ltp.c ****       spx_word16_t y0, y1, y2, y3;
 108:STM32F10x_Speex_Lib/STM32/libspeex/ltp.c ****       /*y0=y[0];y1=y[1];y2=y[2];y3=y[3];*/
 109:STM32F10x_Speex_Lib/STM32/libspeex/ltp.c ****       y0=*y++;
 110:STM32F10x_Speex_Lib/STM32/libspeex/ltp.c ****       y1=*y++;
 111:STM32F10x_Speex_Lib/STM32/libspeex/ltp.c ****       y2=*y++;
 112:STM32F10x_Speex_Lib/STM32/libspeex/ltp.c ****       y3=*y++;
 113:STM32F10x_Speex_Lib/STM32/libspeex/ltp.c ****       for (j=0;j<len;j+=4)
 114:STM32F10x_Speex_Lib/STM32/libspeex/ltp.c ****       {
 115:STM32F10x_Speex_Lib/STM32/libspeex/ltp.c ****          spx_word32_t part1;
 116:STM32F10x_Speex_Lib/STM32/libspeex/ltp.c ****          spx_word32_t part2;
 117:STM32F10x_Speex_Lib/STM32/libspeex/ltp.c ****          spx_word32_t part3;
 118:STM32F10x_Speex_Lib/STM32/libspeex/ltp.c ****          spx_word32_t part4;
 119:STM32F10x_Speex_Lib/STM32/libspeex/ltp.c ****          part1 = MULT16_16(*x,y0);
 120:STM32F10x_Speex_Lib/STM32/libspeex/ltp.c ****          part2 = MULT16_16(*x,y1);
 121:STM32F10x_Speex_Lib/STM32/libspeex/ltp.c ****          part3 = MULT16_16(*x,y2);
 122:STM32F10x_Speex_Lib/STM32/libspeex/ltp.c ****          part4 = MULT16_16(*x,y3);
 123:STM32F10x_Speex_Lib/STM32/libspeex/ltp.c ****          x++;
 124:STM32F10x_Speex_Lib/STM32/libspeex/ltp.c ****          y0=*y++;
ARM GAS  /var/folders/kh/x4vltyy52lbg7p4pcyglc5080000gp/T//cc2IG9vv.s 			page 21


 125:STM32F10x_Speex_Lib/STM32/libspeex/ltp.c ****          part1 = MAC16_16(part1,*x,y1);
 126:STM32F10x_Speex_Lib/STM32/libspeex/ltp.c ****          part2 = MAC16_16(part2,*x,y2);
 127:STM32F10x_Speex_Lib/STM32/libspeex/ltp.c ****          part3 = MAC16_16(part3,*x,y3);
 128:STM32F10x_Speex_Lib/STM32/libspeex/ltp.c ****          part4 = MAC16_16(part4,*x,y0);
 129:STM32F10x_Speex_Lib/STM32/libspeex/ltp.c ****          x++;
 130:STM32F10x_Speex_Lib/STM32/libspeex/ltp.c ****          y1=*y++;
 131:STM32F10x_Speex_Lib/STM32/libspeex/ltp.c ****          part1 = MAC16_16(part1,*x,y2);
 132:STM32F10x_Speex_Lib/STM32/libspeex/ltp.c ****          part2 = MAC16_16(part2,*x,y3);
 133:STM32F10x_Speex_Lib/STM32/libspeex/ltp.c ****          part3 = MAC16_16(part3,*x,y0);
 134:STM32F10x_Speex_Lib/STM32/libspeex/ltp.c ****          part4 = MAC16_16(part4,*x,y1);
 135:STM32F10x_Speex_Lib/STM32/libspeex/ltp.c ****          x++;
 136:STM32F10x_Speex_Lib/STM32/libspeex/ltp.c ****          y2=*y++;
 137:STM32F10x_Speex_Lib/STM32/libspeex/ltp.c ****          part1 = MAC16_16(part1,*x,y3);
 138:STM32F10x_Speex_Lib/STM32/libspeex/ltp.c ****          part2 = MAC16_16(part2,*x,y0);
 139:STM32F10x_Speex_Lib/STM32/libspeex/ltp.c ****          part3 = MAC16_16(part3,*x,y1);
 140:STM32F10x_Speex_Lib/STM32/libspeex/ltp.c ****          part4 = MAC16_16(part4,*x,y2);
 141:STM32F10x_Speex_Lib/STM32/libspeex/ltp.c ****          x++;
 142:STM32F10x_Speex_Lib/STM32/libspeex/ltp.c ****          y3=*y++;
 143:STM32F10x_Speex_Lib/STM32/libspeex/ltp.c ****          
 144:STM32F10x_Speex_Lib/STM32/libspeex/ltp.c ****          sum1 = ADD32(sum1,SHR32(part1,6));
 145:STM32F10x_Speex_Lib/STM32/libspeex/ltp.c ****          sum2 = ADD32(sum2,SHR32(part2,6));
 146:STM32F10x_Speex_Lib/STM32/libspeex/ltp.c ****          sum3 = ADD32(sum3,SHR32(part3,6));
 147:STM32F10x_Speex_Lib/STM32/libspeex/ltp.c ****          sum4 = ADD32(sum4,SHR32(part4,6));
 148:STM32F10x_Speex_Lib/STM32/libspeex/ltp.c ****       }
 149:STM32F10x_Speex_Lib/STM32/libspeex/ltp.c ****       corr[nb_pitch-1-i]=sum1;
 150:STM32F10x_Speex_Lib/STM32/libspeex/ltp.c ****       corr[nb_pitch-2-i]=sum2;
 151:STM32F10x_Speex_Lib/STM32/libspeex/ltp.c ****       corr[nb_pitch-3-i]=sum3;
 152:STM32F10x_Speex_Lib/STM32/libspeex/ltp.c ****       corr[nb_pitch-4-i]=sum4;
 153:STM32F10x_Speex_Lib/STM32/libspeex/ltp.c ****    }
 154:STM32F10x_Speex_Lib/STM32/libspeex/ltp.c **** 
 155:STM32F10x_Speex_Lib/STM32/libspeex/ltp.c **** }
 156:STM32F10x_Speex_Lib/STM32/libspeex/ltp.c **** #else
 157:STM32F10x_Speex_Lib/STM32/libspeex/ltp.c **** void pitch_xcorr(const spx_word16_t *_x, const spx_word16_t *_y, spx_word32_t *corr, int len, int n
 158:STM32F10x_Speex_Lib/STM32/libspeex/ltp.c **** {
 758              		.loc 3 158 0
 759              		.cfi_startproc
 760              		@ args = 8, pretend = 0, frame = 24
 761              		@ frame_needed = 1, uses_anonymous_args = 0
 762 0000 90B5     		push	{r4, r7, lr}
 763              	.LCFI16:
 764              		.cfi_def_cfa_offset 12
 765              		.cfi_offset 4, -12
 766              		.cfi_offset 7, -8
 767              		.cfi_offset 14, -4
 768 0002 87B0     		sub	sp, sp, #28
 769              	.LCFI17:
 770              		.cfi_def_cfa_offset 40
 771 0004 00AF     		add	r7, sp, #0
 772              	.LCFI18:
 773              		.cfi_def_cfa_register 7
 774 0006 F860     		str	r0, [r7, #12]
 775 0008 B960     		str	r1, [r7, #8]
 776 000a 7A60     		str	r2, [r7, #4]
 777 000c 3B60     		str	r3, [r7]
 159:STM32F10x_Speex_Lib/STM32/libspeex/ltp.c ****    int i;
 160:STM32F10x_Speex_Lib/STM32/libspeex/ltp.c ****    for (i=0;i<nb_pitch;i++)
 778              		.loc 3 160 0
ARM GAS  /var/folders/kh/x4vltyy52lbg7p4pcyglc5080000gp/T//cc2IG9vv.s 			page 22


 779 000e 0023     		movs	r3, #0
 780 0010 7B61     		str	r3, [r7, #20]
 781 0012 14E0     		b	.L25
 782              	.L26:
 161:STM32F10x_Speex_Lib/STM32/libspeex/ltp.c ****    {
 162:STM32F10x_Speex_Lib/STM32/libspeex/ltp.c ****       /* Compute correlation*/
 163:STM32F10x_Speex_Lib/STM32/libspeex/ltp.c ****       corr[nb_pitch-1-i]=inner_prod(_x, _y+i, len);
 783              		.loc 3 163 0 discriminator 3
 784 0014 BB6A     		ldr	r3, [r7, #40]
 785 0016 5A1E     		subs	r2, r3, #1
 786 0018 7B69     		ldr	r3, [r7, #20]
 787 001a D31A     		subs	r3, r2, r3
 788 001c 9B00     		lsls	r3, r3, #2
 789 001e 7A68     		ldr	r2, [r7, #4]
 790 0020 D418     		adds	r4, r2, r3
 791 0022 7B69     		ldr	r3, [r7, #20]
 792 0024 5B00     		lsls	r3, r3, #1
 793 0026 BA68     		ldr	r2, [r7, #8]
 794 0028 1344     		add	r3, r3, r2
 795 002a 3A68     		ldr	r2, [r7]
 796 002c 1946     		mov	r1, r3
 797 002e F868     		ldr	r0, [r7, #12]
 798 0030 FFF7FEFF 		bl	inner_prod
 799 0034 0346     		mov	r3, r0
 800 0036 2360     		str	r3, [r4]
 160:STM32F10x_Speex_Lib/STM32/libspeex/ltp.c ****    {
 801              		.loc 3 160 0 discriminator 3
 802 0038 7B69     		ldr	r3, [r7, #20]
 803 003a 0133     		adds	r3, r3, #1
 804 003c 7B61     		str	r3, [r7, #20]
 805              	.L25:
 160:STM32F10x_Speex_Lib/STM32/libspeex/ltp.c ****    {
 806              		.loc 3 160 0 is_stmt 0 discriminator 1
 807 003e 7A69     		ldr	r2, [r7, #20]
 808 0040 BB6A     		ldr	r3, [r7, #40]
 809 0042 9A42     		cmp	r2, r3
 810 0044 E6DB     		blt	.L26
 164:STM32F10x_Speex_Lib/STM32/libspeex/ltp.c ****    }
 165:STM32F10x_Speex_Lib/STM32/libspeex/ltp.c **** 
 166:STM32F10x_Speex_Lib/STM32/libspeex/ltp.c **** }
 811              		.loc 3 166 0 is_stmt 1
 812 0046 00BF     		nop
 813 0048 1C37     		adds	r7, r7, #28
 814              	.LCFI19:
 815              		.cfi_def_cfa_offset 12
 816 004a BD46     		mov	sp, r7
 817              	.LCFI20:
 818              		.cfi_def_cfa_register 13
 819              		@ sp needed
 820 004c 90BD     		pop	{r4, r7, pc}
 821              		.cfi_endproc
 822              	.LFE22:
 824 004e 00BF     		.section	.text.open_loop_nbest_pitch,"ax",%progbits
 825              		.align	2
 826              		.global	open_loop_nbest_pitch
 827              		.thumb
 828              		.thumb_func
ARM GAS  /var/folders/kh/x4vltyy52lbg7p4pcyglc5080000gp/T//cc2IG9vv.s 			page 23


 830              	open_loop_nbest_pitch:
 831              	.LFB23:
 167:STM32F10x_Speex_Lib/STM32/libspeex/ltp.c **** #endif
 168:STM32F10x_Speex_Lib/STM32/libspeex/ltp.c **** #endif
 169:STM32F10x_Speex_Lib/STM32/libspeex/ltp.c **** 
 170:STM32F10x_Speex_Lib/STM32/libspeex/ltp.c **** #ifndef OVERRIDE_COMPUTE_PITCH_ERROR
 171:STM32F10x_Speex_Lib/STM32/libspeex/ltp.c **** static inline spx_word32_t compute_pitch_error(spx_word16_t *C, spx_word16_t *g, spx_word16_t pitch
 172:STM32F10x_Speex_Lib/STM32/libspeex/ltp.c **** {
 173:STM32F10x_Speex_Lib/STM32/libspeex/ltp.c ****    spx_word32_t sum = 0;
 174:STM32F10x_Speex_Lib/STM32/libspeex/ltp.c ****    sum = ADD32(sum,MULT16_16(MULT16_16_16(g[0],pitch_control),C[0]));
 175:STM32F10x_Speex_Lib/STM32/libspeex/ltp.c ****    sum = ADD32(sum,MULT16_16(MULT16_16_16(g[1],pitch_control),C[1]));
 176:STM32F10x_Speex_Lib/STM32/libspeex/ltp.c ****    sum = ADD32(sum,MULT16_16(MULT16_16_16(g[2],pitch_control),C[2]));
 177:STM32F10x_Speex_Lib/STM32/libspeex/ltp.c ****    sum = SUB32(sum,MULT16_16(MULT16_16_16(g[0],g[1]),C[3]));
 178:STM32F10x_Speex_Lib/STM32/libspeex/ltp.c ****    sum = SUB32(sum,MULT16_16(MULT16_16_16(g[2],g[1]),C[4]));
 179:STM32F10x_Speex_Lib/STM32/libspeex/ltp.c ****    sum = SUB32(sum,MULT16_16(MULT16_16_16(g[2],g[0]),C[5]));
 180:STM32F10x_Speex_Lib/STM32/libspeex/ltp.c ****    sum = SUB32(sum,MULT16_16(MULT16_16_16(g[0],g[0]),C[6]));
 181:STM32F10x_Speex_Lib/STM32/libspeex/ltp.c ****    sum = SUB32(sum,MULT16_16(MULT16_16_16(g[1],g[1]),C[7]));
 182:STM32F10x_Speex_Lib/STM32/libspeex/ltp.c ****    sum = SUB32(sum,MULT16_16(MULT16_16_16(g[2],g[2]),C[8]));
 183:STM32F10x_Speex_Lib/STM32/libspeex/ltp.c ****    return sum;
 184:STM32F10x_Speex_Lib/STM32/libspeex/ltp.c **** }
 185:STM32F10x_Speex_Lib/STM32/libspeex/ltp.c **** #endif
 186:STM32F10x_Speex_Lib/STM32/libspeex/ltp.c **** 
 187:STM32F10x_Speex_Lib/STM32/libspeex/ltp.c **** #ifndef OVERRIDE_OPEN_LOOP_NBEST_PITCH
 188:STM32F10x_Speex_Lib/STM32/libspeex/ltp.c **** void open_loop_nbest_pitch(spx_word16_t *sw, int start, int end, int len, int *pitch, spx_word16_t 
 189:STM32F10x_Speex_Lib/STM32/libspeex/ltp.c **** {
 832              		.loc 3 189 0
 833              		.cfi_startproc
 834              		@ args = 16, pretend = 0, frame = 80
 835              		@ frame_needed = 1, uses_anonymous_args = 0
 836 0000 B0B5     		push	{r4, r5, r7, lr}
 837              	.LCFI21:
 838              		.cfi_def_cfa_offset 16
 839              		.cfi_offset 4, -16
 840              		.cfi_offset 5, -12
 841              		.cfi_offset 7, -8
 842              		.cfi_offset 14, -4
 843 0002 96B0     		sub	sp, sp, #88
 844              	.LCFI22:
 845              		.cfi_def_cfa_offset 104
 846 0004 02AF     		add	r7, sp, #8
 847              	.LCFI23:
 848              		.cfi_def_cfa 7, 96
 849 0006 F860     		str	r0, [r7, #12]
 850 0008 B960     		str	r1, [r7, #8]
 851 000a 7A60     		str	r2, [r7, #4]
 852 000c 3B60     		str	r3, [r7]
 190:STM32F10x_Speex_Lib/STM32/libspeex/ltp.c ****    int i,j,k;
 191:STM32F10x_Speex_Lib/STM32/libspeex/ltp.c ****    VARDECL(spx_word32_t *best_score);
 192:STM32F10x_Speex_Lib/STM32/libspeex/ltp.c ****    VARDECL(spx_word32_t *best_ener);
 193:STM32F10x_Speex_Lib/STM32/libspeex/ltp.c ****    spx_word32_t e0;
 194:STM32F10x_Speex_Lib/STM32/libspeex/ltp.c ****    VARDECL(spx_word32_t *corr);
 195:STM32F10x_Speex_Lib/STM32/libspeex/ltp.c **** #ifdef FIXED_POINT
 196:STM32F10x_Speex_Lib/STM32/libspeex/ltp.c ****    /* In fixed-point, we need only one (temporary) array of 32-bit values and two (corr16, ener16) 
 197:STM32F10x_Speex_Lib/STM32/libspeex/ltp.c ****       arrays for (normalized) 16-bit values */
 198:STM32F10x_Speex_Lib/STM32/libspeex/ltp.c ****    VARDECL(spx_word16_t *corr16);
 199:STM32F10x_Speex_Lib/STM32/libspeex/ltp.c ****    VARDECL(spx_word16_t *ener16);
 200:STM32F10x_Speex_Lib/STM32/libspeex/ltp.c ****    spx_word32_t *energy;
ARM GAS  /var/folders/kh/x4vltyy52lbg7p4pcyglc5080000gp/T//cc2IG9vv.s 			page 24


 201:STM32F10x_Speex_Lib/STM32/libspeex/ltp.c ****    int cshift=0, eshift=0;
 853              		.loc 3 201 0
 854 000e 0023     		movs	r3, #0
 855 0010 BB63     		str	r3, [r7, #56]
 856 0012 0023     		movs	r3, #0
 857 0014 7B63     		str	r3, [r7, #52]
 202:STM32F10x_Speex_Lib/STM32/libspeex/ltp.c ****    int scaledown = 0;
 858              		.loc 3 202 0
 859 0016 0023     		movs	r3, #0
 860 0018 3B64     		str	r3, [r7, #64]
 203:STM32F10x_Speex_Lib/STM32/libspeex/ltp.c ****    ALLOC(corr16, end-start+1, spx_word16_t);
 861              		.loc 3 203 0
 862 001a FB6E     		ldr	r3, [r7, #108]
 863 001c 5B42     		negs	r3, r3
 864 001e 03F00103 		and	r3, r3, #1
 865 0022 FA6E     		ldr	r2, [r7, #108]
 866 0024 1344     		add	r3, r3, r2
 867 0026 FB66     		str	r3, [r7, #108]
 868 0028 7A68     		ldr	r2, [r7, #4]
 869 002a BB68     		ldr	r3, [r7, #8]
 870 002c D31A     		subs	r3, r2, r3
 871 002e 0133     		adds	r3, r3, #1
 872 0030 5B00     		lsls	r3, r3, #1
 873 0032 FA6E     		ldr	r2, [r7, #108]
 874 0034 1344     		add	r3, r3, r2
 875 0036 FB66     		str	r3, [r7, #108]
 876 0038 7A68     		ldr	r2, [r7, #4]
 877 003a BB68     		ldr	r3, [r7, #8]
 878 003c D31A     		subs	r3, r2, r3
 879 003e 0133     		adds	r3, r3, #1
 880 0040 5B00     		lsls	r3, r3, #1
 881 0042 5B42     		negs	r3, r3
 882 0044 FA6E     		ldr	r2, [r7, #108]
 883 0046 1344     		add	r3, r3, r2
 884 0048 3B63     		str	r3, [r7, #48]
 204:STM32F10x_Speex_Lib/STM32/libspeex/ltp.c ****    ALLOC(ener16, end-start+1, spx_word16_t);
 885              		.loc 3 204 0
 886 004a FB6E     		ldr	r3, [r7, #108]
 887 004c 5B42     		negs	r3, r3
 888 004e 03F00103 		and	r3, r3, #1
 889 0052 FA6E     		ldr	r2, [r7, #108]
 890 0054 1344     		add	r3, r3, r2
 891 0056 FB66     		str	r3, [r7, #108]
 892 0058 7A68     		ldr	r2, [r7, #4]
 893 005a BB68     		ldr	r3, [r7, #8]
 894 005c D31A     		subs	r3, r2, r3
 895 005e 0133     		adds	r3, r3, #1
 896 0060 5B00     		lsls	r3, r3, #1
 897 0062 FA6E     		ldr	r2, [r7, #108]
 898 0064 1344     		add	r3, r3, r2
 899 0066 FB66     		str	r3, [r7, #108]
 900 0068 7A68     		ldr	r2, [r7, #4]
 901 006a BB68     		ldr	r3, [r7, #8]
 902 006c D31A     		subs	r3, r2, r3
 903 006e 0133     		adds	r3, r3, #1
 904 0070 5B00     		lsls	r3, r3, #1
 905 0072 5B42     		negs	r3, r3
ARM GAS  /var/folders/kh/x4vltyy52lbg7p4pcyglc5080000gp/T//cc2IG9vv.s 			page 25


 906 0074 FA6E     		ldr	r2, [r7, #108]
 907 0076 1344     		add	r3, r3, r2
 908 0078 FB62     		str	r3, [r7, #44]
 205:STM32F10x_Speex_Lib/STM32/libspeex/ltp.c ****    ALLOC(corr, end-start+1, spx_word32_t);
 909              		.loc 3 205 0
 910 007a FB6E     		ldr	r3, [r7, #108]
 911 007c 5B42     		negs	r3, r3
 912 007e 03F00303 		and	r3, r3, #3
 913 0082 FA6E     		ldr	r2, [r7, #108]
 914 0084 1344     		add	r3, r3, r2
 915 0086 FB66     		str	r3, [r7, #108]
 916 0088 7A68     		ldr	r2, [r7, #4]
 917 008a BB68     		ldr	r3, [r7, #8]
 918 008c D31A     		subs	r3, r2, r3
 919 008e 0133     		adds	r3, r3, #1
 920 0090 9B00     		lsls	r3, r3, #2
 921 0092 FA6E     		ldr	r2, [r7, #108]
 922 0094 1344     		add	r3, r3, r2
 923 0096 FB66     		str	r3, [r7, #108]
 924 0098 7A68     		ldr	r2, [r7, #4]
 925 009a BB68     		ldr	r3, [r7, #8]
 926 009c D31A     		subs	r3, r2, r3
 927 009e 0133     		adds	r3, r3, #1
 928 00a0 9B00     		lsls	r3, r3, #2
 929 00a2 5B42     		negs	r3, r3
 930 00a4 FA6E     		ldr	r2, [r7, #108]
 931 00a6 1344     		add	r3, r3, r2
 932 00a8 BB62     		str	r3, [r7, #40]
 206:STM32F10x_Speex_Lib/STM32/libspeex/ltp.c ****    energy = corr;
 933              		.loc 3 206 0
 934 00aa BB6A     		ldr	r3, [r7, #40]
 935 00ac 7B62     		str	r3, [r7, #36]
 207:STM32F10x_Speex_Lib/STM32/libspeex/ltp.c **** #else
 208:STM32F10x_Speex_Lib/STM32/libspeex/ltp.c ****    /* In floating-point, we need to float arrays and no normalized copies */
 209:STM32F10x_Speex_Lib/STM32/libspeex/ltp.c ****    VARDECL(spx_word32_t *energy);
 210:STM32F10x_Speex_Lib/STM32/libspeex/ltp.c ****    spx_word16_t *corr16;
 211:STM32F10x_Speex_Lib/STM32/libspeex/ltp.c ****    spx_word16_t *ener16;
 212:STM32F10x_Speex_Lib/STM32/libspeex/ltp.c ****    ALLOC(energy, end-start+2, spx_word32_t);
 213:STM32F10x_Speex_Lib/STM32/libspeex/ltp.c ****    ALLOC(corr, end-start+1, spx_word32_t);
 214:STM32F10x_Speex_Lib/STM32/libspeex/ltp.c ****    corr16 = corr;
 215:STM32F10x_Speex_Lib/STM32/libspeex/ltp.c ****    ener16 = energy;
 216:STM32F10x_Speex_Lib/STM32/libspeex/ltp.c **** #endif
 217:STM32F10x_Speex_Lib/STM32/libspeex/ltp.c ****    
 218:STM32F10x_Speex_Lib/STM32/libspeex/ltp.c ****    ALLOC(best_score, N, spx_word32_t);
 936              		.loc 3 218 0
 937 00ae FB6E     		ldr	r3, [r7, #108]
 938 00b0 5B42     		negs	r3, r3
 939 00b2 03F00303 		and	r3, r3, #3
 940 00b6 FA6E     		ldr	r2, [r7, #108]
 941 00b8 1344     		add	r3, r3, r2
 942 00ba FB66     		str	r3, [r7, #108]
 943 00bc BB6E     		ldr	r3, [r7, #104]
 944 00be 9B00     		lsls	r3, r3, #2
 945 00c0 FA6E     		ldr	r2, [r7, #108]
 946 00c2 1344     		add	r3, r3, r2
 947 00c4 FB66     		str	r3, [r7, #108]
 948 00c6 BB6E     		ldr	r3, [r7, #104]
ARM GAS  /var/folders/kh/x4vltyy52lbg7p4pcyglc5080000gp/T//cc2IG9vv.s 			page 26


 949 00c8 9B00     		lsls	r3, r3, #2
 950 00ca 5B42     		negs	r3, r3
 951 00cc FA6E     		ldr	r2, [r7, #108]
 952 00ce 1344     		add	r3, r3, r2
 953 00d0 3B62     		str	r3, [r7, #32]
 219:STM32F10x_Speex_Lib/STM32/libspeex/ltp.c ****    ALLOC(best_ener, N, spx_word32_t);
 954              		.loc 3 219 0
 955 00d2 FB6E     		ldr	r3, [r7, #108]
 956 00d4 5B42     		negs	r3, r3
 957 00d6 03F00303 		and	r3, r3, #3
 958 00da FA6E     		ldr	r2, [r7, #108]
 959 00dc 1344     		add	r3, r3, r2
 960 00de FB66     		str	r3, [r7, #108]
 961 00e0 BB6E     		ldr	r3, [r7, #104]
 962 00e2 9B00     		lsls	r3, r3, #2
 963 00e4 FA6E     		ldr	r2, [r7, #108]
 964 00e6 1344     		add	r3, r3, r2
 965 00e8 FB66     		str	r3, [r7, #108]
 966 00ea BB6E     		ldr	r3, [r7, #104]
 967 00ec 9B00     		lsls	r3, r3, #2
 968 00ee 5B42     		negs	r3, r3
 969 00f0 FA6E     		ldr	r2, [r7, #108]
 970 00f2 1344     		add	r3, r3, r2
 971 00f4 FB61     		str	r3, [r7, #28]
 220:STM32F10x_Speex_Lib/STM32/libspeex/ltp.c ****    for (i=0;i<N;i++)
 972              		.loc 3 220 0
 973 00f6 0023     		movs	r3, #0
 974 00f8 FB64     		str	r3, [r7, #76]
 975 00fa 15E0     		b	.L28
 976              	.L29:
 221:STM32F10x_Speex_Lib/STM32/libspeex/ltp.c ****    {
 222:STM32F10x_Speex_Lib/STM32/libspeex/ltp.c ****         best_score[i]=-1;
 977              		.loc 3 222 0 discriminator 3
 978 00fc FB6C     		ldr	r3, [r7, #76]
 979 00fe 9B00     		lsls	r3, r3, #2
 980 0100 3A6A     		ldr	r2, [r7, #32]
 981 0102 1344     		add	r3, r3, r2
 982 0104 4FF0FF32 		mov	r2, #-1
 983 0108 1A60     		str	r2, [r3]
 223:STM32F10x_Speex_Lib/STM32/libspeex/ltp.c ****         best_ener[i]=0;
 984              		.loc 3 223 0 discriminator 3
 985 010a FB6C     		ldr	r3, [r7, #76]
 986 010c 9B00     		lsls	r3, r3, #2
 987 010e FA69     		ldr	r2, [r7, #28]
 988 0110 1344     		add	r3, r3, r2
 989 0112 0022     		movs	r2, #0
 990 0114 1A60     		str	r2, [r3]
 224:STM32F10x_Speex_Lib/STM32/libspeex/ltp.c ****         pitch[i]=start;
 991              		.loc 3 224 0 discriminator 3
 992 0116 FB6C     		ldr	r3, [r7, #76]
 993 0118 9B00     		lsls	r3, r3, #2
 994 011a 3A6E     		ldr	r2, [r7, #96]
 995 011c 1344     		add	r3, r3, r2
 996 011e BA68     		ldr	r2, [r7, #8]
 997 0120 1A60     		str	r2, [r3]
 220:STM32F10x_Speex_Lib/STM32/libspeex/ltp.c ****    {
 998              		.loc 3 220 0 discriminator 3
ARM GAS  /var/folders/kh/x4vltyy52lbg7p4pcyglc5080000gp/T//cc2IG9vv.s 			page 27


 999 0122 FB6C     		ldr	r3, [r7, #76]
 1000 0124 0133     		adds	r3, r3, #1
 1001 0126 FB64     		str	r3, [r7, #76]
 1002              	.L28:
 220:STM32F10x_Speex_Lib/STM32/libspeex/ltp.c ****    {
 1003              		.loc 3 220 0 is_stmt 0 discriminator 1
 1004 0128 FA6C     		ldr	r2, [r7, #76]
 1005 012a BB6E     		ldr	r3, [r7, #104]
 1006 012c 9A42     		cmp	r2, r3
 1007 012e E5DB     		blt	.L29
 225:STM32F10x_Speex_Lib/STM32/libspeex/ltp.c ****    }
 226:STM32F10x_Speex_Lib/STM32/libspeex/ltp.c ****    
 227:STM32F10x_Speex_Lib/STM32/libspeex/ltp.c **** #ifdef FIXED_POINT
 228:STM32F10x_Speex_Lib/STM32/libspeex/ltp.c ****    for (i=-end;i<len;i++)
 1008              		.loc 3 228 0 is_stmt 1
 1009 0130 7B68     		ldr	r3, [r7, #4]
 1010 0132 5B42     		negs	r3, r3
 1011 0134 FB64     		str	r3, [r7, #76]
 1012 0136 11E0     		b	.L30
 1013              	.L33:
 229:STM32F10x_Speex_Lib/STM32/libspeex/ltp.c ****    {
 230:STM32F10x_Speex_Lib/STM32/libspeex/ltp.c ****       if (ABS16(sw[i])>16383)
 1014              		.loc 3 230 0
 1015 0138 FB6C     		ldr	r3, [r7, #76]
 1016 013a 5B00     		lsls	r3, r3, #1
 1017 013c FA68     		ldr	r2, [r7, #12]
 1018 013e 1344     		add	r3, r3, r2
 1019 0140 B3F90030 		ldrsh	r3, [r3]
 1020 0144 002B     		cmp	r3, #0
 1021 0146 B8BF     		it	lt
 1022 0148 5B42     		rsblt	r3, r3, #0
 1023 014a B3F5804F 		cmp	r3, #16384
 1024 014e 02DB     		blt	.L31
 231:STM32F10x_Speex_Lib/STM32/libspeex/ltp.c ****       {
 232:STM32F10x_Speex_Lib/STM32/libspeex/ltp.c ****          scaledown=1;
 1025              		.loc 3 232 0
 1026 0150 0123     		movs	r3, #1
 1027 0152 3B64     		str	r3, [r7, #64]
 233:STM32F10x_Speex_Lib/STM32/libspeex/ltp.c ****          break;
 1028              		.loc 3 233 0
 1029 0154 06E0     		b	.L32
 1030              	.L31:
 228:STM32F10x_Speex_Lib/STM32/libspeex/ltp.c ****    {
 1031              		.loc 3 228 0 discriminator 2
 1032 0156 FB6C     		ldr	r3, [r7, #76]
 1033 0158 0133     		adds	r3, r3, #1
 1034 015a FB64     		str	r3, [r7, #76]
 1035              	.L30:
 228:STM32F10x_Speex_Lib/STM32/libspeex/ltp.c ****    {
 1036              		.loc 3 228 0 is_stmt 0 discriminator 1
 1037 015c FA6C     		ldr	r2, [r7, #76]
 1038 015e 3B68     		ldr	r3, [r7]
 1039 0160 9A42     		cmp	r2, r3
 1040 0162 E9DB     		blt	.L33
 1041              	.L32:
 234:STM32F10x_Speex_Lib/STM32/libspeex/ltp.c ****       }
 235:STM32F10x_Speex_Lib/STM32/libspeex/ltp.c ****    }
ARM GAS  /var/folders/kh/x4vltyy52lbg7p4pcyglc5080000gp/T//cc2IG9vv.s 			page 28


 236:STM32F10x_Speex_Lib/STM32/libspeex/ltp.c ****    /* If the weighted input is close to saturation, then we scale it down */
 237:STM32F10x_Speex_Lib/STM32/libspeex/ltp.c ****    if (scaledown)
 1042              		.loc 3 237 0 is_stmt 1
 1043 0164 3B6C     		ldr	r3, [r7, #64]
 1044 0166 002B     		cmp	r3, #0
 1045 0168 17D0     		beq	.L34
 238:STM32F10x_Speex_Lib/STM32/libspeex/ltp.c ****    {
 239:STM32F10x_Speex_Lib/STM32/libspeex/ltp.c ****       for (i=-end;i<len;i++)
 1046              		.loc 3 239 0
 1047 016a 7B68     		ldr	r3, [r7, #4]
 1048 016c 5B42     		negs	r3, r3
 1049 016e FB64     		str	r3, [r7, #76]
 1050 0170 0FE0     		b	.L35
 1051              	.L36:
 240:STM32F10x_Speex_Lib/STM32/libspeex/ltp.c ****       {
 241:STM32F10x_Speex_Lib/STM32/libspeex/ltp.c ****          sw[i]=SHR16(sw[i],1);
 1052              		.loc 3 241 0 discriminator 3
 1053 0172 FB6C     		ldr	r3, [r7, #76]
 1054 0174 5B00     		lsls	r3, r3, #1
 1055 0176 FA68     		ldr	r2, [r7, #12]
 1056 0178 1344     		add	r3, r3, r2
 1057 017a FA6C     		ldr	r2, [r7, #76]
 1058 017c 5200     		lsls	r2, r2, #1
 1059 017e F968     		ldr	r1, [r7, #12]
 1060 0180 0A44     		add	r2, r2, r1
 1061 0182 B2F90020 		ldrsh	r2, [r2]
 1062 0186 5210     		asrs	r2, r2, #1
 1063 0188 12B2     		sxth	r2, r2
 1064 018a 1A80     		strh	r2, [r3]	@ movhi
 239:STM32F10x_Speex_Lib/STM32/libspeex/ltp.c ****       {
 1065              		.loc 3 239 0 discriminator 3
 1066 018c FB6C     		ldr	r3, [r7, #76]
 1067 018e 0133     		adds	r3, r3, #1
 1068 0190 FB64     		str	r3, [r7, #76]
 1069              	.L35:
 239:STM32F10x_Speex_Lib/STM32/libspeex/ltp.c ****       {
 1070              		.loc 3 239 0 is_stmt 0 discriminator 1
 1071 0192 FA6C     		ldr	r2, [r7, #76]
 1072 0194 3B68     		ldr	r3, [r7]
 1073 0196 9A42     		cmp	r2, r3
 1074 0198 EBDB     		blt	.L36
 1075              	.L34:
 242:STM32F10x_Speex_Lib/STM32/libspeex/ltp.c ****       }
 243:STM32F10x_Speex_Lib/STM32/libspeex/ltp.c ****    }      
 244:STM32F10x_Speex_Lib/STM32/libspeex/ltp.c **** #endif
 245:STM32F10x_Speex_Lib/STM32/libspeex/ltp.c ****    energy[0]=inner_prod(sw-start, sw-start, len);
 1076              		.loc 3 245 0 is_stmt 1
 1077 019a BB68     		ldr	r3, [r7, #8]
 1078 019c 5B00     		lsls	r3, r3, #1
 1079 019e 5B42     		negs	r3, r3
 1080 01a0 FA68     		ldr	r2, [r7, #12]
 1081 01a2 D018     		adds	r0, r2, r3
 1082 01a4 BB68     		ldr	r3, [r7, #8]
 1083 01a6 5B00     		lsls	r3, r3, #1
 1084 01a8 5B42     		negs	r3, r3
 1085 01aa FA68     		ldr	r2, [r7, #12]
 1086 01ac 1344     		add	r3, r3, r2
ARM GAS  /var/folders/kh/x4vltyy52lbg7p4pcyglc5080000gp/T//cc2IG9vv.s 			page 29


 1087 01ae 3A68     		ldr	r2, [r7]
 1088 01b0 1946     		mov	r1, r3
 1089 01b2 FFF7FEFF 		bl	inner_prod
 1090 01b6 0246     		mov	r2, r0
 1091 01b8 7B6A     		ldr	r3, [r7, #36]
 1092 01ba 1A60     		str	r2, [r3]
 246:STM32F10x_Speex_Lib/STM32/libspeex/ltp.c ****    e0=inner_prod(sw, sw, len);
 1093              		.loc 3 246 0
 1094 01bc 3A68     		ldr	r2, [r7]
 1095 01be F968     		ldr	r1, [r7, #12]
 1096 01c0 F868     		ldr	r0, [r7, #12]
 1097 01c2 FFF7FEFF 		bl	inner_prod
 1098 01c6 B861     		str	r0, [r7, #24]
 247:STM32F10x_Speex_Lib/STM32/libspeex/ltp.c ****    for (i=start;i<end;i++)
 1099              		.loc 3 247 0
 1100 01c8 BB68     		ldr	r3, [r7, #8]
 1101 01ca FB64     		str	r3, [r7, #76]
 1102 01cc 5AE0     		b	.L37
 1103              	.L39:
 248:STM32F10x_Speex_Lib/STM32/libspeex/ltp.c ****    {
 249:STM32F10x_Speex_Lib/STM32/libspeex/ltp.c ****       /* Update energy for next pitch*/
 250:STM32F10x_Speex_Lib/STM32/libspeex/ltp.c ****       energy[i-start+1] = SUB32(ADD32(energy[i-start],SHR32(MULT16_16(sw[-i-1],sw[-i-1]),6)), SHR32
 1104              		.loc 3 250 0
 1105 01ce FA6C     		ldr	r2, [r7, #76]
 1106 01d0 BB68     		ldr	r3, [r7, #8]
 1107 01d2 D31A     		subs	r3, r2, r3
 1108 01d4 0133     		adds	r3, r3, #1
 1109 01d6 9B00     		lsls	r3, r3, #2
 1110 01d8 7A6A     		ldr	r2, [r7, #36]
 1111 01da D118     		adds	r1, r2, r3
 1112 01dc FA6C     		ldr	r2, [r7, #76]
 1113 01de BB68     		ldr	r3, [r7, #8]
 1114 01e0 D31A     		subs	r3, r2, r3
 1115 01e2 9B00     		lsls	r3, r3, #2
 1116 01e4 7A6A     		ldr	r2, [r7, #36]
 1117 01e6 1344     		add	r3, r3, r2
 1118 01e8 1868     		ldr	r0, [r3]
 1119 01ea FB6C     		ldr	r3, [r7, #76]
 1120 01ec 5A1C     		adds	r2, r3, #1
 1121 01ee 1346     		mov	r3, r2
 1122 01f0 DB07     		lsls	r3, r3, #31
 1123 01f2 9B1A     		subs	r3, r3, r2
 1124 01f4 5B00     		lsls	r3, r3, #1
 1125 01f6 1A46     		mov	r2, r3
 1126 01f8 FB68     		ldr	r3, [r7, #12]
 1127 01fa 1344     		add	r3, r3, r2
 1128 01fc B3F90030 		ldrsh	r3, [r3]
 1129 0200 1C46     		mov	r4, r3
 1130 0202 FB6C     		ldr	r3, [r7, #76]
 1131 0204 5A1C     		adds	r2, r3, #1
 1132 0206 1346     		mov	r3, r2
 1133 0208 DB07     		lsls	r3, r3, #31
 1134 020a 9B1A     		subs	r3, r3, r2
 1135 020c 5B00     		lsls	r3, r3, #1
 1136 020e 1A46     		mov	r2, r3
 1137 0210 FB68     		ldr	r3, [r7, #12]
 1138 0212 1344     		add	r3, r3, r2
ARM GAS  /var/folders/kh/x4vltyy52lbg7p4pcyglc5080000gp/T//cc2IG9vv.s 			page 30


 1139 0214 B3F90030 		ldrsh	r3, [r3]
 1140 0218 03FB04F3 		mul	r3, r3, r4
 1141 021c 9B11     		asrs	r3, r3, #6
 1142 021e C218     		adds	r2, r0, r3
 1143 0220 3868     		ldr	r0, [r7]
 1144 0222 FB6C     		ldr	r3, [r7, #76]
 1145 0224 C31A     		subs	r3, r0, r3
 1146 0226 03F10043 		add	r3, r3, #-2147483648
 1147 022a 013B     		subs	r3, r3, #1
 1148 022c 5B00     		lsls	r3, r3, #1
 1149 022e F868     		ldr	r0, [r7, #12]
 1150 0230 0344     		add	r3, r3, r0
 1151 0232 B3F90030 		ldrsh	r3, [r3]
 1152 0236 1C46     		mov	r4, r3
 1153 0238 3868     		ldr	r0, [r7]
 1154 023a FB6C     		ldr	r3, [r7, #76]
 1155 023c C31A     		subs	r3, r0, r3
 1156 023e 03F10043 		add	r3, r3, #-2147483648
 1157 0242 013B     		subs	r3, r3, #1
 1158 0244 5B00     		lsls	r3, r3, #1
 1159 0246 F868     		ldr	r0, [r7, #12]
 1160 0248 0344     		add	r3, r3, r0
 1161 024a B3F90030 		ldrsh	r3, [r3]
 1162 024e 03FB04F3 		mul	r3, r3, r4
 1163 0252 9B11     		asrs	r3, r3, #6
 1164 0254 D31A     		subs	r3, r2, r3
 1165 0256 0B60     		str	r3, [r1]
 251:STM32F10x_Speex_Lib/STM32/libspeex/ltp.c ****       if (energy[i-start+1] < 0)
 1166              		.loc 3 251 0
 1167 0258 FA6C     		ldr	r2, [r7, #76]
 1168 025a BB68     		ldr	r3, [r7, #8]
 1169 025c D31A     		subs	r3, r2, r3
 1170 025e 0133     		adds	r3, r3, #1
 1171 0260 9B00     		lsls	r3, r3, #2
 1172 0262 7A6A     		ldr	r2, [r7, #36]
 1173 0264 1344     		add	r3, r3, r2
 1174 0266 1B68     		ldr	r3, [r3]
 1175 0268 002B     		cmp	r3, #0
 1176 026a 08DA     		bge	.L38
 252:STM32F10x_Speex_Lib/STM32/libspeex/ltp.c ****          energy[i-start+1] = 0;
 1177              		.loc 3 252 0
 1178 026c FA6C     		ldr	r2, [r7, #76]
 1179 026e BB68     		ldr	r3, [r7, #8]
 1180 0270 D31A     		subs	r3, r2, r3
 1181 0272 0133     		adds	r3, r3, #1
 1182 0274 9B00     		lsls	r3, r3, #2
 1183 0276 7A6A     		ldr	r2, [r7, #36]
 1184 0278 1344     		add	r3, r3, r2
 1185 027a 0022     		movs	r2, #0
 1186 027c 1A60     		str	r2, [r3]
 1187              	.L38:
 247:STM32F10x_Speex_Lib/STM32/libspeex/ltp.c ****    {
 1188              		.loc 3 247 0 discriminator 2
 1189 027e FB6C     		ldr	r3, [r7, #76]
 1190 0280 0133     		adds	r3, r3, #1
 1191 0282 FB64     		str	r3, [r7, #76]
 1192              	.L37:
ARM GAS  /var/folders/kh/x4vltyy52lbg7p4pcyglc5080000gp/T//cc2IG9vv.s 			page 31


 247:STM32F10x_Speex_Lib/STM32/libspeex/ltp.c ****    {
 1193              		.loc 3 247 0 is_stmt 0 discriminator 1
 1194 0284 FA6C     		ldr	r2, [r7, #76]
 1195 0286 7B68     		ldr	r3, [r7, #4]
 1196 0288 9A42     		cmp	r2, r3
 1197 028a A0DB     		blt	.L39
 253:STM32F10x_Speex_Lib/STM32/libspeex/ltp.c ****    }
 254:STM32F10x_Speex_Lib/STM32/libspeex/ltp.c ****    
 255:STM32F10x_Speex_Lib/STM32/libspeex/ltp.c **** #ifdef FIXED_POINT
 256:STM32F10x_Speex_Lib/STM32/libspeex/ltp.c ****    eshift = normalize16(energy, ener16, 32766, end-start+1);
 1198              		.loc 3 256 0 is_stmt 1
 1199 028c 7A68     		ldr	r2, [r7, #4]
 1200 028e BB68     		ldr	r3, [r7, #8]
 1201 0290 D31A     		subs	r3, r2, r3
 1202 0292 0133     		adds	r3, r3, #1
 1203 0294 47F6FE72 		movw	r2, #32766
 1204 0298 F96A     		ldr	r1, [r7, #44]
 1205 029a 786A     		ldr	r0, [r7, #36]
 1206 029c FFF7FEFF 		bl	normalize16
 1207 02a0 7863     		str	r0, [r7, #52]
 257:STM32F10x_Speex_Lib/STM32/libspeex/ltp.c **** #endif
 258:STM32F10x_Speex_Lib/STM32/libspeex/ltp.c ****    
 259:STM32F10x_Speex_Lib/STM32/libspeex/ltp.c ****    /* In fixed-point, this actually overrites the energy array (aliased to corr) */
 260:STM32F10x_Speex_Lib/STM32/libspeex/ltp.c ****    pitch_xcorr(sw, sw-end, corr, len, end-start+1, stack);
 1208              		.loc 3 260 0
 1209 02a2 7B68     		ldr	r3, [r7, #4]
 1210 02a4 5B00     		lsls	r3, r3, #1
 1211 02a6 5B42     		negs	r3, r3
 1212 02a8 FA68     		ldr	r2, [r7, #12]
 1213 02aa D118     		adds	r1, r2, r3
 1214 02ac 7A68     		ldr	r2, [r7, #4]
 1215 02ae BB68     		ldr	r3, [r7, #8]
 1216 02b0 D31A     		subs	r3, r2, r3
 1217 02b2 0133     		adds	r3, r3, #1
 1218 02b4 FA6E     		ldr	r2, [r7, #108]
 1219 02b6 0192     		str	r2, [sp, #4]
 1220 02b8 0093     		str	r3, [sp]
 1221 02ba 3B68     		ldr	r3, [r7]
 1222 02bc BA6A     		ldr	r2, [r7, #40]
 1223 02be F868     		ldr	r0, [r7, #12]
 1224 02c0 FFF7FEFF 		bl	pitch_xcorr
 261:STM32F10x_Speex_Lib/STM32/libspeex/ltp.c ****    
 262:STM32F10x_Speex_Lib/STM32/libspeex/ltp.c **** #ifdef FIXED_POINT
 263:STM32F10x_Speex_Lib/STM32/libspeex/ltp.c ****    /* Normalize to 180 so we can square it and it still fits in 16 bits */
 264:STM32F10x_Speex_Lib/STM32/libspeex/ltp.c ****    cshift = normalize16(corr, corr16, 180, end-start+1);
 1225              		.loc 3 264 0
 1226 02c4 7A68     		ldr	r2, [r7, #4]
 1227 02c6 BB68     		ldr	r3, [r7, #8]
 1228 02c8 D31A     		subs	r3, r2, r3
 1229 02ca 0133     		adds	r3, r3, #1
 1230 02cc B422     		movs	r2, #180
 1231 02ce 396B     		ldr	r1, [r7, #48]
 1232 02d0 B86A     		ldr	r0, [r7, #40]
 1233 02d2 FFF7FEFF 		bl	normalize16
 1234 02d6 B863     		str	r0, [r7, #56]
 265:STM32F10x_Speex_Lib/STM32/libspeex/ltp.c ****    /* If we scaled weighted input down, we need to scale it up again (OK, so we've just lost the LS
 266:STM32F10x_Speex_Lib/STM32/libspeex/ltp.c ****    if (scaledown)
ARM GAS  /var/folders/kh/x4vltyy52lbg7p4pcyglc5080000gp/T//cc2IG9vv.s 			page 32


 1235              		.loc 3 266 0
 1236 02d8 3B6C     		ldr	r3, [r7, #64]
 1237 02da 002B     		cmp	r3, #0
 1238 02dc 17D0     		beq	.L40
 267:STM32F10x_Speex_Lib/STM32/libspeex/ltp.c ****    {
 268:STM32F10x_Speex_Lib/STM32/libspeex/ltp.c ****       for (i=-end;i<len;i++)
 1239              		.loc 3 268 0
 1240 02de 7B68     		ldr	r3, [r7, #4]
 1241 02e0 5B42     		negs	r3, r3
 1242 02e2 FB64     		str	r3, [r7, #76]
 1243 02e4 0FE0     		b	.L41
 1244              	.L42:
 269:STM32F10x_Speex_Lib/STM32/libspeex/ltp.c ****       {
 270:STM32F10x_Speex_Lib/STM32/libspeex/ltp.c ****          sw[i]=SHL16(sw[i],1);
 1245              		.loc 3 270 0 discriminator 3
 1246 02e6 FB6C     		ldr	r3, [r7, #76]
 1247 02e8 5B00     		lsls	r3, r3, #1
 1248 02ea FA68     		ldr	r2, [r7, #12]
 1249 02ec 1344     		add	r3, r3, r2
 1250 02ee FA6C     		ldr	r2, [r7, #76]
 1251 02f0 5200     		lsls	r2, r2, #1
 1252 02f2 F968     		ldr	r1, [r7, #12]
 1253 02f4 0A44     		add	r2, r2, r1
 1254 02f6 B2F90020 		ldrsh	r2, [r2]
 1255 02fa 5200     		lsls	r2, r2, #1
 1256 02fc 12B2     		sxth	r2, r2
 1257 02fe 1A80     		strh	r2, [r3]	@ movhi
 268:STM32F10x_Speex_Lib/STM32/libspeex/ltp.c ****       {
 1258              		.loc 3 268 0 discriminator 3
 1259 0300 FB6C     		ldr	r3, [r7, #76]
 1260 0302 0133     		adds	r3, r3, #1
 1261 0304 FB64     		str	r3, [r7, #76]
 1262              	.L41:
 268:STM32F10x_Speex_Lib/STM32/libspeex/ltp.c ****       {
 1263              		.loc 3 268 0 is_stmt 0 discriminator 1
 1264 0306 FA6C     		ldr	r2, [r7, #76]
 1265 0308 3B68     		ldr	r3, [r7]
 1266 030a 9A42     		cmp	r2, r3
 1267 030c EBDB     		blt	.L42
 1268              	.L40:
 271:STM32F10x_Speex_Lib/STM32/libspeex/ltp.c ****       }
 272:STM32F10x_Speex_Lib/STM32/libspeex/ltp.c ****    }      
 273:STM32F10x_Speex_Lib/STM32/libspeex/ltp.c **** #endif
 274:STM32F10x_Speex_Lib/STM32/libspeex/ltp.c **** 
 275:STM32F10x_Speex_Lib/STM32/libspeex/ltp.c ****    /* Search for the best pitch prediction gain */
 276:STM32F10x_Speex_Lib/STM32/libspeex/ltp.c ****    for (i=start;i<=end;i++)
 1269              		.loc 3 276 0 is_stmt 1
 1270 030e BB68     		ldr	r3, [r7, #8]
 1271 0310 FB64     		str	r3, [r7, #76]
 1272 0312 DEE0     		b	.L43
 1273              	.L50:
 1274              	.LBB3:
 277:STM32F10x_Speex_Lib/STM32/libspeex/ltp.c ****    {
 278:STM32F10x_Speex_Lib/STM32/libspeex/ltp.c ****       spx_word16_t tmp = MULT16_16_16(corr16[i-start],corr16[i-start]);
 1275              		.loc 3 278 0
 1276 0314 FA6C     		ldr	r2, [r7, #76]
 1277 0316 BB68     		ldr	r3, [r7, #8]
ARM GAS  /var/folders/kh/x4vltyy52lbg7p4pcyglc5080000gp/T//cc2IG9vv.s 			page 33


 1278 0318 D31A     		subs	r3, r2, r3
 1279 031a 5B00     		lsls	r3, r3, #1
 1280 031c 3A6B     		ldr	r2, [r7, #48]
 1281 031e 1344     		add	r3, r3, r2
 1282 0320 B3F90030 		ldrsh	r3, [r3]
 1283 0324 9BB2     		uxth	r3, r3
 1284 0326 F96C     		ldr	r1, [r7, #76]
 1285 0328 BA68     		ldr	r2, [r7, #8]
 1286 032a 8A1A     		subs	r2, r1, r2
 1287 032c 5200     		lsls	r2, r2, #1
 1288 032e 396B     		ldr	r1, [r7, #48]
 1289 0330 0A44     		add	r2, r2, r1
 1290 0332 B2F90020 		ldrsh	r2, [r2]
 1291 0336 92B2     		uxth	r2, r2
 1292 0338 02FB03F3 		mul	r3, r2, r3
 1293 033c 9BB2     		uxth	r3, r3
 1294 033e FB82     		strh	r3, [r7, #22]	@ movhi
 279:STM32F10x_Speex_Lib/STM32/libspeex/ltp.c ****       /* Instead of dividing the tmp by the energy, we multiply on the other side */
 280:STM32F10x_Speex_Lib/STM32/libspeex/ltp.c ****       if (MULT16_16(tmp,best_ener[N-1])>MULT16_16(best_score[N-1],ADD16(1,ener16[i-start])))
 1295              		.loc 3 280 0
 1296 0340 B7F91620 		ldrsh	r2, [r7, #22]
 1297 0344 BB6E     		ldr	r3, [r7, #104]
 1298 0346 03F18043 		add	r3, r3, #1073741824
 1299 034a 013B     		subs	r3, r3, #1
 1300 034c 9B00     		lsls	r3, r3, #2
 1301 034e F969     		ldr	r1, [r7, #28]
 1302 0350 0B44     		add	r3, r3, r1
 1303 0352 1B68     		ldr	r3, [r3]
 1304 0354 1BB2     		sxth	r3, r3
 1305 0356 03FB02F2 		mul	r2, r3, r2
 1306 035a BB6E     		ldr	r3, [r7, #104]
 1307 035c 03F18043 		add	r3, r3, #1073741824
 1308 0360 013B     		subs	r3, r3, #1
 1309 0362 9B00     		lsls	r3, r3, #2
 1310 0364 396A     		ldr	r1, [r7, #32]
 1311 0366 0B44     		add	r3, r3, r1
 1312 0368 1B68     		ldr	r3, [r3]
 1313 036a 1BB2     		sxth	r3, r3
 1314 036c 1846     		mov	r0, r3
 1315 036e F96C     		ldr	r1, [r7, #76]
 1316 0370 BB68     		ldr	r3, [r7, #8]
 1317 0372 CB1A     		subs	r3, r1, r3
 1318 0374 5B00     		lsls	r3, r3, #1
 1319 0376 F96A     		ldr	r1, [r7, #44]
 1320 0378 0B44     		add	r3, r3, r1
 1321 037a B3F90030 		ldrsh	r3, [r3]
 1322 037e 9BB2     		uxth	r3, r3
 1323 0380 0133     		adds	r3, r3, #1
 1324 0382 9BB2     		uxth	r3, r3
 1325 0384 1BB2     		sxth	r3, r3
 1326 0386 03FB00F3 		mul	r3, r3, r0
 1327 038a 9A42     		cmp	r2, r3
 1328 038c 40F39E80 		ble	.L44
 281:STM32F10x_Speex_Lib/STM32/libspeex/ltp.c ****       {
 282:STM32F10x_Speex_Lib/STM32/libspeex/ltp.c ****          /* We can safely put it last and then check */
 283:STM32F10x_Speex_Lib/STM32/libspeex/ltp.c ****          best_score[N-1]=tmp;
 1329              		.loc 3 283 0
ARM GAS  /var/folders/kh/x4vltyy52lbg7p4pcyglc5080000gp/T//cc2IG9vv.s 			page 34


 1330 0390 BB6E     		ldr	r3, [r7, #104]
 1331 0392 03F18043 		add	r3, r3, #1073741824
 1332 0396 013B     		subs	r3, r3, #1
 1333 0398 9B00     		lsls	r3, r3, #2
 1334 039a 3A6A     		ldr	r2, [r7, #32]
 1335 039c 1344     		add	r3, r3, r2
 1336 039e B7F91620 		ldrsh	r2, [r7, #22]
 1337 03a2 1A60     		str	r2, [r3]
 284:STM32F10x_Speex_Lib/STM32/libspeex/ltp.c ****          best_ener[N-1]=ener16[i-start]+1;
 1338              		.loc 3 284 0
 1339 03a4 BB6E     		ldr	r3, [r7, #104]
 1340 03a6 03F18043 		add	r3, r3, #1073741824
 1341 03aa 013B     		subs	r3, r3, #1
 1342 03ac 9B00     		lsls	r3, r3, #2
 1343 03ae FA69     		ldr	r2, [r7, #28]
 1344 03b0 1344     		add	r3, r3, r2
 1345 03b2 F96C     		ldr	r1, [r7, #76]
 1346 03b4 BA68     		ldr	r2, [r7, #8]
 1347 03b6 8A1A     		subs	r2, r1, r2
 1348 03b8 5200     		lsls	r2, r2, #1
 1349 03ba F96A     		ldr	r1, [r7, #44]
 1350 03bc 0A44     		add	r2, r2, r1
 1351 03be B2F90020 		ldrsh	r2, [r2]
 1352 03c2 0132     		adds	r2, r2, #1
 1353 03c4 1A60     		str	r2, [r3]
 285:STM32F10x_Speex_Lib/STM32/libspeex/ltp.c ****          pitch[N-1]=i;
 1354              		.loc 3 285 0
 1355 03c6 BB6E     		ldr	r3, [r7, #104]
 1356 03c8 03F18043 		add	r3, r3, #1073741824
 1357 03cc 013B     		subs	r3, r3, #1
 1358 03ce 9B00     		lsls	r3, r3, #2
 1359 03d0 3A6E     		ldr	r2, [r7, #96]
 1360 03d2 1344     		add	r3, r3, r2
 1361 03d4 FA6C     		ldr	r2, [r7, #76]
 1362 03d6 1A60     		str	r2, [r3]
 286:STM32F10x_Speex_Lib/STM32/libspeex/ltp.c ****          /* Check if it comes in front of others */
 287:STM32F10x_Speex_Lib/STM32/libspeex/ltp.c ****          for (j=0;j<N-1;j++)
 1363              		.loc 3 287 0
 1364 03d8 0023     		movs	r3, #0
 1365 03da BB64     		str	r3, [r7, #72]
 1366 03dc 71E0     		b	.L45
 1367              	.L49:
 288:STM32F10x_Speex_Lib/STM32/libspeex/ltp.c ****          {
 289:STM32F10x_Speex_Lib/STM32/libspeex/ltp.c ****             if (MULT16_16(tmp,best_ener[j])>MULT16_16(best_score[j],ADD16(1,ener16[i-start])))
 1368              		.loc 3 289 0
 1369 03de B7F91630 		ldrsh	r3, [r7, #22]
 1370 03e2 BA6C     		ldr	r2, [r7, #72]
 1371 03e4 9200     		lsls	r2, r2, #2
 1372 03e6 F969     		ldr	r1, [r7, #28]
 1373 03e8 0A44     		add	r2, r2, r1
 1374 03ea 1268     		ldr	r2, [r2]
 1375 03ec 12B2     		sxth	r2, r2
 1376 03ee 02FB03F2 		mul	r2, r2, r3
 1377 03f2 BB6C     		ldr	r3, [r7, #72]
 1378 03f4 9B00     		lsls	r3, r3, #2
 1379 03f6 396A     		ldr	r1, [r7, #32]
 1380 03f8 0B44     		add	r3, r3, r1
ARM GAS  /var/folders/kh/x4vltyy52lbg7p4pcyglc5080000gp/T//cc2IG9vv.s 			page 35


 1381 03fa 1B68     		ldr	r3, [r3]
 1382 03fc 1BB2     		sxth	r3, r3
 1383 03fe 1846     		mov	r0, r3
 1384 0400 F96C     		ldr	r1, [r7, #76]
 1385 0402 BB68     		ldr	r3, [r7, #8]
 1386 0404 CB1A     		subs	r3, r1, r3
 1387 0406 5B00     		lsls	r3, r3, #1
 1388 0408 F96A     		ldr	r1, [r7, #44]
 1389 040a 0B44     		add	r3, r3, r1
 1390 040c B3F90030 		ldrsh	r3, [r3]
 1391 0410 9BB2     		uxth	r3, r3
 1392 0412 0133     		adds	r3, r3, #1
 1393 0414 9BB2     		uxth	r3, r3
 1394 0416 1BB2     		sxth	r3, r3
 1395 0418 03FB00F3 		mul	r3, r3, r0
 1396 041c 9A42     		cmp	r2, r3
 1397 041e 4DDD     		ble	.L46
 290:STM32F10x_Speex_Lib/STM32/libspeex/ltp.c ****             {
 291:STM32F10x_Speex_Lib/STM32/libspeex/ltp.c ****                for (k=N-1;k>j;k--)
 1398              		.loc 3 291 0
 1399 0420 BB6E     		ldr	r3, [r7, #104]
 1400 0422 013B     		subs	r3, r3, #1
 1401 0424 7B64     		str	r3, [r7, #68]
 1402 0426 29E0     		b	.L47
 1403              	.L48:
 292:STM32F10x_Speex_Lib/STM32/libspeex/ltp.c ****                {
 293:STM32F10x_Speex_Lib/STM32/libspeex/ltp.c ****                   best_score[k]=best_score[k-1];
 1404              		.loc 3 293 0 discriminator 3
 1405 0428 7B6C     		ldr	r3, [r7, #68]
 1406 042a 9B00     		lsls	r3, r3, #2
 1407 042c 3A6A     		ldr	r2, [r7, #32]
 1408 042e 1A44     		add	r2, r2, r3
 1409 0430 7B6C     		ldr	r3, [r7, #68]
 1410 0432 03F18043 		add	r3, r3, #1073741824
 1411 0436 013B     		subs	r3, r3, #1
 1412 0438 9B00     		lsls	r3, r3, #2
 1413 043a 396A     		ldr	r1, [r7, #32]
 1414 043c 0B44     		add	r3, r3, r1
 1415 043e 1B68     		ldr	r3, [r3]
 1416 0440 1360     		str	r3, [r2]
 294:STM32F10x_Speex_Lib/STM32/libspeex/ltp.c ****                   best_ener[k]=best_ener[k-1];
 1417              		.loc 3 294 0 discriminator 3
 1418 0442 7B6C     		ldr	r3, [r7, #68]
 1419 0444 9B00     		lsls	r3, r3, #2
 1420 0446 FA69     		ldr	r2, [r7, #28]
 1421 0448 1A44     		add	r2, r2, r3
 1422 044a 7B6C     		ldr	r3, [r7, #68]
 1423 044c 03F18043 		add	r3, r3, #1073741824
 1424 0450 013B     		subs	r3, r3, #1
 1425 0452 9B00     		lsls	r3, r3, #2
 1426 0454 F969     		ldr	r1, [r7, #28]
 1427 0456 0B44     		add	r3, r3, r1
 1428 0458 1B68     		ldr	r3, [r3]
 1429 045a 1360     		str	r3, [r2]
 295:STM32F10x_Speex_Lib/STM32/libspeex/ltp.c ****                   pitch[k]=pitch[k-1];
 1430              		.loc 3 295 0 discriminator 3
 1431 045c 7B6C     		ldr	r3, [r7, #68]
ARM GAS  /var/folders/kh/x4vltyy52lbg7p4pcyglc5080000gp/T//cc2IG9vv.s 			page 36


 1432 045e 9B00     		lsls	r3, r3, #2
 1433 0460 3A6E     		ldr	r2, [r7, #96]
 1434 0462 1A44     		add	r2, r2, r3
 1435 0464 7B6C     		ldr	r3, [r7, #68]
 1436 0466 03F18043 		add	r3, r3, #1073741824
 1437 046a 013B     		subs	r3, r3, #1
 1438 046c 9B00     		lsls	r3, r3, #2
 1439 046e 396E     		ldr	r1, [r7, #96]
 1440 0470 0B44     		add	r3, r3, r1
 1441 0472 1B68     		ldr	r3, [r3]
 1442 0474 1360     		str	r3, [r2]
 291:STM32F10x_Speex_Lib/STM32/libspeex/ltp.c ****                {
 1443              		.loc 3 291 0 discriminator 3
 1444 0476 7B6C     		ldr	r3, [r7, #68]
 1445 0478 013B     		subs	r3, r3, #1
 1446 047a 7B64     		str	r3, [r7, #68]
 1447              	.L47:
 291:STM32F10x_Speex_Lib/STM32/libspeex/ltp.c ****                {
 1448              		.loc 3 291 0 is_stmt 0 discriminator 1
 1449 047c 7A6C     		ldr	r2, [r7, #68]
 1450 047e BB6C     		ldr	r3, [r7, #72]
 1451 0480 9A42     		cmp	r2, r3
 1452 0482 D1DC     		bgt	.L48
 296:STM32F10x_Speex_Lib/STM32/libspeex/ltp.c ****                }
 297:STM32F10x_Speex_Lib/STM32/libspeex/ltp.c ****                best_score[j]=tmp;
 1453              		.loc 3 297 0 is_stmt 1
 1454 0484 BB6C     		ldr	r3, [r7, #72]
 1455 0486 9B00     		lsls	r3, r3, #2
 1456 0488 3A6A     		ldr	r2, [r7, #32]
 1457 048a 1344     		add	r3, r3, r2
 1458 048c B7F91620 		ldrsh	r2, [r7, #22]
 1459 0490 1A60     		str	r2, [r3]
 298:STM32F10x_Speex_Lib/STM32/libspeex/ltp.c ****                best_ener[j]=ener16[i-start]+1;
 1460              		.loc 3 298 0
 1461 0492 BB6C     		ldr	r3, [r7, #72]
 1462 0494 9B00     		lsls	r3, r3, #2
 1463 0496 FA69     		ldr	r2, [r7, #28]
 1464 0498 1344     		add	r3, r3, r2
 1465 049a F96C     		ldr	r1, [r7, #76]
 1466 049c BA68     		ldr	r2, [r7, #8]
 1467 049e 8A1A     		subs	r2, r1, r2
 1468 04a0 5200     		lsls	r2, r2, #1
 1469 04a2 F96A     		ldr	r1, [r7, #44]
 1470 04a4 0A44     		add	r2, r2, r1
 1471 04a6 B2F90020 		ldrsh	r2, [r2]
 1472 04aa 0132     		adds	r2, r2, #1
 1473 04ac 1A60     		str	r2, [r3]
 299:STM32F10x_Speex_Lib/STM32/libspeex/ltp.c ****                pitch[j]=i;
 1474              		.loc 3 299 0
 1475 04ae BB6C     		ldr	r3, [r7, #72]
 1476 04b0 9B00     		lsls	r3, r3, #2
 1477 04b2 3A6E     		ldr	r2, [r7, #96]
 1478 04b4 1344     		add	r3, r3, r2
 1479 04b6 FA6C     		ldr	r2, [r7, #76]
 1480 04b8 1A60     		str	r2, [r3]
 300:STM32F10x_Speex_Lib/STM32/libspeex/ltp.c ****                break;
 1481              		.loc 3 300 0
ARM GAS  /var/folders/kh/x4vltyy52lbg7p4pcyglc5080000gp/T//cc2IG9vv.s 			page 37


 1482 04ba 07E0     		b	.L44
 1483              	.L46:
 287:STM32F10x_Speex_Lib/STM32/libspeex/ltp.c ****          {
 1484              		.loc 3 287 0 discriminator 2
 1485 04bc BB6C     		ldr	r3, [r7, #72]
 1486 04be 0133     		adds	r3, r3, #1
 1487 04c0 BB64     		str	r3, [r7, #72]
 1488              	.L45:
 287:STM32F10x_Speex_Lib/STM32/libspeex/ltp.c ****          {
 1489              		.loc 3 287 0 is_stmt 0 discriminator 1
 1490 04c2 BB6E     		ldr	r3, [r7, #104]
 1491 04c4 5A1E     		subs	r2, r3, #1
 1492 04c6 BB6C     		ldr	r3, [r7, #72]
 1493 04c8 9A42     		cmp	r2, r3
 1494 04ca 88DC     		bgt	.L49
 1495              	.L44:
 1496              	.LBE3:
 276:STM32F10x_Speex_Lib/STM32/libspeex/ltp.c ****    {
 1497              		.loc 3 276 0 is_stmt 1 discriminator 2
 1498 04cc FB6C     		ldr	r3, [r7, #76]
 1499 04ce 0133     		adds	r3, r3, #1
 1500 04d0 FB64     		str	r3, [r7, #76]
 1501              	.L43:
 276:STM32F10x_Speex_Lib/STM32/libspeex/ltp.c ****    {
 1502              		.loc 3 276 0 is_stmt 0 discriminator 1
 1503 04d2 FA6C     		ldr	r2, [r7, #76]
 1504 04d4 7B68     		ldr	r3, [r7, #4]
 1505 04d6 9A42     		cmp	r2, r3
 1506 04d8 7FF71CAF 		ble	.L50
 301:STM32F10x_Speex_Lib/STM32/libspeex/ltp.c ****             }
 302:STM32F10x_Speex_Lib/STM32/libspeex/ltp.c ****          }
 303:STM32F10x_Speex_Lib/STM32/libspeex/ltp.c ****       }
 304:STM32F10x_Speex_Lib/STM32/libspeex/ltp.c ****    }
 305:STM32F10x_Speex_Lib/STM32/libspeex/ltp.c ****    
 306:STM32F10x_Speex_Lib/STM32/libspeex/ltp.c ****    /* Compute open-loop gain if necessary */
 307:STM32F10x_Speex_Lib/STM32/libspeex/ltp.c ****    if (gain)
 1507              		.loc 3 307 0 is_stmt 1
 1508 04dc 7B6E     		ldr	r3, [r7, #100]
 1509 04de 002B     		cmp	r3, #0
 1510 04e0 43D0     		beq	.L55
 308:STM32F10x_Speex_Lib/STM32/libspeex/ltp.c ****    {
 309:STM32F10x_Speex_Lib/STM32/libspeex/ltp.c ****       for (j=0;j<N;j++)
 1511              		.loc 3 309 0
 1512 04e2 0023     		movs	r3, #0
 1513 04e4 BB64     		str	r3, [r7, #72]
 1514 04e6 3CE0     		b	.L52
 1515              	.L54:
 1516              	.LBB4:
 310:STM32F10x_Speex_Lib/STM32/libspeex/ltp.c ****       {
 311:STM32F10x_Speex_Lib/STM32/libspeex/ltp.c ****          spx_word16_t g;
 312:STM32F10x_Speex_Lib/STM32/libspeex/ltp.c ****          i=pitch[j];
 1517              		.loc 3 312 0
 1518 04e8 BB6C     		ldr	r3, [r7, #72]
 1519 04ea 9B00     		lsls	r3, r3, #2
 1520 04ec 3A6E     		ldr	r2, [r7, #96]
 1521 04ee 1344     		add	r3, r3, r2
 1522 04f0 1B68     		ldr	r3, [r3]
ARM GAS  /var/folders/kh/x4vltyy52lbg7p4pcyglc5080000gp/T//cc2IG9vv.s 			page 38


 1523 04f2 FB64     		str	r3, [r7, #76]
 313:STM32F10x_Speex_Lib/STM32/libspeex/ltp.c ****          g = DIV32(SHL32(EXTEND32(corr16[i-start]),cshift), 10+SHR32(MULT16_16(spx_sqrt(e0),spx_sqr
 1524              		.loc 3 313 0
 1525 04f4 FA6C     		ldr	r2, [r7, #76]
 1526 04f6 BB68     		ldr	r3, [r7, #8]
 1527 04f8 D31A     		subs	r3, r2, r3
 1528 04fa 5B00     		lsls	r3, r3, #1
 1529 04fc 3A6B     		ldr	r2, [r7, #48]
 1530 04fe 1344     		add	r3, r3, r2
 1531 0500 B3F90030 		ldrsh	r3, [r3]
 1532 0504 1A46     		mov	r2, r3
 1533 0506 BB6B     		ldr	r3, [r7, #56]
 1534 0508 02FA03F4 		lsl	r4, r2, r3
 1535 050c B869     		ldr	r0, [r7, #24]
 1536 050e FFF7FEFF 		bl	spx_sqrt
 1537 0512 0346     		mov	r3, r0
 1538 0514 1D46     		mov	r5, r3
 1539 0516 FA6C     		ldr	r2, [r7, #76]
 1540 0518 BB68     		ldr	r3, [r7, #8]
 1541 051a D31A     		subs	r3, r2, r3
 1542 051c 5B00     		lsls	r3, r3, #1
 1543 051e FA6A     		ldr	r2, [r7, #44]
 1544 0520 1344     		add	r3, r3, r2
 1545 0522 B3F90030 		ldrsh	r3, [r3]
 1546 0526 1A46     		mov	r2, r3
 1547 0528 7B6B     		ldr	r3, [r7, #52]
 1548 052a 02FA03F3 		lsl	r3, r2, r3
 1549 052e 1846     		mov	r0, r3
 1550 0530 FFF7FEFF 		bl	spx_sqrt
 1551 0534 0346     		mov	r3, r0
 1552 0536 03FB05F3 		mul	r3, r3, r5
 1553 053a 9B11     		asrs	r3, r3, #6
 1554 053c 0A33     		adds	r3, r3, #10
 1555 053e 94FBF3F3 		sdiv	r3, r4, r3
 1556 0542 FB87     		strh	r3, [r7, #62]	@ movhi
 314:STM32F10x_Speex_Lib/STM32/libspeex/ltp.c ****          /* FIXME: g = max(g,corr/energy) */
 315:STM32F10x_Speex_Lib/STM32/libspeex/ltp.c ****          if (g<0)
 1557              		.loc 3 315 0
 1558 0544 B7F93E30 		ldrsh	r3, [r7, #62]
 1559 0548 002B     		cmp	r3, #0
 1560 054a 01DA     		bge	.L53
 316:STM32F10x_Speex_Lib/STM32/libspeex/ltp.c ****             g = 0;
 1561              		.loc 3 316 0
 1562 054c 0023     		movs	r3, #0
 1563 054e FB87     		strh	r3, [r7, #62]	@ movhi
 1564              	.L53:
 317:STM32F10x_Speex_Lib/STM32/libspeex/ltp.c ****          gain[j]=g;
 1565              		.loc 3 317 0 discriminator 2
 1566 0550 BB6C     		ldr	r3, [r7, #72]
 1567 0552 5B00     		lsls	r3, r3, #1
 1568 0554 7A6E     		ldr	r2, [r7, #100]
 1569 0556 1344     		add	r3, r3, r2
 1570 0558 FA8F     		ldrh	r2, [r7, #62]	@ movhi
 1571 055a 1A80     		strh	r2, [r3]	@ movhi
 1572              	.LBE4:
 309:STM32F10x_Speex_Lib/STM32/libspeex/ltp.c ****       {
 1573              		.loc 3 309 0 discriminator 2
ARM GAS  /var/folders/kh/x4vltyy52lbg7p4pcyglc5080000gp/T//cc2IG9vv.s 			page 39


 1574 055c BB6C     		ldr	r3, [r7, #72]
 1575 055e 0133     		adds	r3, r3, #1
 1576 0560 BB64     		str	r3, [r7, #72]
 1577              	.L52:
 309:STM32F10x_Speex_Lib/STM32/libspeex/ltp.c ****       {
 1578              		.loc 3 309 0 is_stmt 0 discriminator 1
 1579 0562 BA6C     		ldr	r2, [r7, #72]
 1580 0564 BB6E     		ldr	r3, [r7, #104]
 1581 0566 9A42     		cmp	r2, r3
 1582 0568 BEDB     		blt	.L54
 1583              	.L55:
 318:STM32F10x_Speex_Lib/STM32/libspeex/ltp.c ****       }
 319:STM32F10x_Speex_Lib/STM32/libspeex/ltp.c ****    }
 320:STM32F10x_Speex_Lib/STM32/libspeex/ltp.c **** 
 321:STM32F10x_Speex_Lib/STM32/libspeex/ltp.c **** 
 322:STM32F10x_Speex_Lib/STM32/libspeex/ltp.c **** }
 1584              		.loc 3 322 0 is_stmt 1
 1585 056a 00BF     		nop
 1586 056c 5037     		adds	r7, r7, #80
 1587              	.LCFI24:
 1588              		.cfi_def_cfa_offset 16
 1589 056e BD46     		mov	sp, r7
 1590              	.LCFI25:
 1591              		.cfi_def_cfa_register 13
 1592              		@ sp needed
 1593 0570 B0BD     		pop	{r4, r5, r7, pc}
 1594              		.cfi_endproc
 1595              	.LFE23:
 1597 0572 00BF     		.section	.text.pitch_gain_search_3tap,"ax",%progbits
 1598              		.align	2
 1599              		.thumb
 1600              		.thumb_func
 1602              	pitch_gain_search_3tap:
 1603              	.LFB24:
 323:STM32F10x_Speex_Lib/STM32/libspeex/ltp.c **** #endif
 324:STM32F10x_Speex_Lib/STM32/libspeex/ltp.c **** 
 325:STM32F10x_Speex_Lib/STM32/libspeex/ltp.c **** #ifndef OVERRIDE_PITCH_GAIN_SEARCH_3TAP_VQ
 326:STM32F10x_Speex_Lib/STM32/libspeex/ltp.c **** static int pitch_gain_search_3tap_vq(
 327:STM32F10x_Speex_Lib/STM32/libspeex/ltp.c ****   const signed char *gain_cdbk,
 328:STM32F10x_Speex_Lib/STM32/libspeex/ltp.c ****   int                gain_cdbk_size,
 329:STM32F10x_Speex_Lib/STM32/libspeex/ltp.c ****   spx_word16_t      *C16,
 330:STM32F10x_Speex_Lib/STM32/libspeex/ltp.c ****   spx_word16_t       max_gain
 331:STM32F10x_Speex_Lib/STM32/libspeex/ltp.c **** )
 332:STM32F10x_Speex_Lib/STM32/libspeex/ltp.c **** {
 333:STM32F10x_Speex_Lib/STM32/libspeex/ltp.c ****   const signed char *ptr=gain_cdbk;
 334:STM32F10x_Speex_Lib/STM32/libspeex/ltp.c ****   int                best_cdbk=0;
 335:STM32F10x_Speex_Lib/STM32/libspeex/ltp.c ****   spx_word32_t       best_sum=-VERY_LARGE32;
 336:STM32F10x_Speex_Lib/STM32/libspeex/ltp.c ****   spx_word32_t       sum=0;
 337:STM32F10x_Speex_Lib/STM32/libspeex/ltp.c ****   spx_word16_t       g[3];
 338:STM32F10x_Speex_Lib/STM32/libspeex/ltp.c ****   spx_word16_t       pitch_control=64;
 339:STM32F10x_Speex_Lib/STM32/libspeex/ltp.c ****   spx_word16_t       gain_sum;
 340:STM32F10x_Speex_Lib/STM32/libspeex/ltp.c ****   int                i;
 341:STM32F10x_Speex_Lib/STM32/libspeex/ltp.c **** 
 342:STM32F10x_Speex_Lib/STM32/libspeex/ltp.c ****   for (i=0;i<gain_cdbk_size;i++) {
 343:STM32F10x_Speex_Lib/STM32/libspeex/ltp.c ****          
 344:STM32F10x_Speex_Lib/STM32/libspeex/ltp.c ****     ptr = gain_cdbk+4*i;
 345:STM32F10x_Speex_Lib/STM32/libspeex/ltp.c ****     g[0]=ADD16((spx_word16_t)ptr[0],32);
ARM GAS  /var/folders/kh/x4vltyy52lbg7p4pcyglc5080000gp/T//cc2IG9vv.s 			page 40


 346:STM32F10x_Speex_Lib/STM32/libspeex/ltp.c ****     g[1]=ADD16((spx_word16_t)ptr[1],32);
 347:STM32F10x_Speex_Lib/STM32/libspeex/ltp.c ****     g[2]=ADD16((spx_word16_t)ptr[2],32);
 348:STM32F10x_Speex_Lib/STM32/libspeex/ltp.c ****     gain_sum = (spx_word16_t)ptr[3];
 349:STM32F10x_Speex_Lib/STM32/libspeex/ltp.c ****          
 350:STM32F10x_Speex_Lib/STM32/libspeex/ltp.c ****     sum = compute_pitch_error(C16, g, pitch_control);
 351:STM32F10x_Speex_Lib/STM32/libspeex/ltp.c ****          
 352:STM32F10x_Speex_Lib/STM32/libspeex/ltp.c ****     if (sum>best_sum && gain_sum<=max_gain) {
 353:STM32F10x_Speex_Lib/STM32/libspeex/ltp.c ****       best_sum=sum;
 354:STM32F10x_Speex_Lib/STM32/libspeex/ltp.c ****       best_cdbk=i;
 355:STM32F10x_Speex_Lib/STM32/libspeex/ltp.c ****     }
 356:STM32F10x_Speex_Lib/STM32/libspeex/ltp.c ****   }
 357:STM32F10x_Speex_Lib/STM32/libspeex/ltp.c **** 
 358:STM32F10x_Speex_Lib/STM32/libspeex/ltp.c ****   return best_cdbk;
 359:STM32F10x_Speex_Lib/STM32/libspeex/ltp.c **** }
 360:STM32F10x_Speex_Lib/STM32/libspeex/ltp.c **** #endif
 361:STM32F10x_Speex_Lib/STM32/libspeex/ltp.c **** 
 362:STM32F10x_Speex_Lib/STM32/libspeex/ltp.c **** /** Finds the best quantized 3-tap pitch predictor by analysis by synthesis */
 363:STM32F10x_Speex_Lib/STM32/libspeex/ltp.c **** static spx_word32_t pitch_gain_search_3tap(
 364:STM32F10x_Speex_Lib/STM32/libspeex/ltp.c **** const spx_word16_t target[],       /* Target vector */
 365:STM32F10x_Speex_Lib/STM32/libspeex/ltp.c **** const spx_coef_t ak[],          /* LPCs for this subframe */
 366:STM32F10x_Speex_Lib/STM32/libspeex/ltp.c **** const spx_coef_t awk1[],        /* Weighted LPCs #1 for this subframe */
 367:STM32F10x_Speex_Lib/STM32/libspeex/ltp.c **** const spx_coef_t awk2[],        /* Weighted LPCs #2 for this subframe */
 368:STM32F10x_Speex_Lib/STM32/libspeex/ltp.c **** spx_sig_t exc[],                /* Excitation */
 369:STM32F10x_Speex_Lib/STM32/libspeex/ltp.c **** const signed char *gain_cdbk,
 370:STM32F10x_Speex_Lib/STM32/libspeex/ltp.c **** int gain_cdbk_size,
 371:STM32F10x_Speex_Lib/STM32/libspeex/ltp.c **** int   pitch,                    /* Pitch value */
 372:STM32F10x_Speex_Lib/STM32/libspeex/ltp.c **** int   p,                        /* Number of LPC coeffs */
 373:STM32F10x_Speex_Lib/STM32/libspeex/ltp.c **** int   nsf,                      /* Number of samples in subframe */
 374:STM32F10x_Speex_Lib/STM32/libspeex/ltp.c **** SpeexBits *bits,
 375:STM32F10x_Speex_Lib/STM32/libspeex/ltp.c **** char *stack,
 376:STM32F10x_Speex_Lib/STM32/libspeex/ltp.c **** const spx_word16_t *exc2,
 377:STM32F10x_Speex_Lib/STM32/libspeex/ltp.c **** const spx_word16_t *r,
 378:STM32F10x_Speex_Lib/STM32/libspeex/ltp.c **** spx_word16_t *new_target,
 379:STM32F10x_Speex_Lib/STM32/libspeex/ltp.c **** int  *cdbk_index,
 380:STM32F10x_Speex_Lib/STM32/libspeex/ltp.c **** int plc_tuning,
 381:STM32F10x_Speex_Lib/STM32/libspeex/ltp.c **** spx_word32_t cumul_gain,
 382:STM32F10x_Speex_Lib/STM32/libspeex/ltp.c **** int scaledown
 383:STM32F10x_Speex_Lib/STM32/libspeex/ltp.c **** )
 384:STM32F10x_Speex_Lib/STM32/libspeex/ltp.c **** {
 1604              		.loc 3 384 0
 1605              		.cfi_startproc
 1606              		@ args = 60, pretend = 0, frame = 200
 1607              		@ frame_needed = 1, uses_anonymous_args = 0
 1608 0000 90B5     		push	{r4, r7, lr}
 1609              	.LCFI26:
 1610              		.cfi_def_cfa_offset 12
 1611              		.cfi_offset 4, -12
 1612              		.cfi_offset 7, -8
 1613              		.cfi_offset 14, -4
 1614 0002 B7B0     		sub	sp, sp, #220
 1615              	.LCFI27:
 1616              		.cfi_def_cfa_offset 232
 1617 0004 04AF     		add	r7, sp, #16
 1618              	.LCFI28:
 1619              		.cfi_def_cfa 7, 216
 1620 0006 F860     		str	r0, [r7, #12]
 1621 0008 B960     		str	r1, [r7, #8]
ARM GAS  /var/folders/kh/x4vltyy52lbg7p4pcyglc5080000gp/T//cc2IG9vv.s 			page 41


 1622 000a 7A60     		str	r2, [r7, #4]
 1623 000c 3B60     		str	r3, [r7]
 385:STM32F10x_Speex_Lib/STM32/libspeex/ltp.c ****    int i,j;
 386:STM32F10x_Speex_Lib/STM32/libspeex/ltp.c ****    VARDECL(spx_word16_t *tmp1);
 387:STM32F10x_Speex_Lib/STM32/libspeex/ltp.c ****    VARDECL(spx_word16_t *e);
 388:STM32F10x_Speex_Lib/STM32/libspeex/ltp.c ****    spx_word16_t *x[3];
 389:STM32F10x_Speex_Lib/STM32/libspeex/ltp.c ****    spx_word32_t corr[3];
 390:STM32F10x_Speex_Lib/STM32/libspeex/ltp.c ****    spx_word32_t A[3][3];
 391:STM32F10x_Speex_Lib/STM32/libspeex/ltp.c ****    spx_word16_t gain[3];
 392:STM32F10x_Speex_Lib/STM32/libspeex/ltp.c ****    spx_word32_t err;
 393:STM32F10x_Speex_Lib/STM32/libspeex/ltp.c ****    spx_word16_t max_gain=128;
 1624              		.loc 3 393 0
 1625 000e 8023     		movs	r3, #128
 1626 0010 A7F8BE30 		strh	r3, [r7, #190]	@ movhi
 394:STM32F10x_Speex_Lib/STM32/libspeex/ltp.c ****    int          best_cdbk=0;
 1627              		.loc 3 394 0
 1628 0014 0023     		movs	r3, #0
 1629 0016 C7F8AC30 		str	r3, [r7, #172]
 395:STM32F10x_Speex_Lib/STM32/libspeex/ltp.c **** 
 396:STM32F10x_Speex_Lib/STM32/libspeex/ltp.c ****    ALLOC(tmp1, 3*nsf, spx_word16_t);
 1630              		.loc 3 396 0
 1631 001a D7F8F430 		ldr	r3, [r7, #244]
 1632 001e 5B42     		negs	r3, r3
 1633 0020 03F00103 		and	r3, r3, #1
 1634 0024 D7F8F420 		ldr	r2, [r7, #244]
 1635 0028 1344     		add	r3, r3, r2
 1636 002a C7F8F430 		str	r3, [r7, #244]
 1637 002e D7F8EC20 		ldr	r2, [r7, #236]
 1638 0032 1346     		mov	r3, r2
 1639 0034 5B00     		lsls	r3, r3, #1
 1640 0036 1344     		add	r3, r3, r2
 1641 0038 5B00     		lsls	r3, r3, #1
 1642 003a 1A46     		mov	r2, r3
 1643 003c D7F8F430 		ldr	r3, [r7, #244]
 1644 0040 1344     		add	r3, r3, r2
 1645 0042 C7F8F430 		str	r3, [r7, #244]
 1646 0046 D7F8EC20 		ldr	r2, [r7, #236]
 1647 004a 1346     		mov	r3, r2
 1648 004c 5B00     		lsls	r3, r3, #1
 1649 004e 1344     		add	r3, r3, r2
 1650 0050 5B00     		lsls	r3, r3, #1
 1651 0052 5B42     		negs	r3, r3
 1652 0054 D7F8F420 		ldr	r2, [r7, #244]
 1653 0058 1344     		add	r3, r3, r2
 1654 005a C7F8A830 		str	r3, [r7, #168]
 397:STM32F10x_Speex_Lib/STM32/libspeex/ltp.c ****    ALLOC(e, nsf, spx_word16_t);
 1655              		.loc 3 397 0
 1656 005e D7F8F430 		ldr	r3, [r7, #244]
 1657 0062 5B42     		negs	r3, r3
 1658 0064 03F00103 		and	r3, r3, #1
 1659 0068 D7F8F420 		ldr	r2, [r7, #244]
 1660 006c 1344     		add	r3, r3, r2
 1661 006e C7F8F430 		str	r3, [r7, #244]
 1662 0072 D7F8EC30 		ldr	r3, [r7, #236]
 1663 0076 5B00     		lsls	r3, r3, #1
 1664 0078 D7F8F420 		ldr	r2, [r7, #244]
 1665 007c 1344     		add	r3, r3, r2
ARM GAS  /var/folders/kh/x4vltyy52lbg7p4pcyglc5080000gp/T//cc2IG9vv.s 			page 42


 1666 007e C7F8F430 		str	r3, [r7, #244]
 1667 0082 D7F8EC30 		ldr	r3, [r7, #236]
 1668 0086 5B00     		lsls	r3, r3, #1
 1669 0088 5B42     		negs	r3, r3
 1670 008a D7F8F420 		ldr	r2, [r7, #244]
 1671 008e 1344     		add	r3, r3, r2
 1672 0090 C7F8A430 		str	r3, [r7, #164]
 398:STM32F10x_Speex_Lib/STM32/libspeex/ltp.c **** 
 399:STM32F10x_Speex_Lib/STM32/libspeex/ltp.c ****    if (cumul_gain > 262144)
 1673              		.loc 3 399 0
 1674 0094 D7F80C31 		ldr	r3, [r7, #268]
 1675 0098 B3F5802F 		cmp	r3, #262144
 1676 009c 02DD     		ble	.L57
 400:STM32F10x_Speex_Lib/STM32/libspeex/ltp.c ****       max_gain = 31;
 1677              		.loc 3 400 0
 1678 009e 1F23     		movs	r3, #31
 1679 00a0 A7F8BE30 		strh	r3, [r7, #190]	@ movhi
 1680              	.L57:
 401:STM32F10x_Speex_Lib/STM32/libspeex/ltp.c ****    
 402:STM32F10x_Speex_Lib/STM32/libspeex/ltp.c ****    x[0]=tmp1;
 1681              		.loc 3 402 0
 1682 00a4 D7F8A830 		ldr	r3, [r7, #168]
 1683 00a8 C7F88430 		str	r3, [r7, #132]
 403:STM32F10x_Speex_Lib/STM32/libspeex/ltp.c ****    x[1]=tmp1+nsf;
 1684              		.loc 3 403 0
 1685 00ac D7F8EC30 		ldr	r3, [r7, #236]
 1686 00b0 5B00     		lsls	r3, r3, #1
 1687 00b2 D7F8A820 		ldr	r2, [r7, #168]
 1688 00b6 1344     		add	r3, r3, r2
 1689 00b8 C7F88830 		str	r3, [r7, #136]
 404:STM32F10x_Speex_Lib/STM32/libspeex/ltp.c ****    x[2]=tmp1+2*nsf;
 1690              		.loc 3 404 0
 1691 00bc D7F8EC30 		ldr	r3, [r7, #236]
 1692 00c0 9B00     		lsls	r3, r3, #2
 1693 00c2 1A46     		mov	r2, r3
 1694 00c4 D7F8A830 		ldr	r3, [r7, #168]
 1695 00c8 1344     		add	r3, r3, r2
 1696 00ca C7F88C30 		str	r3, [r7, #140]
 405:STM32F10x_Speex_Lib/STM32/libspeex/ltp.c ****    
 406:STM32F10x_Speex_Lib/STM32/libspeex/ltp.c ****    for (j=0;j<nsf;j++)
 1697              		.loc 3 406 0
 1698 00ce 0023     		movs	r3, #0
 1699 00d0 C7F8C030 		str	r3, [r7, #192]
 1700 00d4 12E0     		b	.L58
 1701              	.L59:
 407:STM32F10x_Speex_Lib/STM32/libspeex/ltp.c ****       new_target[j] = target[j];
 1702              		.loc 3 407 0 discriminator 3
 1703 00d6 D7F8C030 		ldr	r3, [r7, #192]
 1704 00da 5B00     		lsls	r3, r3, #1
 1705 00dc D7F80021 		ldr	r2, [r7, #256]
 1706 00e0 1344     		add	r3, r3, r2
 1707 00e2 D7F8C020 		ldr	r2, [r7, #192]
 1708 00e6 5200     		lsls	r2, r2, #1
 1709 00e8 F968     		ldr	r1, [r7, #12]
 1710 00ea 0A44     		add	r2, r2, r1
 1711 00ec B2F90020 		ldrsh	r2, [r2]
 1712 00f0 1A80     		strh	r2, [r3]	@ movhi
ARM GAS  /var/folders/kh/x4vltyy52lbg7p4pcyglc5080000gp/T//cc2IG9vv.s 			page 43


 406:STM32F10x_Speex_Lib/STM32/libspeex/ltp.c ****       new_target[j] = target[j];
 1713              		.loc 3 406 0 discriminator 3
 1714 00f2 D7F8C030 		ldr	r3, [r7, #192]
 1715 00f6 0133     		adds	r3, r3, #1
 1716 00f8 C7F8C030 		str	r3, [r7, #192]
 1717              	.L58:
 406:STM32F10x_Speex_Lib/STM32/libspeex/ltp.c ****       new_target[j] = target[j];
 1718              		.loc 3 406 0 is_stmt 0 discriminator 1
 1719 00fc D7F8C020 		ldr	r2, [r7, #192]
 1720 0100 D7F8EC30 		ldr	r3, [r7, #236]
 1721 0104 9A42     		cmp	r2, r3
 1722 0106 E6DB     		blt	.L59
 1723              	.LBB5:
 408:STM32F10x_Speex_Lib/STM32/libspeex/ltp.c **** 
 409:STM32F10x_Speex_Lib/STM32/libspeex/ltp.c ****    {
 410:STM32F10x_Speex_Lib/STM32/libspeex/ltp.c ****       VARDECL(spx_mem_t *mm);
 411:STM32F10x_Speex_Lib/STM32/libspeex/ltp.c ****       int pp=pitch-1;
 1724              		.loc 3 411 0 is_stmt 1
 1725 0108 D7F8E430 		ldr	r3, [r7, #228]
 1726 010c 013B     		subs	r3, r3, #1
 1727 010e C7F8A030 		str	r3, [r7, #160]
 412:STM32F10x_Speex_Lib/STM32/libspeex/ltp.c ****       ALLOC(mm, p, spx_mem_t);
 1728              		.loc 3 412 0
 1729 0112 D7F8F430 		ldr	r3, [r7, #244]
 1730 0116 5B42     		negs	r3, r3
 1731 0118 03F00303 		and	r3, r3, #3
 1732 011c D7F8F420 		ldr	r2, [r7, #244]
 1733 0120 1344     		add	r3, r3, r2
 1734 0122 C7F8F430 		str	r3, [r7, #244]
 1735 0126 D7F8E830 		ldr	r3, [r7, #232]
 1736 012a 9B00     		lsls	r3, r3, #2
 1737 012c D7F8F420 		ldr	r2, [r7, #244]
 1738 0130 1344     		add	r3, r3, r2
 1739 0132 C7F8F430 		str	r3, [r7, #244]
 1740 0136 D7F8E830 		ldr	r3, [r7, #232]
 1741 013a 9B00     		lsls	r3, r3, #2
 1742 013c 5B42     		negs	r3, r3
 1743 013e D7F8F420 		ldr	r2, [r7, #244]
 1744 0142 1344     		add	r3, r3, r2
 1745 0144 C7F89C30 		str	r3, [r7, #156]
 413:STM32F10x_Speex_Lib/STM32/libspeex/ltp.c ****       for (j=0;j<nsf;j++)
 1746              		.loc 3 413 0
 1747 0148 0023     		movs	r3, #0
 1748 014a C7F8C030 		str	r3, [r7, #192]
 1749 014e 46E0     		b	.L60
 1750              	.L64:
 414:STM32F10x_Speex_Lib/STM32/libspeex/ltp.c ****       {
 415:STM32F10x_Speex_Lib/STM32/libspeex/ltp.c ****          if (j-pp<0)
 1751              		.loc 3 415 0
 1752 0150 D7F8C020 		ldr	r2, [r7, #192]
 1753 0154 D7F8A030 		ldr	r3, [r7, #160]
 1754 0158 D31A     		subs	r3, r2, r3
 1755 015a 002B     		cmp	r3, #0
 1756 015c 12DA     		bge	.L61
 416:STM32F10x_Speex_Lib/STM32/libspeex/ltp.c ****             e[j]=exc2[j-pp];
 1757              		.loc 3 416 0
 1758 015e D7F8C030 		ldr	r3, [r7, #192]
ARM GAS  /var/folders/kh/x4vltyy52lbg7p4pcyglc5080000gp/T//cc2IG9vv.s 			page 44


 1759 0162 5B00     		lsls	r3, r3, #1
 1760 0164 D7F8A420 		ldr	r2, [r7, #164]
 1761 0168 1344     		add	r3, r3, r2
 1762 016a D7F8C010 		ldr	r1, [r7, #192]
 1763 016e D7F8A020 		ldr	r2, [r7, #160]
 1764 0172 8A1A     		subs	r2, r1, r2
 1765 0174 5200     		lsls	r2, r2, #1
 1766 0176 D7F8F810 		ldr	r1, [r7, #248]
 1767 017a 0A44     		add	r2, r2, r1
 1768 017c B2F90020 		ldrsh	r2, [r2]
 1769 0180 1A80     		strh	r2, [r3]	@ movhi
 1770 0182 27E0     		b	.L62
 1771              	.L61:
 417:STM32F10x_Speex_Lib/STM32/libspeex/ltp.c ****          else if (j-pp-pitch<0)
 1772              		.loc 3 417 0
 1773 0184 D7F8C020 		ldr	r2, [r7, #192]
 1774 0188 D7F8A030 		ldr	r3, [r7, #160]
 1775 018c D21A     		subs	r2, r2, r3
 1776 018e D7F8E430 		ldr	r3, [r7, #228]
 1777 0192 D31A     		subs	r3, r2, r3
 1778 0194 002B     		cmp	r3, #0
 1779 0196 15DA     		bge	.L63
 418:STM32F10x_Speex_Lib/STM32/libspeex/ltp.c ****             e[j]=exc2[j-pp-pitch];
 1780              		.loc 3 418 0
 1781 0198 D7F8C030 		ldr	r3, [r7, #192]
 1782 019c 5B00     		lsls	r3, r3, #1
 1783 019e D7F8A420 		ldr	r2, [r7, #164]
 1784 01a2 1344     		add	r3, r3, r2
 1785 01a4 D7F8C010 		ldr	r1, [r7, #192]
 1786 01a8 D7F8A020 		ldr	r2, [r7, #160]
 1787 01ac 891A     		subs	r1, r1, r2
 1788 01ae D7F8E420 		ldr	r2, [r7, #228]
 1789 01b2 8A1A     		subs	r2, r1, r2
 1790 01b4 5200     		lsls	r2, r2, #1
 1791 01b6 D7F8F810 		ldr	r1, [r7, #248]
 1792 01ba 0A44     		add	r2, r2, r1
 1793 01bc B2F90020 		ldrsh	r2, [r2]
 1794 01c0 1A80     		strh	r2, [r3]	@ movhi
 1795 01c2 07E0     		b	.L62
 1796              	.L63:
 419:STM32F10x_Speex_Lib/STM32/libspeex/ltp.c ****          else
 420:STM32F10x_Speex_Lib/STM32/libspeex/ltp.c ****             e[j]=0;
 1797              		.loc 3 420 0
 1798 01c4 D7F8C030 		ldr	r3, [r7, #192]
 1799 01c8 5B00     		lsls	r3, r3, #1
 1800 01ca D7F8A420 		ldr	r2, [r7, #164]
 1801 01ce 1344     		add	r3, r3, r2
 1802 01d0 0022     		movs	r2, #0
 1803 01d2 1A80     		strh	r2, [r3]	@ movhi
 1804              	.L62:
 413:STM32F10x_Speex_Lib/STM32/libspeex/ltp.c ****       {
 1805              		.loc 3 413 0 discriminator 2
 1806 01d4 D7F8C030 		ldr	r3, [r7, #192]
 1807 01d8 0133     		adds	r3, r3, #1
 1808 01da C7F8C030 		str	r3, [r7, #192]
 1809              	.L60:
 413:STM32F10x_Speex_Lib/STM32/libspeex/ltp.c ****       {
ARM GAS  /var/folders/kh/x4vltyy52lbg7p4pcyglc5080000gp/T//cc2IG9vv.s 			page 45


 1810              		.loc 3 413 0 is_stmt 0 discriminator 1
 1811 01de D7F8C020 		ldr	r2, [r7, #192]
 1812 01e2 D7F8EC30 		ldr	r3, [r7, #236]
 1813 01e6 9A42     		cmp	r2, r3
 1814 01e8 B2DB     		blt	.L64
 421:STM32F10x_Speex_Lib/STM32/libspeex/ltp.c ****       }
 422:STM32F10x_Speex_Lib/STM32/libspeex/ltp.c **** #ifdef FIXED_POINT
 423:STM32F10x_Speex_Lib/STM32/libspeex/ltp.c ****       /* Scale target and excitation down if needed (avoiding overflow) */
 424:STM32F10x_Speex_Lib/STM32/libspeex/ltp.c ****       if (scaledown)
 1815              		.loc 3 424 0 is_stmt 1
 1816 01ea D7F81031 		ldr	r3, [r7, #272]
 1817 01ee 002B     		cmp	r3, #0
 1818 01f0 3FD0     		beq	.L65
 425:STM32F10x_Speex_Lib/STM32/libspeex/ltp.c ****       {
 426:STM32F10x_Speex_Lib/STM32/libspeex/ltp.c ****          for (j=0;j<nsf;j++)
 1819              		.loc 3 426 0
 1820 01f2 0023     		movs	r3, #0
 1821 01f4 C7F8C030 		str	r3, [r7, #192]
 1822 01f8 15E0     		b	.L66
 1823              	.L67:
 427:STM32F10x_Speex_Lib/STM32/libspeex/ltp.c ****             e[j] = SHR16(e[j],1);
 1824              		.loc 3 427 0 discriminator 3
 1825 01fa D7F8C030 		ldr	r3, [r7, #192]
 1826 01fe 5B00     		lsls	r3, r3, #1
 1827 0200 D7F8A420 		ldr	r2, [r7, #164]
 1828 0204 1344     		add	r3, r3, r2
 1829 0206 D7F8C020 		ldr	r2, [r7, #192]
 1830 020a 5200     		lsls	r2, r2, #1
 1831 020c D7F8A410 		ldr	r1, [r7, #164]
 1832 0210 0A44     		add	r2, r2, r1
 1833 0212 B2F90020 		ldrsh	r2, [r2]
 1834 0216 5210     		asrs	r2, r2, #1
 1835 0218 12B2     		sxth	r2, r2
 1836 021a 1A80     		strh	r2, [r3]	@ movhi
 426:STM32F10x_Speex_Lib/STM32/libspeex/ltp.c ****             e[j] = SHR16(e[j],1);
 1837              		.loc 3 426 0 discriminator 3
 1838 021c D7F8C030 		ldr	r3, [r7, #192]
 1839 0220 0133     		adds	r3, r3, #1
 1840 0222 C7F8C030 		str	r3, [r7, #192]
 1841              	.L66:
 426:STM32F10x_Speex_Lib/STM32/libspeex/ltp.c ****             e[j] = SHR16(e[j],1);
 1842              		.loc 3 426 0 is_stmt 0 discriminator 1
 1843 0226 D7F8C020 		ldr	r2, [r7, #192]
 1844 022a D7F8EC30 		ldr	r3, [r7, #236]
 1845 022e 9A42     		cmp	r2, r3
 1846 0230 E3DB     		blt	.L67
 428:STM32F10x_Speex_Lib/STM32/libspeex/ltp.c ****          for (j=0;j<nsf;j++)
 1847              		.loc 3 428 0 is_stmt 1
 1848 0232 0023     		movs	r3, #0
 1849 0234 C7F8C030 		str	r3, [r7, #192]
 1850 0238 15E0     		b	.L68
 1851              	.L69:
 429:STM32F10x_Speex_Lib/STM32/libspeex/ltp.c ****             new_target[j] = SHR16(new_target[j],1);
 1852              		.loc 3 429 0 discriminator 3
 1853 023a D7F8C030 		ldr	r3, [r7, #192]
 1854 023e 5B00     		lsls	r3, r3, #1
 1855 0240 D7F80021 		ldr	r2, [r7, #256]
ARM GAS  /var/folders/kh/x4vltyy52lbg7p4pcyglc5080000gp/T//cc2IG9vv.s 			page 46


 1856 0244 1344     		add	r3, r3, r2
 1857 0246 D7F8C020 		ldr	r2, [r7, #192]
 1858 024a 5200     		lsls	r2, r2, #1
 1859 024c D7F80011 		ldr	r1, [r7, #256]
 1860 0250 0A44     		add	r2, r2, r1
 1861 0252 B2F90020 		ldrsh	r2, [r2]
 1862 0256 5210     		asrs	r2, r2, #1
 1863 0258 12B2     		sxth	r2, r2
 1864 025a 1A80     		strh	r2, [r3]	@ movhi
 428:STM32F10x_Speex_Lib/STM32/libspeex/ltp.c ****          for (j=0;j<nsf;j++)
 1865              		.loc 3 428 0 discriminator 3
 1866 025c D7F8C030 		ldr	r3, [r7, #192]
 1867 0260 0133     		adds	r3, r3, #1
 1868 0262 C7F8C030 		str	r3, [r7, #192]
 1869              	.L68:
 428:STM32F10x_Speex_Lib/STM32/libspeex/ltp.c ****          for (j=0;j<nsf;j++)
 1870              		.loc 3 428 0 is_stmt 0 discriminator 1
 1871 0266 D7F8C020 		ldr	r2, [r7, #192]
 1872 026a D7F8EC30 		ldr	r3, [r7, #236]
 1873 026e 9A42     		cmp	r2, r3
 1874 0270 E3DB     		blt	.L69
 1875              	.L65:
 430:STM32F10x_Speex_Lib/STM32/libspeex/ltp.c ****       }
 431:STM32F10x_Speex_Lib/STM32/libspeex/ltp.c **** #endif
 432:STM32F10x_Speex_Lib/STM32/libspeex/ltp.c ****       for (j=0;j<p;j++)
 1876              		.loc 3 432 0 is_stmt 1
 1877 0272 0023     		movs	r3, #0
 1878 0274 C7F8C030 		str	r3, [r7, #192]
 1879 0278 0CE0     		b	.L70
 1880              	.L71:
 433:STM32F10x_Speex_Lib/STM32/libspeex/ltp.c ****          mm[j] = 0;
 1881              		.loc 3 433 0 discriminator 3
 1882 027a D7F8C030 		ldr	r3, [r7, #192]
 1883 027e 9B00     		lsls	r3, r3, #2
 1884 0280 D7F89C20 		ldr	r2, [r7, #156]
 1885 0284 1344     		add	r3, r3, r2
 1886 0286 0022     		movs	r2, #0
 1887 0288 1A60     		str	r2, [r3]
 432:STM32F10x_Speex_Lib/STM32/libspeex/ltp.c ****          mm[j] = 0;
 1888              		.loc 3 432 0 discriminator 3
 1889 028a D7F8C030 		ldr	r3, [r7, #192]
 1890 028e 0133     		adds	r3, r3, #1
 1891 0290 C7F8C030 		str	r3, [r7, #192]
 1892              	.L70:
 432:STM32F10x_Speex_Lib/STM32/libspeex/ltp.c ****          mm[j] = 0;
 1893              		.loc 3 432 0 is_stmt 0 discriminator 1
 1894 0294 D7F8C020 		ldr	r2, [r7, #192]
 1895 0298 D7F8E830 		ldr	r3, [r7, #232]
 1896 029c 9A42     		cmp	r2, r3
 1897 029e ECDB     		blt	.L71
 434:STM32F10x_Speex_Lib/STM32/libspeex/ltp.c ****       iir_mem16(e, ak, e, nsf, p, mm, stack);
 1898              		.loc 3 434 0 is_stmt 1
 1899 02a0 D7F8F430 		ldr	r3, [r7, #244]
 1900 02a4 0293     		str	r3, [sp, #8]
 1901 02a6 D7F89C30 		ldr	r3, [r7, #156]
 1902 02aa 0193     		str	r3, [sp, #4]
 1903 02ac D7F8E830 		ldr	r3, [r7, #232]
ARM GAS  /var/folders/kh/x4vltyy52lbg7p4pcyglc5080000gp/T//cc2IG9vv.s 			page 47


 1904 02b0 0093     		str	r3, [sp]
 1905 02b2 D7F8EC30 		ldr	r3, [r7, #236]
 1906 02b6 D7F8A420 		ldr	r2, [r7, #164]
 1907 02ba B968     		ldr	r1, [r7, #8]
 1908 02bc D7F8A400 		ldr	r0, [r7, #164]
 1909 02c0 FFF7FEFF 		bl	iir_mem16
 435:STM32F10x_Speex_Lib/STM32/libspeex/ltp.c ****       for (j=0;j<p;j++)
 1910              		.loc 3 435 0
 1911 02c4 0023     		movs	r3, #0
 1912 02c6 C7F8C030 		str	r3, [r7, #192]
 1913 02ca 0CE0     		b	.L72
 1914              	.L73:
 436:STM32F10x_Speex_Lib/STM32/libspeex/ltp.c ****          mm[j] = 0;
 1915              		.loc 3 436 0 discriminator 3
 1916 02cc D7F8C030 		ldr	r3, [r7, #192]
 1917 02d0 9B00     		lsls	r3, r3, #2
 1918 02d2 D7F89C20 		ldr	r2, [r7, #156]
 1919 02d6 1344     		add	r3, r3, r2
 1920 02d8 0022     		movs	r2, #0
 1921 02da 1A60     		str	r2, [r3]
 435:STM32F10x_Speex_Lib/STM32/libspeex/ltp.c ****       for (j=0;j<p;j++)
 1922              		.loc 3 435 0 discriminator 3
 1923 02dc D7F8C030 		ldr	r3, [r7, #192]
 1924 02e0 0133     		adds	r3, r3, #1
 1925 02e2 C7F8C030 		str	r3, [r7, #192]
 1926              	.L72:
 435:STM32F10x_Speex_Lib/STM32/libspeex/ltp.c ****       for (j=0;j<p;j++)
 1927              		.loc 3 435 0 is_stmt 0 discriminator 1
 1928 02e6 D7F8C020 		ldr	r2, [r7, #192]
 1929 02ea D7F8E830 		ldr	r3, [r7, #232]
 1930 02ee 9A42     		cmp	r2, r3
 1931 02f0 ECDB     		blt	.L73
 437:STM32F10x_Speex_Lib/STM32/libspeex/ltp.c ****       filter_mem16(e, awk1, awk2, e, nsf, p, mm, stack);
 1932              		.loc 3 437 0 is_stmt 1
 1933 02f2 D7F8F430 		ldr	r3, [r7, #244]
 1934 02f6 0393     		str	r3, [sp, #12]
 1935 02f8 D7F89C30 		ldr	r3, [r7, #156]
 1936 02fc 0293     		str	r3, [sp, #8]
 1937 02fe D7F8E830 		ldr	r3, [r7, #232]
 1938 0302 0193     		str	r3, [sp, #4]
 1939 0304 D7F8EC30 		ldr	r3, [r7, #236]
 1940 0308 0093     		str	r3, [sp]
 1941 030a D7F8A430 		ldr	r3, [r7, #164]
 1942 030e 3A68     		ldr	r2, [r7]
 1943 0310 7968     		ldr	r1, [r7, #4]
 1944 0312 D7F8A400 		ldr	r0, [r7, #164]
 1945 0316 FFF7FEFF 		bl	filter_mem16
 438:STM32F10x_Speex_Lib/STM32/libspeex/ltp.c ****       for (j=0;j<nsf;j++)
 1946              		.loc 3 438 0
 1947 031a 0023     		movs	r3, #0
 1948 031c C7F8C030 		str	r3, [r7, #192]
 1949 0320 13E0     		b	.L74
 1950              	.L75:
 439:STM32F10x_Speex_Lib/STM32/libspeex/ltp.c ****          x[2][j] = e[j];
 1951              		.loc 3 439 0 discriminator 3
 1952 0322 D7F88C20 		ldr	r2, [r7, #140]
 1953 0326 D7F8C030 		ldr	r3, [r7, #192]
ARM GAS  /var/folders/kh/x4vltyy52lbg7p4pcyglc5080000gp/T//cc2IG9vv.s 			page 48


 1954 032a 5B00     		lsls	r3, r3, #1
 1955 032c 1344     		add	r3, r3, r2
 1956 032e D7F8C020 		ldr	r2, [r7, #192]
 1957 0332 5200     		lsls	r2, r2, #1
 1958 0334 D7F8A410 		ldr	r1, [r7, #164]
 1959 0338 0A44     		add	r2, r2, r1
 1960 033a B2F90020 		ldrsh	r2, [r2]
 1961 033e 1A80     		strh	r2, [r3]	@ movhi
 438:STM32F10x_Speex_Lib/STM32/libspeex/ltp.c ****       for (j=0;j<nsf;j++)
 1962              		.loc 3 438 0 discriminator 3
 1963 0340 D7F8C030 		ldr	r3, [r7, #192]
 1964 0344 0133     		adds	r3, r3, #1
 1965 0346 C7F8C030 		str	r3, [r7, #192]
 1966              	.L74:
 438:STM32F10x_Speex_Lib/STM32/libspeex/ltp.c ****       for (j=0;j<nsf;j++)
 1967              		.loc 3 438 0 is_stmt 0 discriminator 1
 1968 034a D7F8C020 		ldr	r2, [r7, #192]
 1969 034e D7F8EC30 		ldr	r3, [r7, #236]
 1970 0352 9A42     		cmp	r2, r3
 1971 0354 E5DB     		blt	.L75
 1972              	.LBE5:
 440:STM32F10x_Speex_Lib/STM32/libspeex/ltp.c ****    }
 441:STM32F10x_Speex_Lib/STM32/libspeex/ltp.c ****    for (i=1;i>=0;i--)
 1973              		.loc 3 441 0 is_stmt 1
 1974 0356 0123     		movs	r3, #1
 1975 0358 C7F8C430 		str	r3, [r7, #196]
 1976 035c 71E0     		b	.L76
 1977              	.L80:
 1978              	.LBB6:
 442:STM32F10x_Speex_Lib/STM32/libspeex/ltp.c ****    {
 443:STM32F10x_Speex_Lib/STM32/libspeex/ltp.c ****       spx_word16_t e0=exc2[-pitch-1+i];
 1979              		.loc 3 443 0
 1980 035e D7F8E430 		ldr	r3, [r7, #228]
 1981 0362 DA43     		mvns	r2, r3
 1982 0364 D7F8C430 		ldr	r3, [r7, #196]
 1983 0368 1344     		add	r3, r3, r2
 1984 036a 5B00     		lsls	r3, r3, #1
 1985 036c D7F8F820 		ldr	r2, [r7, #248]
 1986 0370 1344     		add	r3, r3, r2
 1987 0372 1B88     		ldrh	r3, [r3]	@ movhi
 1988 0374 A7F8BC30 		strh	r3, [r7, #188]	@ movhi
 444:STM32F10x_Speex_Lib/STM32/libspeex/ltp.c **** #ifdef FIXED_POINT
 445:STM32F10x_Speex_Lib/STM32/libspeex/ltp.c ****       /* Scale excitation down if needed (avoiding overflow) */
 446:STM32F10x_Speex_Lib/STM32/libspeex/ltp.c ****       if (scaledown)
 1989              		.loc 3 446 0
 1990 0378 D7F81031 		ldr	r3, [r7, #272]
 1991 037c 002B     		cmp	r3, #0
 1992 037e 04D0     		beq	.L77
 447:STM32F10x_Speex_Lib/STM32/libspeex/ltp.c ****          e0 = SHR16(e0,1);
 1993              		.loc 3 447 0
 1994 0380 B7F9BC30 		ldrsh	r3, [r7, #188]
 1995 0384 5B10     		asrs	r3, r3, #1
 1996 0386 A7F8BC30 		strh	r3, [r7, #188]	@ movhi
 1997              	.L77:
 448:STM32F10x_Speex_Lib/STM32/libspeex/ltp.c **** #endif
 449:STM32F10x_Speex_Lib/STM32/libspeex/ltp.c ****       x[i][0]=MULT16_16_Q14(r[0], e0);
 1998              		.loc 3 449 0
ARM GAS  /var/folders/kh/x4vltyy52lbg7p4pcyglc5080000gp/T//cc2IG9vv.s 			page 49


 1999 038a D7F8C430 		ldr	r3, [r7, #196]
 2000 038e 9B00     		lsls	r3, r3, #2
 2001 0390 07F1C802 		add	r2, r7, #200
 2002 0394 1344     		add	r3, r3, r2
 2003 0396 53F8443C 		ldr	r3, [r3, #-68]
 2004 039a D7F8FC20 		ldr	r2, [r7, #252]
 2005 039e B2F90020 		ldrsh	r2, [r2]
 2006 03a2 1146     		mov	r1, r2
 2007 03a4 B7F9BC20 		ldrsh	r2, [r7, #188]
 2008 03a8 02FB01F2 		mul	r2, r2, r1
 2009 03ac 9213     		asrs	r2, r2, #14
 2010 03ae 12B2     		sxth	r2, r2
 2011 03b0 1A80     		strh	r2, [r3]	@ movhi
 450:STM32F10x_Speex_Lib/STM32/libspeex/ltp.c ****       for (j=0;j<nsf-1;j++)
 2012              		.loc 3 450 0
 2013 03b2 0023     		movs	r3, #0
 2014 03b4 C7F8C030 		str	r3, [r7, #192]
 2015 03b8 37E0     		b	.L78
 2016              	.L79:
 451:STM32F10x_Speex_Lib/STM32/libspeex/ltp.c ****          x[i][j+1]=ADD32(x[i+1][j],MULT16_16_P14(r[j+1], e0));
 2017              		.loc 3 451 0 discriminator 3
 2018 03ba D7F8C430 		ldr	r3, [r7, #196]
 2019 03be 9B00     		lsls	r3, r3, #2
 2020 03c0 07F1C802 		add	r2, r7, #200
 2021 03c4 1344     		add	r3, r3, r2
 2022 03c6 53F8442C 		ldr	r2, [r3, #-68]
 2023 03ca D7F8C030 		ldr	r3, [r7, #192]
 2024 03ce 0133     		adds	r3, r3, #1
 2025 03d0 5B00     		lsls	r3, r3, #1
 2026 03d2 1A44     		add	r2, r2, r3
 2027 03d4 D7F8C430 		ldr	r3, [r7, #196]
 2028 03d8 0133     		adds	r3, r3, #1
 2029 03da 9B00     		lsls	r3, r3, #2
 2030 03dc 07F1C801 		add	r1, r7, #200
 2031 03e0 0B44     		add	r3, r3, r1
 2032 03e2 53F8441C 		ldr	r1, [r3, #-68]
 2033 03e6 D7F8C030 		ldr	r3, [r7, #192]
 2034 03ea 5B00     		lsls	r3, r3, #1
 2035 03ec 0B44     		add	r3, r3, r1
 2036 03ee B3F90030 		ldrsh	r3, [r3]
 2037 03f2 99B2     		uxth	r1, r3
 2038 03f4 D7F8C030 		ldr	r3, [r7, #192]
 2039 03f8 0133     		adds	r3, r3, #1
 2040 03fa 5B00     		lsls	r3, r3, #1
 2041 03fc D7F8FC00 		ldr	r0, [r7, #252]
 2042 0400 0344     		add	r3, r3, r0
 2043 0402 B3F90030 		ldrsh	r3, [r3]
 2044 0406 1846     		mov	r0, r3
 2045 0408 B7F9BC30 		ldrsh	r3, [r7, #188]
 2046 040c 03FB00F3 		mul	r3, r3, r0
 2047 0410 03F50053 		add	r3, r3, #8192
 2048 0414 9B13     		asrs	r3, r3, #14
 2049 0416 9BB2     		uxth	r3, r3
 2050 0418 0B44     		add	r3, r3, r1
 2051 041a 9BB2     		uxth	r3, r3
 2052 041c 1BB2     		sxth	r3, r3
 2053 041e 1380     		strh	r3, [r2]	@ movhi
ARM GAS  /var/folders/kh/x4vltyy52lbg7p4pcyglc5080000gp/T//cc2IG9vv.s 			page 50


 450:STM32F10x_Speex_Lib/STM32/libspeex/ltp.c ****       for (j=0;j<nsf-1;j++)
 2054              		.loc 3 450 0 discriminator 3
 2055 0420 D7F8C030 		ldr	r3, [r7, #192]
 2056 0424 0133     		adds	r3, r3, #1
 2057 0426 C7F8C030 		str	r3, [r7, #192]
 2058              	.L78:
 450:STM32F10x_Speex_Lib/STM32/libspeex/ltp.c ****       for (j=0;j<nsf-1;j++)
 2059              		.loc 3 450 0 is_stmt 0 discriminator 1
 2060 042a D7F8EC30 		ldr	r3, [r7, #236]
 2061 042e 5A1E     		subs	r2, r3, #1
 2062 0430 D7F8C030 		ldr	r3, [r7, #192]
 2063 0434 9A42     		cmp	r2, r3
 2064 0436 C0DC     		bgt	.L79
 2065              	.LBE6:
 441:STM32F10x_Speex_Lib/STM32/libspeex/ltp.c ****    {
 2066              		.loc 3 441 0 is_stmt 1 discriminator 2
 2067 0438 D7F8C430 		ldr	r3, [r7, #196]
 2068 043c 013B     		subs	r3, r3, #1
 2069 043e C7F8C430 		str	r3, [r7, #196]
 2070              	.L76:
 441:STM32F10x_Speex_Lib/STM32/libspeex/ltp.c ****    {
 2071              		.loc 3 441 0 is_stmt 0 discriminator 1
 2072 0442 D7F8C430 		ldr	r3, [r7, #196]
 2073 0446 002B     		cmp	r3, #0
 2074 0448 89DA     		bge	.L80
 452:STM32F10x_Speex_Lib/STM32/libspeex/ltp.c ****    }
 453:STM32F10x_Speex_Lib/STM32/libspeex/ltp.c **** 
 454:STM32F10x_Speex_Lib/STM32/libspeex/ltp.c ****    for (i=0;i<3;i++)
 2075              		.loc 3 454 0 is_stmt 1
 2076 044a 0023     		movs	r3, #0
 2077 044c C7F8C430 		str	r3, [r7, #196]
 2078 0450 1CE0     		b	.L81
 2079              	.L82:
 455:STM32F10x_Speex_Lib/STM32/libspeex/ltp.c ****       corr[i]=inner_prod(x[i],new_target,nsf);
 2080              		.loc 3 455 0 discriminator 3
 2081 0452 D7F8C430 		ldr	r3, [r7, #196]
 2082 0456 9B00     		lsls	r3, r3, #2
 2083 0458 07F1C802 		add	r2, r7, #200
 2084 045c 1344     		add	r3, r3, r2
 2085 045e 53F8443C 		ldr	r3, [r3, #-68]
 2086 0462 D7F8EC20 		ldr	r2, [r7, #236]
 2087 0466 D7F80011 		ldr	r1, [r7, #256]
 2088 046a 1846     		mov	r0, r3
 2089 046c FFF7FEFF 		bl	inner_prod
 2090 0470 0246     		mov	r2, r0
 2091 0472 D7F8C430 		ldr	r3, [r7, #196]
 2092 0476 9B00     		lsls	r3, r3, #2
 2093 0478 07F1C801 		add	r1, r7, #200
 2094 047c 0B44     		add	r3, r3, r1
 2095 047e 43F8502C 		str	r2, [r3, #-80]
 454:STM32F10x_Speex_Lib/STM32/libspeex/ltp.c ****       corr[i]=inner_prod(x[i],new_target,nsf);
 2096              		.loc 3 454 0 discriminator 3
 2097 0482 D7F8C430 		ldr	r3, [r7, #196]
 2098 0486 0133     		adds	r3, r3, #1
 2099 0488 C7F8C430 		str	r3, [r7, #196]
 2100              	.L81:
 454:STM32F10x_Speex_Lib/STM32/libspeex/ltp.c ****       corr[i]=inner_prod(x[i],new_target,nsf);
ARM GAS  /var/folders/kh/x4vltyy52lbg7p4pcyglc5080000gp/T//cc2IG9vv.s 			page 51


 2101              		.loc 3 454 0 is_stmt 0 discriminator 1
 2102 048c D7F8C430 		ldr	r3, [r7, #196]
 2103 0490 022B     		cmp	r3, #2
 2104 0492 DEDD     		ble	.L82
 456:STM32F10x_Speex_Lib/STM32/libspeex/ltp.c ****    for (i=0;i<3;i++)
 2105              		.loc 3 456 0 is_stmt 1
 2106 0494 0023     		movs	r3, #0
 2107 0496 C7F8C430 		str	r3, [r7, #196]
 2108 049a 53E0     		b	.L83
 2109              	.L86:
 457:STM32F10x_Speex_Lib/STM32/libspeex/ltp.c ****       for (j=0;j<=i;j++)
 2110              		.loc 3 457 0
 2111 049c 0023     		movs	r3, #0
 2112 049e C7F8C030 		str	r3, [r7, #192]
 2113 04a2 44E0     		b	.L84
 2114              	.L85:
 458:STM32F10x_Speex_Lib/STM32/libspeex/ltp.c ****          A[i][j]=A[j][i]=inner_prod(x[i],x[j],nsf);
 2115              		.loc 3 458 0 discriminator 3
 2116 04a4 D7F8C430 		ldr	r3, [r7, #196]
 2117 04a8 9B00     		lsls	r3, r3, #2
 2118 04aa 07F1C802 		add	r2, r7, #200
 2119 04ae 1344     		add	r3, r3, r2
 2120 04b0 53F8440C 		ldr	r0, [r3, #-68]
 2121 04b4 D7F8C030 		ldr	r3, [r7, #192]
 2122 04b8 9B00     		lsls	r3, r3, #2
 2123 04ba 07F1C802 		add	r2, r7, #200
 2124 04be 1344     		add	r3, r3, r2
 2125 04c0 53F8443C 		ldr	r3, [r3, #-68]
 2126 04c4 D7F8EC20 		ldr	r2, [r7, #236]
 2127 04c8 1946     		mov	r1, r3
 2128 04ca FFF7FEFF 		bl	inner_prod
 2129 04ce 0146     		mov	r1, r0
 2130 04d0 D7F8C020 		ldr	r2, [r7, #192]
 2131 04d4 1346     		mov	r3, r2
 2132 04d6 5B00     		lsls	r3, r3, #1
 2133 04d8 1344     		add	r3, r3, r2
 2134 04da D7F8C420 		ldr	r2, [r7, #196]
 2135 04de 1344     		add	r3, r3, r2
 2136 04e0 9B00     		lsls	r3, r3, #2
 2137 04e2 07F1C802 		add	r2, r7, #200
 2138 04e6 1344     		add	r3, r3, r2
 2139 04e8 43F8741C 		str	r1, [r3, #-116]
 2140 04ec D7F8C020 		ldr	r2, [r7, #192]
 2141 04f0 1346     		mov	r3, r2
 2142 04f2 5B00     		lsls	r3, r3, #1
 2143 04f4 1344     		add	r3, r3, r2
 2144 04f6 D7F8C420 		ldr	r2, [r7, #196]
 2145 04fa 1344     		add	r3, r3, r2
 2146 04fc 9B00     		lsls	r3, r3, #2
 2147 04fe 07F1C802 		add	r2, r7, #200
 2148 0502 1344     		add	r3, r3, r2
 2149 0504 53F8741C 		ldr	r1, [r3, #-116]
 2150 0508 D7F8C420 		ldr	r2, [r7, #196]
 2151 050c 1346     		mov	r3, r2
 2152 050e 5B00     		lsls	r3, r3, #1
 2153 0510 1344     		add	r3, r3, r2
 2154 0512 D7F8C020 		ldr	r2, [r7, #192]
ARM GAS  /var/folders/kh/x4vltyy52lbg7p4pcyglc5080000gp/T//cc2IG9vv.s 			page 52


 2155 0516 1344     		add	r3, r3, r2
 2156 0518 9B00     		lsls	r3, r3, #2
 2157 051a 07F1C802 		add	r2, r7, #200
 2158 051e 1344     		add	r3, r3, r2
 2159 0520 43F8741C 		str	r1, [r3, #-116]
 457:STM32F10x_Speex_Lib/STM32/libspeex/ltp.c ****       for (j=0;j<=i;j++)
 2160              		.loc 3 457 0 discriminator 3
 2161 0524 D7F8C030 		ldr	r3, [r7, #192]
 2162 0528 0133     		adds	r3, r3, #1
 2163 052a C7F8C030 		str	r3, [r7, #192]
 2164              	.L84:
 457:STM32F10x_Speex_Lib/STM32/libspeex/ltp.c ****       for (j=0;j<=i;j++)
 2165              		.loc 3 457 0 is_stmt 0 discriminator 1
 2166 052e D7F8C020 		ldr	r2, [r7, #192]
 2167 0532 D7F8C430 		ldr	r3, [r7, #196]
 2168 0536 9A42     		cmp	r2, r3
 2169 0538 B4DD     		ble	.L85
 456:STM32F10x_Speex_Lib/STM32/libspeex/ltp.c ****    for (i=0;i<3;i++)
 2170              		.loc 3 456 0 is_stmt 1 discriminator 2
 2171 053a D7F8C430 		ldr	r3, [r7, #196]
 2172 053e 0133     		adds	r3, r3, #1
 2173 0540 C7F8C430 		str	r3, [r7, #196]
 2174              	.L83:
 456:STM32F10x_Speex_Lib/STM32/libspeex/ltp.c ****    for (i=0;i<3;i++)
 2175              		.loc 3 456 0 is_stmt 0 discriminator 1
 2176 0544 D7F8C430 		ldr	r3, [r7, #196]
 2177 0548 022B     		cmp	r3, #2
 2178 054a A7DD     		ble	.L86
 2179              	.LBB7:
 459:STM32F10x_Speex_Lib/STM32/libspeex/ltp.c **** 
 460:STM32F10x_Speex_Lib/STM32/libspeex/ltp.c ****    {
 461:STM32F10x_Speex_Lib/STM32/libspeex/ltp.c ****       spx_word32_t C[9];
 462:STM32F10x_Speex_Lib/STM32/libspeex/ltp.c **** #ifdef FIXED_POINT
 463:STM32F10x_Speex_Lib/STM32/libspeex/ltp.c ****       spx_word16_t C16[9];
 464:STM32F10x_Speex_Lib/STM32/libspeex/ltp.c **** #else
 465:STM32F10x_Speex_Lib/STM32/libspeex/ltp.c ****       spx_word16_t *C16=C;
 466:STM32F10x_Speex_Lib/STM32/libspeex/ltp.c **** #endif      
 467:STM32F10x_Speex_Lib/STM32/libspeex/ltp.c ****       C[0]=corr[2];
 2180              		.loc 3 467 0 is_stmt 1
 2181 054c D7F88030 		ldr	r3, [r7, #128]
 2182 0550 7B61     		str	r3, [r7, #20]
 468:STM32F10x_Speex_Lib/STM32/libspeex/ltp.c ****       C[1]=corr[1];
 2183              		.loc 3 468 0
 2184 0552 FB6F     		ldr	r3, [r7, #124]
 2185 0554 BB61     		str	r3, [r7, #24]
 469:STM32F10x_Speex_Lib/STM32/libspeex/ltp.c ****       C[2]=corr[0];
 2186              		.loc 3 469 0
 2187 0556 BB6F     		ldr	r3, [r7, #120]
 2188 0558 FB61     		str	r3, [r7, #28]
 470:STM32F10x_Speex_Lib/STM32/libspeex/ltp.c ****       C[3]=A[1][2];
 2189              		.loc 3 470 0
 2190 055a BB6E     		ldr	r3, [r7, #104]
 2191 055c 3B62     		str	r3, [r7, #32]
 471:STM32F10x_Speex_Lib/STM32/libspeex/ltp.c ****       C[4]=A[0][1];
 2192              		.loc 3 471 0
 2193 055e BB6D     		ldr	r3, [r7, #88]
 2194 0560 7B62     		str	r3, [r7, #36]
ARM GAS  /var/folders/kh/x4vltyy52lbg7p4pcyglc5080000gp/T//cc2IG9vv.s 			page 53


 472:STM32F10x_Speex_Lib/STM32/libspeex/ltp.c ****       C[5]=A[0][2];      
 2195              		.loc 3 472 0
 2196 0562 FB6D     		ldr	r3, [r7, #92]
 2197 0564 BB62     		str	r3, [r7, #40]
 473:STM32F10x_Speex_Lib/STM32/libspeex/ltp.c ****       C[6]=A[2][2];
 2198              		.loc 3 473 0
 2199 0566 7B6F     		ldr	r3, [r7, #116]
 2200 0568 FB62     		str	r3, [r7, #44]
 474:STM32F10x_Speex_Lib/STM32/libspeex/ltp.c ****       C[7]=A[1][1];
 2201              		.loc 3 474 0
 2202 056a 7B6E     		ldr	r3, [r7, #100]
 2203 056c 3B63     		str	r3, [r7, #48]
 475:STM32F10x_Speex_Lib/STM32/libspeex/ltp.c ****       C[8]=A[0][0];
 2204              		.loc 3 475 0
 2205 056e 7B6D     		ldr	r3, [r7, #84]
 2206 0570 7B63     		str	r3, [r7, #52]
 476:STM32F10x_Speex_Lib/STM32/libspeex/ltp.c ****       
 477:STM32F10x_Speex_Lib/STM32/libspeex/ltp.c ****       /*plc_tuning *= 2;*/
 478:STM32F10x_Speex_Lib/STM32/libspeex/ltp.c ****       if (plc_tuning<2)
 2207              		.loc 3 478 0
 2208 0572 D7F80831 		ldr	r3, [r7, #264]
 2209 0576 012B     		cmp	r3, #1
 2210 0578 02DC     		bgt	.L87
 479:STM32F10x_Speex_Lib/STM32/libspeex/ltp.c ****          plc_tuning=2;
 2211              		.loc 3 479 0
 2212 057a 0223     		movs	r3, #2
 2213 057c C7F80831 		str	r3, [r7, #264]
 2214              	.L87:
 480:STM32F10x_Speex_Lib/STM32/libspeex/ltp.c ****       if (plc_tuning>30)
 2215              		.loc 3 480 0
 2216 0580 D7F80831 		ldr	r3, [r7, #264]
 2217 0584 1E2B     		cmp	r3, #30
 2218 0586 02DD     		ble	.L88
 481:STM32F10x_Speex_Lib/STM32/libspeex/ltp.c ****          plc_tuning=30;
 2219              		.loc 3 481 0
 2220 0588 1E23     		movs	r3, #30
 2221 058a C7F80831 		str	r3, [r7, #264]
 2222              	.L88:
 482:STM32F10x_Speex_Lib/STM32/libspeex/ltp.c **** #ifdef FIXED_POINT
 483:STM32F10x_Speex_Lib/STM32/libspeex/ltp.c ****       C[0] = SHL32(C[0],1);
 2223              		.loc 3 483 0
 2224 058e 7B69     		ldr	r3, [r7, #20]
 2225 0590 5B00     		lsls	r3, r3, #1
 2226 0592 7B61     		str	r3, [r7, #20]
 484:STM32F10x_Speex_Lib/STM32/libspeex/ltp.c ****       C[1] = SHL32(C[1],1);
 2227              		.loc 3 484 0
 2228 0594 BB69     		ldr	r3, [r7, #24]
 2229 0596 5B00     		lsls	r3, r3, #1
 2230 0598 BB61     		str	r3, [r7, #24]
 485:STM32F10x_Speex_Lib/STM32/libspeex/ltp.c ****       C[2] = SHL32(C[2],1);
 2231              		.loc 3 485 0
 2232 059a FB69     		ldr	r3, [r7, #28]
 2233 059c 5B00     		lsls	r3, r3, #1
 2234 059e FB61     		str	r3, [r7, #28]
 486:STM32F10x_Speex_Lib/STM32/libspeex/ltp.c ****       C[3] = SHL32(C[3],1);
 2235              		.loc 3 486 0
 2236 05a0 3B6A     		ldr	r3, [r7, #32]
ARM GAS  /var/folders/kh/x4vltyy52lbg7p4pcyglc5080000gp/T//cc2IG9vv.s 			page 54


 2237 05a2 5B00     		lsls	r3, r3, #1
 2238 05a4 3B62     		str	r3, [r7, #32]
 487:STM32F10x_Speex_Lib/STM32/libspeex/ltp.c ****       C[4] = SHL32(C[4],1);
 2239              		.loc 3 487 0
 2240 05a6 7B6A     		ldr	r3, [r7, #36]
 2241 05a8 5B00     		lsls	r3, r3, #1
 2242 05aa 7B62     		str	r3, [r7, #36]
 488:STM32F10x_Speex_Lib/STM32/libspeex/ltp.c ****       C[5] = SHL32(C[5],1);
 2243              		.loc 3 488 0
 2244 05ac BB6A     		ldr	r3, [r7, #40]
 2245 05ae 5B00     		lsls	r3, r3, #1
 2246 05b0 BB62     		str	r3, [r7, #40]
 489:STM32F10x_Speex_Lib/STM32/libspeex/ltp.c ****       C[6] = MAC16_32_Q15(C[6],MULT16_16_16(plc_tuning,655),C[6]);
 2247              		.loc 3 489 0
 2248 05b2 FA6A     		ldr	r2, [r7, #44]
 2249 05b4 D7F80831 		ldr	r3, [r7, #264]
 2250 05b8 9BB2     		uxth	r3, r3
 2251 05ba 1946     		mov	r1, r3	@ movhi
 2252 05bc 8901     		lsls	r1, r1, #6
 2253 05be 1944     		add	r1, r1, r3
 2254 05c0 4900     		lsls	r1, r1, #1
 2255 05c2 0B44     		add	r3, r3, r1
 2256 05c4 1946     		mov	r1, r3	@ movhi
 2257 05c6 8800     		lsls	r0, r1, #2
 2258 05c8 1946     		mov	r1, r3	@ movhi
 2259 05ca 0346     		mov	r3, r0	@ movhi
 2260 05cc 0B44     		add	r3, r3, r1
 2261 05ce 9BB2     		uxth	r3, r3
 2262 05d0 1BB2     		sxth	r3, r3
 2263 05d2 1946     		mov	r1, r3
 2264 05d4 FB6A     		ldr	r3, [r7, #44]
 2265 05d6 DB13     		asrs	r3, r3, #15
 2266 05d8 1BB2     		sxth	r3, r3
 2267 05da 03FB01F1 		mul	r1, r3, r1
 2268 05de D7F80831 		ldr	r3, [r7, #264]
 2269 05e2 9BB2     		uxth	r3, r3
 2270 05e4 1846     		mov	r0, r3	@ movhi
 2271 05e6 8001     		lsls	r0, r0, #6
 2272 05e8 1844     		add	r0, r0, r3
 2273 05ea 4000     		lsls	r0, r0, #1
 2274 05ec 0344     		add	r3, r3, r0
 2275 05ee 1846     		mov	r0, r3	@ movhi
 2276 05f0 8400     		lsls	r4, r0, #2
 2277 05f2 1846     		mov	r0, r3	@ movhi
 2278 05f4 2346     		mov	r3, r4	@ movhi
 2279 05f6 0344     		add	r3, r3, r0
 2280 05f8 9BB2     		uxth	r3, r3
 2281 05fa 1BB2     		sxth	r3, r3
 2282 05fc 1846     		mov	r0, r3
 2283 05fe FB6A     		ldr	r3, [r7, #44]
 2284 0600 C3F30E03 		ubfx	r3, r3, #0, #15
 2285 0604 03FB00F3 		mul	r3, r3, r0
 2286 0608 DB13     		asrs	r3, r3, #15
 2287 060a 0B44     		add	r3, r3, r1
 2288 060c 1344     		add	r3, r3, r2
 2289 060e FB62     		str	r3, [r7, #44]
 490:STM32F10x_Speex_Lib/STM32/libspeex/ltp.c ****       C[7] = MAC16_32_Q15(C[7],MULT16_16_16(plc_tuning,655),C[7]);
ARM GAS  /var/folders/kh/x4vltyy52lbg7p4pcyglc5080000gp/T//cc2IG9vv.s 			page 55


 2290              		.loc 3 490 0
 2291 0610 3A6B     		ldr	r2, [r7, #48]
 2292 0612 D7F80831 		ldr	r3, [r7, #264]
 2293 0616 9BB2     		uxth	r3, r3
 2294 0618 1946     		mov	r1, r3	@ movhi
 2295 061a 8901     		lsls	r1, r1, #6
 2296 061c 1944     		add	r1, r1, r3
 2297 061e 4900     		lsls	r1, r1, #1
 2298 0620 0B44     		add	r3, r3, r1
 2299 0622 1946     		mov	r1, r3	@ movhi
 2300 0624 8800     		lsls	r0, r1, #2
 2301 0626 1946     		mov	r1, r3	@ movhi
 2302 0628 0346     		mov	r3, r0	@ movhi
 2303 062a 0B44     		add	r3, r3, r1
 2304 062c 9BB2     		uxth	r3, r3
 2305 062e 1BB2     		sxth	r3, r3
 2306 0630 1946     		mov	r1, r3
 2307 0632 3B6B     		ldr	r3, [r7, #48]
 2308 0634 DB13     		asrs	r3, r3, #15
 2309 0636 1BB2     		sxth	r3, r3
 2310 0638 03FB01F1 		mul	r1, r3, r1
 2311 063c D7F80831 		ldr	r3, [r7, #264]
 2312 0640 9BB2     		uxth	r3, r3
 2313 0642 1846     		mov	r0, r3	@ movhi
 2314 0644 8001     		lsls	r0, r0, #6
 2315 0646 1844     		add	r0, r0, r3
 2316 0648 4000     		lsls	r0, r0, #1
 2317 064a 0344     		add	r3, r3, r0
 2318 064c 1846     		mov	r0, r3	@ movhi
 2319 064e 8400     		lsls	r4, r0, #2
 2320 0650 1846     		mov	r0, r3	@ movhi
 2321 0652 2346     		mov	r3, r4	@ movhi
 2322 0654 0344     		add	r3, r3, r0
 2323 0656 9BB2     		uxth	r3, r3
 2324 0658 1BB2     		sxth	r3, r3
 2325 065a 1846     		mov	r0, r3
 2326 065c 3B6B     		ldr	r3, [r7, #48]
 2327 065e C3F30E03 		ubfx	r3, r3, #0, #15
 2328 0662 03FB00F3 		mul	r3, r3, r0
 2329 0666 DB13     		asrs	r3, r3, #15
 2330 0668 0B44     		add	r3, r3, r1
 2331 066a 1344     		add	r3, r3, r2
 2332 066c 3B63     		str	r3, [r7, #48]
 491:STM32F10x_Speex_Lib/STM32/libspeex/ltp.c ****       C[8] = MAC16_32_Q15(C[8],MULT16_16_16(plc_tuning,655),C[8]);
 2333              		.loc 3 491 0
 2334 066e 7A6B     		ldr	r2, [r7, #52]
 2335 0670 D7F80831 		ldr	r3, [r7, #264]
 2336 0674 9BB2     		uxth	r3, r3
 2337 0676 1946     		mov	r1, r3	@ movhi
 2338 0678 8901     		lsls	r1, r1, #6
 2339 067a 1944     		add	r1, r1, r3
 2340 067c 4900     		lsls	r1, r1, #1
 2341 067e 0B44     		add	r3, r3, r1
 2342 0680 1946     		mov	r1, r3	@ movhi
 2343 0682 8800     		lsls	r0, r1, #2
 2344 0684 1946     		mov	r1, r3	@ movhi
 2345 0686 0346     		mov	r3, r0	@ movhi
ARM GAS  /var/folders/kh/x4vltyy52lbg7p4pcyglc5080000gp/T//cc2IG9vv.s 			page 56


 2346 0688 0B44     		add	r3, r3, r1
 2347 068a 9BB2     		uxth	r3, r3
 2348 068c 1BB2     		sxth	r3, r3
 2349 068e 1946     		mov	r1, r3
 2350 0690 7B6B     		ldr	r3, [r7, #52]
 2351 0692 DB13     		asrs	r3, r3, #15
 2352 0694 1BB2     		sxth	r3, r3
 2353 0696 03FB01F1 		mul	r1, r3, r1
 2354 069a D7F80831 		ldr	r3, [r7, #264]
 2355 069e 9BB2     		uxth	r3, r3
 2356 06a0 1846     		mov	r0, r3	@ movhi
 2357 06a2 8001     		lsls	r0, r0, #6
 2358 06a4 1844     		add	r0, r0, r3
 2359 06a6 4000     		lsls	r0, r0, #1
 2360 06a8 0344     		add	r3, r3, r0
 2361 06aa 1846     		mov	r0, r3	@ movhi
 2362 06ac 8400     		lsls	r4, r0, #2
 2363 06ae 1846     		mov	r0, r3	@ movhi
 2364 06b0 2346     		mov	r3, r4	@ movhi
 2365 06b2 0344     		add	r3, r3, r0
 2366 06b4 9BB2     		uxth	r3, r3
 2367 06b6 1BB2     		sxth	r3, r3
 2368 06b8 1846     		mov	r0, r3
 2369 06ba 7B6B     		ldr	r3, [r7, #52]
 2370 06bc C3F30E03 		ubfx	r3, r3, #0, #15
 2371 06c0 03FB00F3 		mul	r3, r3, r0
 2372 06c4 DB13     		asrs	r3, r3, #15
 2373 06c6 0B44     		add	r3, r3, r1
 2374 06c8 1344     		add	r3, r3, r2
 2375 06ca 7B63     		str	r3, [r7, #52]
 492:STM32F10x_Speex_Lib/STM32/libspeex/ltp.c ****       normalize16(C, C16, 32767, 9);
 2376              		.loc 3 492 0
 2377 06cc 07F13801 		add	r1, r7, #56
 2378 06d0 07F11400 		add	r0, r7, #20
 2379 06d4 0923     		movs	r3, #9
 2380 06d6 47F6FF72 		movw	r2, #32767
 2381 06da FFF7FEFF 		bl	normalize16
 493:STM32F10x_Speex_Lib/STM32/libspeex/ltp.c **** #else
 494:STM32F10x_Speex_Lib/STM32/libspeex/ltp.c ****       C[6]*=.5*(1+.02*plc_tuning);
 495:STM32F10x_Speex_Lib/STM32/libspeex/ltp.c ****       C[7]*=.5*(1+.02*plc_tuning);
 496:STM32F10x_Speex_Lib/STM32/libspeex/ltp.c ****       C[8]*=.5*(1+.02*plc_tuning);
 497:STM32F10x_Speex_Lib/STM32/libspeex/ltp.c **** #endif
 498:STM32F10x_Speex_Lib/STM32/libspeex/ltp.c **** 
 499:STM32F10x_Speex_Lib/STM32/libspeex/ltp.c ****       best_cdbk = pitch_gain_search_3tap_vq(gain_cdbk, gain_cdbk_size, C16, max_gain);
 2382              		.loc 3 499 0
 2383 06de B7F9BE30 		ldrsh	r3, [r7, #190]
 2384 06e2 07F13802 		add	r2, r7, #56
 2385 06e6 D7F8E010 		ldr	r1, [r7, #224]
 2386 06ea D7F8DC00 		ldr	r0, [r7, #220]
 2387 06ee FFF7FEFF 		bl	pitch_gain_search_3tap_vq
 2388 06f2 C7F8AC00 		str	r0, [r7, #172]
 500:STM32F10x_Speex_Lib/STM32/libspeex/ltp.c **** 
 501:STM32F10x_Speex_Lib/STM32/libspeex/ltp.c **** #ifdef FIXED_POINT
 502:STM32F10x_Speex_Lib/STM32/libspeex/ltp.c ****       gain[0] = ADD16(32,(spx_word16_t)gain_cdbk[best_cdbk*4]);
 2389              		.loc 3 502 0
 2390 06f6 D7F8AC30 		ldr	r3, [r7, #172]
 2391 06fa 9B00     		lsls	r3, r3, #2
ARM GAS  /var/folders/kh/x4vltyy52lbg7p4pcyglc5080000gp/T//cc2IG9vv.s 			page 57


 2392 06fc 1A46     		mov	r2, r3
 2393 06fe D7F8DC30 		ldr	r3, [r7, #220]
 2394 0702 1344     		add	r3, r3, r2
 2395 0704 93F90030 		ldrsb	r3, [r3]
 2396 0708 9BB2     		uxth	r3, r3
 2397 070a 2033     		adds	r3, r3, #32
 2398 070c 9BB2     		uxth	r3, r3
 2399 070e 1BB2     		sxth	r3, r3
 2400 0710 A7F84C30 		strh	r3, [r7, #76]	@ movhi
 503:STM32F10x_Speex_Lib/STM32/libspeex/ltp.c ****       gain[1] = ADD16(32,(spx_word16_t)gain_cdbk[best_cdbk*4+1]);
 2401              		.loc 3 503 0
 2402 0714 D7F8AC30 		ldr	r3, [r7, #172]
 2403 0718 9B00     		lsls	r3, r3, #2
 2404 071a 0133     		adds	r3, r3, #1
 2405 071c D7F8DC20 		ldr	r2, [r7, #220]
 2406 0720 1344     		add	r3, r3, r2
 2407 0722 93F90030 		ldrsb	r3, [r3]
 2408 0726 9BB2     		uxth	r3, r3
 2409 0728 2033     		adds	r3, r3, #32
 2410 072a 9BB2     		uxth	r3, r3
 2411 072c 1BB2     		sxth	r3, r3
 2412 072e A7F84E30 		strh	r3, [r7, #78]	@ movhi
 504:STM32F10x_Speex_Lib/STM32/libspeex/ltp.c ****       gain[2] = ADD16(32,(spx_word16_t)gain_cdbk[best_cdbk*4+2]);
 2413              		.loc 3 504 0
 2414 0732 D7F8AC30 		ldr	r3, [r7, #172]
 2415 0736 9B00     		lsls	r3, r3, #2
 2416 0738 0233     		adds	r3, r3, #2
 2417 073a D7F8DC20 		ldr	r2, [r7, #220]
 2418 073e 1344     		add	r3, r3, r2
 2419 0740 93F90030 		ldrsb	r3, [r3]
 2420 0744 9BB2     		uxth	r3, r3
 2421 0746 2033     		adds	r3, r3, #32
 2422 0748 9BB2     		uxth	r3, r3
 2423 074a 1BB2     		sxth	r3, r3
 2424 074c A7F85030 		strh	r3, [r7, #80]	@ movhi
 505:STM32F10x_Speex_Lib/STM32/libspeex/ltp.c ****       /*printf ("%d %d %d %d\n",gain[0],gain[1],gain[2], best_cdbk);*/
 506:STM32F10x_Speex_Lib/STM32/libspeex/ltp.c **** #else
 507:STM32F10x_Speex_Lib/STM32/libspeex/ltp.c ****       gain[0] = 0.015625*gain_cdbk[best_cdbk*4]  + .5;
 508:STM32F10x_Speex_Lib/STM32/libspeex/ltp.c ****       gain[1] = 0.015625*gain_cdbk[best_cdbk*4+1]+ .5;
 509:STM32F10x_Speex_Lib/STM32/libspeex/ltp.c ****       gain[2] = 0.015625*gain_cdbk[best_cdbk*4+2]+ .5;
 510:STM32F10x_Speex_Lib/STM32/libspeex/ltp.c **** #endif
 511:STM32F10x_Speex_Lib/STM32/libspeex/ltp.c ****       *cdbk_index=best_cdbk;
 2425              		.loc 3 511 0
 2426 0750 D7F80431 		ldr	r3, [r7, #260]
 2427 0754 D7F8AC20 		ldr	r2, [r7, #172]
 2428 0758 1A60     		str	r2, [r3]
 2429              	.LBE7:
 512:STM32F10x_Speex_Lib/STM32/libspeex/ltp.c ****    }
 513:STM32F10x_Speex_Lib/STM32/libspeex/ltp.c **** 
 514:STM32F10x_Speex_Lib/STM32/libspeex/ltp.c ****    SPEEX_MEMSET(exc, 0, nsf);
 2430              		.loc 3 514 0
 2431 075a D7F8EC30 		ldr	r3, [r7, #236]
 2432 075e 9B00     		lsls	r3, r3, #2
 2433 0760 1A46     		mov	r2, r3
 2434 0762 0021     		movs	r1, #0
 2435 0764 D7F8D800 		ldr	r0, [r7, #216]
 2436 0768 FFF7FEFF 		bl	memset
ARM GAS  /var/folders/kh/x4vltyy52lbg7p4pcyglc5080000gp/T//cc2IG9vv.s 			page 58


 515:STM32F10x_Speex_Lib/STM32/libspeex/ltp.c ****    for (i=0;i<3;i++)
 2437              		.loc 3 515 0
 2438 076c 0023     		movs	r3, #0
 2439 076e C7F8C430 		str	r3, [r7, #196]
 2440 0772 A2E0     		b	.L89
 2441              	.L96:
 2442              	.LBB8:
 516:STM32F10x_Speex_Lib/STM32/libspeex/ltp.c ****    {
 517:STM32F10x_Speex_Lib/STM32/libspeex/ltp.c ****       int j;
 518:STM32F10x_Speex_Lib/STM32/libspeex/ltp.c ****       int tmp1, tmp3;
 519:STM32F10x_Speex_Lib/STM32/libspeex/ltp.c ****       int pp=pitch+1-i;
 2443              		.loc 3 519 0
 2444 0774 D7F8E430 		ldr	r3, [r7, #228]
 2445 0778 5A1C     		adds	r2, r3, #1
 2446 077a D7F8C430 		ldr	r3, [r7, #196]
 2447 077e D31A     		subs	r3, r2, r3
 2448 0780 C7F89830 		str	r3, [r7, #152]
 520:STM32F10x_Speex_Lib/STM32/libspeex/ltp.c ****       tmp1=nsf;
 2449              		.loc 3 520 0
 2450 0784 D7F8EC30 		ldr	r3, [r7, #236]
 2451 0788 C7F8B430 		str	r3, [r7, #180]
 521:STM32F10x_Speex_Lib/STM32/libspeex/ltp.c ****       if (tmp1>pp)
 2452              		.loc 3 521 0
 2453 078c D7F8B420 		ldr	r2, [r7, #180]
 2454 0790 D7F89830 		ldr	r3, [r7, #152]
 2455 0794 9A42     		cmp	r2, r3
 2456 0796 03DD     		ble	.L90
 522:STM32F10x_Speex_Lib/STM32/libspeex/ltp.c ****          tmp1=pp;
 2457              		.loc 3 522 0
 2458 0798 D7F89830 		ldr	r3, [r7, #152]
 2459 079c C7F8B430 		str	r3, [r7, #180]
 2460              	.L90:
 523:STM32F10x_Speex_Lib/STM32/libspeex/ltp.c ****       for (j=0;j<tmp1;j++)
 2461              		.loc 3 523 0
 2462 07a0 0023     		movs	r3, #0
 2463 07a2 C7F8B830 		str	r3, [r7, #184]
 2464 07a6 2DE0     		b	.L91
 2465              	.L92:
 524:STM32F10x_Speex_Lib/STM32/libspeex/ltp.c ****          exc[j]=MAC16_16(exc[j],SHL16(gain[2-i],7),exc2[j-pp]);
 2466              		.loc 3 524 0 discriminator 3
 2467 07a8 D7F8B830 		ldr	r3, [r7, #184]
 2468 07ac 9B00     		lsls	r3, r3, #2
 2469 07ae D7F8D820 		ldr	r2, [r7, #216]
 2470 07b2 1A44     		add	r2, r2, r3
 2471 07b4 D7F8B830 		ldr	r3, [r7, #184]
 2472 07b8 9B00     		lsls	r3, r3, #2
 2473 07ba D7F8D810 		ldr	r1, [r7, #216]
 2474 07be 0B44     		add	r3, r3, r1
 2475 07c0 1968     		ldr	r1, [r3]
 2476 07c2 D7F8C430 		ldr	r3, [r7, #196]
 2477 07c6 C3F10203 		rsb	r3, r3, #2
 2478 07ca 5B00     		lsls	r3, r3, #1
 2479 07cc 07F1C800 		add	r0, r7, #200
 2480 07d0 0344     		add	r3, r3, r0
 2481 07d2 33F97C3C 		ldrsh	r3, [r3, #-124]
 2482 07d6 DB01     		lsls	r3, r3, #7
 2483 07d8 1BB2     		sxth	r3, r3
ARM GAS  /var/folders/kh/x4vltyy52lbg7p4pcyglc5080000gp/T//cc2IG9vv.s 			page 59


 2484 07da 1C46     		mov	r4, r3
 2485 07dc D7F8B800 		ldr	r0, [r7, #184]
 2486 07e0 D7F89830 		ldr	r3, [r7, #152]
 2487 07e4 C31A     		subs	r3, r0, r3
 2488 07e6 5B00     		lsls	r3, r3, #1
 2489 07e8 D7F8F800 		ldr	r0, [r7, #248]
 2490 07ec 0344     		add	r3, r3, r0
 2491 07ee B3F90030 		ldrsh	r3, [r3]
 2492 07f2 03FB04F3 		mul	r3, r3, r4
 2493 07f6 0B44     		add	r3, r3, r1
 2494 07f8 1360     		str	r3, [r2]
 523:STM32F10x_Speex_Lib/STM32/libspeex/ltp.c ****       for (j=0;j<tmp1;j++)
 2495              		.loc 3 523 0 discriminator 3
 2496 07fa D7F8B830 		ldr	r3, [r7, #184]
 2497 07fe 0133     		adds	r3, r3, #1
 2498 0800 C7F8B830 		str	r3, [r7, #184]
 2499              	.L91:
 523:STM32F10x_Speex_Lib/STM32/libspeex/ltp.c ****       for (j=0;j<tmp1;j++)
 2500              		.loc 3 523 0 is_stmt 0 discriminator 1
 2501 0804 D7F8B820 		ldr	r2, [r7, #184]
 2502 0808 D7F8B430 		ldr	r3, [r7, #180]
 2503 080c 9A42     		cmp	r2, r3
 2504 080e CBDB     		blt	.L92
 525:STM32F10x_Speex_Lib/STM32/libspeex/ltp.c ****       tmp3=nsf;
 2505              		.loc 3 525 0 is_stmt 1
 2506 0810 D7F8EC30 		ldr	r3, [r7, #236]
 2507 0814 C7F8B030 		str	r3, [r7, #176]
 526:STM32F10x_Speex_Lib/STM32/libspeex/ltp.c ****       if (tmp3>pp+pitch)
 2508              		.loc 3 526 0
 2509 0818 D7F89820 		ldr	r2, [r7, #152]
 2510 081c D7F8E430 		ldr	r3, [r7, #228]
 2511 0820 1A44     		add	r2, r2, r3
 2512 0822 D7F8B030 		ldr	r3, [r7, #176]
 2513 0826 9A42     		cmp	r2, r3
 2514 0828 06DA     		bge	.L93
 527:STM32F10x_Speex_Lib/STM32/libspeex/ltp.c ****          tmp3=pp+pitch;
 2515              		.loc 3 527 0
 2516 082a D7F89820 		ldr	r2, [r7, #152]
 2517 082e D7F8E430 		ldr	r3, [r7, #228]
 2518 0832 1344     		add	r3, r3, r2
 2519 0834 C7F8B030 		str	r3, [r7, #176]
 2520              	.L93:
 528:STM32F10x_Speex_Lib/STM32/libspeex/ltp.c ****       for (j=tmp1;j<tmp3;j++)
 2521              		.loc 3 528 0
 2522 0838 D7F8B430 		ldr	r3, [r7, #180]
 2523 083c C7F8B830 		str	r3, [r7, #184]
 2524 0840 30E0     		b	.L94
 2525              	.L95:
 529:STM32F10x_Speex_Lib/STM32/libspeex/ltp.c ****          exc[j]=MAC16_16(exc[j],SHL16(gain[2-i],7),exc2[j-pp-pitch]);
 2526              		.loc 3 529 0 discriminator 3
 2527 0842 D7F8B830 		ldr	r3, [r7, #184]
 2528 0846 9B00     		lsls	r3, r3, #2
 2529 0848 D7F8D820 		ldr	r2, [r7, #216]
 2530 084c 1A44     		add	r2, r2, r3
 2531 084e D7F8B830 		ldr	r3, [r7, #184]
 2532 0852 9B00     		lsls	r3, r3, #2
 2533 0854 D7F8D810 		ldr	r1, [r7, #216]
ARM GAS  /var/folders/kh/x4vltyy52lbg7p4pcyglc5080000gp/T//cc2IG9vv.s 			page 60


 2534 0858 0B44     		add	r3, r3, r1
 2535 085a 1968     		ldr	r1, [r3]
 2536 085c D7F8C430 		ldr	r3, [r7, #196]
 2537 0860 C3F10203 		rsb	r3, r3, #2
 2538 0864 5B00     		lsls	r3, r3, #1
 2539 0866 07F1C800 		add	r0, r7, #200
 2540 086a 0344     		add	r3, r3, r0
 2541 086c 33F97C3C 		ldrsh	r3, [r3, #-124]
 2542 0870 DB01     		lsls	r3, r3, #7
 2543 0872 1BB2     		sxth	r3, r3
 2544 0874 1C46     		mov	r4, r3
 2545 0876 D7F8B800 		ldr	r0, [r7, #184]
 2546 087a D7F89830 		ldr	r3, [r7, #152]
 2547 087e C01A     		subs	r0, r0, r3
 2548 0880 D7F8E430 		ldr	r3, [r7, #228]
 2549 0884 C31A     		subs	r3, r0, r3
 2550 0886 5B00     		lsls	r3, r3, #1
 2551 0888 D7F8F800 		ldr	r0, [r7, #248]
 2552 088c 0344     		add	r3, r3, r0
 2553 088e B3F90030 		ldrsh	r3, [r3]
 2554 0892 03FB04F3 		mul	r3, r3, r4
 2555 0896 0B44     		add	r3, r3, r1
 2556 0898 1360     		str	r3, [r2]
 528:STM32F10x_Speex_Lib/STM32/libspeex/ltp.c ****       for (j=tmp1;j<tmp3;j++)
 2557              		.loc 3 528 0 discriminator 3
 2558 089a D7F8B830 		ldr	r3, [r7, #184]
 2559 089e 0133     		adds	r3, r3, #1
 2560 08a0 C7F8B830 		str	r3, [r7, #184]
 2561              	.L94:
 528:STM32F10x_Speex_Lib/STM32/libspeex/ltp.c ****       for (j=tmp1;j<tmp3;j++)
 2562              		.loc 3 528 0 is_stmt 0 discriminator 1
 2563 08a4 D7F8B820 		ldr	r2, [r7, #184]
 2564 08a8 D7F8B030 		ldr	r3, [r7, #176]
 2565 08ac 9A42     		cmp	r2, r3
 2566 08ae C8DB     		blt	.L95
 2567              	.LBE8:
 515:STM32F10x_Speex_Lib/STM32/libspeex/ltp.c ****    {
 2568              		.loc 3 515 0 is_stmt 1 discriminator 2
 2569 08b0 D7F8C430 		ldr	r3, [r7, #196]
 2570 08b4 0133     		adds	r3, r3, #1
 2571 08b6 C7F8C430 		str	r3, [r7, #196]
 2572              	.L89:
 515:STM32F10x_Speex_Lib/STM32/libspeex/ltp.c ****    {
 2573              		.loc 3 515 0 is_stmt 0 discriminator 1
 2574 08ba D7F8C430 		ldr	r3, [r7, #196]
 2575 08be 022B     		cmp	r3, #2
 2576 08c0 7FF758AF 		ble	.L96
 530:STM32F10x_Speex_Lib/STM32/libspeex/ltp.c ****    }
 531:STM32F10x_Speex_Lib/STM32/libspeex/ltp.c ****    for (i=0;i<nsf;i++)
 2577              		.loc 3 531 0 is_stmt 1
 2578 08c4 0023     		movs	r3, #0
 2579 08c6 C7F8C430 		str	r3, [r7, #196]
 2580 08ca 47E0     		b	.L97
 2581              	.L98:
 2582              	.LBB9:
 532:STM32F10x_Speex_Lib/STM32/libspeex/ltp.c ****    {
 533:STM32F10x_Speex_Lib/STM32/libspeex/ltp.c ****       spx_word32_t tmp = ADD32(ADD32(MULT16_16(gain[0],x[2][i]),MULT16_16(gain[1],x[1][i])),
ARM GAS  /var/folders/kh/x4vltyy52lbg7p4pcyglc5080000gp/T//cc2IG9vv.s 			page 61


 2583              		.loc 3 533 0 discriminator 3
 2584 08cc B7F94C30 		ldrsh	r3, [r7, #76]
 2585 08d0 1946     		mov	r1, r3
 2586 08d2 D7F88C20 		ldr	r2, [r7, #140]
 2587 08d6 D7F8C430 		ldr	r3, [r7, #196]
 2588 08da 5B00     		lsls	r3, r3, #1
 2589 08dc 1344     		add	r3, r3, r2
 2590 08de B3F90030 		ldrsh	r3, [r3]
 2591 08e2 03FB01F2 		mul	r2, r3, r1
 2592 08e6 B7F94E30 		ldrsh	r3, [r7, #78]
 2593 08ea 1846     		mov	r0, r3
 2594 08ec D7F88810 		ldr	r1, [r7, #136]
 2595 08f0 D7F8C430 		ldr	r3, [r7, #196]
 2596 08f4 5B00     		lsls	r3, r3, #1
 2597 08f6 0B44     		add	r3, r3, r1
 2598 08f8 B3F90030 		ldrsh	r3, [r3]
 2599 08fc 03FB00F3 		mul	r3, r3, r0
 2600 0900 1A44     		add	r2, r2, r3
 2601 0902 B7F95030 		ldrsh	r3, [r7, #80]
 2602 0906 1846     		mov	r0, r3
 2603 0908 D7F88410 		ldr	r1, [r7, #132]
 2604 090c D7F8C430 		ldr	r3, [r7, #196]
 2605 0910 5B00     		lsls	r3, r3, #1
 2606 0912 0B44     		add	r3, r3, r1
 2607 0914 B3F90030 		ldrsh	r3, [r3]
 2608 0918 03FB00F3 		mul	r3, r3, r0
 2609 091c 1344     		add	r3, r3, r2
 2610 091e C7F89430 		str	r3, [r7, #148]
 534:STM32F10x_Speex_Lib/STM32/libspeex/ltp.c ****                             MULT16_16(gain[2],x[0][i]));
 535:STM32F10x_Speex_Lib/STM32/libspeex/ltp.c ****       new_target[i] = SUB16(new_target[i], EXTRACT16(PSHR32(tmp,6)));
 2611              		.loc 3 535 0 discriminator 3
 2612 0922 D7F8C430 		ldr	r3, [r7, #196]
 2613 0926 5B00     		lsls	r3, r3, #1
 2614 0928 D7F80021 		ldr	r2, [r7, #256]
 2615 092c 1344     		add	r3, r3, r2
 2616 092e D7F8C420 		ldr	r2, [r7, #196]
 2617 0932 5200     		lsls	r2, r2, #1
 2618 0934 D7F80011 		ldr	r1, [r7, #256]
 2619 0938 0A44     		add	r2, r2, r1
 2620 093a B2F90020 		ldrsh	r2, [r2]
 2621 093e 91B2     		uxth	r1, r2
 2622 0940 D7F89420 		ldr	r2, [r7, #148]
 2623 0944 2032     		adds	r2, r2, #32
 2624 0946 9211     		asrs	r2, r2, #6
 2625 0948 92B2     		uxth	r2, r2
 2626 094a 8A1A     		subs	r2, r1, r2
 2627 094c 92B2     		uxth	r2, r2
 2628 094e 12B2     		sxth	r2, r2
 2629 0950 1A80     		strh	r2, [r3]	@ movhi
 2630              	.LBE9:
 531:STM32F10x_Speex_Lib/STM32/libspeex/ltp.c ****    {
 2631              		.loc 3 531 0 discriminator 3
 2632 0952 D7F8C430 		ldr	r3, [r7, #196]
 2633 0956 0133     		adds	r3, r3, #1
 2634 0958 C7F8C430 		str	r3, [r7, #196]
 2635              	.L97:
 531:STM32F10x_Speex_Lib/STM32/libspeex/ltp.c ****    {
ARM GAS  /var/folders/kh/x4vltyy52lbg7p4pcyglc5080000gp/T//cc2IG9vv.s 			page 62


 2636              		.loc 3 531 0 is_stmt 0 discriminator 1
 2637 095c D7F8C420 		ldr	r2, [r7, #196]
 2638 0960 D7F8EC30 		ldr	r3, [r7, #236]
 2639 0964 9A42     		cmp	r2, r3
 2640 0966 B1DB     		blt	.L98
 536:STM32F10x_Speex_Lib/STM32/libspeex/ltp.c ****    }
 537:STM32F10x_Speex_Lib/STM32/libspeex/ltp.c ****    err = inner_prod(new_target, new_target, nsf);
 2641              		.loc 3 537 0 is_stmt 1
 2642 0968 D7F8EC20 		ldr	r2, [r7, #236]
 2643 096c D7F80011 		ldr	r1, [r7, #256]
 2644 0970 D7F80001 		ldr	r0, [r7, #256]
 2645 0974 FFF7FEFF 		bl	inner_prod
 2646 0978 C7F89000 		str	r0, [r7, #144]
 538:STM32F10x_Speex_Lib/STM32/libspeex/ltp.c **** 
 539:STM32F10x_Speex_Lib/STM32/libspeex/ltp.c ****    return err;
 2647              		.loc 3 539 0
 2648 097c D7F89030 		ldr	r3, [r7, #144]
 540:STM32F10x_Speex_Lib/STM32/libspeex/ltp.c **** }
 2649              		.loc 3 540 0
 2650 0980 1846     		mov	r0, r3
 2651 0982 CC37     		adds	r7, r7, #204
 2652              	.LCFI29:
 2653              		.cfi_def_cfa_offset 12
 2654 0984 BD46     		mov	sp, r7
 2655              	.LCFI30:
 2656              		.cfi_def_cfa_register 13
 2657              		@ sp needed
 2658 0986 90BD     		pop	{r4, r7, pc}
 2659              		.cfi_endproc
 2660              	.LFE24:
 2662              		.section	.text.pitch_search_3tap,"ax",%progbits
 2663              		.align	2
 2664              		.global	pitch_search_3tap
 2665              		.thumb
 2666              		.thumb_func
 2668              	pitch_search_3tap:
 2669              	.LFB25:
 541:STM32F10x_Speex_Lib/STM32/libspeex/ltp.c **** 
 542:STM32F10x_Speex_Lib/STM32/libspeex/ltp.c **** /** Finds the best quantized 3-tap pitch predictor by analysis by synthesis */
 543:STM32F10x_Speex_Lib/STM32/libspeex/ltp.c **** int pitch_search_3tap(
 544:STM32F10x_Speex_Lib/STM32/libspeex/ltp.c **** spx_word16_t target[],                 /* Target vector */
 545:STM32F10x_Speex_Lib/STM32/libspeex/ltp.c **** spx_word16_t *sw,
 546:STM32F10x_Speex_Lib/STM32/libspeex/ltp.c **** spx_coef_t ak[],                     /* LPCs for this subframe */
 547:STM32F10x_Speex_Lib/STM32/libspeex/ltp.c **** spx_coef_t awk1[],                   /* Weighted LPCs #1 for this subframe */
 548:STM32F10x_Speex_Lib/STM32/libspeex/ltp.c **** spx_coef_t awk2[],                   /* Weighted LPCs #2 for this subframe */
 549:STM32F10x_Speex_Lib/STM32/libspeex/ltp.c **** spx_sig_t exc[],                    /* Excitation */
 550:STM32F10x_Speex_Lib/STM32/libspeex/ltp.c **** const void *par,
 551:STM32F10x_Speex_Lib/STM32/libspeex/ltp.c **** int   start,                    /* Smallest pitch value allowed */
 552:STM32F10x_Speex_Lib/STM32/libspeex/ltp.c **** int   end,                      /* Largest pitch value allowed */
 553:STM32F10x_Speex_Lib/STM32/libspeex/ltp.c **** spx_word16_t pitch_coef,               /* Voicing (pitch) coefficient */
 554:STM32F10x_Speex_Lib/STM32/libspeex/ltp.c **** int   p,                        /* Number of LPC coeffs */
 555:STM32F10x_Speex_Lib/STM32/libspeex/ltp.c **** int   nsf,                      /* Number of samples in subframe */
 556:STM32F10x_Speex_Lib/STM32/libspeex/ltp.c **** SpeexBits *bits,
 557:STM32F10x_Speex_Lib/STM32/libspeex/ltp.c **** char *stack,
 558:STM32F10x_Speex_Lib/STM32/libspeex/ltp.c **** spx_word16_t *exc2,
 559:STM32F10x_Speex_Lib/STM32/libspeex/ltp.c **** spx_word16_t *r,
 560:STM32F10x_Speex_Lib/STM32/libspeex/ltp.c **** int complexity,
ARM GAS  /var/folders/kh/x4vltyy52lbg7p4pcyglc5080000gp/T//cc2IG9vv.s 			page 63


 561:STM32F10x_Speex_Lib/STM32/libspeex/ltp.c **** int cdbk_offset,
 562:STM32F10x_Speex_Lib/STM32/libspeex/ltp.c **** int plc_tuning,
 563:STM32F10x_Speex_Lib/STM32/libspeex/ltp.c **** spx_word32_t *cumul_gain
 564:STM32F10x_Speex_Lib/STM32/libspeex/ltp.c **** )
 565:STM32F10x_Speex_Lib/STM32/libspeex/ltp.c **** {
 2670              		.loc 3 565 0
 2671              		.cfi_startproc
 2672              		@ args = 64, pretend = 0, frame = 80
 2673              		@ frame_needed = 1, uses_anonymous_args = 0
 2674 0000 80B5     		push	{r7, lr}
 2675              	.LCFI31:
 2676              		.cfi_def_cfa_offset 8
 2677              		.cfi_offset 7, -8
 2678              		.cfi_offset 14, -4
 2679 0002 A4B0     		sub	sp, sp, #144
 2680              	.LCFI32:
 2681              		.cfi_def_cfa_offset 152
 2682 0004 10AF     		add	r7, sp, #64
 2683              	.LCFI33:
 2684              		.cfi_def_cfa 7, 88
 2685 0006 F860     		str	r0, [r7, #12]
 2686 0008 B960     		str	r1, [r7, #8]
 2687 000a 7A60     		str	r2, [r7, #4]
 2688 000c 3B60     		str	r3, [r7]
 566:STM32F10x_Speex_Lib/STM32/libspeex/ltp.c ****    int i;
 567:STM32F10x_Speex_Lib/STM32/libspeex/ltp.c ****    int cdbk_index, pitch=0, best_gain_index=0;
 2689              		.loc 3 567 0
 2690 000e 0023     		movs	r3, #0
 2691 0010 BB64     		str	r3, [r7, #72]
 2692 0012 0023     		movs	r3, #0
 2693 0014 7B64     		str	r3, [r7, #68]
 568:STM32F10x_Speex_Lib/STM32/libspeex/ltp.c ****    VARDECL(spx_sig_t *best_exc);
 569:STM32F10x_Speex_Lib/STM32/libspeex/ltp.c ****    VARDECL(spx_word16_t *new_target);
 570:STM32F10x_Speex_Lib/STM32/libspeex/ltp.c ****    VARDECL(spx_word16_t *best_target);
 571:STM32F10x_Speex_Lib/STM32/libspeex/ltp.c ****    int best_pitch=0;
 2694              		.loc 3 571 0
 2695 0016 0023     		movs	r3, #0
 2696 0018 3B64     		str	r3, [r7, #64]
 572:STM32F10x_Speex_Lib/STM32/libspeex/ltp.c ****    spx_word32_t err, best_err=-1;
 2697              		.loc 3 572 0
 2698 001a 4FF0FF33 		mov	r3, #-1
 2699 001e FB63     		str	r3, [r7, #60]
 573:STM32F10x_Speex_Lib/STM32/libspeex/ltp.c ****    int N;
 574:STM32F10x_Speex_Lib/STM32/libspeex/ltp.c ****    const ltp_params *params;
 575:STM32F10x_Speex_Lib/STM32/libspeex/ltp.c ****    const signed char *gain_cdbk;
 576:STM32F10x_Speex_Lib/STM32/libspeex/ltp.c ****    int   gain_cdbk_size;
 577:STM32F10x_Speex_Lib/STM32/libspeex/ltp.c ****    int scaledown=0;
 2700              		.loc 3 577 0
 2701 0020 0023     		movs	r3, #0
 2702 0022 7B63     		str	r3, [r7, #52]
 578:STM32F10x_Speex_Lib/STM32/libspeex/ltp.c ****          
 579:STM32F10x_Speex_Lib/STM32/libspeex/ltp.c ****    VARDECL(int *nbest);
 580:STM32F10x_Speex_Lib/STM32/libspeex/ltp.c ****    
 581:STM32F10x_Speex_Lib/STM32/libspeex/ltp.c ****    params = (const ltp_params*) par;
 2703              		.loc 3 581 0
 2704 0024 3B6E     		ldr	r3, [r7, #96]
 2705 0026 3B63     		str	r3, [r7, #48]
ARM GAS  /var/folders/kh/x4vltyy52lbg7p4pcyglc5080000gp/T//cc2IG9vv.s 			page 64


 582:STM32F10x_Speex_Lib/STM32/libspeex/ltp.c ****    gain_cdbk_size = 1<<params->gain_bits;
 2706              		.loc 3 582 0
 2707 0028 3B6B     		ldr	r3, [r7, #48]
 2708 002a 5B68     		ldr	r3, [r3, #4]
 2709 002c 0122     		movs	r2, #1
 2710 002e 02FA03F3 		lsl	r3, r2, r3
 2711 0032 FB62     		str	r3, [r7, #44]
 583:STM32F10x_Speex_Lib/STM32/libspeex/ltp.c ****    gain_cdbk = params->gain_cdbk + 4*gain_cdbk_size*cdbk_offset;
 2712              		.loc 3 583 0
 2713 0034 3B6B     		ldr	r3, [r7, #48]
 2714 0036 1B68     		ldr	r3, [r3]
 2715 0038 FA6A     		ldr	r2, [r7, #44]
 2716 003a 9200     		lsls	r2, r2, #2
 2717 003c D7F88C10 		ldr	r1, [r7, #140]
 2718 0040 01FB02F2 		mul	r2, r1, r2
 2719 0044 1344     		add	r3, r3, r2
 2720 0046 BB62     		str	r3, [r7, #40]
 584:STM32F10x_Speex_Lib/STM32/libspeex/ltp.c ****    
 585:STM32F10x_Speex_Lib/STM32/libspeex/ltp.c ****    N=complexity;
 2721              		.loc 3 585 0
 2722 0048 D7F88830 		ldr	r3, [r7, #136]
 2723 004c BB63     		str	r3, [r7, #56]
 586:STM32F10x_Speex_Lib/STM32/libspeex/ltp.c ****    if (N>10)
 2724              		.loc 3 586 0
 2725 004e BB6B     		ldr	r3, [r7, #56]
 2726 0050 0A2B     		cmp	r3, #10
 2727 0052 01DD     		ble	.L101
 587:STM32F10x_Speex_Lib/STM32/libspeex/ltp.c ****       N=10;
 2728              		.loc 3 587 0
 2729 0054 0A23     		movs	r3, #10
 2730 0056 BB63     		str	r3, [r7, #56]
 2731              	.L101:
 588:STM32F10x_Speex_Lib/STM32/libspeex/ltp.c ****    if (N<1)
 2732              		.loc 3 588 0
 2733 0058 BB6B     		ldr	r3, [r7, #56]
 2734 005a 002B     		cmp	r3, #0
 2735 005c 01DC     		bgt	.L102
 589:STM32F10x_Speex_Lib/STM32/libspeex/ltp.c ****       N=1;
 2736              		.loc 3 589 0
 2737 005e 0123     		movs	r3, #1
 2738 0060 BB63     		str	r3, [r7, #56]
 2739              	.L102:
 590:STM32F10x_Speex_Lib/STM32/libspeex/ltp.c **** 
 591:STM32F10x_Speex_Lib/STM32/libspeex/ltp.c ****    ALLOC(nbest, N, int);
 2740              		.loc 3 591 0
 2741 0062 FB6F     		ldr	r3, [r7, #124]
 2742 0064 5B42     		negs	r3, r3
 2743 0066 03F00303 		and	r3, r3, #3
 2744 006a FA6F     		ldr	r2, [r7, #124]
 2745 006c 1344     		add	r3, r3, r2
 2746 006e FB67     		str	r3, [r7, #124]
 2747 0070 BB6B     		ldr	r3, [r7, #56]
 2748 0072 9B00     		lsls	r3, r3, #2
 2749 0074 FA6F     		ldr	r2, [r7, #124]
 2750 0076 1344     		add	r3, r3, r2
 2751 0078 FB67     		str	r3, [r7, #124]
 2752 007a BB6B     		ldr	r3, [r7, #56]
ARM GAS  /var/folders/kh/x4vltyy52lbg7p4pcyglc5080000gp/T//cc2IG9vv.s 			page 65


 2753 007c 9B00     		lsls	r3, r3, #2
 2754 007e 5B42     		negs	r3, r3
 2755 0080 FA6F     		ldr	r2, [r7, #124]
 2756 0082 1344     		add	r3, r3, r2
 2757 0084 7B62     		str	r3, [r7, #36]
 592:STM32F10x_Speex_Lib/STM32/libspeex/ltp.c ****    params = (const ltp_params*) par;
 2758              		.loc 3 592 0
 2759 0086 3B6E     		ldr	r3, [r7, #96]
 2760 0088 3B63     		str	r3, [r7, #48]
 593:STM32F10x_Speex_Lib/STM32/libspeex/ltp.c **** 
 594:STM32F10x_Speex_Lib/STM32/libspeex/ltp.c ****    if (end<start)
 2761              		.loc 3 594 0
 2762 008a BA6E     		ldr	r2, [r7, #104]
 2763 008c 7B6E     		ldr	r3, [r7, #100]
 2764 008e 9A42     		cmp	r2, r3
 2765 0090 16DA     		bge	.L103
 595:STM32F10x_Speex_Lib/STM32/libspeex/ltp.c ****    {
 596:STM32F10x_Speex_Lib/STM32/libspeex/ltp.c ****       speex_bits_pack(bits, 0, params->pitch_bits);
 2766              		.loc 3 596 0
 2767 0092 3B6B     		ldr	r3, [r7, #48]
 2768 0094 9B68     		ldr	r3, [r3, #8]
 2769 0096 1A46     		mov	r2, r3
 2770 0098 0021     		movs	r1, #0
 2771 009a B86F     		ldr	r0, [r7, #120]
 2772 009c FFF7FEFF 		bl	speex_bits_pack
 597:STM32F10x_Speex_Lib/STM32/libspeex/ltp.c ****       speex_bits_pack(bits, 0, params->gain_bits);
 2773              		.loc 3 597 0
 2774 00a0 3B6B     		ldr	r3, [r7, #48]
 2775 00a2 5B68     		ldr	r3, [r3, #4]
 2776 00a4 1A46     		mov	r2, r3
 2777 00a6 0021     		movs	r1, #0
 2778 00a8 B86F     		ldr	r0, [r7, #120]
 2779 00aa FFF7FEFF 		bl	speex_bits_pack
 598:STM32F10x_Speex_Lib/STM32/libspeex/ltp.c ****       SPEEX_MEMSET(exc, 0, nsf);
 2780              		.loc 3 598 0
 2781 00ae 7B6F     		ldr	r3, [r7, #116]
 2782 00b0 9B00     		lsls	r3, r3, #2
 2783 00b2 1A46     		mov	r2, r3
 2784 00b4 0021     		movs	r1, #0
 2785 00b6 F86D     		ldr	r0, [r7, #92]
 2786 00b8 FFF7FEFF 		bl	memset
 599:STM32F10x_Speex_Lib/STM32/libspeex/ltp.c ****       return start;
 2787              		.loc 3 599 0
 2788 00bc 7B6E     		ldr	r3, [r7, #100]
 2789 00be 58E1     		b	.L125
 2790              	.L103:
 600:STM32F10x_Speex_Lib/STM32/libspeex/ltp.c ****    }
 601:STM32F10x_Speex_Lib/STM32/libspeex/ltp.c ****    
 602:STM32F10x_Speex_Lib/STM32/libspeex/ltp.c **** #ifdef FIXED_POINT
 603:STM32F10x_Speex_Lib/STM32/libspeex/ltp.c ****    /* Check if we need to scale everything down in the pitch search to avoid overflows */
 604:STM32F10x_Speex_Lib/STM32/libspeex/ltp.c ****    for (i=0;i<nsf;i++)
 2791              		.loc 3 604 0
 2792 00c0 0023     		movs	r3, #0
 2793 00c2 FB64     		str	r3, [r7, #76]
 2794 00c4 11E0     		b	.L105
 2795              	.L108:
 605:STM32F10x_Speex_Lib/STM32/libspeex/ltp.c ****    {
ARM GAS  /var/folders/kh/x4vltyy52lbg7p4pcyglc5080000gp/T//cc2IG9vv.s 			page 66


 606:STM32F10x_Speex_Lib/STM32/libspeex/ltp.c ****       if (ABS16(target[i])>16383)
 2796              		.loc 3 606 0
 2797 00c6 FB6C     		ldr	r3, [r7, #76]
 2798 00c8 5B00     		lsls	r3, r3, #1
 2799 00ca FA68     		ldr	r2, [r7, #12]
 2800 00cc 1344     		add	r3, r3, r2
 2801 00ce B3F90030 		ldrsh	r3, [r3]
 2802 00d2 002B     		cmp	r3, #0
 2803 00d4 B8BF     		it	lt
 2804 00d6 5B42     		rsblt	r3, r3, #0
 2805 00d8 B3F5804F 		cmp	r3, #16384
 2806 00dc 02DB     		blt	.L106
 607:STM32F10x_Speex_Lib/STM32/libspeex/ltp.c ****       {
 608:STM32F10x_Speex_Lib/STM32/libspeex/ltp.c ****          scaledown=1;
 2807              		.loc 3 608 0
 2808 00de 0123     		movs	r3, #1
 2809 00e0 7B63     		str	r3, [r7, #52]
 609:STM32F10x_Speex_Lib/STM32/libspeex/ltp.c ****          break;
 2810              		.loc 3 609 0
 2811 00e2 06E0     		b	.L107
 2812              	.L106:
 604:STM32F10x_Speex_Lib/STM32/libspeex/ltp.c ****    {
 2813              		.loc 3 604 0 discriminator 2
 2814 00e4 FB6C     		ldr	r3, [r7, #76]
 2815 00e6 0133     		adds	r3, r3, #1
 2816 00e8 FB64     		str	r3, [r7, #76]
 2817              	.L105:
 604:STM32F10x_Speex_Lib/STM32/libspeex/ltp.c ****    {
 2818              		.loc 3 604 0 is_stmt 0 discriminator 1
 2819 00ea FA6C     		ldr	r2, [r7, #76]
 2820 00ec 7B6F     		ldr	r3, [r7, #116]
 2821 00ee 9A42     		cmp	r2, r3
 2822 00f0 E9DB     		blt	.L108
 2823              	.L107:
 610:STM32F10x_Speex_Lib/STM32/libspeex/ltp.c ****       }
 611:STM32F10x_Speex_Lib/STM32/libspeex/ltp.c ****    }
 612:STM32F10x_Speex_Lib/STM32/libspeex/ltp.c ****    for (i=-end;i<nsf;i++)
 2824              		.loc 3 612 0 is_stmt 1
 2825 00f2 BB6E     		ldr	r3, [r7, #104]
 2826 00f4 5B42     		negs	r3, r3
 2827 00f6 FB64     		str	r3, [r7, #76]
 2828 00f8 12E0     		b	.L109
 2829              	.L112:
 613:STM32F10x_Speex_Lib/STM32/libspeex/ltp.c ****    {
 614:STM32F10x_Speex_Lib/STM32/libspeex/ltp.c ****       if (ABS16(exc2[i])>16383)
 2830              		.loc 3 614 0
 2831 00fa FB6C     		ldr	r3, [r7, #76]
 2832 00fc 5B00     		lsls	r3, r3, #1
 2833 00fe D7F88020 		ldr	r2, [r7, #128]
 2834 0102 1344     		add	r3, r3, r2
 2835 0104 B3F90030 		ldrsh	r3, [r3]
 2836 0108 002B     		cmp	r3, #0
 2837 010a B8BF     		it	lt
 2838 010c 5B42     		rsblt	r3, r3, #0
 2839 010e B3F5804F 		cmp	r3, #16384
 2840 0112 02DB     		blt	.L110
 615:STM32F10x_Speex_Lib/STM32/libspeex/ltp.c ****       {
ARM GAS  /var/folders/kh/x4vltyy52lbg7p4pcyglc5080000gp/T//cc2IG9vv.s 			page 67


 616:STM32F10x_Speex_Lib/STM32/libspeex/ltp.c ****          scaledown=1;
 2841              		.loc 3 616 0
 2842 0114 0123     		movs	r3, #1
 2843 0116 7B63     		str	r3, [r7, #52]
 617:STM32F10x_Speex_Lib/STM32/libspeex/ltp.c ****          break;
 2844              		.loc 3 617 0
 2845 0118 06E0     		b	.L111
 2846              	.L110:
 612:STM32F10x_Speex_Lib/STM32/libspeex/ltp.c ****    {
 2847              		.loc 3 612 0 discriminator 2
 2848 011a FB6C     		ldr	r3, [r7, #76]
 2849 011c 0133     		adds	r3, r3, #1
 2850 011e FB64     		str	r3, [r7, #76]
 2851              	.L109:
 612:STM32F10x_Speex_Lib/STM32/libspeex/ltp.c ****    {
 2852              		.loc 3 612 0 is_stmt 0 discriminator 1
 2853 0120 FA6C     		ldr	r2, [r7, #76]
 2854 0122 7B6F     		ldr	r3, [r7, #116]
 2855 0124 9A42     		cmp	r2, r3
 2856 0126 E8DB     		blt	.L112
 2857              	.L111:
 618:STM32F10x_Speex_Lib/STM32/libspeex/ltp.c ****       }
 619:STM32F10x_Speex_Lib/STM32/libspeex/ltp.c ****    }
 620:STM32F10x_Speex_Lib/STM32/libspeex/ltp.c **** #endif
 621:STM32F10x_Speex_Lib/STM32/libspeex/ltp.c ****    if (N>end-start+1)
 2858              		.loc 3 621 0 is_stmt 1
 2859 0128 BA6E     		ldr	r2, [r7, #104]
 2860 012a 7B6E     		ldr	r3, [r7, #100]
 2861 012c D31A     		subs	r3, r2, r3
 2862 012e 5A1C     		adds	r2, r3, #1
 2863 0130 BB6B     		ldr	r3, [r7, #56]
 2864 0132 9A42     		cmp	r2, r3
 2865 0134 04DA     		bge	.L113
 622:STM32F10x_Speex_Lib/STM32/libspeex/ltp.c ****       N=end-start+1;
 2866              		.loc 3 622 0
 2867 0136 BA6E     		ldr	r2, [r7, #104]
 2868 0138 7B6E     		ldr	r3, [r7, #100]
 2869 013a D31A     		subs	r3, r2, r3
 2870 013c 0133     		adds	r3, r3, #1
 2871 013e BB63     		str	r3, [r7, #56]
 2872              	.L113:
 623:STM32F10x_Speex_Lib/STM32/libspeex/ltp.c ****    if (end != start)
 2873              		.loc 3 623 0
 2874 0140 BA6E     		ldr	r2, [r7, #104]
 2875 0142 7B6E     		ldr	r3, [r7, #100]
 2876 0144 9A42     		cmp	r2, r3
 2877 0146 0ED0     		beq	.L114
 624:STM32F10x_Speex_Lib/STM32/libspeex/ltp.c ****       open_loop_nbest_pitch(sw, start, end, nsf, nbest, NULL, N, stack);
 2878              		.loc 3 624 0
 2879 0148 FB6F     		ldr	r3, [r7, #124]
 2880 014a 0393     		str	r3, [sp, #12]
 2881 014c BB6B     		ldr	r3, [r7, #56]
 2882 014e 0293     		str	r3, [sp, #8]
 2883 0150 0023     		movs	r3, #0
 2884 0152 0193     		str	r3, [sp, #4]
 2885 0154 7B6A     		ldr	r3, [r7, #36]
 2886 0156 0093     		str	r3, [sp]
ARM GAS  /var/folders/kh/x4vltyy52lbg7p4pcyglc5080000gp/T//cc2IG9vv.s 			page 68


 2887 0158 7B6F     		ldr	r3, [r7, #116]
 2888 015a BA6E     		ldr	r2, [r7, #104]
 2889 015c 796E     		ldr	r1, [r7, #100]
 2890 015e B868     		ldr	r0, [r7, #8]
 2891 0160 FFF7FEFF 		bl	open_loop_nbest_pitch
 2892 0164 02E0     		b	.L115
 2893              	.L114:
 625:STM32F10x_Speex_Lib/STM32/libspeex/ltp.c ****    else
 626:STM32F10x_Speex_Lib/STM32/libspeex/ltp.c ****       nbest[0] = start;
 2894              		.loc 3 626 0
 2895 0166 7B6A     		ldr	r3, [r7, #36]
 2896 0168 7A6E     		ldr	r2, [r7, #100]
 2897 016a 1A60     		str	r2, [r3]
 2898              	.L115:
 627:STM32F10x_Speex_Lib/STM32/libspeex/ltp.c ****    
 628:STM32F10x_Speex_Lib/STM32/libspeex/ltp.c ****    ALLOC(best_exc, nsf, spx_sig_t);
 2899              		.loc 3 628 0
 2900 016c FB6F     		ldr	r3, [r7, #124]
 2901 016e 5B42     		negs	r3, r3
 2902 0170 03F00303 		and	r3, r3, #3
 2903 0174 FA6F     		ldr	r2, [r7, #124]
 2904 0176 1344     		add	r3, r3, r2
 2905 0178 FB67     		str	r3, [r7, #124]
 2906 017a 7B6F     		ldr	r3, [r7, #116]
 2907 017c 9B00     		lsls	r3, r3, #2
 2908 017e FA6F     		ldr	r2, [r7, #124]
 2909 0180 1344     		add	r3, r3, r2
 2910 0182 FB67     		str	r3, [r7, #124]
 2911 0184 7B6F     		ldr	r3, [r7, #116]
 2912 0186 9B00     		lsls	r3, r3, #2
 2913 0188 5B42     		negs	r3, r3
 2914 018a FA6F     		ldr	r2, [r7, #124]
 2915 018c 1344     		add	r3, r3, r2
 2916 018e 3B62     		str	r3, [r7, #32]
 629:STM32F10x_Speex_Lib/STM32/libspeex/ltp.c ****    ALLOC(new_target, nsf, spx_word16_t);
 2917              		.loc 3 629 0
 2918 0190 FB6F     		ldr	r3, [r7, #124]
 2919 0192 5B42     		negs	r3, r3
 2920 0194 03F00103 		and	r3, r3, #1
 2921 0198 FA6F     		ldr	r2, [r7, #124]
 2922 019a 1344     		add	r3, r3, r2
 2923 019c FB67     		str	r3, [r7, #124]
 2924 019e 7B6F     		ldr	r3, [r7, #116]
 2925 01a0 5B00     		lsls	r3, r3, #1
 2926 01a2 FA6F     		ldr	r2, [r7, #124]
 2927 01a4 1344     		add	r3, r3, r2
 2928 01a6 FB67     		str	r3, [r7, #124]
 2929 01a8 7B6F     		ldr	r3, [r7, #116]
 2930 01aa 5B00     		lsls	r3, r3, #1
 2931 01ac 5B42     		negs	r3, r3
 2932 01ae FA6F     		ldr	r2, [r7, #124]
 2933 01b0 1344     		add	r3, r3, r2
 2934 01b2 FB61     		str	r3, [r7, #28]
 630:STM32F10x_Speex_Lib/STM32/libspeex/ltp.c ****    ALLOC(best_target, nsf, spx_word16_t);
 2935              		.loc 3 630 0
 2936 01b4 FB6F     		ldr	r3, [r7, #124]
 2937 01b6 5B42     		negs	r3, r3
ARM GAS  /var/folders/kh/x4vltyy52lbg7p4pcyglc5080000gp/T//cc2IG9vv.s 			page 69


 2938 01b8 03F00103 		and	r3, r3, #1
 2939 01bc FA6F     		ldr	r2, [r7, #124]
 2940 01be 1344     		add	r3, r3, r2
 2941 01c0 FB67     		str	r3, [r7, #124]
 2942 01c2 7B6F     		ldr	r3, [r7, #116]
 2943 01c4 5B00     		lsls	r3, r3, #1
 2944 01c6 FA6F     		ldr	r2, [r7, #124]
 2945 01c8 1344     		add	r3, r3, r2
 2946 01ca FB67     		str	r3, [r7, #124]
 2947 01cc 7B6F     		ldr	r3, [r7, #116]
 2948 01ce 5B00     		lsls	r3, r3, #1
 2949 01d0 5B42     		negs	r3, r3
 2950 01d2 FA6F     		ldr	r2, [r7, #124]
 2951 01d4 1344     		add	r3, r3, r2
 2952 01d6 BB61     		str	r3, [r7, #24]
 631:STM32F10x_Speex_Lib/STM32/libspeex/ltp.c ****    
 632:STM32F10x_Speex_Lib/STM32/libspeex/ltp.c ****    for (i=0;i<N;i++)
 2953              		.loc 3 632 0
 2954 01d8 0023     		movs	r3, #0
 2955 01da FB64     		str	r3, [r7, #76]
 2956 01dc 55E0     		b	.L116
 2957              	.L119:
 633:STM32F10x_Speex_Lib/STM32/libspeex/ltp.c ****    {
 634:STM32F10x_Speex_Lib/STM32/libspeex/ltp.c ****       pitch=nbest[i];
 2958              		.loc 3 634 0
 2959 01de FB6C     		ldr	r3, [r7, #76]
 2960 01e0 9B00     		lsls	r3, r3, #2
 2961 01e2 7A6A     		ldr	r2, [r7, #36]
 2962 01e4 1344     		add	r3, r3, r2
 2963 01e6 1B68     		ldr	r3, [r3]
 2964 01e8 BB64     		str	r3, [r7, #72]
 635:STM32F10x_Speex_Lib/STM32/libspeex/ltp.c ****       SPEEX_MEMSET(exc, 0, nsf);
 2965              		.loc 3 635 0
 2966 01ea 7B6F     		ldr	r3, [r7, #116]
 2967 01ec 9B00     		lsls	r3, r3, #2
 2968 01ee 1A46     		mov	r2, r3
 2969 01f0 0021     		movs	r1, #0
 2970 01f2 F86D     		ldr	r0, [r7, #92]
 2971 01f4 FFF7FEFF 		bl	memset
 636:STM32F10x_Speex_Lib/STM32/libspeex/ltp.c ****       err=pitch_gain_search_3tap(target, ak, awk1, awk2, exc, gain_cdbk, gain_cdbk_size, pitch, p, 
 2972              		.loc 3 636 0
 2973 01f8 D7F89430 		ldr	r3, [r7, #148]
 2974 01fc 1B68     		ldr	r3, [r3]
 2975 01fe 7A6B     		ldr	r2, [r7, #52]
 2976 0200 0E92     		str	r2, [sp, #56]
 2977 0202 0D93     		str	r3, [sp, #52]
 2978 0204 D7F89030 		ldr	r3, [r7, #144]
 2979 0208 0C93     		str	r3, [sp, #48]
 2980 020a 07F11003 		add	r3, r7, #16
 2981 020e 0B93     		str	r3, [sp, #44]
 2982 0210 FB69     		ldr	r3, [r7, #28]
 2983 0212 0A93     		str	r3, [sp, #40]
 2984 0214 D7F88430 		ldr	r3, [r7, #132]
 2985 0218 0993     		str	r3, [sp, #36]
 2986 021a D7F88030 		ldr	r3, [r7, #128]
 2987 021e 0893     		str	r3, [sp, #32]
 2988 0220 FB6F     		ldr	r3, [r7, #124]
ARM GAS  /var/folders/kh/x4vltyy52lbg7p4pcyglc5080000gp/T//cc2IG9vv.s 			page 70


 2989 0222 0793     		str	r3, [sp, #28]
 2990 0224 BB6F     		ldr	r3, [r7, #120]
 2991 0226 0693     		str	r3, [sp, #24]
 2992 0228 7B6F     		ldr	r3, [r7, #116]
 2993 022a 0593     		str	r3, [sp, #20]
 2994 022c 3B6F     		ldr	r3, [r7, #112]
 2995 022e 0493     		str	r3, [sp, #16]
 2996 0230 BB6C     		ldr	r3, [r7, #72]
 2997 0232 0393     		str	r3, [sp, #12]
 2998 0234 FB6A     		ldr	r3, [r7, #44]
 2999 0236 0293     		str	r3, [sp, #8]
 3000 0238 BB6A     		ldr	r3, [r7, #40]
 3001 023a 0193     		str	r3, [sp, #4]
 3002 023c FB6D     		ldr	r3, [r7, #92]
 3003 023e 0093     		str	r3, [sp]
 3004 0240 BB6D     		ldr	r3, [r7, #88]
 3005 0242 3A68     		ldr	r2, [r7]
 3006 0244 7968     		ldr	r1, [r7, #4]
 3007 0246 F868     		ldr	r0, [r7, #12]
 3008 0248 FFF7FEFF 		bl	pitch_gain_search_3tap
 3009 024c 7861     		str	r0, [r7, #20]
 637:STM32F10x_Speex_Lib/STM32/libspeex/ltp.c ****                                  bits, stack, exc2, r, new_target, &cdbk_index, plc_tuning, *cumul_
 638:STM32F10x_Speex_Lib/STM32/libspeex/ltp.c ****       if (err<best_err || best_err<0)
 3010              		.loc 3 638 0
 3011 024e 7A69     		ldr	r2, [r7, #20]
 3012 0250 FB6B     		ldr	r3, [r7, #60]
 3013 0252 9A42     		cmp	r2, r3
 3014 0254 02DB     		blt	.L117
 3015              		.loc 3 638 0 is_stmt 0 discriminator 1
 3016 0256 FB6B     		ldr	r3, [r7, #60]
 3017 0258 002B     		cmp	r3, #0
 3018 025a 13DA     		bge	.L118
 3019              	.L117:
 639:STM32F10x_Speex_Lib/STM32/libspeex/ltp.c ****       {
 640:STM32F10x_Speex_Lib/STM32/libspeex/ltp.c ****          SPEEX_COPY(best_exc, exc, nsf);
 3020              		.loc 3 640 0 is_stmt 1
 3021 025c 7B6F     		ldr	r3, [r7, #116]
 3022 025e 9B00     		lsls	r3, r3, #2
 3023 0260 1A46     		mov	r2, r3
 3024 0262 F96D     		ldr	r1, [r7, #92]
 3025 0264 386A     		ldr	r0, [r7, #32]
 3026 0266 FFF7FEFF 		bl	memcpy
 641:STM32F10x_Speex_Lib/STM32/libspeex/ltp.c ****          SPEEX_COPY(best_target, new_target, nsf);
 3027              		.loc 3 641 0
 3028 026a 7B6F     		ldr	r3, [r7, #116]
 3029 026c 5B00     		lsls	r3, r3, #1
 3030 026e 1A46     		mov	r2, r3
 3031 0270 F969     		ldr	r1, [r7, #28]
 3032 0272 B869     		ldr	r0, [r7, #24]
 3033 0274 FFF7FEFF 		bl	memcpy
 642:STM32F10x_Speex_Lib/STM32/libspeex/ltp.c ****          best_err=err;
 3034              		.loc 3 642 0
 3035 0278 7B69     		ldr	r3, [r7, #20]
 3036 027a FB63     		str	r3, [r7, #60]
 643:STM32F10x_Speex_Lib/STM32/libspeex/ltp.c ****          best_pitch=pitch;
 3037              		.loc 3 643 0
 3038 027c BB6C     		ldr	r3, [r7, #72]
ARM GAS  /var/folders/kh/x4vltyy52lbg7p4pcyglc5080000gp/T//cc2IG9vv.s 			page 71


 3039 027e 3B64     		str	r3, [r7, #64]
 644:STM32F10x_Speex_Lib/STM32/libspeex/ltp.c ****          best_gain_index=cdbk_index;
 3040              		.loc 3 644 0
 3041 0280 3B69     		ldr	r3, [r7, #16]
 3042 0282 7B64     		str	r3, [r7, #68]
 3043              	.L118:
 632:STM32F10x_Speex_Lib/STM32/libspeex/ltp.c ****    {
 3044              		.loc 3 632 0 discriminator 2
 3045 0284 FB6C     		ldr	r3, [r7, #76]
 3046 0286 0133     		adds	r3, r3, #1
 3047 0288 FB64     		str	r3, [r7, #76]
 3048              	.L116:
 632:STM32F10x_Speex_Lib/STM32/libspeex/ltp.c ****    {
 3049              		.loc 3 632 0 is_stmt 0 discriminator 1
 3050 028a FA6C     		ldr	r2, [r7, #76]
 3051 028c BB6B     		ldr	r3, [r7, #56]
 3052 028e 9A42     		cmp	r2, r3
 3053 0290 A5DB     		blt	.L119
 645:STM32F10x_Speex_Lib/STM32/libspeex/ltp.c ****       }
 646:STM32F10x_Speex_Lib/STM32/libspeex/ltp.c ****    }
 647:STM32F10x_Speex_Lib/STM32/libspeex/ltp.c ****    /*printf ("pitch: %d %d\n", best_pitch, best_gain_index);*/
 648:STM32F10x_Speex_Lib/STM32/libspeex/ltp.c ****    speex_bits_pack(bits, best_pitch-start, params->pitch_bits);
 3054              		.loc 3 648 0 is_stmt 1
 3055 0292 3A6C     		ldr	r2, [r7, #64]
 3056 0294 7B6E     		ldr	r3, [r7, #100]
 3057 0296 D11A     		subs	r1, r2, r3
 3058 0298 3B6B     		ldr	r3, [r7, #48]
 3059 029a 9B68     		ldr	r3, [r3, #8]
 3060 029c 1A46     		mov	r2, r3
 3061 029e B86F     		ldr	r0, [r7, #120]
 3062 02a0 FFF7FEFF 		bl	speex_bits_pack
 649:STM32F10x_Speex_Lib/STM32/libspeex/ltp.c ****    speex_bits_pack(bits, best_gain_index, params->gain_bits);
 3063              		.loc 3 649 0
 3064 02a4 3B6B     		ldr	r3, [r7, #48]
 3065 02a6 5B68     		ldr	r3, [r3, #4]
 3066 02a8 1A46     		mov	r2, r3
 3067 02aa 796C     		ldr	r1, [r7, #68]
 3068 02ac B86F     		ldr	r0, [r7, #120]
 3069 02ae FFF7FEFF 		bl	speex_bits_pack
 650:STM32F10x_Speex_Lib/STM32/libspeex/ltp.c **** #ifdef FIXED_POINT
 651:STM32F10x_Speex_Lib/STM32/libspeex/ltp.c ****    *cumul_gain = MULT16_32_Q13(SHL16(params->gain_cdbk[4*best_gain_index+3],8), MAX32(1024,*cumul_g
 3070              		.loc 3 651 0
 3071 02b2 3B6B     		ldr	r3, [r7, #48]
 3072 02b4 1A68     		ldr	r2, [r3]
 3073 02b6 7B6C     		ldr	r3, [r7, #68]
 3074 02b8 9B00     		lsls	r3, r3, #2
 3075 02ba 0333     		adds	r3, r3, #3
 3076 02bc 1344     		add	r3, r3, r2
 3077 02be 93F90030 		ldrsb	r3, [r3]
 3078 02c2 1B02     		lsls	r3, r3, #8
 3079 02c4 1BB2     		sxth	r3, r3
 3080 02c6 1A46     		mov	r2, r3
 3081 02c8 D7F89430 		ldr	r3, [r7, #148]
 3082 02cc 1B68     		ldr	r3, [r3]
 3083 02ce B3F5806F 		cmp	r3, #1024
 3084 02d2 B8BF     		it	lt
 3085 02d4 4FF48063 		movlt	r3, #1024
ARM GAS  /var/folders/kh/x4vltyy52lbg7p4pcyglc5080000gp/T//cc2IG9vv.s 			page 72


 3086 02d8 5B13     		asrs	r3, r3, #13
 3087 02da 1BB2     		sxth	r3, r3
 3088 02dc 03FB02F2 		mul	r2, r3, r2
 3089 02e0 3B6B     		ldr	r3, [r7, #48]
 3090 02e2 1968     		ldr	r1, [r3]
 3091 02e4 7B6C     		ldr	r3, [r7, #68]
 3092 02e6 9B00     		lsls	r3, r3, #2
 3093 02e8 0333     		adds	r3, r3, #3
 3094 02ea 0B44     		add	r3, r3, r1
 3095 02ec 93F90030 		ldrsb	r3, [r3]
 3096 02f0 1B02     		lsls	r3, r3, #8
 3097 02f2 1BB2     		sxth	r3, r3
 3098 02f4 1946     		mov	r1, r3
 3099 02f6 D7F89430 		ldr	r3, [r7, #148]
 3100 02fa 1B68     		ldr	r3, [r3]
 3101 02fc B3F5806F 		cmp	r3, #1024
 3102 0300 05DB     		blt	.L120
 3103              		.loc 3 651 0 is_stmt 0 discriminator 1
 3104 0302 D7F89430 		ldr	r3, [r7, #148]
 3105 0306 1B68     		ldr	r3, [r3]
 3106 0308 C3F30C03 		ubfx	r3, r3, #0, #13
 3107 030c 01E0     		b	.L121
 3108              	.L120:
 3109              		.loc 3 651 0 discriminator 2
 3110 030e 4FF48063 		mov	r3, #1024
 3111              	.L121:
 3112              		.loc 3 651 0 discriminator 4
 3113 0312 03FB01F3 		mul	r3, r3, r1
 3114 0316 5B13     		asrs	r3, r3, #13
 3115 0318 1A44     		add	r2, r2, r3
 3116 031a D7F89430 		ldr	r3, [r7, #148]
 3117 031e 1A60     		str	r2, [r3]
 652:STM32F10x_Speex_Lib/STM32/libspeex/ltp.c **** #else
 653:STM32F10x_Speex_Lib/STM32/libspeex/ltp.c ****    *cumul_gain = 0.03125*MAX32(1024,*cumul_gain)*params->gain_cdbk[4*best_gain_index+3];
 654:STM32F10x_Speex_Lib/STM32/libspeex/ltp.c **** #endif
 655:STM32F10x_Speex_Lib/STM32/libspeex/ltp.c ****    /*printf ("%f\n", cumul_gain);*/
 656:STM32F10x_Speex_Lib/STM32/libspeex/ltp.c ****    /*printf ("encode pitch: %d %d\n", best_pitch, best_gain_index);*/
 657:STM32F10x_Speex_Lib/STM32/libspeex/ltp.c ****    SPEEX_COPY(exc, best_exc, nsf);
 3118              		.loc 3 657 0 is_stmt 1 discriminator 4
 3119 0320 7B6F     		ldr	r3, [r7, #116]
 3120 0322 9B00     		lsls	r3, r3, #2
 3121 0324 1A46     		mov	r2, r3
 3122 0326 396A     		ldr	r1, [r7, #32]
 3123 0328 F86D     		ldr	r0, [r7, #92]
 3124 032a FFF7FEFF 		bl	memcpy
 658:STM32F10x_Speex_Lib/STM32/libspeex/ltp.c ****    SPEEX_COPY(target, best_target, nsf);
 3125              		.loc 3 658 0 discriminator 4
 3126 032e 7B6F     		ldr	r3, [r7, #116]
 3127 0330 5B00     		lsls	r3, r3, #1
 3128 0332 1A46     		mov	r2, r3
 3129 0334 B969     		ldr	r1, [r7, #24]
 3130 0336 F868     		ldr	r0, [r7, #12]
 3131 0338 FFF7FEFF 		bl	memcpy
 659:STM32F10x_Speex_Lib/STM32/libspeex/ltp.c **** #ifdef FIXED_POINT
 660:STM32F10x_Speex_Lib/STM32/libspeex/ltp.c ****    /* Scale target back up if needed */
 661:STM32F10x_Speex_Lib/STM32/libspeex/ltp.c ****    if (scaledown)
 3132              		.loc 3 661 0 discriminator 4
ARM GAS  /var/folders/kh/x4vltyy52lbg7p4pcyglc5080000gp/T//cc2IG9vv.s 			page 73


 3133 033c 7B6B     		ldr	r3, [r7, #52]
 3134 033e 002B     		cmp	r3, #0
 3135 0340 16D0     		beq	.L122
 662:STM32F10x_Speex_Lib/STM32/libspeex/ltp.c ****    {
 663:STM32F10x_Speex_Lib/STM32/libspeex/ltp.c ****       for (i=0;i<nsf;i++)
 3136              		.loc 3 663 0
 3137 0342 0023     		movs	r3, #0
 3138 0344 FB64     		str	r3, [r7, #76]
 3139 0346 0FE0     		b	.L123
 3140              	.L124:
 664:STM32F10x_Speex_Lib/STM32/libspeex/ltp.c ****          target[i]=SHL16(target[i],1);
 3141              		.loc 3 664 0 discriminator 3
 3142 0348 FB6C     		ldr	r3, [r7, #76]
 3143 034a 5B00     		lsls	r3, r3, #1
 3144 034c FA68     		ldr	r2, [r7, #12]
 3145 034e 1344     		add	r3, r3, r2
 3146 0350 FA6C     		ldr	r2, [r7, #76]
 3147 0352 5200     		lsls	r2, r2, #1
 3148 0354 F968     		ldr	r1, [r7, #12]
 3149 0356 0A44     		add	r2, r2, r1
 3150 0358 B2F90020 		ldrsh	r2, [r2]
 3151 035c 5200     		lsls	r2, r2, #1
 3152 035e 12B2     		sxth	r2, r2
 3153 0360 1A80     		strh	r2, [r3]	@ movhi
 663:STM32F10x_Speex_Lib/STM32/libspeex/ltp.c ****          target[i]=SHL16(target[i],1);
 3154              		.loc 3 663 0 discriminator 3
 3155 0362 FB6C     		ldr	r3, [r7, #76]
 3156 0364 0133     		adds	r3, r3, #1
 3157 0366 FB64     		str	r3, [r7, #76]
 3158              	.L123:
 663:STM32F10x_Speex_Lib/STM32/libspeex/ltp.c ****          target[i]=SHL16(target[i],1);
 3159              		.loc 3 663 0 is_stmt 0 discriminator 1
 3160 0368 FA6C     		ldr	r2, [r7, #76]
 3161 036a 7B6F     		ldr	r3, [r7, #116]
 3162 036c 9A42     		cmp	r2, r3
 3163 036e EBDB     		blt	.L124
 3164              	.L122:
 665:STM32F10x_Speex_Lib/STM32/libspeex/ltp.c ****    }
 666:STM32F10x_Speex_Lib/STM32/libspeex/ltp.c **** #endif
 667:STM32F10x_Speex_Lib/STM32/libspeex/ltp.c ****    return pitch;
 3165              		.loc 3 667 0 is_stmt 1
 3166 0370 BB6C     		ldr	r3, [r7, #72]
 3167              	.L125:
 668:STM32F10x_Speex_Lib/STM32/libspeex/ltp.c **** }
 3168              		.loc 3 668 0 discriminator 1
 3169 0372 1846     		mov	r0, r3
 3170 0374 5037     		adds	r7, r7, #80
 3171              	.LCFI34:
 3172              		.cfi_def_cfa_offset 8
 3173 0376 BD46     		mov	sp, r7
 3174              	.LCFI35:
 3175              		.cfi_def_cfa_register 13
 3176              		@ sp needed
 3177 0378 80BD     		pop	{r7, pc}
 3178              		.cfi_endproc
 3179              	.LFE25:
 3181 037a 00BF     		.section	.text.pitch_unquant_3tap,"ax",%progbits
ARM GAS  /var/folders/kh/x4vltyy52lbg7p4pcyglc5080000gp/T//cc2IG9vv.s 			page 74


 3182              		.align	2
 3183              		.global	pitch_unquant_3tap
 3184              		.thumb
 3185              		.thumb_func
 3187              	pitch_unquant_3tap:
 3188              	.LFB26:
 669:STM32F10x_Speex_Lib/STM32/libspeex/ltp.c **** 
 670:STM32F10x_Speex_Lib/STM32/libspeex/ltp.c **** void pitch_unquant_3tap(
 671:STM32F10x_Speex_Lib/STM32/libspeex/ltp.c **** spx_word16_t exc[],             /* Input excitation */
 672:STM32F10x_Speex_Lib/STM32/libspeex/ltp.c **** spx_word32_t exc_out[],         /* Output excitation */
 673:STM32F10x_Speex_Lib/STM32/libspeex/ltp.c **** int   start,                    /* Smallest pitch value allowed */
 674:STM32F10x_Speex_Lib/STM32/libspeex/ltp.c **** int   end,                      /* Largest pitch value allowed */
 675:STM32F10x_Speex_Lib/STM32/libspeex/ltp.c **** spx_word16_t pitch_coef,        /* Voicing (pitch) coefficient */
 676:STM32F10x_Speex_Lib/STM32/libspeex/ltp.c **** const void *par,
 677:STM32F10x_Speex_Lib/STM32/libspeex/ltp.c **** int   nsf,                      /* Number of samples in subframe */
 678:STM32F10x_Speex_Lib/STM32/libspeex/ltp.c **** int *pitch_val,
 679:STM32F10x_Speex_Lib/STM32/libspeex/ltp.c **** spx_word16_t *gain_val,
 680:STM32F10x_Speex_Lib/STM32/libspeex/ltp.c **** SpeexBits *bits,
 681:STM32F10x_Speex_Lib/STM32/libspeex/ltp.c **** char *stack,
 682:STM32F10x_Speex_Lib/STM32/libspeex/ltp.c **** int count_lost,
 683:STM32F10x_Speex_Lib/STM32/libspeex/ltp.c **** int subframe_offset,
 684:STM32F10x_Speex_Lib/STM32/libspeex/ltp.c **** spx_word16_t last_pitch_gain,
 685:STM32F10x_Speex_Lib/STM32/libspeex/ltp.c **** int cdbk_offset
 686:STM32F10x_Speex_Lib/STM32/libspeex/ltp.c **** )
 687:STM32F10x_Speex_Lib/STM32/libspeex/ltp.c **** {
 3189              		.loc 3 687 0
 3190              		.cfi_startproc
 3191              		@ args = 44, pretend = 0, frame = 72
 3192              		@ frame_needed = 1, uses_anonymous_args = 0
 3193 0000 90B5     		push	{r4, r7, lr}
 3194              	.LCFI36:
 3195              		.cfi_def_cfa_offset 12
 3196              		.cfi_offset 4, -12
 3197              		.cfi_offset 7, -8
 3198              		.cfi_offset 14, -4
 3199 0002 93B0     		sub	sp, sp, #76
 3200              	.LCFI37:
 3201              		.cfi_def_cfa_offset 88
 3202 0004 00AF     		add	r7, sp, #0
 3203              	.LCFI38:
 3204              		.cfi_def_cfa_register 7
 3205 0006 F860     		str	r0, [r7, #12]
 3206 0008 B960     		str	r1, [r7, #8]
 3207 000a 7A60     		str	r2, [r7, #4]
 3208 000c 3B60     		str	r3, [r7]
 688:STM32F10x_Speex_Lib/STM32/libspeex/ltp.c ****    int i;
 689:STM32F10x_Speex_Lib/STM32/libspeex/ltp.c ****    int pitch;
 690:STM32F10x_Speex_Lib/STM32/libspeex/ltp.c ****    int gain_index;
 691:STM32F10x_Speex_Lib/STM32/libspeex/ltp.c ****    spx_word16_t gain[3];
 692:STM32F10x_Speex_Lib/STM32/libspeex/ltp.c ****    const signed char *gain_cdbk;
 693:STM32F10x_Speex_Lib/STM32/libspeex/ltp.c ****    int gain_cdbk_size;
 694:STM32F10x_Speex_Lib/STM32/libspeex/ltp.c ****    const ltp_params *params;
 695:STM32F10x_Speex_Lib/STM32/libspeex/ltp.c **** 
 696:STM32F10x_Speex_Lib/STM32/libspeex/ltp.c ****    params = (const ltp_params*) par;
 3209              		.loc 3 696 0
 3210 000e FB6D     		ldr	r3, [r7, #92]
 3211 0010 3B63     		str	r3, [r7, #48]
ARM GAS  /var/folders/kh/x4vltyy52lbg7p4pcyglc5080000gp/T//cc2IG9vv.s 			page 75


 697:STM32F10x_Speex_Lib/STM32/libspeex/ltp.c ****    gain_cdbk_size = 1<<params->gain_bits;
 3212              		.loc 3 697 0
 3213 0012 3B6B     		ldr	r3, [r7, #48]
 3214 0014 5B68     		ldr	r3, [r3, #4]
 3215 0016 0122     		movs	r2, #1
 3216 0018 02FA03F3 		lsl	r3, r2, r3
 3217 001c FB62     		str	r3, [r7, #44]
 698:STM32F10x_Speex_Lib/STM32/libspeex/ltp.c ****    gain_cdbk = params->gain_cdbk + 4*gain_cdbk_size*cdbk_offset;
 3218              		.loc 3 698 0
 3219 001e 3B6B     		ldr	r3, [r7, #48]
 3220 0020 1B68     		ldr	r3, [r3]
 3221 0022 FA6A     		ldr	r2, [r7, #44]
 3222 0024 9200     		lsls	r2, r2, #2
 3223 0026 D7F88010 		ldr	r1, [r7, #128]
 3224 002a 01FB02F2 		mul	r2, r1, r2
 3225 002e 1344     		add	r3, r3, r2
 3226 0030 BB62     		str	r3, [r7, #40]
 699:STM32F10x_Speex_Lib/STM32/libspeex/ltp.c **** 
 700:STM32F10x_Speex_Lib/STM32/libspeex/ltp.c ****    pitch = speex_bits_unpack_unsigned(bits, params->pitch_bits);
 3227              		.loc 3 700 0
 3228 0032 3B6B     		ldr	r3, [r7, #48]
 3229 0034 9B68     		ldr	r3, [r3, #8]
 3230 0036 1946     		mov	r1, r3
 3231 0038 F86E     		ldr	r0, [r7, #108]
 3232 003a FFF7FEFF 		bl	speex_bits_unpack_unsigned
 3233 003e 0346     		mov	r3, r0
 3234 0040 7B62     		str	r3, [r7, #36]
 701:STM32F10x_Speex_Lib/STM32/libspeex/ltp.c ****    pitch += start;
 3235              		.loc 3 701 0
 3236 0042 7A6A     		ldr	r2, [r7, #36]
 3237 0044 7B68     		ldr	r3, [r7, #4]
 3238 0046 1344     		add	r3, r3, r2
 3239 0048 7B62     		str	r3, [r7, #36]
 702:STM32F10x_Speex_Lib/STM32/libspeex/ltp.c ****    gain_index = speex_bits_unpack_unsigned(bits, params->gain_bits);
 3240              		.loc 3 702 0
 3241 004a 3B6B     		ldr	r3, [r7, #48]
 3242 004c 5B68     		ldr	r3, [r3, #4]
 3243 004e 1946     		mov	r1, r3
 3244 0050 F86E     		ldr	r0, [r7, #108]
 3245 0052 FFF7FEFF 		bl	speex_bits_unpack_unsigned
 3246 0056 0346     		mov	r3, r0
 3247 0058 3B62     		str	r3, [r7, #32]
 703:STM32F10x_Speex_Lib/STM32/libspeex/ltp.c ****    /*printf ("decode pitch: %d %d\n", pitch, gain_index);*/
 704:STM32F10x_Speex_Lib/STM32/libspeex/ltp.c **** #ifdef FIXED_POINT
 705:STM32F10x_Speex_Lib/STM32/libspeex/ltp.c ****    gain[0] = ADD16(32,(spx_word16_t)gain_cdbk[gain_index*4]);
 3248              		.loc 3 705 0
 3249 005a 3B6A     		ldr	r3, [r7, #32]
 3250 005c 9B00     		lsls	r3, r3, #2
 3251 005e 1A46     		mov	r2, r3
 3252 0060 BB6A     		ldr	r3, [r7, #40]
 3253 0062 1344     		add	r3, r3, r2
 3254 0064 93F90030 		ldrsb	r3, [r3]
 3255 0068 9BB2     		uxth	r3, r3
 3256 006a 2033     		adds	r3, r3, #32
 3257 006c 9BB2     		uxth	r3, r3
 3258 006e 1BB2     		sxth	r3, r3
 3259 0070 3B82     		strh	r3, [r7, #16]	@ movhi
ARM GAS  /var/folders/kh/x4vltyy52lbg7p4pcyglc5080000gp/T//cc2IG9vv.s 			page 76


 706:STM32F10x_Speex_Lib/STM32/libspeex/ltp.c ****    gain[1] = ADD16(32,(spx_word16_t)gain_cdbk[gain_index*4+1]);
 3260              		.loc 3 706 0
 3261 0072 3B6A     		ldr	r3, [r7, #32]
 3262 0074 9B00     		lsls	r3, r3, #2
 3263 0076 0133     		adds	r3, r3, #1
 3264 0078 BA6A     		ldr	r2, [r7, #40]
 3265 007a 1344     		add	r3, r3, r2
 3266 007c 93F90030 		ldrsb	r3, [r3]
 3267 0080 9BB2     		uxth	r3, r3
 3268 0082 2033     		adds	r3, r3, #32
 3269 0084 9BB2     		uxth	r3, r3
 3270 0086 1BB2     		sxth	r3, r3
 3271 0088 7B82     		strh	r3, [r7, #18]	@ movhi
 707:STM32F10x_Speex_Lib/STM32/libspeex/ltp.c ****    gain[2] = ADD16(32,(spx_word16_t)gain_cdbk[gain_index*4+2]);
 3272              		.loc 3 707 0
 3273 008a 3B6A     		ldr	r3, [r7, #32]
 3274 008c 9B00     		lsls	r3, r3, #2
 3275 008e 0233     		adds	r3, r3, #2
 3276 0090 BA6A     		ldr	r2, [r7, #40]
 3277 0092 1344     		add	r3, r3, r2
 3278 0094 93F90030 		ldrsb	r3, [r3]
 3279 0098 9BB2     		uxth	r3, r3
 3280 009a 2033     		adds	r3, r3, #32
 3281 009c 9BB2     		uxth	r3, r3
 3282 009e 1BB2     		sxth	r3, r3
 3283 00a0 BB82     		strh	r3, [r7, #20]	@ movhi
 708:STM32F10x_Speex_Lib/STM32/libspeex/ltp.c **** #else
 709:STM32F10x_Speex_Lib/STM32/libspeex/ltp.c ****    gain[0] = 0.015625*gain_cdbk[gain_index*4]+.5;
 710:STM32F10x_Speex_Lib/STM32/libspeex/ltp.c ****    gain[1] = 0.015625*gain_cdbk[gain_index*4+1]+.5;
 711:STM32F10x_Speex_Lib/STM32/libspeex/ltp.c ****    gain[2] = 0.015625*gain_cdbk[gain_index*4+2]+.5;
 712:STM32F10x_Speex_Lib/STM32/libspeex/ltp.c **** #endif
 713:STM32F10x_Speex_Lib/STM32/libspeex/ltp.c **** 
 714:STM32F10x_Speex_Lib/STM32/libspeex/ltp.c ****    if (count_lost && pitch > subframe_offset)
 3284              		.loc 3 714 0
 3285 00a2 7B6F     		ldr	r3, [r7, #116]
 3286 00a4 002B     		cmp	r3, #0
 3287 00a6 6AD0     		beq	.L127
 3288              		.loc 3 714 0 is_stmt 0 discriminator 1
 3289 00a8 7A6A     		ldr	r2, [r7, #36]
 3290 00aa BB6F     		ldr	r3, [r7, #120]
 3291 00ac 9A42     		cmp	r2, r3
 3292 00ae 66DD     		ble	.L127
 3293              	.LBB10:
 3294              	.LBB11:
 715:STM32F10x_Speex_Lib/STM32/libspeex/ltp.c ****    {
 716:STM32F10x_Speex_Lib/STM32/libspeex/ltp.c ****       spx_word16_t gain_sum;
 717:STM32F10x_Speex_Lib/STM32/libspeex/ltp.c ****       if (1) {
 718:STM32F10x_Speex_Lib/STM32/libspeex/ltp.c **** #ifdef FIXED_POINT
 719:STM32F10x_Speex_Lib/STM32/libspeex/ltp.c ****          spx_word16_t tmp = count_lost < 4 ? last_pitch_gain : SHR16(last_pitch_gain,1);
 3295              		.loc 3 719 0 is_stmt 1
 3296 00b0 7B6F     		ldr	r3, [r7, #116]
 3297 00b2 032B     		cmp	r3, #3
 3298 00b4 04DD     		ble	.L128
 3299              		.loc 3 719 0 is_stmt 0 discriminator 1
 3300 00b6 B7F97C30 		ldrsh	r3, [r7, #124]
 3301 00ba 5B10     		asrs	r3, r3, #1
 3302 00bc 1BB2     		sxth	r3, r3
ARM GAS  /var/folders/kh/x4vltyy52lbg7p4pcyglc5080000gp/T//cc2IG9vv.s 			page 77


 3303 00be 01E0     		b	.L129
 3304              	.L128:
 3305              		.loc 3 719 0 discriminator 2
 3306 00c0 B7F97C30 		ldrsh	r3, [r7, #124]
 3307              	.L129:
 3308              		.loc 3 719 0 discriminator 4
 3309 00c4 A7F84230 		strh	r3, [r7, #66]	@ movhi
 720:STM32F10x_Speex_Lib/STM32/libspeex/ltp.c ****          if (tmp>62)
 3310              		.loc 3 720 0 is_stmt 1 discriminator 4
 3311 00c8 B7F94230 		ldrsh	r3, [r7, #66]
 3312 00cc 3E2B     		cmp	r3, #62
 3313 00ce 02DD     		ble	.L130
 721:STM32F10x_Speex_Lib/STM32/libspeex/ltp.c ****             tmp=62;
 3314              		.loc 3 721 0
 3315 00d0 3E23     		movs	r3, #62
 3316 00d2 A7F84230 		strh	r3, [r7, #66]	@ movhi
 3317              	.L130:
 722:STM32F10x_Speex_Lib/STM32/libspeex/ltp.c **** #else
 723:STM32F10x_Speex_Lib/STM32/libspeex/ltp.c ****          spx_word16_t tmp = count_lost < 4 ? last_pitch_gain : 0.5 * last_pitch_gain;
 724:STM32F10x_Speex_Lib/STM32/libspeex/ltp.c ****          if (tmp>.95)
 725:STM32F10x_Speex_Lib/STM32/libspeex/ltp.c ****             tmp=.95;
 726:STM32F10x_Speex_Lib/STM32/libspeex/ltp.c **** #endif
 727:STM32F10x_Speex_Lib/STM32/libspeex/ltp.c ****          gain_sum = gain_3tap_to_1tap(gain);
 3318              		.loc 3 727 0
 3319 00d6 B7F91230 		ldrsh	r3, [r7, #18]
 3320 00da 002B     		cmp	r3, #0
 3321 00dc B8BF     		it	lt
 3322 00de 5B42     		rsblt	r3, r3, #0
 3323 00e0 9AB2     		uxth	r2, r3
 3324 00e2 B7F91030 		ldrsh	r3, [r7, #16]
 3325 00e6 002B     		cmp	r3, #0
 3326 00e8 03DD     		ble	.L131
 3327              		.loc 3 727 0 is_stmt 0 discriminator 1
 3328 00ea B7F91030 		ldrsh	r3, [r7, #16]
 3329 00ee 9BB2     		uxth	r3, r3
 3330 00f0 06E0     		b	.L132
 3331              	.L131:
 3332              		.loc 3 727 0 discriminator 2
 3333 00f2 B7F91030 		ldrsh	r3, [r7, #16]
 3334 00f6 5B10     		asrs	r3, r3, #1
 3335 00f8 1BB2     		sxth	r3, r3
 3336 00fa 9BB2     		uxth	r3, r3
 3337 00fc 5B42     		negs	r3, r3
 3338 00fe 9BB2     		uxth	r3, r3
 3339              	.L132:
 3340              		.loc 3 727 0 discriminator 4
 3341 0100 1344     		add	r3, r3, r2
 3342 0102 9AB2     		uxth	r2, r3
 3343 0104 B7F91430 		ldrsh	r3, [r7, #20]
 3344 0108 002B     		cmp	r3, #0
 3345 010a 03DD     		ble	.L133
 3346              		.loc 3 727 0 discriminator 5
 3347 010c B7F91430 		ldrsh	r3, [r7, #20]
 3348 0110 9BB2     		uxth	r3, r3
 3349 0112 06E0     		b	.L134
 3350              	.L133:
 3351              		.loc 3 727 0 discriminator 6
ARM GAS  /var/folders/kh/x4vltyy52lbg7p4pcyglc5080000gp/T//cc2IG9vv.s 			page 78


 3352 0114 B7F91430 		ldrsh	r3, [r7, #20]
 3353 0118 5B10     		asrs	r3, r3, #1
 3354 011a 1BB2     		sxth	r3, r3
 3355 011c 9BB2     		uxth	r3, r3
 3356 011e 5B42     		negs	r3, r3
 3357 0120 9BB2     		uxth	r3, r3
 3358              	.L134:
 3359              		.loc 3 727 0 discriminator 8
 3360 0122 1344     		add	r3, r3, r2
 3361 0124 9BB2     		uxth	r3, r3
 3362 0126 FB83     		strh	r3, [r7, #30]	@ movhi
 728:STM32F10x_Speex_Lib/STM32/libspeex/ltp.c **** 
 729:STM32F10x_Speex_Lib/STM32/libspeex/ltp.c ****          if (gain_sum > tmp)
 3363              		.loc 3 729 0 is_stmt 1 discriminator 8
 3364 0128 B7F91E20 		ldrsh	r2, [r7, #30]
 3365 012c B7F94230 		ldrsh	r3, [r7, #66]
 3366 0130 9A42     		cmp	r2, r3
 3367 0132 24DD     		ble	.L127
 3368              	.LBB12:
 730:STM32F10x_Speex_Lib/STM32/libspeex/ltp.c ****          {
 731:STM32F10x_Speex_Lib/STM32/libspeex/ltp.c ****             spx_word16_t fact = DIV32_16(SHL32(EXTEND32(tmp),14),gain_sum);
 3369              		.loc 3 731 0
 3370 0134 B7F94230 		ldrsh	r3, [r7, #66]
 3371 0138 9A03     		lsls	r2, r3, #14
 3372 013a B7F91E30 		ldrsh	r3, [r7, #30]
 3373 013e 92FBF3F3 		sdiv	r3, r2, r3
 3374 0142 BB83     		strh	r3, [r7, #28]	@ movhi
 732:STM32F10x_Speex_Lib/STM32/libspeex/ltp.c ****             for (i=0;i<3;i++)
 3375              		.loc 3 732 0
 3376 0144 0023     		movs	r3, #0
 3377 0146 7B64     		str	r3, [r7, #68]
 3378 0148 16E0     		b	.L135
 3379              	.L136:
 733:STM32F10x_Speex_Lib/STM32/libspeex/ltp.c ****                gain[i]=MULT16_16_Q14(fact,gain[i]);
 3380              		.loc 3 733 0 discriminator 3
 3381 014a B7F91C20 		ldrsh	r2, [r7, #28]
 3382 014e 7B6C     		ldr	r3, [r7, #68]
 3383 0150 5B00     		lsls	r3, r3, #1
 3384 0152 07F14801 		add	r1, r7, #72
 3385 0156 0B44     		add	r3, r3, r1
 3386 0158 33F9383C 		ldrsh	r3, [r3, #-56]
 3387 015c 03FB02F3 		mul	r3, r3, r2
 3388 0160 9B13     		asrs	r3, r3, #14
 3389 0162 1AB2     		sxth	r2, r3
 3390 0164 7B6C     		ldr	r3, [r7, #68]
 3391 0166 5B00     		lsls	r3, r3, #1
 3392 0168 07F14801 		add	r1, r7, #72
 3393 016c 0B44     		add	r3, r3, r1
 3394 016e 23F8382C 		strh	r2, [r3, #-56]	@ movhi
 732:STM32F10x_Speex_Lib/STM32/libspeex/ltp.c ****             for (i=0;i<3;i++)
 3395              		.loc 3 732 0 discriminator 3
 3396 0172 7B6C     		ldr	r3, [r7, #68]
 3397 0174 0133     		adds	r3, r3, #1
 3398 0176 7B64     		str	r3, [r7, #68]
 3399              	.L135:
 732:STM32F10x_Speex_Lib/STM32/libspeex/ltp.c ****             for (i=0;i<3;i++)
 3400              		.loc 3 732 0 is_stmt 0 discriminator 1
ARM GAS  /var/folders/kh/x4vltyy52lbg7p4pcyglc5080000gp/T//cc2IG9vv.s 			page 79


 3401 0178 7B6C     		ldr	r3, [r7, #68]
 3402 017a 022B     		cmp	r3, #2
 3403 017c E5DD     		ble	.L136
 3404              	.L127:
 3405              	.LBE12:
 3406              	.LBE11:
 3407              	.LBE10:
 734:STM32F10x_Speex_Lib/STM32/libspeex/ltp.c ****          }
 735:STM32F10x_Speex_Lib/STM32/libspeex/ltp.c **** 
 736:STM32F10x_Speex_Lib/STM32/libspeex/ltp.c ****       }
 737:STM32F10x_Speex_Lib/STM32/libspeex/ltp.c **** 
 738:STM32F10x_Speex_Lib/STM32/libspeex/ltp.c ****    }
 739:STM32F10x_Speex_Lib/STM32/libspeex/ltp.c **** 
 740:STM32F10x_Speex_Lib/STM32/libspeex/ltp.c ****    *pitch_val = pitch;
 3408              		.loc 3 740 0 is_stmt 1
 3409 017e 7B6E     		ldr	r3, [r7, #100]
 3410 0180 7A6A     		ldr	r2, [r7, #36]
 3411 0182 1A60     		str	r2, [r3]
 741:STM32F10x_Speex_Lib/STM32/libspeex/ltp.c ****    gain_val[0]=gain[0];
 3412              		.loc 3 741 0
 3413 0184 B7F91020 		ldrsh	r2, [r7, #16]
 3414 0188 BB6E     		ldr	r3, [r7, #104]
 3415 018a 1A80     		strh	r2, [r3]	@ movhi
 742:STM32F10x_Speex_Lib/STM32/libspeex/ltp.c ****    gain_val[1]=gain[1];
 3416              		.loc 3 742 0
 3417 018c BB6E     		ldr	r3, [r7, #104]
 3418 018e 0233     		adds	r3, r3, #2
 3419 0190 B7F91220 		ldrsh	r2, [r7, #18]
 3420 0194 1A80     		strh	r2, [r3]	@ movhi
 743:STM32F10x_Speex_Lib/STM32/libspeex/ltp.c ****    gain_val[2]=gain[2];
 3421              		.loc 3 743 0
 3422 0196 BB6E     		ldr	r3, [r7, #104]
 3423 0198 0433     		adds	r3, r3, #4
 3424 019a B7F91420 		ldrsh	r2, [r7, #20]
 3425 019e 1A80     		strh	r2, [r3]	@ movhi
 744:STM32F10x_Speex_Lib/STM32/libspeex/ltp.c ****    gain[0] = SHL16(gain[0],7);
 3426              		.loc 3 744 0
 3427 01a0 B7F91030 		ldrsh	r3, [r7, #16]
 3428 01a4 DB01     		lsls	r3, r3, #7
 3429 01a6 1BB2     		sxth	r3, r3
 3430 01a8 3B82     		strh	r3, [r7, #16]	@ movhi
 745:STM32F10x_Speex_Lib/STM32/libspeex/ltp.c ****    gain[1] = SHL16(gain[1],7);
 3431              		.loc 3 745 0
 3432 01aa B7F91230 		ldrsh	r3, [r7, #18]
 3433 01ae DB01     		lsls	r3, r3, #7
 3434 01b0 1BB2     		sxth	r3, r3
 3435 01b2 7B82     		strh	r3, [r7, #18]	@ movhi
 746:STM32F10x_Speex_Lib/STM32/libspeex/ltp.c ****    gain[2] = SHL16(gain[2],7);
 3436              		.loc 3 746 0
 3437 01b4 B7F91430 		ldrsh	r3, [r7, #20]
 3438 01b8 DB01     		lsls	r3, r3, #7
 3439 01ba 1BB2     		sxth	r3, r3
 3440 01bc BB82     		strh	r3, [r7, #20]	@ movhi
 747:STM32F10x_Speex_Lib/STM32/libspeex/ltp.c ****    SPEEX_MEMSET(exc_out, 0, nsf);
 3441              		.loc 3 747 0
 3442 01be 3B6E     		ldr	r3, [r7, #96]
 3443 01c0 9B00     		lsls	r3, r3, #2
ARM GAS  /var/folders/kh/x4vltyy52lbg7p4pcyglc5080000gp/T//cc2IG9vv.s 			page 80


 3444 01c2 1A46     		mov	r2, r3
 3445 01c4 0021     		movs	r1, #0
 3446 01c6 B868     		ldr	r0, [r7, #8]
 3447 01c8 FFF7FEFF 		bl	memset
 748:STM32F10x_Speex_Lib/STM32/libspeex/ltp.c ****    for (i=0;i<3;i++)
 3448              		.loc 3 748 0
 3449 01cc 0023     		movs	r3, #0
 3450 01ce 7B64     		str	r3, [r7, #68]
 3451 01d0 6FE0     		b	.L137
 3452              	.L144:
 3453              	.LBB13:
 749:STM32F10x_Speex_Lib/STM32/libspeex/ltp.c ****    {
 750:STM32F10x_Speex_Lib/STM32/libspeex/ltp.c ****       int j;
 751:STM32F10x_Speex_Lib/STM32/libspeex/ltp.c ****       int tmp1, tmp3;
 752:STM32F10x_Speex_Lib/STM32/libspeex/ltp.c ****       int pp=pitch+1-i;
 3454              		.loc 3 752 0
 3455 01d2 7B6A     		ldr	r3, [r7, #36]
 3456 01d4 5A1C     		adds	r2, r3, #1
 3457 01d6 7B6C     		ldr	r3, [r7, #68]
 3458 01d8 D31A     		subs	r3, r2, r3
 3459 01da BB61     		str	r3, [r7, #24]
 753:STM32F10x_Speex_Lib/STM32/libspeex/ltp.c ****       tmp1=nsf;
 3460              		.loc 3 753 0
 3461 01dc 3B6E     		ldr	r3, [r7, #96]
 3462 01de BB63     		str	r3, [r7, #56]
 754:STM32F10x_Speex_Lib/STM32/libspeex/ltp.c ****       if (tmp1>pp)
 3463              		.loc 3 754 0
 3464 01e0 BA6B     		ldr	r2, [r7, #56]
 3465 01e2 BB69     		ldr	r3, [r7, #24]
 3466 01e4 9A42     		cmp	r2, r3
 3467 01e6 01DD     		ble	.L138
 755:STM32F10x_Speex_Lib/STM32/libspeex/ltp.c ****          tmp1=pp;
 3468              		.loc 3 755 0
 3469 01e8 BB69     		ldr	r3, [r7, #24]
 3470 01ea BB63     		str	r3, [r7, #56]
 3471              	.L138:
 756:STM32F10x_Speex_Lib/STM32/libspeex/ltp.c ****       for (j=0;j<tmp1;j++)
 3472              		.loc 3 756 0
 3473 01ec 0023     		movs	r3, #0
 3474 01ee FB63     		str	r3, [r7, #60]
 3475 01f0 21E0     		b	.L139
 3476              	.L140:
 757:STM32F10x_Speex_Lib/STM32/libspeex/ltp.c ****          exc_out[j]=MAC16_16(exc_out[j],gain[2-i],exc[j-pp]);
 3477              		.loc 3 757 0 discriminator 3
 3478 01f2 FB6B     		ldr	r3, [r7, #60]
 3479 01f4 9B00     		lsls	r3, r3, #2
 3480 01f6 BA68     		ldr	r2, [r7, #8]
 3481 01f8 1A44     		add	r2, r2, r3
 3482 01fa FB6B     		ldr	r3, [r7, #60]
 3483 01fc 9B00     		lsls	r3, r3, #2
 3484 01fe B968     		ldr	r1, [r7, #8]
 3485 0200 0B44     		add	r3, r3, r1
 3486 0202 1968     		ldr	r1, [r3]
 3487 0204 7B6C     		ldr	r3, [r7, #68]
 3488 0206 C3F10203 		rsb	r3, r3, #2
 3489 020a 5B00     		lsls	r3, r3, #1
 3490 020c 07F14800 		add	r0, r7, #72
ARM GAS  /var/folders/kh/x4vltyy52lbg7p4pcyglc5080000gp/T//cc2IG9vv.s 			page 81


 3491 0210 0344     		add	r3, r3, r0
 3492 0212 33F9383C 		ldrsh	r3, [r3, #-56]
 3493 0216 1C46     		mov	r4, r3
 3494 0218 F86B     		ldr	r0, [r7, #60]
 3495 021a BB69     		ldr	r3, [r7, #24]
 3496 021c C31A     		subs	r3, r0, r3
 3497 021e 5B00     		lsls	r3, r3, #1
 3498 0220 F868     		ldr	r0, [r7, #12]
 3499 0222 0344     		add	r3, r3, r0
 3500 0224 B3F90030 		ldrsh	r3, [r3]
 3501 0228 03FB04F3 		mul	r3, r3, r4
 3502 022c 0B44     		add	r3, r3, r1
 3503 022e 1360     		str	r3, [r2]
 756:STM32F10x_Speex_Lib/STM32/libspeex/ltp.c ****       for (j=0;j<tmp1;j++)
 3504              		.loc 3 756 0 discriminator 3
 3505 0230 FB6B     		ldr	r3, [r7, #60]
 3506 0232 0133     		adds	r3, r3, #1
 3507 0234 FB63     		str	r3, [r7, #60]
 3508              	.L139:
 756:STM32F10x_Speex_Lib/STM32/libspeex/ltp.c ****       for (j=0;j<tmp1;j++)
 3509              		.loc 3 756 0 is_stmt 0 discriminator 1
 3510 0236 FA6B     		ldr	r2, [r7, #60]
 3511 0238 BB6B     		ldr	r3, [r7, #56]
 3512 023a 9A42     		cmp	r2, r3
 3513 023c D9DB     		blt	.L140
 758:STM32F10x_Speex_Lib/STM32/libspeex/ltp.c ****       tmp3=nsf;
 3514              		.loc 3 758 0 is_stmt 1
 3515 023e 3B6E     		ldr	r3, [r7, #96]
 3516 0240 7B63     		str	r3, [r7, #52]
 759:STM32F10x_Speex_Lib/STM32/libspeex/ltp.c ****       if (tmp3>pp+pitch)
 3517              		.loc 3 759 0
 3518 0242 BA69     		ldr	r2, [r7, #24]
 3519 0244 7B6A     		ldr	r3, [r7, #36]
 3520 0246 1A44     		add	r2, r2, r3
 3521 0248 7B6B     		ldr	r3, [r7, #52]
 3522 024a 9A42     		cmp	r2, r3
 3523 024c 03DA     		bge	.L141
 760:STM32F10x_Speex_Lib/STM32/libspeex/ltp.c ****          tmp3=pp+pitch;
 3524              		.loc 3 760 0
 3525 024e BA69     		ldr	r2, [r7, #24]
 3526 0250 7B6A     		ldr	r3, [r7, #36]
 3527 0252 1344     		add	r3, r3, r2
 3528 0254 7B63     		str	r3, [r7, #52]
 3529              	.L141:
 761:STM32F10x_Speex_Lib/STM32/libspeex/ltp.c ****       for (j=tmp1;j<tmp3;j++)
 3530              		.loc 3 761 0
 3531 0256 BB6B     		ldr	r3, [r7, #56]
 3532 0258 FB63     		str	r3, [r7, #60]
 3533 025a 23E0     		b	.L142
 3534              	.L143:
 762:STM32F10x_Speex_Lib/STM32/libspeex/ltp.c ****          exc_out[j]=MAC16_16(exc_out[j],gain[2-i],exc[j-pp-pitch]);
 3535              		.loc 3 762 0 discriminator 3
 3536 025c FB6B     		ldr	r3, [r7, #60]
 3537 025e 9B00     		lsls	r3, r3, #2
 3538 0260 BA68     		ldr	r2, [r7, #8]
 3539 0262 1A44     		add	r2, r2, r3
 3540 0264 FB6B     		ldr	r3, [r7, #60]
ARM GAS  /var/folders/kh/x4vltyy52lbg7p4pcyglc5080000gp/T//cc2IG9vv.s 			page 82


 3541 0266 9B00     		lsls	r3, r3, #2
 3542 0268 B968     		ldr	r1, [r7, #8]
 3543 026a 0B44     		add	r3, r3, r1
 3544 026c 1968     		ldr	r1, [r3]
 3545 026e 7B6C     		ldr	r3, [r7, #68]
 3546 0270 C3F10203 		rsb	r3, r3, #2
 3547 0274 5B00     		lsls	r3, r3, #1
 3548 0276 07F14800 		add	r0, r7, #72
 3549 027a 0344     		add	r3, r3, r0
 3550 027c 33F9383C 		ldrsh	r3, [r3, #-56]
 3551 0280 1C46     		mov	r4, r3
 3552 0282 F86B     		ldr	r0, [r7, #60]
 3553 0284 BB69     		ldr	r3, [r7, #24]
 3554 0286 C01A     		subs	r0, r0, r3
 3555 0288 7B6A     		ldr	r3, [r7, #36]
 3556 028a C31A     		subs	r3, r0, r3
 3557 028c 5B00     		lsls	r3, r3, #1
 3558 028e F868     		ldr	r0, [r7, #12]
 3559 0290 0344     		add	r3, r3, r0
 3560 0292 B3F90030 		ldrsh	r3, [r3]
 3561 0296 03FB04F3 		mul	r3, r3, r4
 3562 029a 0B44     		add	r3, r3, r1
 3563 029c 1360     		str	r3, [r2]
 761:STM32F10x_Speex_Lib/STM32/libspeex/ltp.c ****       for (j=tmp1;j<tmp3;j++)
 3564              		.loc 3 761 0 discriminator 3
 3565 029e FB6B     		ldr	r3, [r7, #60]
 3566 02a0 0133     		adds	r3, r3, #1
 3567 02a2 FB63     		str	r3, [r7, #60]
 3568              	.L142:
 761:STM32F10x_Speex_Lib/STM32/libspeex/ltp.c ****       for (j=tmp1;j<tmp3;j++)
 3569              		.loc 3 761 0 is_stmt 0 discriminator 1
 3570 02a4 FA6B     		ldr	r2, [r7, #60]
 3571 02a6 7B6B     		ldr	r3, [r7, #52]
 3572 02a8 9A42     		cmp	r2, r3
 3573 02aa D7DB     		blt	.L143
 3574              	.LBE13:
 748:STM32F10x_Speex_Lib/STM32/libspeex/ltp.c ****    {
 3575              		.loc 3 748 0 is_stmt 1 discriminator 2
 3576 02ac 7B6C     		ldr	r3, [r7, #68]
 3577 02ae 0133     		adds	r3, r3, #1
 3578 02b0 7B64     		str	r3, [r7, #68]
 3579              	.L137:
 748:STM32F10x_Speex_Lib/STM32/libspeex/ltp.c ****    {
 3580              		.loc 3 748 0 is_stmt 0 discriminator 1
 3581 02b2 7B6C     		ldr	r3, [r7, #68]
 3582 02b4 022B     		cmp	r3, #2
 3583 02b6 8CDD     		ble	.L144
 763:STM32F10x_Speex_Lib/STM32/libspeex/ltp.c ****    }
 764:STM32F10x_Speex_Lib/STM32/libspeex/ltp.c ****    /*for (i=0;i<nsf;i++)
 765:STM32F10x_Speex_Lib/STM32/libspeex/ltp.c ****    exc[i]=PSHR32(exc32[i],13);*/
 766:STM32F10x_Speex_Lib/STM32/libspeex/ltp.c **** }
 3584              		.loc 3 766 0 is_stmt 1
 3585 02b8 00BF     		nop
 3586 02ba 4C37     		adds	r7, r7, #76
 3587              	.LCFI39:
 3588              		.cfi_def_cfa_offset 12
 3589 02bc BD46     		mov	sp, r7
ARM GAS  /var/folders/kh/x4vltyy52lbg7p4pcyglc5080000gp/T//cc2IG9vv.s 			page 83


 3590              	.LCFI40:
 3591              		.cfi_def_cfa_register 13
 3592              		@ sp needed
 3593 02be 90BD     		pop	{r4, r7, pc}
 3594              		.cfi_endproc
 3595              	.LFE26:
 3597              		.section	.text.forced_pitch_quant,"ax",%progbits
 3598              		.align	2
 3599              		.global	forced_pitch_quant
 3600              		.thumb
 3601              		.thumb_func
 3603              	forced_pitch_quant:
 3604              	.LFB27:
 767:STM32F10x_Speex_Lib/STM32/libspeex/ltp.c **** 
 768:STM32F10x_Speex_Lib/STM32/libspeex/ltp.c **** 
 769:STM32F10x_Speex_Lib/STM32/libspeex/ltp.c **** /** Forced pitch delay and gain */
 770:STM32F10x_Speex_Lib/STM32/libspeex/ltp.c **** int forced_pitch_quant(
 771:STM32F10x_Speex_Lib/STM32/libspeex/ltp.c **** spx_word16_t target[],                 /* Target vector */
 772:STM32F10x_Speex_Lib/STM32/libspeex/ltp.c **** spx_word16_t *sw,
 773:STM32F10x_Speex_Lib/STM32/libspeex/ltp.c **** spx_coef_t ak[],                     /* LPCs for this subframe */
 774:STM32F10x_Speex_Lib/STM32/libspeex/ltp.c **** spx_coef_t awk1[],                   /* Weighted LPCs #1 for this subframe */
 775:STM32F10x_Speex_Lib/STM32/libspeex/ltp.c **** spx_coef_t awk2[],                   /* Weighted LPCs #2 for this subframe */
 776:STM32F10x_Speex_Lib/STM32/libspeex/ltp.c **** spx_sig_t exc[],                    /* Excitation */
 777:STM32F10x_Speex_Lib/STM32/libspeex/ltp.c **** const void *par,
 778:STM32F10x_Speex_Lib/STM32/libspeex/ltp.c **** int   start,                    /* Smallest pitch value allowed */
 779:STM32F10x_Speex_Lib/STM32/libspeex/ltp.c **** int   end,                      /* Largest pitch value allowed */
 780:STM32F10x_Speex_Lib/STM32/libspeex/ltp.c **** spx_word16_t pitch_coef,               /* Voicing (pitch) coefficient */
 781:STM32F10x_Speex_Lib/STM32/libspeex/ltp.c **** int   p,                        /* Number of LPC coeffs */
 782:STM32F10x_Speex_Lib/STM32/libspeex/ltp.c **** int   nsf,                      /* Number of samples in subframe */
 783:STM32F10x_Speex_Lib/STM32/libspeex/ltp.c **** SpeexBits *bits,
 784:STM32F10x_Speex_Lib/STM32/libspeex/ltp.c **** char *stack,
 785:STM32F10x_Speex_Lib/STM32/libspeex/ltp.c **** spx_word16_t *exc2,
 786:STM32F10x_Speex_Lib/STM32/libspeex/ltp.c **** spx_word16_t *r,
 787:STM32F10x_Speex_Lib/STM32/libspeex/ltp.c **** int complexity,
 788:STM32F10x_Speex_Lib/STM32/libspeex/ltp.c **** int cdbk_offset,
 789:STM32F10x_Speex_Lib/STM32/libspeex/ltp.c **** int plc_tuning,
 790:STM32F10x_Speex_Lib/STM32/libspeex/ltp.c **** spx_word32_t *cumul_gain
 791:STM32F10x_Speex_Lib/STM32/libspeex/ltp.c **** )
 792:STM32F10x_Speex_Lib/STM32/libspeex/ltp.c **** {
 3605              		.loc 3 792 0
 3606              		.cfi_startproc
 3607              		@ args = 64, pretend = 0, frame = 24
 3608              		@ frame_needed = 1, uses_anonymous_args = 0
 3609 0000 90B5     		push	{r4, r7, lr}
 3610              	.LCFI41:
 3611              		.cfi_def_cfa_offset 12
 3612              		.cfi_offset 4, -12
 3613              		.cfi_offset 7, -8
 3614              		.cfi_offset 14, -4
 3615 0002 8BB0     		sub	sp, sp, #44
 3616              	.LCFI42:
 3617              		.cfi_def_cfa_offset 56
 3618 0004 04AF     		add	r7, sp, #16
 3619              	.LCFI43:
 3620              		.cfi_def_cfa 7, 40
 3621 0006 F860     		str	r0, [r7, #12]
 3622 0008 B960     		str	r1, [r7, #8]
ARM GAS  /var/folders/kh/x4vltyy52lbg7p4pcyglc5080000gp/T//cc2IG9vv.s 			page 84


 3623 000a 7A60     		str	r2, [r7, #4]
 3624 000c 3B60     		str	r3, [r7]
 793:STM32F10x_Speex_Lib/STM32/libspeex/ltp.c ****    int i;
 794:STM32F10x_Speex_Lib/STM32/libspeex/ltp.c ****    VARDECL(spx_word16_t *res);
 795:STM32F10x_Speex_Lib/STM32/libspeex/ltp.c ****    ALLOC(res, nsf, spx_word16_t);
 3625              		.loc 3 795 0
 3626 000e FB6C     		ldr	r3, [r7, #76]
 3627 0010 5B42     		negs	r3, r3
 3628 0012 03F00103 		and	r3, r3, #1
 3629 0016 FA6C     		ldr	r2, [r7, #76]
 3630 0018 1344     		add	r3, r3, r2
 3631 001a FB64     		str	r3, [r7, #76]
 3632 001c 7B6C     		ldr	r3, [r7, #68]
 3633 001e 5B00     		lsls	r3, r3, #1
 3634 0020 FA6C     		ldr	r2, [r7, #76]
 3635 0022 1344     		add	r3, r3, r2
 3636 0024 FB64     		str	r3, [r7, #76]
 3637 0026 7B6C     		ldr	r3, [r7, #68]
 3638 0028 5B00     		lsls	r3, r3, #1
 3639 002a 5B42     		negs	r3, r3
 3640 002c FA6C     		ldr	r2, [r7, #76]
 3641 002e 1344     		add	r3, r3, r2
 3642 0030 3B61     		str	r3, [r7, #16]
 796:STM32F10x_Speex_Lib/STM32/libspeex/ltp.c **** #ifdef FIXED_POINT
 797:STM32F10x_Speex_Lib/STM32/libspeex/ltp.c ****    if (pitch_coef>63)
 3643              		.loc 3 797 0
 3644 0032 B7F93C30 		ldrsh	r3, [r7, #60]
 3645 0036 3F2B     		cmp	r3, #63
 3646 0038 01DD     		ble	.L146
 798:STM32F10x_Speex_Lib/STM32/libspeex/ltp.c ****       pitch_coef=63;
 3647              		.loc 3 798 0
 3648 003a 3F23     		movs	r3, #63
 3649 003c BB87     		strh	r3, [r7, #60]	@ movhi
 3650              	.L146:
 799:STM32F10x_Speex_Lib/STM32/libspeex/ltp.c **** #else
 800:STM32F10x_Speex_Lib/STM32/libspeex/ltp.c ****    if (pitch_coef>.99)
 801:STM32F10x_Speex_Lib/STM32/libspeex/ltp.c ****       pitch_coef=.99;
 802:STM32F10x_Speex_Lib/STM32/libspeex/ltp.c **** #endif
 803:STM32F10x_Speex_Lib/STM32/libspeex/ltp.c ****    for (i=0;i<nsf&&i<start;i++)
 3651              		.loc 3 803 0
 3652 003e 0023     		movs	r3, #0
 3653 0040 7B61     		str	r3, [r7, #20]
 3654 0042 16E0     		b	.L147
 3655              	.L149:
 804:STM32F10x_Speex_Lib/STM32/libspeex/ltp.c ****    {
 805:STM32F10x_Speex_Lib/STM32/libspeex/ltp.c ****       exc[i]=MULT16_16(SHL16(pitch_coef, 7),exc2[i-start]);
 3656              		.loc 3 805 0 discriminator 4
 3657 0044 7B69     		ldr	r3, [r7, #20]
 3658 0046 9B00     		lsls	r3, r3, #2
 3659 0048 FA6A     		ldr	r2, [r7, #44]
 3660 004a 1344     		add	r3, r3, r2
 3661 004c B7F93C20 		ldrsh	r2, [r7, #60]
 3662 0050 D201     		lsls	r2, r2, #7
 3663 0052 12B2     		sxth	r2, r2
 3664 0054 1046     		mov	r0, r2
 3665 0056 7969     		ldr	r1, [r7, #20]
 3666 0058 7A6B     		ldr	r2, [r7, #52]
ARM GAS  /var/folders/kh/x4vltyy52lbg7p4pcyglc5080000gp/T//cc2IG9vv.s 			page 85


 3667 005a 8A1A     		subs	r2, r1, r2
 3668 005c 5200     		lsls	r2, r2, #1
 3669 005e 396D     		ldr	r1, [r7, #80]
 3670 0060 0A44     		add	r2, r2, r1
 3671 0062 B2F90020 		ldrsh	r2, [r2]
 3672 0066 02FB00F2 		mul	r2, r2, r0
 3673 006a 1A60     		str	r2, [r3]
 803:STM32F10x_Speex_Lib/STM32/libspeex/ltp.c ****    {
 3674              		.loc 3 803 0 discriminator 4
 3675 006c 7B69     		ldr	r3, [r7, #20]
 3676 006e 0133     		adds	r3, r3, #1
 3677 0070 7B61     		str	r3, [r7, #20]
 3678              	.L147:
 803:STM32F10x_Speex_Lib/STM32/libspeex/ltp.c ****    {
 3679              		.loc 3 803 0 is_stmt 0 discriminator 1
 3680 0072 7A69     		ldr	r2, [r7, #20]
 3681 0074 7B6C     		ldr	r3, [r7, #68]
 3682 0076 9A42     		cmp	r2, r3
 3683 0078 2EDA     		bge	.L150
 803:STM32F10x_Speex_Lib/STM32/libspeex/ltp.c ****    {
 3684              		.loc 3 803 0 discriminator 3
 3685 007a 7A69     		ldr	r2, [r7, #20]
 3686 007c 7B6B     		ldr	r3, [r7, #52]
 3687 007e 9A42     		cmp	r2, r3
 3688 0080 E0DB     		blt	.L149
 806:STM32F10x_Speex_Lib/STM32/libspeex/ltp.c ****    }
 807:STM32F10x_Speex_Lib/STM32/libspeex/ltp.c ****    for (;i<nsf;i++)
 3689              		.loc 3 807 0 is_stmt 1
 3690 0082 29E0     		b	.L150
 3691              	.L151:
 808:STM32F10x_Speex_Lib/STM32/libspeex/ltp.c ****    {
 809:STM32F10x_Speex_Lib/STM32/libspeex/ltp.c ****       exc[i]=MULT16_32_Q15(SHL16(pitch_coef, 9),exc[i-start]);
 3692              		.loc 3 809 0 discriminator 2
 3693 0084 7B69     		ldr	r3, [r7, #20]
 3694 0086 9B00     		lsls	r3, r3, #2
 3695 0088 FA6A     		ldr	r2, [r7, #44]
 3696 008a 1344     		add	r3, r3, r2
 3697 008c B7F93C20 		ldrsh	r2, [r7, #60]
 3698 0090 5202     		lsls	r2, r2, #9
 3699 0092 12B2     		sxth	r2, r2
 3700 0094 1046     		mov	r0, r2
 3701 0096 7969     		ldr	r1, [r7, #20]
 3702 0098 7A6B     		ldr	r2, [r7, #52]
 3703 009a 8A1A     		subs	r2, r1, r2
 3704 009c 9200     		lsls	r2, r2, #2
 3705 009e F96A     		ldr	r1, [r7, #44]
 3706 00a0 0A44     		add	r2, r2, r1
 3707 00a2 1268     		ldr	r2, [r2]
 3708 00a4 D213     		asrs	r2, r2, #15
 3709 00a6 12B2     		sxth	r2, r2
 3710 00a8 02FB00F1 		mul	r1, r2, r0
 3711 00ac B7F93C20 		ldrsh	r2, [r7, #60]
 3712 00b0 5202     		lsls	r2, r2, #9
 3713 00b2 12B2     		sxth	r2, r2
 3714 00b4 1446     		mov	r4, r2
 3715 00b6 7869     		ldr	r0, [r7, #20]
 3716 00b8 7A6B     		ldr	r2, [r7, #52]
ARM GAS  /var/folders/kh/x4vltyy52lbg7p4pcyglc5080000gp/T//cc2IG9vv.s 			page 86


 3717 00ba 821A     		subs	r2, r0, r2
 3718 00bc 9200     		lsls	r2, r2, #2
 3719 00be F86A     		ldr	r0, [r7, #44]
 3720 00c0 0244     		add	r2, r2, r0
 3721 00c2 1268     		ldr	r2, [r2]
 3722 00c4 C2F30E02 		ubfx	r2, r2, #0, #15
 3723 00c8 02FB04F2 		mul	r2, r2, r4
 3724 00cc D213     		asrs	r2, r2, #15
 3725 00ce 0A44     		add	r2, r2, r1
 3726 00d0 1A60     		str	r2, [r3]
 807:STM32F10x_Speex_Lib/STM32/libspeex/ltp.c ****    {
 3727              		.loc 3 807 0 discriminator 2
 3728 00d2 7B69     		ldr	r3, [r7, #20]
 3729 00d4 0133     		adds	r3, r3, #1
 3730 00d6 7B61     		str	r3, [r7, #20]
 3731              	.L150:
 807:STM32F10x_Speex_Lib/STM32/libspeex/ltp.c ****    {
 3732              		.loc 3 807 0 is_stmt 0 discriminator 1
 3733 00d8 7A69     		ldr	r2, [r7, #20]
 3734 00da 7B6C     		ldr	r3, [r7, #68]
 3735 00dc 9A42     		cmp	r2, r3
 3736 00de D1DB     		blt	.L151
 810:STM32F10x_Speex_Lib/STM32/libspeex/ltp.c ****    }
 811:STM32F10x_Speex_Lib/STM32/libspeex/ltp.c ****    for (i=0;i<nsf;i++)
 3737              		.loc 3 811 0 is_stmt 1
 3738 00e0 0023     		movs	r3, #0
 3739 00e2 7B61     		str	r3, [r7, #20]
 3740 00e4 10E0     		b	.L152
 3741              	.L153:
 812:STM32F10x_Speex_Lib/STM32/libspeex/ltp.c ****       res[i] = EXTRACT16(PSHR32(exc[i], SIG_SHIFT-1));
 3742              		.loc 3 812 0 discriminator 3
 3743 00e6 7B69     		ldr	r3, [r7, #20]
 3744 00e8 5B00     		lsls	r3, r3, #1
 3745 00ea 3A69     		ldr	r2, [r7, #16]
 3746 00ec 1344     		add	r3, r3, r2
 3747 00ee 7A69     		ldr	r2, [r7, #20]
 3748 00f0 9200     		lsls	r2, r2, #2
 3749 00f2 F96A     		ldr	r1, [r7, #44]
 3750 00f4 0A44     		add	r2, r2, r1
 3751 00f6 1268     		ldr	r2, [r2]
 3752 00f8 02F58052 		add	r2, r2, #4096
 3753 00fc 5213     		asrs	r2, r2, #13
 3754 00fe 12B2     		sxth	r2, r2
 3755 0100 1A80     		strh	r2, [r3]	@ movhi
 811:STM32F10x_Speex_Lib/STM32/libspeex/ltp.c ****       res[i] = EXTRACT16(PSHR32(exc[i], SIG_SHIFT-1));
 3756              		.loc 3 811 0 discriminator 3
 3757 0102 7B69     		ldr	r3, [r7, #20]
 3758 0104 0133     		adds	r3, r3, #1
 3759 0106 7B61     		str	r3, [r7, #20]
 3760              	.L152:
 811:STM32F10x_Speex_Lib/STM32/libspeex/ltp.c ****       res[i] = EXTRACT16(PSHR32(exc[i], SIG_SHIFT-1));
 3761              		.loc 3 811 0 is_stmt 0 discriminator 1
 3762 0108 7A69     		ldr	r2, [r7, #20]
 3763 010a 7B6C     		ldr	r3, [r7, #68]
 3764 010c 9A42     		cmp	r2, r3
 3765 010e EADB     		blt	.L153
 813:STM32F10x_Speex_Lib/STM32/libspeex/ltp.c ****    syn_percep_zero16(res, ak, awk1, awk2, res, nsf, p, stack);
ARM GAS  /var/folders/kh/x4vltyy52lbg7p4pcyglc5080000gp/T//cc2IG9vv.s 			page 87


 3766              		.loc 3 813 0 is_stmt 1
 3767 0110 FB6C     		ldr	r3, [r7, #76]
 3768 0112 0393     		str	r3, [sp, #12]
 3769 0114 3B6C     		ldr	r3, [r7, #64]
 3770 0116 0293     		str	r3, [sp, #8]
 3771 0118 7B6C     		ldr	r3, [r7, #68]
 3772 011a 0193     		str	r3, [sp, #4]
 3773 011c 3B69     		ldr	r3, [r7, #16]
 3774 011e 0093     		str	r3, [sp]
 3775 0120 BB6A     		ldr	r3, [r7, #40]
 3776 0122 3A68     		ldr	r2, [r7]
 3777 0124 7968     		ldr	r1, [r7, #4]
 3778 0126 3869     		ldr	r0, [r7, #16]
 3779 0128 FFF7FEFF 		bl	syn_percep_zero16
 814:STM32F10x_Speex_Lib/STM32/libspeex/ltp.c ****    for (i=0;i<nsf;i++)
 3780              		.loc 3 814 0
 3781 012c 0023     		movs	r3, #0
 3782 012e 7B61     		str	r3, [r7, #20]
 3783 0130 40E0     		b	.L154
 3784              	.L159:
 815:STM32F10x_Speex_Lib/STM32/libspeex/ltp.c ****       target[i]=EXTRACT16(SATURATE(SUB32(EXTEND32(target[i]),EXTEND32(res[i])),32700));
 3785              		.loc 3 815 0
 3786 0132 7B69     		ldr	r3, [r7, #20]
 3787 0134 5B00     		lsls	r3, r3, #1
 3788 0136 FA68     		ldr	r2, [r7, #12]
 3789 0138 1A44     		add	r2, r2, r3
 3790 013a 7B69     		ldr	r3, [r7, #20]
 3791 013c 5B00     		lsls	r3, r3, #1
 3792 013e F968     		ldr	r1, [r7, #12]
 3793 0140 0B44     		add	r3, r3, r1
 3794 0142 B3F90030 		ldrsh	r3, [r3]
 3795 0146 1846     		mov	r0, r3
 3796 0148 7B69     		ldr	r3, [r7, #20]
 3797 014a 5B00     		lsls	r3, r3, #1
 3798 014c 3969     		ldr	r1, [r7, #16]
 3799 014e 0B44     		add	r3, r3, r1
 3800 0150 B3F90030 		ldrsh	r3, [r3]
 3801 0154 C31A     		subs	r3, r0, r3
 3802 0156 47F6BC71 		movw	r1, #32700
 3803 015a 8B42     		cmp	r3, r1
 3804 015c 24DC     		bgt	.L155
 3805              		.loc 3 815 0 is_stmt 0 discriminator 1
 3806 015e 7B69     		ldr	r3, [r7, #20]
 3807 0160 5B00     		lsls	r3, r3, #1
 3808 0162 F968     		ldr	r1, [r7, #12]
 3809 0164 0B44     		add	r3, r3, r1
 3810 0166 B3F90030 		ldrsh	r3, [r3]
 3811 016a 1846     		mov	r0, r3
 3812 016c 7B69     		ldr	r3, [r7, #20]
 3813 016e 5B00     		lsls	r3, r3, #1
 3814 0170 3969     		ldr	r1, [r7, #16]
 3815 0172 0B44     		add	r3, r3, r1
 3816 0174 B3F90030 		ldrsh	r3, [r3]
 3817 0178 C31A     		subs	r3, r0, r3
 3818 017a 1349     		ldr	r1, .L161
 3819 017c 8B42     		cmp	r3, r1
 3820 017e 11DB     		blt	.L156
ARM GAS  /var/folders/kh/x4vltyy52lbg7p4pcyglc5080000gp/T//cc2IG9vv.s 			page 88


 3821              		.loc 3 815 0 discriminator 3
 3822 0180 7B69     		ldr	r3, [r7, #20]
 3823 0182 5B00     		lsls	r3, r3, #1
 3824 0184 F968     		ldr	r1, [r7, #12]
 3825 0186 0B44     		add	r3, r3, r1
 3826 0188 B3F90030 		ldrsh	r3, [r3]
 3827 018c 99B2     		uxth	r1, r3
 3828 018e 7B69     		ldr	r3, [r7, #20]
 3829 0190 5B00     		lsls	r3, r3, #1
 3830 0192 3869     		ldr	r0, [r7, #16]
 3831 0194 0344     		add	r3, r3, r0
 3832 0196 B3F90030 		ldrsh	r3, [r3]
 3833 019a 9BB2     		uxth	r3, r3
 3834 019c CB1A     		subs	r3, r1, r3
 3835 019e 9BB2     		uxth	r3, r3
 3836 01a0 1BB2     		sxth	r3, r3
 3837 01a2 03E0     		b	.L158
 3838              	.L156:
 3839              		.loc 3 815 0 discriminator 4
 3840 01a4 084B     		ldr	r3, .L161
 3841 01a6 01E0     		b	.L158
 3842              	.L155:
 3843              		.loc 3 815 0 discriminator 2
 3844 01a8 47F6BC73 		movw	r3, #32700
 3845              	.L158:
 3846              		.loc 3 815 0 discriminator 8
 3847 01ac 1380     		strh	r3, [r2]	@ movhi
 814:STM32F10x_Speex_Lib/STM32/libspeex/ltp.c ****    for (i=0;i<nsf;i++)
 3848              		.loc 3 814 0 is_stmt 1 discriminator 8
 3849 01ae 7B69     		ldr	r3, [r7, #20]
 3850 01b0 0133     		adds	r3, r3, #1
 3851 01b2 7B61     		str	r3, [r7, #20]
 3852              	.L154:
 814:STM32F10x_Speex_Lib/STM32/libspeex/ltp.c ****    for (i=0;i<nsf;i++)
 3853              		.loc 3 814 0 is_stmt 0 discriminator 2
 3854 01b4 7A69     		ldr	r2, [r7, #20]
 3855 01b6 7B6C     		ldr	r3, [r7, #68]
 3856 01b8 9A42     		cmp	r2, r3
 3857 01ba BADB     		blt	.L159
 816:STM32F10x_Speex_Lib/STM32/libspeex/ltp.c ****    return start;
 3858              		.loc 3 816 0 is_stmt 1
 3859 01bc 7B6B     		ldr	r3, [r7, #52]
 817:STM32F10x_Speex_Lib/STM32/libspeex/ltp.c **** }
 3860              		.loc 3 817 0
 3861 01be 1846     		mov	r0, r3
 3862 01c0 1C37     		adds	r7, r7, #28
 3863              	.LCFI44:
 3864              		.cfi_def_cfa_offset 12
 3865 01c2 BD46     		mov	sp, r7
 3866              	.LCFI45:
 3867              		.cfi_def_cfa_register 13
 3868              		@ sp needed
 3869 01c4 90BD     		pop	{r4, r7, pc}
 3870              	.L162:
 3871 01c6 00BF     		.align	2
 3872              	.L161:
 3873 01c8 4480FFFF 		.word	-32700
ARM GAS  /var/folders/kh/x4vltyy52lbg7p4pcyglc5080000gp/T//cc2IG9vv.s 			page 89


 3874              		.cfi_endproc
 3875              	.LFE27:
 3877              		.section	.text.forced_pitch_unquant,"ax",%progbits
 3878              		.align	2
 3879              		.global	forced_pitch_unquant
 3880              		.thumb
 3881              		.thumb_func
 3883              	forced_pitch_unquant:
 3884              	.LFB28:
 818:STM32F10x_Speex_Lib/STM32/libspeex/ltp.c **** 
 819:STM32F10x_Speex_Lib/STM32/libspeex/ltp.c **** /** Unquantize forced pitch delay and gain */
 820:STM32F10x_Speex_Lib/STM32/libspeex/ltp.c **** void forced_pitch_unquant(
 821:STM32F10x_Speex_Lib/STM32/libspeex/ltp.c **** spx_word16_t exc[],             /* Input excitation */
 822:STM32F10x_Speex_Lib/STM32/libspeex/ltp.c **** spx_word32_t exc_out[],         /* Output excitation */
 823:STM32F10x_Speex_Lib/STM32/libspeex/ltp.c **** int   start,                    /* Smallest pitch value allowed */
 824:STM32F10x_Speex_Lib/STM32/libspeex/ltp.c **** int   end,                      /* Largest pitch value allowed */
 825:STM32F10x_Speex_Lib/STM32/libspeex/ltp.c **** spx_word16_t pitch_coef,        /* Voicing (pitch) coefficient */
 826:STM32F10x_Speex_Lib/STM32/libspeex/ltp.c **** const void *par,
 827:STM32F10x_Speex_Lib/STM32/libspeex/ltp.c **** int   nsf,                      /* Number of samples in subframe */
 828:STM32F10x_Speex_Lib/STM32/libspeex/ltp.c **** int *pitch_val,
 829:STM32F10x_Speex_Lib/STM32/libspeex/ltp.c **** spx_word16_t *gain_val,
 830:STM32F10x_Speex_Lib/STM32/libspeex/ltp.c **** SpeexBits *bits,
 831:STM32F10x_Speex_Lib/STM32/libspeex/ltp.c **** char *stack,
 832:STM32F10x_Speex_Lib/STM32/libspeex/ltp.c **** int count_lost,
 833:STM32F10x_Speex_Lib/STM32/libspeex/ltp.c **** int subframe_offset,
 834:STM32F10x_Speex_Lib/STM32/libspeex/ltp.c **** spx_word16_t last_pitch_gain,
 835:STM32F10x_Speex_Lib/STM32/libspeex/ltp.c **** int cdbk_offset
 836:STM32F10x_Speex_Lib/STM32/libspeex/ltp.c **** )
 837:STM32F10x_Speex_Lib/STM32/libspeex/ltp.c **** {
 3885              		.loc 3 837 0
 3886              		.cfi_startproc
 3887              		@ args = 44, pretend = 0, frame = 24
 3888              		@ frame_needed = 1, uses_anonymous_args = 0
 3889              		@ link register save eliminated.
 3890 0000 80B4     		push	{r7}
 3891              	.LCFI46:
 3892              		.cfi_def_cfa_offset 4
 3893              		.cfi_offset 7, -4
 3894 0002 87B0     		sub	sp, sp, #28
 3895              	.LCFI47:
 3896              		.cfi_def_cfa_offset 32
 3897 0004 00AF     		add	r7, sp, #0
 3898              	.LCFI48:
 3899              		.cfi_def_cfa_register 7
 3900 0006 F860     		str	r0, [r7, #12]
 3901 0008 B960     		str	r1, [r7, #8]
 3902 000a 7A60     		str	r2, [r7, #4]
 3903 000c 3B60     		str	r3, [r7]
 838:STM32F10x_Speex_Lib/STM32/libspeex/ltp.c ****    int i;
 839:STM32F10x_Speex_Lib/STM32/libspeex/ltp.c **** #ifdef FIXED_POINT
 840:STM32F10x_Speex_Lib/STM32/libspeex/ltp.c ****    if (pitch_coef>63)
 3904              		.loc 3 840 0
 3905 000e B7F92030 		ldrsh	r3, [r7, #32]
 3906 0012 3F2B     		cmp	r3, #63
 3907 0014 01DD     		ble	.L164
 841:STM32F10x_Speex_Lib/STM32/libspeex/ltp.c ****       pitch_coef=63;
 3908              		.loc 3 841 0
ARM GAS  /var/folders/kh/x4vltyy52lbg7p4pcyglc5080000gp/T//cc2IG9vv.s 			page 90


 3909 0016 3F23     		movs	r3, #63
 3910 0018 3B84     		strh	r3, [r7, #32]	@ movhi
 3911              	.L164:
 842:STM32F10x_Speex_Lib/STM32/libspeex/ltp.c **** #else
 843:STM32F10x_Speex_Lib/STM32/libspeex/ltp.c ****    if (pitch_coef>.99)
 844:STM32F10x_Speex_Lib/STM32/libspeex/ltp.c ****       pitch_coef=.99;
 845:STM32F10x_Speex_Lib/STM32/libspeex/ltp.c **** #endif
 846:STM32F10x_Speex_Lib/STM32/libspeex/ltp.c ****    for (i=0;i<nsf;i++)
 3912              		.loc 3 846 0
 3913 001a 0023     		movs	r3, #0
 3914 001c 7B61     		str	r3, [r7, #20]
 3915 001e 24E0     		b	.L165
 3916              	.L166:
 847:STM32F10x_Speex_Lib/STM32/libspeex/ltp.c ****    {
 848:STM32F10x_Speex_Lib/STM32/libspeex/ltp.c ****       exc_out[i]=MULT16_16(exc[i-start],SHL16(pitch_coef,7));
 3917              		.loc 3 848 0 discriminator 3
 3918 0020 7B69     		ldr	r3, [r7, #20]
 3919 0022 9B00     		lsls	r3, r3, #2
 3920 0024 BA68     		ldr	r2, [r7, #8]
 3921 0026 1344     		add	r3, r3, r2
 3922 0028 7969     		ldr	r1, [r7, #20]
 3923 002a 7A68     		ldr	r2, [r7, #4]
 3924 002c 8A1A     		subs	r2, r1, r2
 3925 002e 5200     		lsls	r2, r2, #1
 3926 0030 F968     		ldr	r1, [r7, #12]
 3927 0032 0A44     		add	r2, r2, r1
 3928 0034 B2F90020 		ldrsh	r2, [r2]
 3929 0038 1146     		mov	r1, r2
 3930 003a B7F92020 		ldrsh	r2, [r7, #32]
 3931 003e D201     		lsls	r2, r2, #7
 3932 0040 12B2     		sxth	r2, r2
 3933 0042 02FB01F2 		mul	r2, r2, r1
 3934 0046 1A60     		str	r2, [r3]
 849:STM32F10x_Speex_Lib/STM32/libspeex/ltp.c ****       exc[i] = EXTRACT16(PSHR32(exc_out[i],13));
 3935              		.loc 3 849 0 discriminator 3
