ARM GAS  /var/folders/kh/x4vltyy52lbg7p4pcyglc5080000gp/T//ccuucmVt.s 			page 1


   1              		.syntax unified
   2              		.cpu cortex-m3
   3              		.fpu softvfp
   4              		.eabi_attribute 20, 1
   5              		.eabi_attribute 21, 1
   6              		.eabi_attribute 23, 3
   7              		.eabi_attribute 24, 1
   8              		.eabi_attribute 25, 1
   9              		.eabi_attribute 26, 1
  10              		.eabi_attribute 30, 6
  11              		.eabi_attribute 34, 1
  12              		.eabi_attribute 18, 4
  13              		.thumb
  14              		.syntax unified
  15              		.file	"nb_celp.c"
  16              		.text
  17              	.Ltext0:
  18              		.cfi_sections	.debug_frame
  19              		.section	.text.spx_ilog4,"ax",%progbits
  20              		.align	2
  21              		.thumb
  22              		.thumb_func
  24              	spx_ilog4:
  25              	.LFB1:
  26              		.file 1 "STM32F10x_Speex_Lib/libspeex/math_approx.h"
   1:STM32F10x_Speex_Lib/libspeex/math_approx.h **** /* Copyright (C) 2002 Jean-Marc Valin */
   2:STM32F10x_Speex_Lib/libspeex/math_approx.h **** /**
   3:STM32F10x_Speex_Lib/libspeex/math_approx.h ****    @file math_approx.h
   4:STM32F10x_Speex_Lib/libspeex/math_approx.h ****    @brief Various math approximation functions for Speex
   5:STM32F10x_Speex_Lib/libspeex/math_approx.h **** */
   6:STM32F10x_Speex_Lib/libspeex/math_approx.h **** /*
   7:STM32F10x_Speex_Lib/libspeex/math_approx.h ****    Redistribution and use in source and binary forms, with or without
   8:STM32F10x_Speex_Lib/libspeex/math_approx.h ****    modification, are permitted provided that the following conditions
   9:STM32F10x_Speex_Lib/libspeex/math_approx.h ****    are met:
  10:STM32F10x_Speex_Lib/libspeex/math_approx.h ****    
  11:STM32F10x_Speex_Lib/libspeex/math_approx.h ****    - Redistributions of source code must retain the above copyright
  12:STM32F10x_Speex_Lib/libspeex/math_approx.h ****    notice, this list of conditions and the following disclaimer.
  13:STM32F10x_Speex_Lib/libspeex/math_approx.h ****    
  14:STM32F10x_Speex_Lib/libspeex/math_approx.h ****    - Redistributions in binary form must reproduce the above copyright
  15:STM32F10x_Speex_Lib/libspeex/math_approx.h ****    notice, this list of conditions and the following disclaimer in the
  16:STM32F10x_Speex_Lib/libspeex/math_approx.h ****    documentation and/or other materials provided with the distribution.
  17:STM32F10x_Speex_Lib/libspeex/math_approx.h ****    
  18:STM32F10x_Speex_Lib/libspeex/math_approx.h ****    - Neither the name of the Xiph.org Foundation nor the names of its
  19:STM32F10x_Speex_Lib/libspeex/math_approx.h ****    contributors may be used to endorse or promote products derived from
  20:STM32F10x_Speex_Lib/libspeex/math_approx.h ****    this software without specific prior written permission.
  21:STM32F10x_Speex_Lib/libspeex/math_approx.h ****    
  22:STM32F10x_Speex_Lib/libspeex/math_approx.h ****    THIS SOFTWARE IS PROVIDED BY THE COPYRIGHT HOLDERS AND CONTRIBUTORS
  23:STM32F10x_Speex_Lib/libspeex/math_approx.h ****    ``AS IS'' AND ANY EXPRESS OR IMPLIED WARRANTIES, INCLUDING, BUT NOT
  24:STM32F10x_Speex_Lib/libspeex/math_approx.h ****    LIMITED TO, THE IMPLIED WARRANTIES OF MERCHANTABILITY AND FITNESS FOR
  25:STM32F10x_Speex_Lib/libspeex/math_approx.h ****    A PARTICULAR PURPOSE ARE DISCLAIMED.  IN NO EVENT SHALL THE FOUNDATION OR
  26:STM32F10x_Speex_Lib/libspeex/math_approx.h ****    CONTRIBUTORS BE LIABLE FOR ANY DIRECT, INDIRECT, INCIDENTAL, SPECIAL,
  27:STM32F10x_Speex_Lib/libspeex/math_approx.h ****    EXEMPLARY, OR CONSEQUENTIAL DAMAGES (INCLUDING, BUT NOT LIMITED TO,
  28:STM32F10x_Speex_Lib/libspeex/math_approx.h ****    PROCUREMENT OF SUBSTITUTE GOODS OR SERVICES; LOSS OF USE, DATA, OR
  29:STM32F10x_Speex_Lib/libspeex/math_approx.h ****    PROFITS; OR BUSINESS INTERRUPTION) HOWEVER CAUSED AND ON ANY THEORY OF
  30:STM32F10x_Speex_Lib/libspeex/math_approx.h ****    LIABILITY, WHETHER IN CONTRACT, STRICT LIABILITY, OR TORT (INCLUDING
  31:STM32F10x_Speex_Lib/libspeex/math_approx.h ****    NEGLIGENCE OR OTHERWISE) ARISING IN ANY WAY OUT OF THE USE OF THIS
  32:STM32F10x_Speex_Lib/libspeex/math_approx.h ****    SOFTWARE, EVEN IF ADVISED OF THE POSSIBILITY OF SUCH DAMAGE.
ARM GAS  /var/folders/kh/x4vltyy52lbg7p4pcyglc5080000gp/T//ccuucmVt.s 			page 2


  33:STM32F10x_Speex_Lib/libspeex/math_approx.h **** */
  34:STM32F10x_Speex_Lib/libspeex/math_approx.h **** 
  35:STM32F10x_Speex_Lib/libspeex/math_approx.h **** #ifndef MATH_APPROX_H
  36:STM32F10x_Speex_Lib/libspeex/math_approx.h **** #define MATH_APPROX_H
  37:STM32F10x_Speex_Lib/libspeex/math_approx.h **** 
  38:STM32F10x_Speex_Lib/libspeex/math_approx.h **** #include "arch.h"
  39:STM32F10x_Speex_Lib/libspeex/math_approx.h **** 
  40:STM32F10x_Speex_Lib/libspeex/math_approx.h **** #ifndef FIXED_POINT
  41:STM32F10x_Speex_Lib/libspeex/math_approx.h **** 
  42:STM32F10x_Speex_Lib/libspeex/math_approx.h **** #define spx_sqrt sqrt
  43:STM32F10x_Speex_Lib/libspeex/math_approx.h **** #define spx_acos acos
  44:STM32F10x_Speex_Lib/libspeex/math_approx.h **** #define spx_exp exp
  45:STM32F10x_Speex_Lib/libspeex/math_approx.h **** #define spx_cos_norm(x) (cos((.5f*M_PI)*(x)))
  46:STM32F10x_Speex_Lib/libspeex/math_approx.h **** #define spx_atan atan
  47:STM32F10x_Speex_Lib/libspeex/math_approx.h **** 
  48:STM32F10x_Speex_Lib/libspeex/math_approx.h **** /** Generate a pseudo-random number */
  49:STM32F10x_Speex_Lib/libspeex/math_approx.h **** static inline spx_word16_t speex_rand(spx_word16_t std, spx_int32_t *seed)
  50:STM32F10x_Speex_Lib/libspeex/math_approx.h **** {
  51:STM32F10x_Speex_Lib/libspeex/math_approx.h ****    const unsigned int jflone = 0x3f800000;
  52:STM32F10x_Speex_Lib/libspeex/math_approx.h ****    const unsigned int jflmsk = 0x007fffff;
  53:STM32F10x_Speex_Lib/libspeex/math_approx.h ****    union {int i; float f;} ran;
  54:STM32F10x_Speex_Lib/libspeex/math_approx.h ****    *seed = 1664525 * *seed + 1013904223;
  55:STM32F10x_Speex_Lib/libspeex/math_approx.h ****    ran.i = jflone | (jflmsk & *seed);
  56:STM32F10x_Speex_Lib/libspeex/math_approx.h ****    ran.f -= 1.5;
  57:STM32F10x_Speex_Lib/libspeex/math_approx.h ****    return 3.4642*std*ran.f;
  58:STM32F10x_Speex_Lib/libspeex/math_approx.h **** }
  59:STM32F10x_Speex_Lib/libspeex/math_approx.h **** 
  60:STM32F10x_Speex_Lib/libspeex/math_approx.h **** 
  61:STM32F10x_Speex_Lib/libspeex/math_approx.h **** #endif
  62:STM32F10x_Speex_Lib/libspeex/math_approx.h **** 
  63:STM32F10x_Speex_Lib/libspeex/math_approx.h **** 
  64:STM32F10x_Speex_Lib/libspeex/math_approx.h **** static inline spx_int16_t spx_ilog2(spx_uint32_t x)
  65:STM32F10x_Speex_Lib/libspeex/math_approx.h **** {
  66:STM32F10x_Speex_Lib/libspeex/math_approx.h ****    int r=0;
  67:STM32F10x_Speex_Lib/libspeex/math_approx.h ****    if (x>=(spx_int32_t)65536)
  68:STM32F10x_Speex_Lib/libspeex/math_approx.h ****    {
  69:STM32F10x_Speex_Lib/libspeex/math_approx.h ****       x >>= 16;
  70:STM32F10x_Speex_Lib/libspeex/math_approx.h ****       r += 16;
  71:STM32F10x_Speex_Lib/libspeex/math_approx.h ****    }
  72:STM32F10x_Speex_Lib/libspeex/math_approx.h ****    if (x>=256)
  73:STM32F10x_Speex_Lib/libspeex/math_approx.h ****    {
  74:STM32F10x_Speex_Lib/libspeex/math_approx.h ****       x >>= 8;
  75:STM32F10x_Speex_Lib/libspeex/math_approx.h ****       r += 8;
  76:STM32F10x_Speex_Lib/libspeex/math_approx.h ****    }
  77:STM32F10x_Speex_Lib/libspeex/math_approx.h ****    if (x>=16)
  78:STM32F10x_Speex_Lib/libspeex/math_approx.h ****    {
  79:STM32F10x_Speex_Lib/libspeex/math_approx.h ****       x >>= 4;
  80:STM32F10x_Speex_Lib/libspeex/math_approx.h ****       r += 4;
  81:STM32F10x_Speex_Lib/libspeex/math_approx.h ****    }
  82:STM32F10x_Speex_Lib/libspeex/math_approx.h ****    if (x>=4)
  83:STM32F10x_Speex_Lib/libspeex/math_approx.h ****    {
  84:STM32F10x_Speex_Lib/libspeex/math_approx.h ****       x >>= 2;
  85:STM32F10x_Speex_Lib/libspeex/math_approx.h ****       r += 2;
  86:STM32F10x_Speex_Lib/libspeex/math_approx.h ****    }
  87:STM32F10x_Speex_Lib/libspeex/math_approx.h ****    if (x>=2)
  88:STM32F10x_Speex_Lib/libspeex/math_approx.h ****    {
  89:STM32F10x_Speex_Lib/libspeex/math_approx.h ****       r += 1;
ARM GAS  /var/folders/kh/x4vltyy52lbg7p4pcyglc5080000gp/T//ccuucmVt.s 			page 3


  90:STM32F10x_Speex_Lib/libspeex/math_approx.h ****    }
  91:STM32F10x_Speex_Lib/libspeex/math_approx.h ****    return r;
  92:STM32F10x_Speex_Lib/libspeex/math_approx.h **** }
  93:STM32F10x_Speex_Lib/libspeex/math_approx.h **** 
  94:STM32F10x_Speex_Lib/libspeex/math_approx.h **** static inline spx_int16_t spx_ilog4(spx_uint32_t x)
  95:STM32F10x_Speex_Lib/libspeex/math_approx.h **** {
  27              		.loc 1 95 0
  28              		.cfi_startproc
  29              		@ args = 0, pretend = 0, frame = 16
  30              		@ frame_needed = 1, uses_anonymous_args = 0
  31              		@ link register save eliminated.
  32 0000 80B4     		push	{r7}
  33              	.LCFI0:
  34              		.cfi_def_cfa_offset 4
  35              		.cfi_offset 7, -4
  36 0002 85B0     		sub	sp, sp, #20
  37              	.LCFI1:
  38              		.cfi_def_cfa_offset 24
  39 0004 00AF     		add	r7, sp, #0
  40              	.LCFI2:
  41              		.cfi_def_cfa_register 7
  42 0006 7860     		str	r0, [r7, #4]
  96:STM32F10x_Speex_Lib/libspeex/math_approx.h ****    int r=0;
  43              		.loc 1 96 0
  44 0008 0023     		movs	r3, #0
  45 000a FB60     		str	r3, [r7, #12]
  97:STM32F10x_Speex_Lib/libspeex/math_approx.h ****    if (x>=(spx_int32_t)65536)
  46              		.loc 1 97 0
  47 000c 7B68     		ldr	r3, [r7, #4]
  48 000e B3F5803F 		cmp	r3, #65536
  49 0012 05D3     		bcc	.L2
  98:STM32F10x_Speex_Lib/libspeex/math_approx.h ****    {
  99:STM32F10x_Speex_Lib/libspeex/math_approx.h ****       x >>= 16;
  50              		.loc 1 99 0
  51 0014 7B68     		ldr	r3, [r7, #4]
  52 0016 1B0C     		lsrs	r3, r3, #16
  53 0018 7B60     		str	r3, [r7, #4]
 100:STM32F10x_Speex_Lib/libspeex/math_approx.h ****       r += 8;
  54              		.loc 1 100 0
  55 001a FB68     		ldr	r3, [r7, #12]
  56 001c 0833     		adds	r3, r3, #8
  57 001e FB60     		str	r3, [r7, #12]
  58              	.L2:
 101:STM32F10x_Speex_Lib/libspeex/math_approx.h ****    }
 102:STM32F10x_Speex_Lib/libspeex/math_approx.h ****    if (x>=256)
  59              		.loc 1 102 0
  60 0020 7B68     		ldr	r3, [r7, #4]
  61 0022 FF2B     		cmp	r3, #255
  62 0024 05D9     		bls	.L3
 103:STM32F10x_Speex_Lib/libspeex/math_approx.h ****    {
 104:STM32F10x_Speex_Lib/libspeex/math_approx.h ****       x >>= 8;
  63              		.loc 1 104 0
  64 0026 7B68     		ldr	r3, [r7, #4]
  65 0028 1B0A     		lsrs	r3, r3, #8
  66 002a 7B60     		str	r3, [r7, #4]
 105:STM32F10x_Speex_Lib/libspeex/math_approx.h ****       r += 4;
  67              		.loc 1 105 0
ARM GAS  /var/folders/kh/x4vltyy52lbg7p4pcyglc5080000gp/T//ccuucmVt.s 			page 4


  68 002c FB68     		ldr	r3, [r7, #12]
  69 002e 0433     		adds	r3, r3, #4
  70 0030 FB60     		str	r3, [r7, #12]
  71              	.L3:
 106:STM32F10x_Speex_Lib/libspeex/math_approx.h ****    }
 107:STM32F10x_Speex_Lib/libspeex/math_approx.h ****    if (x>=16)
  72              		.loc 1 107 0
  73 0032 7B68     		ldr	r3, [r7, #4]
  74 0034 0F2B     		cmp	r3, #15
  75 0036 05D9     		bls	.L4
 108:STM32F10x_Speex_Lib/libspeex/math_approx.h ****    {
 109:STM32F10x_Speex_Lib/libspeex/math_approx.h ****       x >>= 4;
  76              		.loc 1 109 0
  77 0038 7B68     		ldr	r3, [r7, #4]
  78 003a 1B09     		lsrs	r3, r3, #4
  79 003c 7B60     		str	r3, [r7, #4]
 110:STM32F10x_Speex_Lib/libspeex/math_approx.h ****       r += 2;
  80              		.loc 1 110 0
  81 003e FB68     		ldr	r3, [r7, #12]
  82 0040 0233     		adds	r3, r3, #2
  83 0042 FB60     		str	r3, [r7, #12]
  84              	.L4:
 111:STM32F10x_Speex_Lib/libspeex/math_approx.h ****    }
 112:STM32F10x_Speex_Lib/libspeex/math_approx.h ****    if (x>=4)
  85              		.loc 1 112 0
  86 0044 7B68     		ldr	r3, [r7, #4]
  87 0046 032B     		cmp	r3, #3
  88 0048 02D9     		bls	.L5
 113:STM32F10x_Speex_Lib/libspeex/math_approx.h ****    {
 114:STM32F10x_Speex_Lib/libspeex/math_approx.h ****       r += 1;
  89              		.loc 1 114 0
  90 004a FB68     		ldr	r3, [r7, #12]
  91 004c 0133     		adds	r3, r3, #1
  92 004e FB60     		str	r3, [r7, #12]
  93              	.L5:
 115:STM32F10x_Speex_Lib/libspeex/math_approx.h ****    }
 116:STM32F10x_Speex_Lib/libspeex/math_approx.h ****    return r;
  94              		.loc 1 116 0
  95 0050 FB68     		ldr	r3, [r7, #12]
  96 0052 1BB2     		sxth	r3, r3
 117:STM32F10x_Speex_Lib/libspeex/math_approx.h **** }
  97              		.loc 1 117 0
  98 0054 1846     		mov	r0, r3
  99 0056 1437     		adds	r7, r7, #20
 100              	.LCFI3:
 101              		.cfi_def_cfa_offset 4
 102 0058 BD46     		mov	sp, r7
 103              	.LCFI4:
 104              		.cfi_def_cfa_register 13
 105              		@ sp needed
 106 005a 80BC     		pop	{r7}
 107              	.LCFI5:
 108              		.cfi_restore 7
 109              		.cfi_def_cfa_offset 0
 110 005c 7047     		bx	lr
 111              		.cfi_endproc
 112              	.LFE1:
ARM GAS  /var/folders/kh/x4vltyy52lbg7p4pcyglc5080000gp/T//ccuucmVt.s 			page 5


 114 005e 00BF     		.section	.text.speex_rand,"ax",%progbits
 115              		.align	2
 116              		.thumb
 117              		.thumb_func
 119              	speex_rand:
 120              	.LFB2:
 118:STM32F10x_Speex_Lib/libspeex/math_approx.h **** 
 119:STM32F10x_Speex_Lib/libspeex/math_approx.h **** #ifdef FIXED_POINT
 120:STM32F10x_Speex_Lib/libspeex/math_approx.h **** 
 121:STM32F10x_Speex_Lib/libspeex/math_approx.h **** /** Generate a pseudo-random number */
 122:STM32F10x_Speex_Lib/libspeex/math_approx.h **** static inline spx_word16_t speex_rand(spx_word16_t std, spx_int32_t *seed)
 123:STM32F10x_Speex_Lib/libspeex/math_approx.h **** {
 121              		.loc 1 123 0
 122              		.cfi_startproc
 123              		@ args = 0, pretend = 0, frame = 16
 124              		@ frame_needed = 1, uses_anonymous_args = 0
 125              		@ link register save eliminated.
 126 0000 80B4     		push	{r7}
 127              	.LCFI6:
 128              		.cfi_def_cfa_offset 4
 129              		.cfi_offset 7, -4
 130 0002 85B0     		sub	sp, sp, #20
 131              	.LCFI7:
 132              		.cfi_def_cfa_offset 24
 133 0004 00AF     		add	r7, sp, #0
 134              	.LCFI8:
 135              		.cfi_def_cfa_register 7
 136 0006 0346     		mov	r3, r0
 137 0008 3960     		str	r1, [r7]
 138 000a FB80     		strh	r3, [r7, #6]	@ movhi
 124:STM32F10x_Speex_Lib/libspeex/math_approx.h ****    spx_word32_t res;
 125:STM32F10x_Speex_Lib/libspeex/math_approx.h ****    *seed = 1664525 * *seed + 1013904223;
 139              		.loc 1 125 0
 140 000c 3B68     		ldr	r3, [r7]
 141 000e 1B68     		ldr	r3, [r3]
 142 0010 0E4A     		ldr	r2, .L9
 143 0012 02FB03F2 		mul	r2, r2, r3
 144 0016 0E4B     		ldr	r3, .L9+4
 145 0018 1344     		add	r3, r3, r2
 146 001a 3A68     		ldr	r2, [r7]
 147 001c 1360     		str	r3, [r2]
 126:STM32F10x_Speex_Lib/libspeex/math_approx.h ****    res = MULT16_16(EXTRACT16(SHR32(*seed,16)),std);
 148              		.loc 1 126 0
 149 001e 3B68     		ldr	r3, [r7]
 150 0020 1B68     		ldr	r3, [r3]
 151 0022 1B14     		asrs	r3, r3, #16
 152 0024 1BB2     		sxth	r3, r3
 153 0026 1A46     		mov	r2, r3
 154 0028 B7F90630 		ldrsh	r3, [r7, #6]
 155 002c 03FB02F3 		mul	r3, r3, r2
 156 0030 FB60     		str	r3, [r7, #12]
 127:STM32F10x_Speex_Lib/libspeex/math_approx.h ****    return EXTRACT16(PSHR32(SUB32(res, SHR32(res, 3)),14));
 157              		.loc 1 127 0
 158 0032 FB68     		ldr	r3, [r7, #12]
 159 0034 DB10     		asrs	r3, r3, #3
 160 0036 FA68     		ldr	r2, [r7, #12]
 161 0038 D31A     		subs	r3, r2, r3
ARM GAS  /var/folders/kh/x4vltyy52lbg7p4pcyglc5080000gp/T//ccuucmVt.s 			page 6


 162 003a 03F50053 		add	r3, r3, #8192
 163 003e 9B13     		asrs	r3, r3, #14
 164 0040 1BB2     		sxth	r3, r3
 128:STM32F10x_Speex_Lib/libspeex/math_approx.h **** }
 165              		.loc 1 128 0
 166 0042 1846     		mov	r0, r3
 167 0044 1437     		adds	r7, r7, #20
 168              	.LCFI9:
 169              		.cfi_def_cfa_offset 4
 170 0046 BD46     		mov	sp, r7
 171              	.LCFI10:
 172              		.cfi_def_cfa_register 13
 173              		@ sp needed
 174 0048 80BC     		pop	{r7}
 175              	.LCFI11:
 176              		.cfi_restore 7
 177              		.cfi_def_cfa_offset 0
 178 004a 7047     		bx	lr
 179              	.L10:
 180              		.align	2
 181              	.L9:
 182 004c 0D661900 		.word	1664525
 183 0050 5FF36E3C 		.word	1013904223
 184              		.cfi_endproc
 185              	.LFE2:
 187              		.section	.text.spx_sqrt,"ax",%progbits
 188              		.align	2
 189              		.thumb
 190              		.thumb_func
 192              	spx_sqrt:
 193              	.LFB3:
 129:STM32F10x_Speex_Lib/libspeex/math_approx.h **** 
 130:STM32F10x_Speex_Lib/libspeex/math_approx.h **** /* sqrt(x) ~= 0.22178 + 1.29227*x - 0.77070*x^2 + 0.25723*x^3 (for .25 < x < 1) */
 131:STM32F10x_Speex_Lib/libspeex/math_approx.h **** /*#define C0 3634
 132:STM32F10x_Speex_Lib/libspeex/math_approx.h **** #define C1 21173
 133:STM32F10x_Speex_Lib/libspeex/math_approx.h **** #define C2 -12627
 134:STM32F10x_Speex_Lib/libspeex/math_approx.h **** #define C3 4215*/
 135:STM32F10x_Speex_Lib/libspeex/math_approx.h **** 
 136:STM32F10x_Speex_Lib/libspeex/math_approx.h **** /* sqrt(x) ~= 0.22178 + 1.29227*x - 0.77070*x^2 + 0.25659*x^3 (for .25 < x < 1) */
 137:STM32F10x_Speex_Lib/libspeex/math_approx.h **** #define C0 3634
 138:STM32F10x_Speex_Lib/libspeex/math_approx.h **** #define C1 21173
 139:STM32F10x_Speex_Lib/libspeex/math_approx.h **** #define C2 -12627
 140:STM32F10x_Speex_Lib/libspeex/math_approx.h **** #define C3 4204
 141:STM32F10x_Speex_Lib/libspeex/math_approx.h **** 
 142:STM32F10x_Speex_Lib/libspeex/math_approx.h **** static inline spx_word16_t spx_sqrt(spx_word32_t x)
 143:STM32F10x_Speex_Lib/libspeex/math_approx.h **** {
 194              		.loc 1 143 0
 195              		.cfi_startproc
 196              		@ args = 0, pretend = 0, frame = 16
 197              		@ frame_needed = 1, uses_anonymous_args = 0
 198 0000 80B5     		push	{r7, lr}
 199              	.LCFI12:
 200              		.cfi_def_cfa_offset 8
 201              		.cfi_offset 7, -8
 202              		.cfi_offset 14, -4
 203 0002 84B0     		sub	sp, sp, #16
 204              	.LCFI13:
ARM GAS  /var/folders/kh/x4vltyy52lbg7p4pcyglc5080000gp/T//ccuucmVt.s 			page 7


 205              		.cfi_def_cfa_offset 24
 206 0004 00AF     		add	r7, sp, #0
 207              	.LCFI14:
 208              		.cfi_def_cfa_register 7
 209 0006 7860     		str	r0, [r7, #4]
 144:STM32F10x_Speex_Lib/libspeex/math_approx.h ****    int k;
 145:STM32F10x_Speex_Lib/libspeex/math_approx.h ****    spx_word32_t rt;
 146:STM32F10x_Speex_Lib/libspeex/math_approx.h ****    k = spx_ilog4(x)-6;
 210              		.loc 1 146 0
 211 0008 7B68     		ldr	r3, [r7, #4]
 212 000a 1846     		mov	r0, r3
 213 000c FFF7FEFF 		bl	spx_ilog4
 214 0010 0346     		mov	r3, r0
 215 0012 063B     		subs	r3, r3, #6
 216 0014 FB60     		str	r3, [r7, #12]
 147:STM32F10x_Speex_Lib/libspeex/math_approx.h ****    x = VSHR32(x, (k<<1));
 217              		.loc 1 147 0
 218 0016 FB68     		ldr	r3, [r7, #12]
 219 0018 5B00     		lsls	r3, r3, #1
 220 001a 002B     		cmp	r3, #0
 221 001c 05DD     		ble	.L12
 222              		.loc 1 147 0 is_stmt 0 discriminator 1
 223 001e FB68     		ldr	r3, [r7, #12]
 224 0020 5B00     		lsls	r3, r3, #1
 225 0022 7A68     		ldr	r2, [r7, #4]
 226 0024 42FA03F3 		asr	r3, r2, r3
 227 0028 05E0     		b	.L13
 228              	.L12:
 229              		.loc 1 147 0 discriminator 2
 230 002a FB68     		ldr	r3, [r7, #12]
 231 002c 5B00     		lsls	r3, r3, #1
 232 002e 5B42     		negs	r3, r3
 233 0030 7A68     		ldr	r2, [r7, #4]
 234 0032 02FA03F3 		lsl	r3, r2, r3
 235              	.L13:
 236              		.loc 1 147 0 discriminator 4
 237 0036 7B60     		str	r3, [r7, #4]
 148:STM32F10x_Speex_Lib/libspeex/math_approx.h ****    rt = ADD16(C0, MULT16_16_Q14(x, ADD16(C1, MULT16_16_Q14(x, ADD16(C2, MULT16_16_Q14(x, (C3)))))))
 238              		.loc 1 148 0 is_stmt 1 discriminator 4
 239 0038 7B68     		ldr	r3, [r7, #4]
 240 003a 1BB2     		sxth	r3, r3
 241 003c 1A46     		mov	r2, r3
 242 003e 7B68     		ldr	r3, [r7, #4]
 243 0040 1BB2     		sxth	r3, r3
 244 0042 1946     		mov	r1, r3
 245 0044 7B68     		ldr	r3, [r7, #4]
 246 0046 1BB2     		sxth	r3, r3
 247 0048 1846     		mov	r0, r3
 248 004a 41F26C03 		movw	r3, #4204
 249 004e 03FB00F3 		mul	r3, r3, r0
 250 0052 9B13     		asrs	r3, r3, #14
 251 0054 9BB2     		uxth	r3, r3
 252 0056 A3F54553 		sub	r3, r3, #12608
 253 005a 133B     		subs	r3, r3, #19
 254 005c 9BB2     		uxth	r3, r3
 255 005e 1BB2     		sxth	r3, r3
 256 0060 03FB01F3 		mul	r3, r3, r1
ARM GAS  /var/folders/kh/x4vltyy52lbg7p4pcyglc5080000gp/T//ccuucmVt.s 			page 8


 257 0064 9B13     		asrs	r3, r3, #14
 258 0066 9BB2     		uxth	r3, r3
 259 0068 03F5A543 		add	r3, r3, #21120
 260 006c 3533     		adds	r3, r3, #53
 261 006e 9BB2     		uxth	r3, r3
 262 0070 1BB2     		sxth	r3, r3
 263 0072 03FB02F3 		mul	r3, r3, r2
 264 0076 9B13     		asrs	r3, r3, #14
 265 0078 9BB2     		uxth	r3, r3
 266 007a 03F63263 		addw	r3, r3, #3634
 267 007e 9BB2     		uxth	r3, r3
 268 0080 1BB2     		sxth	r3, r3
 269 0082 BB60     		str	r3, [r7, #8]
 149:STM32F10x_Speex_Lib/libspeex/math_approx.h ****    rt = VSHR32(rt,7-k);
 270              		.loc 1 149 0 discriminator 4
 271 0084 FB68     		ldr	r3, [r7, #12]
 272 0086 C3F10703 		rsb	r3, r3, #7
 273 008a 002B     		cmp	r3, #0
 274 008c 06DD     		ble	.L14
 275              		.loc 1 149 0 is_stmt 0 discriminator 1
 276 008e FB68     		ldr	r3, [r7, #12]
 277 0090 C3F10703 		rsb	r3, r3, #7
 278 0094 BA68     		ldr	r2, [r7, #8]
 279 0096 42FA03F3 		asr	r3, r2, r3
 280 009a 04E0     		b	.L15
 281              	.L14:
 282              		.loc 1 149 0 discriminator 2
 283 009c FB68     		ldr	r3, [r7, #12]
 284 009e 073B     		subs	r3, r3, #7
 285 00a0 BA68     		ldr	r2, [r7, #8]
 286 00a2 02FA03F3 		lsl	r3, r2, r3
 287              	.L15:
 288              		.loc 1 149 0 discriminator 4
 289 00a6 BB60     		str	r3, [r7, #8]
 150:STM32F10x_Speex_Lib/libspeex/math_approx.h ****    return rt;
 290              		.loc 1 150 0 is_stmt 1 discriminator 4
 291 00a8 BB68     		ldr	r3, [r7, #8]
 292 00aa 1BB2     		sxth	r3, r3
 151:STM32F10x_Speex_Lib/libspeex/math_approx.h **** }
 293              		.loc 1 151 0 discriminator 4
 294 00ac 1846     		mov	r0, r3
 295 00ae 1037     		adds	r7, r7, #16
 296              	.LCFI15:
 297              		.cfi_def_cfa_offset 8
 298 00b0 BD46     		mov	sp, r7
 299              	.LCFI16:
 300              		.cfi_def_cfa_register 13
 301              		@ sp needed
 302 00b2 80BD     		pop	{r7, pc}
 303              		.cfi_endproc
 304              	.LFE3:
 306              		.section	.text.speex_alloc,"ax",%progbits
 307              		.align	2
 308              		.thumb
 309              		.thumb_func
 311              	speex_alloc:
 312              	.LFB13:
ARM GAS  /var/folders/kh/x4vltyy52lbg7p4pcyglc5080000gp/T//ccuucmVt.s 			page 9


 313              		.file 2 "STM32F10x_Speex_Lib/libspeex/os_support.h"
   1:STM32F10x_Speex_Lib/libspeex/os_support.h **** /* Copyright (C) 2007 Jean-Marc Valin
   2:STM32F10x_Speex_Lib/libspeex/os_support.h ****       
   3:STM32F10x_Speex_Lib/libspeex/os_support.h ****    File: os_support.h
   4:STM32F10x_Speex_Lib/libspeex/os_support.h ****    This is the (tiny) OS abstraction layer. Aside from math.h, this is the
   5:STM32F10x_Speex_Lib/libspeex/os_support.h ****    only place where system headers are allowed.
   6:STM32F10x_Speex_Lib/libspeex/os_support.h **** 
   7:STM32F10x_Speex_Lib/libspeex/os_support.h ****    Redistribution and use in source and binary forms, with or without
   8:STM32F10x_Speex_Lib/libspeex/os_support.h ****    modification, are permitted provided that the following conditions are
   9:STM32F10x_Speex_Lib/libspeex/os_support.h ****    met:
  10:STM32F10x_Speex_Lib/libspeex/os_support.h **** 
  11:STM32F10x_Speex_Lib/libspeex/os_support.h ****    1. Redistributions of source code must retain the above copyright notice,
  12:STM32F10x_Speex_Lib/libspeex/os_support.h ****    this list of conditions and the following disclaimer.
  13:STM32F10x_Speex_Lib/libspeex/os_support.h **** 
  14:STM32F10x_Speex_Lib/libspeex/os_support.h ****    2. Redistributions in binary form must reproduce the above copyright
  15:STM32F10x_Speex_Lib/libspeex/os_support.h ****    notice, this list of conditions and the following disclaimer in the
  16:STM32F10x_Speex_Lib/libspeex/os_support.h ****    documentation and/or other materials provided with the distribution.
  17:STM32F10x_Speex_Lib/libspeex/os_support.h **** 
  18:STM32F10x_Speex_Lib/libspeex/os_support.h ****    3. The name of the author may not be used to endorse or promote products
  19:STM32F10x_Speex_Lib/libspeex/os_support.h ****    derived from this software without specific prior written permission.
  20:STM32F10x_Speex_Lib/libspeex/os_support.h **** 
  21:STM32F10x_Speex_Lib/libspeex/os_support.h ****    THIS SOFTWARE IS PROVIDED BY THE AUTHOR ``AS IS'' AND ANY EXPRESS OR
  22:STM32F10x_Speex_Lib/libspeex/os_support.h ****    IMPLIED WARRANTIES, INCLUDING, BUT NOT LIMITED TO, THE IMPLIED WARRANTIES
  23:STM32F10x_Speex_Lib/libspeex/os_support.h ****    OF MERCHANTABILITY AND FITNESS FOR A PARTICULAR PURPOSE ARE
  24:STM32F10x_Speex_Lib/libspeex/os_support.h ****    DISCLAIMED. IN NO EVENT SHALL THE AUTHOR BE LIABLE FOR ANY DIRECT,
  25:STM32F10x_Speex_Lib/libspeex/os_support.h ****    INDIRECT, INCIDENTAL, SPECIAL, EXEMPLARY, OR CONSEQUENTIAL DAMAGES
  26:STM32F10x_Speex_Lib/libspeex/os_support.h ****    (INCLUDING, BUT NOT LIMITED TO, PROCUREMENT OF SUBSTITUTE GOODS OR
  27:STM32F10x_Speex_Lib/libspeex/os_support.h ****    SERVICES; LOSS OF USE, DATA, OR PROFITS; OR BUSINESS INTERRUPTION)
  28:STM32F10x_Speex_Lib/libspeex/os_support.h ****    HOWEVER CAUSED AND ON ANY THEORY OF LIABILITY, WHETHER IN CONTRACT,
  29:STM32F10x_Speex_Lib/libspeex/os_support.h ****    STRICT LIABILITY, OR TORT (INCLUDING NEGLIGENCE OR OTHERWISE) ARISING IN
  30:STM32F10x_Speex_Lib/libspeex/os_support.h ****    ANY WAY OUT OF THE USE OF THIS SOFTWARE, EVEN IF ADVISED OF THE
  31:STM32F10x_Speex_Lib/libspeex/os_support.h ****    POSSIBILITY OF SUCH DAMAGE.
  32:STM32F10x_Speex_Lib/libspeex/os_support.h **** */
  33:STM32F10x_Speex_Lib/libspeex/os_support.h **** 
  34:STM32F10x_Speex_Lib/libspeex/os_support.h **** #ifndef OS_SUPPORT_H
  35:STM32F10x_Speex_Lib/libspeex/os_support.h **** #define OS_SUPPORT_H
  36:STM32F10x_Speex_Lib/libspeex/os_support.h **** 
  37:STM32F10x_Speex_Lib/libspeex/os_support.h **** #include <string.h>
  38:STM32F10x_Speex_Lib/libspeex/os_support.h **** #include <stdio.h>
  39:STM32F10x_Speex_Lib/libspeex/os_support.h **** #include <stdlib.h>
  40:STM32F10x_Speex_Lib/libspeex/os_support.h **** 
  41:STM32F10x_Speex_Lib/libspeex/os_support.h **** // #ifdef HAVE_CONFIG_H
  42:STM32F10x_Speex_Lib/libspeex/os_support.h **** #include "config.h"
  43:STM32F10x_Speex_Lib/libspeex/os_support.h **** // #endif
  44:STM32F10x_Speex_Lib/libspeex/os_support.h **** #ifdef OS_SUPPORT_CUSTOM
  45:STM32F10x_Speex_Lib/libspeex/os_support.h **** #include "os_support_custom.h"
  46:STM32F10x_Speex_Lib/libspeex/os_support.h **** #endif
  47:STM32F10x_Speex_Lib/libspeex/os_support.h **** 
  48:STM32F10x_Speex_Lib/libspeex/os_support.h **** /** Speex wrapper for calloc. To do your own dynamic allocation, all you need to do is replace this
  49:STM32F10x_Speex_Lib/libspeex/os_support.h ****     NOTE: speex_alloc needs to CLEAR THE MEMORY */
  50:STM32F10x_Speex_Lib/libspeex/os_support.h **** #ifndef OVERRIDE_SPEEX_ALLOC
  51:STM32F10x_Speex_Lib/libspeex/os_support.h **** static inline void *speex_alloc (int size)
  52:STM32F10x_Speex_Lib/libspeex/os_support.h **** {
 314              		.loc 2 52 0
 315              		.cfi_startproc
 316              		@ args = 0, pretend = 0, frame = 8
 317              		@ frame_needed = 1, uses_anonymous_args = 0
ARM GAS  /var/folders/kh/x4vltyy52lbg7p4pcyglc5080000gp/T//ccuucmVt.s 			page 10


 318 0000 80B5     		push	{r7, lr}
 319              	.LCFI17:
 320              		.cfi_def_cfa_offset 8
 321              		.cfi_offset 7, -8
 322              		.cfi_offset 14, -4
 323 0002 82B0     		sub	sp, sp, #8
 324              	.LCFI18:
 325              		.cfi_def_cfa_offset 16
 326 0004 00AF     		add	r7, sp, #0
 327              	.LCFI19:
 328              		.cfi_def_cfa_register 7
 329 0006 7860     		str	r0, [r7, #4]
  53:STM32F10x_Speex_Lib/libspeex/os_support.h ****    /* WARNING: this is not equivalent to malloc(). If you want to use malloc() 
  54:STM32F10x_Speex_Lib/libspeex/os_support.h ****       or your own allocator, YOU NEED TO CLEAR THE MEMORY ALLOCATED. Otherwise
  55:STM32F10x_Speex_Lib/libspeex/os_support.h ****       you will experience strange bugs */
  56:STM32F10x_Speex_Lib/libspeex/os_support.h ****    return calloc(size,1);
 330              		.loc 2 56 0
 331 0008 7B68     		ldr	r3, [r7, #4]
 332 000a 0121     		movs	r1, #1
 333 000c 1846     		mov	r0, r3
 334 000e FFF7FEFF 		bl	calloc
 335 0012 0346     		mov	r3, r0
  57:STM32F10x_Speex_Lib/libspeex/os_support.h **** }
 336              		.loc 2 57 0
 337 0014 1846     		mov	r0, r3
 338 0016 0837     		adds	r7, r7, #8
 339              	.LCFI20:
 340              		.cfi_def_cfa_offset 8
 341 0018 BD46     		mov	sp, r7
 342              	.LCFI21:
 343              		.cfi_def_cfa_register 13
 344              		@ sp needed
 345 001a 80BD     		pop	{r7, pc}
 346              		.cfi_endproc
 347              	.LFE13:
 349              		.section	.text.speex_alloc_scratch,"ax",%progbits
 350              		.align	2
 351              		.thumb
 352              		.thumb_func
 354              	speex_alloc_scratch:
 355              	.LFB14:
  58:STM32F10x_Speex_Lib/libspeex/os_support.h **** #endif
  59:STM32F10x_Speex_Lib/libspeex/os_support.h **** 
  60:STM32F10x_Speex_Lib/libspeex/os_support.h **** /** Same as speex_alloc, except that the area is only needed inside a Speex call (might cause probl
  61:STM32F10x_Speex_Lib/libspeex/os_support.h **** #ifndef OVERRIDE_SPEEX_ALLOC_SCRATCH
  62:STM32F10x_Speex_Lib/libspeex/os_support.h **** static inline void *speex_alloc_scratch (int size)
  63:STM32F10x_Speex_Lib/libspeex/os_support.h **** {
 356              		.loc 2 63 0
 357              		.cfi_startproc
 358              		@ args = 0, pretend = 0, frame = 8
 359              		@ frame_needed = 1, uses_anonymous_args = 0
 360 0000 80B5     		push	{r7, lr}
 361              	.LCFI22:
 362              		.cfi_def_cfa_offset 8
 363              		.cfi_offset 7, -8
 364              		.cfi_offset 14, -4
 365 0002 82B0     		sub	sp, sp, #8
ARM GAS  /var/folders/kh/x4vltyy52lbg7p4pcyglc5080000gp/T//ccuucmVt.s 			page 11


 366              	.LCFI23:
 367              		.cfi_def_cfa_offset 16
 368 0004 00AF     		add	r7, sp, #0
 369              	.LCFI24:
 370              		.cfi_def_cfa_register 7
 371 0006 7860     		str	r0, [r7, #4]
  64:STM32F10x_Speex_Lib/libspeex/os_support.h ****    /* Scratch space doesn't need to be cleared */
  65:STM32F10x_Speex_Lib/libspeex/os_support.h ****    return calloc(size,1);
 372              		.loc 2 65 0
 373 0008 7B68     		ldr	r3, [r7, #4]
 374 000a 0121     		movs	r1, #1
 375 000c 1846     		mov	r0, r3
 376 000e FFF7FEFF 		bl	calloc
 377 0012 0346     		mov	r3, r0
  66:STM32F10x_Speex_Lib/libspeex/os_support.h **** }
 378              		.loc 2 66 0
 379 0014 1846     		mov	r0, r3
 380 0016 0837     		adds	r7, r7, #8
 381              	.LCFI25:
 382              		.cfi_def_cfa_offset 8
 383 0018 BD46     		mov	sp, r7
 384              	.LCFI26:
 385              		.cfi_def_cfa_register 13
 386              		@ sp needed
 387 001a 80BD     		pop	{r7, pc}
 388              		.cfi_endproc
 389              	.LFE14:
 391              		.section	.text.speex_free,"ax",%progbits
 392              		.align	2
 393              		.thumb
 394              		.thumb_func
 396              	speex_free:
 397              	.LFB16:
  67:STM32F10x_Speex_Lib/libspeex/os_support.h **** #endif
  68:STM32F10x_Speex_Lib/libspeex/os_support.h **** 
  69:STM32F10x_Speex_Lib/libspeex/os_support.h **** /** Speex wrapper for realloc. To do your own dynamic allocation, all you need to do is replace thi
  70:STM32F10x_Speex_Lib/libspeex/os_support.h **** #ifndef OVERRIDE_SPEEX_REALLOC
  71:STM32F10x_Speex_Lib/libspeex/os_support.h **** static inline void *speex_realloc (void *ptr, int size)
  72:STM32F10x_Speex_Lib/libspeex/os_support.h **** {
  73:STM32F10x_Speex_Lib/libspeex/os_support.h ****    return realloc(ptr, size);
  74:STM32F10x_Speex_Lib/libspeex/os_support.h **** }
  75:STM32F10x_Speex_Lib/libspeex/os_support.h **** #endif
  76:STM32F10x_Speex_Lib/libspeex/os_support.h **** 
  77:STM32F10x_Speex_Lib/libspeex/os_support.h **** /** Speex wrapper for calloc. To do your own dynamic allocation, all you need to do is replace this
  78:STM32F10x_Speex_Lib/libspeex/os_support.h **** #ifndef OVERRIDE_SPEEX_FREE
  79:STM32F10x_Speex_Lib/libspeex/os_support.h **** static inline void speex_free (void *ptr)
  80:STM32F10x_Speex_Lib/libspeex/os_support.h **** {
 398              		.loc 2 80 0
 399              		.cfi_startproc
 400              		@ args = 0, pretend = 0, frame = 8
 401              		@ frame_needed = 1, uses_anonymous_args = 0
 402 0000 80B5     		push	{r7, lr}
 403              	.LCFI27:
 404              		.cfi_def_cfa_offset 8
 405              		.cfi_offset 7, -8
 406              		.cfi_offset 14, -4
 407 0002 82B0     		sub	sp, sp, #8
ARM GAS  /var/folders/kh/x4vltyy52lbg7p4pcyglc5080000gp/T//ccuucmVt.s 			page 12


 408              	.LCFI28:
 409              		.cfi_def_cfa_offset 16
 410 0004 00AF     		add	r7, sp, #0
 411              	.LCFI29:
 412              		.cfi_def_cfa_register 7
 413 0006 7860     		str	r0, [r7, #4]
  81:STM32F10x_Speex_Lib/libspeex/os_support.h ****    free(ptr);
 414              		.loc 2 81 0
 415 0008 7868     		ldr	r0, [r7, #4]
 416 000a FFF7FEFF 		bl	free
  82:STM32F10x_Speex_Lib/libspeex/os_support.h **** }
 417              		.loc 2 82 0
 418 000e 00BF     		nop
 419 0010 0837     		adds	r7, r7, #8
 420              	.LCFI30:
 421              		.cfi_def_cfa_offset 8
 422 0012 BD46     		mov	sp, r7
 423              	.LCFI31:
 424              		.cfi_def_cfa_register 13
 425              		@ sp needed
 426 0014 80BD     		pop	{r7, pc}
 427              		.cfi_endproc
 428              	.LFE16:
 430 0016 00BF     		.section	.text.speex_free_scratch,"ax",%progbits
 431              		.align	2
 432              		.thumb
 433              		.thumb_func
 435              	speex_free_scratch:
 436              	.LFB17:
  83:STM32F10x_Speex_Lib/libspeex/os_support.h **** #endif
  84:STM32F10x_Speex_Lib/libspeex/os_support.h **** 
  85:STM32F10x_Speex_Lib/libspeex/os_support.h **** /** Same as speex_free, except that the area is only needed inside a Speex call (might cause proble
  86:STM32F10x_Speex_Lib/libspeex/os_support.h **** #ifndef OVERRIDE_SPEEX_FREE_SCRATCH
  87:STM32F10x_Speex_Lib/libspeex/os_support.h **** static inline void speex_free_scratch (void *ptr)
  88:STM32F10x_Speex_Lib/libspeex/os_support.h **** {
 437              		.loc 2 88 0
 438              		.cfi_startproc
 439              		@ args = 0, pretend = 0, frame = 8
 440              		@ frame_needed = 1, uses_anonymous_args = 0
 441 0000 80B5     		push	{r7, lr}
 442              	.LCFI32:
 443              		.cfi_def_cfa_offset 8
 444              		.cfi_offset 7, -8
 445              		.cfi_offset 14, -4
 446 0002 82B0     		sub	sp, sp, #8
 447              	.LCFI33:
 448              		.cfi_def_cfa_offset 16
 449 0004 00AF     		add	r7, sp, #0
 450              	.LCFI34:
 451              		.cfi_def_cfa_register 7
 452 0006 7860     		str	r0, [r7, #4]
  89:STM32F10x_Speex_Lib/libspeex/os_support.h ****    free(ptr);
 453              		.loc 2 89 0
 454 0008 7868     		ldr	r0, [r7, #4]
 455 000a FFF7FEFF 		bl	free
  90:STM32F10x_Speex_Lib/libspeex/os_support.h **** }
 456              		.loc 2 90 0
ARM GAS  /var/folders/kh/x4vltyy52lbg7p4pcyglc5080000gp/T//ccuucmVt.s 			page 13


 457 000e 00BF     		nop
 458 0010 0837     		adds	r7, r7, #8
 459              	.LCFI35:
 460              		.cfi_def_cfa_offset 8
 461 0012 BD46     		mov	sp, r7
 462              	.LCFI36:
 463              		.cfi_def_cfa_register 13
 464              		@ sp needed
 465 0014 80BD     		pop	{r7, pc}
 466              		.cfi_endproc
 467              	.LFE17:
 469 0016 00BF     		.section	.text.speex_warning_int,"ax",%progbits
 470              		.align	2
 471              		.thumb
 472              		.thumb_func
 474              	speex_warning_int:
 475              	.LFB19:
  91:STM32F10x_Speex_Lib/libspeex/os_support.h **** #endif
  92:STM32F10x_Speex_Lib/libspeex/os_support.h **** 
  93:STM32F10x_Speex_Lib/libspeex/os_support.h **** /** Copy n bytes of memory from src to dst. The 0* term provides compile-time type checking  */
  94:STM32F10x_Speex_Lib/libspeex/os_support.h **** #ifndef OVERRIDE_SPEEX_COPY
  95:STM32F10x_Speex_Lib/libspeex/os_support.h **** #define SPEEX_COPY(dst, src, n) (memcpy((dst), (src), (n)*sizeof(*(dst)) + 0*((dst)-(src)) ))
  96:STM32F10x_Speex_Lib/libspeex/os_support.h **** #endif
  97:STM32F10x_Speex_Lib/libspeex/os_support.h **** 
  98:STM32F10x_Speex_Lib/libspeex/os_support.h **** /** Copy n bytes of memory from src to dst, allowing overlapping regions. The 0* term 
  99:STM32F10x_Speex_Lib/libspeex/os_support.h ****     provides compile-time type checking */
 100:STM32F10x_Speex_Lib/libspeex/os_support.h **** #ifndef OVERRIDE_SPEEX_MOVE
 101:STM32F10x_Speex_Lib/libspeex/os_support.h **** #define SPEEX_MOVE(dst, src, n) (memmove((dst), (src), (n)*sizeof(*(dst)) + 0*((dst)-(src)) ))
 102:STM32F10x_Speex_Lib/libspeex/os_support.h **** #endif
 103:STM32F10x_Speex_Lib/libspeex/os_support.h **** 
 104:STM32F10x_Speex_Lib/libspeex/os_support.h **** /** Set n bytes of memory to value of c, starting at address s */
 105:STM32F10x_Speex_Lib/libspeex/os_support.h **** #ifndef OVERRIDE_SPEEX_MEMSET
 106:STM32F10x_Speex_Lib/libspeex/os_support.h **** #define SPEEX_MEMSET(dst, c, n) (memset((dst), (c), (n)*sizeof(*(dst))))
 107:STM32F10x_Speex_Lib/libspeex/os_support.h **** #endif
 108:STM32F10x_Speex_Lib/libspeex/os_support.h **** 
 109:STM32F10x_Speex_Lib/libspeex/os_support.h **** 
 110:STM32F10x_Speex_Lib/libspeex/os_support.h **** #ifndef OVERRIDE_SPEEX_FATAL
 111:STM32F10x_Speex_Lib/libspeex/os_support.h **** static inline void _speex_fatal(const char *str, const char *file, int line)
 112:STM32F10x_Speex_Lib/libspeex/os_support.h **** {
 113:STM32F10x_Speex_Lib/libspeex/os_support.h ****    fprintf (stderr, "Fatal (internal) error in %s, line %d: %s\n", file, line, str);
 114:STM32F10x_Speex_Lib/libspeex/os_support.h ****    exit(1);
 115:STM32F10x_Speex_Lib/libspeex/os_support.h **** }
 116:STM32F10x_Speex_Lib/libspeex/os_support.h **** #endif
 117:STM32F10x_Speex_Lib/libspeex/os_support.h **** 
 118:STM32F10x_Speex_Lib/libspeex/os_support.h **** #ifndef OVERRIDE_SPEEX_WARNING
 119:STM32F10x_Speex_Lib/libspeex/os_support.h **** static inline void speex_warning(const char *str)
 120:STM32F10x_Speex_Lib/libspeex/os_support.h **** {
 121:STM32F10x_Speex_Lib/libspeex/os_support.h **** #ifndef DISABLE_WARNINGS
 122:STM32F10x_Speex_Lib/libspeex/os_support.h ****    fprintf (stderr, "warning: %s\n", str);
 123:STM32F10x_Speex_Lib/libspeex/os_support.h **** #endif
 124:STM32F10x_Speex_Lib/libspeex/os_support.h **** }
 125:STM32F10x_Speex_Lib/libspeex/os_support.h **** #endif
 126:STM32F10x_Speex_Lib/libspeex/os_support.h **** 
 127:STM32F10x_Speex_Lib/libspeex/os_support.h **** #ifndef OVERRIDE_SPEEX_WARNING_INT
 128:STM32F10x_Speex_Lib/libspeex/os_support.h **** static inline void speex_warning_int(const char *str, int val)
 129:STM32F10x_Speex_Lib/libspeex/os_support.h **** {
 476              		.loc 2 129 0
ARM GAS  /var/folders/kh/x4vltyy52lbg7p4pcyglc5080000gp/T//ccuucmVt.s 			page 14


 477              		.cfi_startproc
 478              		@ args = 0, pretend = 0, frame = 8
 479              		@ frame_needed = 1, uses_anonymous_args = 0
 480              		@ link register save eliminated.
 481 0000 80B4     		push	{r7}
 482              	.LCFI37:
 483              		.cfi_def_cfa_offset 4
 484              		.cfi_offset 7, -4
 485 0002 83B0     		sub	sp, sp, #12
 486              	.LCFI38:
 487              		.cfi_def_cfa_offset 16
 488 0004 00AF     		add	r7, sp, #0
 489              	.LCFI39:
 490              		.cfi_def_cfa_register 7
 491 0006 7860     		str	r0, [r7, #4]
 492 0008 3960     		str	r1, [r7]
 130:STM32F10x_Speex_Lib/libspeex/os_support.h **** #ifndef DISABLE_WARNINGS
 131:STM32F10x_Speex_Lib/libspeex/os_support.h ****    fprintf (stderr, "warning: %s %d\n", str, val);
 132:STM32F10x_Speex_Lib/libspeex/os_support.h **** #endif
 133:STM32F10x_Speex_Lib/libspeex/os_support.h **** }
 493              		.loc 2 133 0
 494 000a 00BF     		nop
 495 000c 0C37     		adds	r7, r7, #12
 496              	.LCFI40:
 497              		.cfi_def_cfa_offset 4
 498 000e BD46     		mov	sp, r7
 499              	.LCFI41:
 500              		.cfi_def_cfa_register 13
 501              		@ sp needed
 502 0010 80BC     		pop	{r7}
 503              	.LCFI42:
 504              		.cfi_restore 7
 505              		.cfi_def_cfa_offset 0
 506 0012 7047     		bx	lr
 507              		.cfi_endproc
 508              	.LFE19:
 510              		.section	.text.speex_notify,"ax",%progbits
 511              		.align	2
 512              		.thumb
 513              		.thumb_func
 515              	speex_notify:
 516              	.LFB20:
 134:STM32F10x_Speex_Lib/libspeex/os_support.h **** #endif
 135:STM32F10x_Speex_Lib/libspeex/os_support.h **** 
 136:STM32F10x_Speex_Lib/libspeex/os_support.h **** #ifndef OVERRIDE_SPEEX_NOTIFY
 137:STM32F10x_Speex_Lib/libspeex/os_support.h **** static inline void speex_notify(const char *str)
 138:STM32F10x_Speex_Lib/libspeex/os_support.h **** {
 517              		.loc 2 138 0
 518              		.cfi_startproc
 519              		@ args = 0, pretend = 0, frame = 8
 520              		@ frame_needed = 1, uses_anonymous_args = 0
 521              		@ link register save eliminated.
 522 0000 80B4     		push	{r7}
 523              	.LCFI43:
 524              		.cfi_def_cfa_offset 4
 525              		.cfi_offset 7, -4
 526 0002 83B0     		sub	sp, sp, #12
ARM GAS  /var/folders/kh/x4vltyy52lbg7p4pcyglc5080000gp/T//ccuucmVt.s 			page 15


 527              	.LCFI44:
 528              		.cfi_def_cfa_offset 16
 529 0004 00AF     		add	r7, sp, #0
 530              	.LCFI45:
 531              		.cfi_def_cfa_register 7
 532 0006 7860     		str	r0, [r7, #4]
 139:STM32F10x_Speex_Lib/libspeex/os_support.h **** #ifndef DISABLE_NOTIFICATIONS
 140:STM32F10x_Speex_Lib/libspeex/os_support.h ****    fprintf (stderr, "notification: %s\n", str);
 141:STM32F10x_Speex_Lib/libspeex/os_support.h **** #endif
 142:STM32F10x_Speex_Lib/libspeex/os_support.h **** }
 533              		.loc 2 142 0
 534 0008 00BF     		nop
 535 000a 0C37     		adds	r7, r7, #12
 536              	.LCFI46:
 537              		.cfi_def_cfa_offset 4
 538 000c BD46     		mov	sp, r7
 539              	.LCFI47:
 540              		.cfi_def_cfa_register 13
 541              		@ sp needed
 542 000e 80BC     		pop	{r7}
 543              	.LCFI48:
 544              		.cfi_restore 7
 545              		.cfi_def_cfa_offset 0
 546 0010 7047     		bx	lr
 547              		.cfi_endproc
 548              	.LFE20:
 550              		.global	ol_gain_table
 551 0012 00BF     		.section	.rodata.ol_gain_table,"a",%progbits
 552              		.align	2
 555              	ol_gain_table:
 556 0000 D4490000 		.word	18900
 557 0004 3E620000 		.word	25150
 558 0008 BC820000 		.word	33468
 559 000c F8AD0000 		.word	44536
 560 0010 81E70000 		.word	59265
 561 0014 11340100 		.word	78865
 562 0018 F2990100 		.word	104946
 563 001c 85210200 		.word	139653
 564 0020 EED50200 		.word	185838
 565 0024 01C60300 		.word	247297
 566 0028 79050500 		.word	329081
 567 002c 99AE0600 		.word	437913
 568 0030 50E40800 		.word	582736
 569 0034 1ED50B00 		.word	775454
 570 0038 E2BE0F00 		.word	1031906
 571 003c F1F31400 		.word	1373169
 572 0040 DDE11B00 		.word	1827293
 573 0044 711A2500 		.word	2431601
 574 0048 B15F3100 		.word	3235761
 575 004c CBB34100 		.word	4305867
 576 0050 4E6E5700 		.word	5729870
 577 0054 68587400 		.word	7624808
 578 0058 79D29A00 		.word	10146425
 579 005c 1306CE00 		.word	13501971
 580 0060 86281201 		.word	17967238
 581 0064 66D36C01 		.word	23909222
 582 0068 667AE501 		.word	31816294
ARM GAS  /var/folders/kh/x4vltyy52lbg7p4pcyglc5080000gp/T//ccuucmVt.s 			page 16


 583 006c 1A088602 		.word	42338330
 584 0070 A4AE5B03 		.word	56340132
 585 0074 55FD7704 		.word	74972501
 586 0078 2652F205 		.word	99766822
 587 007c 5FC5E907 		.word	132760927
 588              		.global	exc_gain_quant_scal3_bound
 589              		.section	.rodata.exc_gain_quant_scal3_bound,"a",%progbits
 590              		.align	2
 593              	exc_gain_quant_scal3_bound:
 594 0000 3107     		.short	1841
 595 0002 2B0F     		.short	3883
 596 0004 A317     		.short	6051
 597 0006 7E1F     		.short	8062
 598 0008 CC28     		.short	10444
 599 000a 0C35     		.short	13580
 600 000c 8048     		.short	18560
 601              		.global	exc_gain_quant_scal3
 602              		.section	.rodata.exc_gain_quant_scal3,"a",%progbits
 603              		.align	2
 606              	exc_gain_quant_scal3:
 607 0000 EA03     		.short	1002
 608 0002 780A     		.short	2680
 609 0004 DE13     		.short	5086
 610 0006 681B     		.short	7016
 611 0008 9423     		.short	9108
 612 000a 052E     		.short	11781
 613 000c 143C     		.short	15380
 614 000e EC54     		.short	21740
 615              		.global	exc_gain_quant_scal1_bound
 616              		.section	.rodata.exc_gain_quant_scal1_bound,"a",%progbits
 617              		.align	2
 620              	exc_gain_quant_scal1_bound:
 621 0000 3138     		.short	14385
 622              		.global	exc_gain_quant_scal1
 623              		.section	.rodata.exc_gain_quant_scal1,"a",%progbits
 624              		.align	2
 627              	exc_gain_quant_scal1:
 628 0000 1A2D     		.short	11546
 629 0002 4843     		.short	17224
 630              		.section	.text.nb_encoder_init,"ax",%progbits
 631              		.align	2
 632              		.global	nb_encoder_init
 633              		.thumb
 634              		.thumb_func
 636              	nb_encoder_init:
 637              	.LFB21:
 638              		.file 3 "STM32F10x_Speex_Lib/STM32/libspeex/nb_celp.c"
   1:STM32F10x_Speex_Lib/STM32/libspeex/nb_celp.c **** /* Copyright (C) 2002-2006 Jean-Marc Valin 
   2:STM32F10x_Speex_Lib/STM32/libspeex/nb_celp.c ****    File: nb_celp.c
   3:STM32F10x_Speex_Lib/STM32/libspeex/nb_celp.c **** 
   4:STM32F10x_Speex_Lib/STM32/libspeex/nb_celp.c ****    Redistribution and use in source and binary forms, with or without
   5:STM32F10x_Speex_Lib/STM32/libspeex/nb_celp.c ****    modification, are permitted provided that the following conditions
   6:STM32F10x_Speex_Lib/STM32/libspeex/nb_celp.c ****    are met:
   7:STM32F10x_Speex_Lib/STM32/libspeex/nb_celp.c ****    
   8:STM32F10x_Speex_Lib/STM32/libspeex/nb_celp.c ****    - Redistributions of source code must retain the above copyright
   9:STM32F10x_Speex_Lib/STM32/libspeex/nb_celp.c ****    notice, this list of conditions and the following disclaimer.
  10:STM32F10x_Speex_Lib/STM32/libspeex/nb_celp.c ****    
ARM GAS  /var/folders/kh/x4vltyy52lbg7p4pcyglc5080000gp/T//ccuucmVt.s 			page 17


  11:STM32F10x_Speex_Lib/STM32/libspeex/nb_celp.c ****    - Redistributions in binary form must reproduce the above copyright
  12:STM32F10x_Speex_Lib/STM32/libspeex/nb_celp.c ****    notice, this list of conditions and the following disclaimer in the
  13:STM32F10x_Speex_Lib/STM32/libspeex/nb_celp.c ****    documentation and/or other materials provided with the distribution.
  14:STM32F10x_Speex_Lib/STM32/libspeex/nb_celp.c ****    
  15:STM32F10x_Speex_Lib/STM32/libspeex/nb_celp.c ****    - Neither the name of the Xiph.org Foundation nor the names of its
  16:STM32F10x_Speex_Lib/STM32/libspeex/nb_celp.c ****    contributors may be used to endorse or promote products derived from
  17:STM32F10x_Speex_Lib/STM32/libspeex/nb_celp.c ****    this software without specific prior written permission.
  18:STM32F10x_Speex_Lib/STM32/libspeex/nb_celp.c ****    
  19:STM32F10x_Speex_Lib/STM32/libspeex/nb_celp.c ****    THIS SOFTWARE IS PROVIDED BY THE COPYRIGHT HOLDERS AND CONTRIBUTORS
  20:STM32F10x_Speex_Lib/STM32/libspeex/nb_celp.c ****    ``AS IS'' AND ANY EXPRESS OR IMPLIED WARRANTIES, INCLUDING, BUT NOT
  21:STM32F10x_Speex_Lib/STM32/libspeex/nb_celp.c ****    LIMITED TO, THE IMPLIED WARRANTIES OF MERCHANTABILITY AND FITNESS FOR
  22:STM32F10x_Speex_Lib/STM32/libspeex/nb_celp.c ****    A PARTICULAR PURPOSE ARE DISCLAIMED.  IN NO EVENT SHALL THE FOUNDATION OR
  23:STM32F10x_Speex_Lib/STM32/libspeex/nb_celp.c ****    CONTRIBUTORS BE LIABLE FOR ANY DIRECT, INDIRECT, INCIDENTAL, SPECIAL,
  24:STM32F10x_Speex_Lib/STM32/libspeex/nb_celp.c ****    EXEMPLARY, OR CONSEQUENTIAL DAMAGES (INCLUDING, BUT NOT LIMITED TO,
  25:STM32F10x_Speex_Lib/STM32/libspeex/nb_celp.c ****    PROCUREMENT OF SUBSTITUTE GOODS OR SERVICES; LOSS OF USE, DATA, OR
  26:STM32F10x_Speex_Lib/STM32/libspeex/nb_celp.c ****    PROFITS; OR BUSINESS INTERRUPTION) HOWEVER CAUSED AND ON ANY THEORY OF
  27:STM32F10x_Speex_Lib/STM32/libspeex/nb_celp.c ****    LIABILITY, WHETHER IN CONTRACT, STRICT LIABILITY, OR TORT (INCLUDING
  28:STM32F10x_Speex_Lib/STM32/libspeex/nb_celp.c ****    NEGLIGENCE OR OTHERWISE) ARISING IN ANY WAY OUT OF THE USE OF THIS
  29:STM32F10x_Speex_Lib/STM32/libspeex/nb_celp.c ****    SOFTWARE, EVEN IF ADVISED OF THE POSSIBILITY OF SUCH DAMAGE.
  30:STM32F10x_Speex_Lib/STM32/libspeex/nb_celp.c **** */
  31:STM32F10x_Speex_Lib/STM32/libspeex/nb_celp.c **** 
  32:STM32F10x_Speex_Lib/STM32/libspeex/nb_celp.c **** // #ifdef HAVE_CONFIG_H
  33:STM32F10x_Speex_Lib/STM32/libspeex/nb_celp.c **** #include "config.h"
  34:STM32F10x_Speex_Lib/STM32/libspeex/nb_celp.c **** // #endif
  35:STM32F10x_Speex_Lib/STM32/libspeex/nb_celp.c **** 
  36:STM32F10x_Speex_Lib/STM32/libspeex/nb_celp.c **** #include <math.h>
  37:STM32F10x_Speex_Lib/STM32/libspeex/nb_celp.c **** #include "nb_celp.h"
  38:STM32F10x_Speex_Lib/STM32/libspeex/nb_celp.c **** #include "lpc.h"
  39:STM32F10x_Speex_Lib/STM32/libspeex/nb_celp.c **** #include "lsp.h"
  40:STM32F10x_Speex_Lib/STM32/libspeex/nb_celp.c **** #include "ltp.h"
  41:STM32F10x_Speex_Lib/STM32/libspeex/nb_celp.c **** #include "quant_lsp.h"
  42:STM32F10x_Speex_Lib/STM32/libspeex/nb_celp.c **** #include "cb_search.h"
  43:STM32F10x_Speex_Lib/STM32/libspeex/nb_celp.c **** #include "filters.h"
  44:STM32F10x_Speex_Lib/STM32/libspeex/nb_celp.c **** #include "stack_alloc.h"
  45:STM32F10x_Speex_Lib/STM32/libspeex/nb_celp.c **** #include "vq.h"
  46:STM32F10x_Speex_Lib/STM32/libspeex/nb_celp.c **** #include <speex/speex_bits.h>
  47:STM32F10x_Speex_Lib/STM32/libspeex/nb_celp.c **** #include "vbr.h"
  48:STM32F10x_Speex_Lib/STM32/libspeex/nb_celp.c **** #include "arch.h"
  49:STM32F10x_Speex_Lib/STM32/libspeex/nb_celp.c **** #include "math_approx.h"
  50:STM32F10x_Speex_Lib/STM32/libspeex/nb_celp.c **** #include "os_support.h"
  51:STM32F10x_Speex_Lib/STM32/libspeex/nb_celp.c **** #include <speex/speex_callbacks.h>
  52:STM32F10x_Speex_Lib/STM32/libspeex/nb_celp.c **** 
  53:STM32F10x_Speex_Lib/STM32/libspeex/nb_celp.c **** #ifdef VORBIS_PSYCHO
  54:STM32F10x_Speex_Lib/STM32/libspeex/nb_celp.c **** #include "vorbis_psy.h"
  55:STM32F10x_Speex_Lib/STM32/libspeex/nb_celp.c **** #endif
  56:STM32F10x_Speex_Lib/STM32/libspeex/nb_celp.c **** 
  57:STM32F10x_Speex_Lib/STM32/libspeex/nb_celp.c **** #ifndef M_PI
  58:STM32F10x_Speex_Lib/STM32/libspeex/nb_celp.c **** #define M_PI           3.14159265358979323846  /* pi */
  59:STM32F10x_Speex_Lib/STM32/libspeex/nb_celp.c **** #endif
  60:STM32F10x_Speex_Lib/STM32/libspeex/nb_celp.c **** 
  61:STM32F10x_Speex_Lib/STM32/libspeex/nb_celp.c **** #ifndef NULL
  62:STM32F10x_Speex_Lib/STM32/libspeex/nb_celp.c **** #define NULL 0
  63:STM32F10x_Speex_Lib/STM32/libspeex/nb_celp.c **** #endif
  64:STM32F10x_Speex_Lib/STM32/libspeex/nb_celp.c **** 
  65:STM32F10x_Speex_Lib/STM32/libspeex/nb_celp.c **** #define SUBMODE(x) st->submodes[st->submodeID]->x
  66:STM32F10x_Speex_Lib/STM32/libspeex/nb_celp.c **** 
  67:STM32F10x_Speex_Lib/STM32/libspeex/nb_celp.c **** /* Default size for the encoder and decoder stack (can be changed at compile time).
ARM GAS  /var/folders/kh/x4vltyy52lbg7p4pcyglc5080000gp/T//ccuucmVt.s 			page 18


  68:STM32F10x_Speex_Lib/STM32/libspeex/nb_celp.c ****    This does not apply when using variable-size arrays or alloca. */
  69:STM32F10x_Speex_Lib/STM32/libspeex/nb_celp.c **** #ifndef NB_ENC_STACK
  70:STM32F10x_Speex_Lib/STM32/libspeex/nb_celp.c **** #define NB_ENC_STACK (8000*sizeof(spx_sig_t))
  71:STM32F10x_Speex_Lib/STM32/libspeex/nb_celp.c **** #endif
  72:STM32F10x_Speex_Lib/STM32/libspeex/nb_celp.c **** 
  73:STM32F10x_Speex_Lib/STM32/libspeex/nb_celp.c **** #ifndef NB_DEC_STACK
  74:STM32F10x_Speex_Lib/STM32/libspeex/nb_celp.c **** #define NB_DEC_STACK (4000*sizeof(spx_sig_t))
  75:STM32F10x_Speex_Lib/STM32/libspeex/nb_celp.c **** #endif
  76:STM32F10x_Speex_Lib/STM32/libspeex/nb_celp.c **** 
  77:STM32F10x_Speex_Lib/STM32/libspeex/nb_celp.c **** 
  78:STM32F10x_Speex_Lib/STM32/libspeex/nb_celp.c **** #ifdef FIXED_POINT
  79:STM32F10x_Speex_Lib/STM32/libspeex/nb_celp.c **** const spx_word32_t ol_gain_table[32]={18900, 25150, 33468, 44536, 59265, 78865, 104946, 139653, 185
  80:STM32F10x_Speex_Lib/STM32/libspeex/nb_celp.c **** const spx_word16_t exc_gain_quant_scal3_bound[7]={1841, 3883, 6051, 8062, 10444, 13580, 18560};
  81:STM32F10x_Speex_Lib/STM32/libspeex/nb_celp.c **** const spx_word16_t exc_gain_quant_scal3[8]={1002, 2680, 5086, 7016, 9108, 11781, 15380, 21740};
  82:STM32F10x_Speex_Lib/STM32/libspeex/nb_celp.c **** const spx_word16_t exc_gain_quant_scal1_bound[1]={14385};
  83:STM32F10x_Speex_Lib/STM32/libspeex/nb_celp.c **** const spx_word16_t exc_gain_quant_scal1[2]={11546, 17224};
  84:STM32F10x_Speex_Lib/STM32/libspeex/nb_celp.c **** 
  85:STM32F10x_Speex_Lib/STM32/libspeex/nb_celp.c **** #define LSP_MARGIN 16
  86:STM32F10x_Speex_Lib/STM32/libspeex/nb_celp.c **** #define LSP_DELTA1 6553
  87:STM32F10x_Speex_Lib/STM32/libspeex/nb_celp.c **** #define LSP_DELTA2 1638
  88:STM32F10x_Speex_Lib/STM32/libspeex/nb_celp.c **** 
  89:STM32F10x_Speex_Lib/STM32/libspeex/nb_celp.c **** #else
  90:STM32F10x_Speex_Lib/STM32/libspeex/nb_celp.c **** 
  91:STM32F10x_Speex_Lib/STM32/libspeex/nb_celp.c **** const float exc_gain_quant_scal3_bound[7]={0.112338f, 0.236980f, 0.369316f, 0.492054f, 0.637471f, 0
  92:STM32F10x_Speex_Lib/STM32/libspeex/nb_celp.c **** const float exc_gain_quant_scal3[8]={0.061130f, 0.163546f, 0.310413f, 0.428220f, 0.555887f, 0.71905
  93:STM32F10x_Speex_Lib/STM32/libspeex/nb_celp.c **** const float exc_gain_quant_scal1_bound[1]={0.87798f};
  94:STM32F10x_Speex_Lib/STM32/libspeex/nb_celp.c **** const float exc_gain_quant_scal1[2]={0.70469f, 1.05127f};
  95:STM32F10x_Speex_Lib/STM32/libspeex/nb_celp.c **** 
  96:STM32F10x_Speex_Lib/STM32/libspeex/nb_celp.c **** #define LSP_MARGIN .002f
  97:STM32F10x_Speex_Lib/STM32/libspeex/nb_celp.c **** #define LSP_DELTA1 .2f
  98:STM32F10x_Speex_Lib/STM32/libspeex/nb_celp.c **** #define LSP_DELTA2 .05f
  99:STM32F10x_Speex_Lib/STM32/libspeex/nb_celp.c **** 
 100:STM32F10x_Speex_Lib/STM32/libspeex/nb_celp.c **** #endif
 101:STM32F10x_Speex_Lib/STM32/libspeex/nb_celp.c **** 
 102:STM32F10x_Speex_Lib/STM32/libspeex/nb_celp.c **** #ifdef VORBIS_PSYCHO
 103:STM32F10x_Speex_Lib/STM32/libspeex/nb_celp.c **** #define EXTRA_BUFFER 100
 104:STM32F10x_Speex_Lib/STM32/libspeex/nb_celp.c **** #else
 105:STM32F10x_Speex_Lib/STM32/libspeex/nb_celp.c **** #define EXTRA_BUFFER 0
 106:STM32F10x_Speex_Lib/STM32/libspeex/nb_celp.c **** #endif
 107:STM32F10x_Speex_Lib/STM32/libspeex/nb_celp.c **** 
 108:STM32F10x_Speex_Lib/STM32/libspeex/nb_celp.c **** 
 109:STM32F10x_Speex_Lib/STM32/libspeex/nb_celp.c **** #define sqr(x) ((x)*(x))
 110:STM32F10x_Speex_Lib/STM32/libspeex/nb_celp.c **** 
 111:STM32F10x_Speex_Lib/STM32/libspeex/nb_celp.c **** extern const spx_word16_t lag_window[];
 112:STM32F10x_Speex_Lib/STM32/libspeex/nb_celp.c **** extern const spx_word16_t lpc_window[];
 113:STM32F10x_Speex_Lib/STM32/libspeex/nb_celp.c **** 
 114:STM32F10x_Speex_Lib/STM32/libspeex/nb_celp.c **** void *nb_encoder_init(const SpeexMode *m)
 115:STM32F10x_Speex_Lib/STM32/libspeex/nb_celp.c **** {
 639              		.loc 3 115 0
 640              		.cfi_startproc
 641              		@ args = 0, pretend = 0, frame = 24
 642              		@ frame_needed = 1, uses_anonymous_args = 0
 643 0000 80B5     		push	{r7, lr}
 644              	.LCFI49:
 645              		.cfi_def_cfa_offset 8
 646              		.cfi_offset 7, -8
 647              		.cfi_offset 14, -4
ARM GAS  /var/folders/kh/x4vltyy52lbg7p4pcyglc5080000gp/T//ccuucmVt.s 			page 19


 648 0002 86B0     		sub	sp, sp, #24
 649              	.LCFI50:
 650              		.cfi_def_cfa_offset 32
 651 0004 00AF     		add	r7, sp, #0
 652              	.LCFI51:
 653              		.cfi_def_cfa_register 7
 654 0006 7860     		str	r0, [r7, #4]
 116:STM32F10x_Speex_Lib/STM32/libspeex/nb_celp.c ****    EncState *st;
 117:STM32F10x_Speex_Lib/STM32/libspeex/nb_celp.c ****    const SpeexNBMode *mode;
 118:STM32F10x_Speex_Lib/STM32/libspeex/nb_celp.c ****    int i;
 119:STM32F10x_Speex_Lib/STM32/libspeex/nb_celp.c **** 
 120:STM32F10x_Speex_Lib/STM32/libspeex/nb_celp.c ****    mode=(const SpeexNBMode *)m->mode;
 655              		.loc 3 120 0
 656 0008 7B68     		ldr	r3, [r7, #4]
 657 000a 1B68     		ldr	r3, [r3]
 658 000c 3B61     		str	r3, [r7, #16]
 121:STM32F10x_Speex_Lib/STM32/libspeex/nb_celp.c ****    st = (EncState*)speex_alloc(sizeof(EncState));
 659              		.loc 3 121 0
 660 000e B020     		movs	r0, #176
 661 0010 FFF7FEFF 		bl	speex_alloc
 662 0014 F860     		str	r0, [r7, #12]
 122:STM32F10x_Speex_Lib/STM32/libspeex/nb_celp.c ****    if (!st)
 663              		.loc 3 122 0
 664 0016 FB68     		ldr	r3, [r7, #12]
 665 0018 002B     		cmp	r3, #0
 666 001a 01D1     		bne	.L26
 123:STM32F10x_Speex_Lib/STM32/libspeex/nb_celp.c ****       return NULL;
 667              		.loc 3 123 0
 668 001c 0023     		movs	r3, #0
 669 001e 25E1     		b	.L27
 670              	.L26:
 124:STM32F10x_Speex_Lib/STM32/libspeex/nb_celp.c **** #if defined(VAR_ARRAYS) || defined (USE_ALLOCA)
 125:STM32F10x_Speex_Lib/STM32/libspeex/nb_celp.c ****    st->stack = NULL;
 126:STM32F10x_Speex_Lib/STM32/libspeex/nb_celp.c **** #else
 127:STM32F10x_Speex_Lib/STM32/libspeex/nb_celp.c ****    st->stack = (char*)speex_alloc_scratch(NB_ENC_STACK);
 671              		.loc 3 127 0
 672 0020 40F6B830 		movw	r0, #3000
 673 0024 FFF7FEFF 		bl	speex_alloc_scratch
 674 0028 0246     		mov	r2, r0
 675 002a FB68     		ldr	r3, [r7, #12]
 676 002c 1A64     		str	r2, [r3, #64]
 128:STM32F10x_Speex_Lib/STM32/libspeex/nb_celp.c **** #endif
 129:STM32F10x_Speex_Lib/STM32/libspeex/nb_celp.c ****    
 130:STM32F10x_Speex_Lib/STM32/libspeex/nb_celp.c ****    st->mode=m;
 677              		.loc 3 130 0
 678 002e FB68     		ldr	r3, [r7, #12]
 679 0030 7A68     		ldr	r2, [r7, #4]
 680 0032 1A60     		str	r2, [r3]
 131:STM32F10x_Speex_Lib/STM32/libspeex/nb_celp.c **** 
 132:STM32F10x_Speex_Lib/STM32/libspeex/nb_celp.c ****    st->frameSize = mode->frameSize;
 681              		.loc 3 132 0
 682 0034 3B69     		ldr	r3, [r7, #16]
 683 0036 1A68     		ldr	r2, [r3]
 684 0038 FB68     		ldr	r3, [r7, #12]
 685 003a 9A60     		str	r2, [r3, #8]
 133:STM32F10x_Speex_Lib/STM32/libspeex/nb_celp.c ****    st->nbSubframes=mode->frameSize/mode->subframeSize;
 686              		.loc 3 133 0
ARM GAS  /var/folders/kh/x4vltyy52lbg7p4pcyglc5080000gp/T//ccuucmVt.s 			page 20


 687 003c 3B69     		ldr	r3, [r7, #16]
 688 003e 1A68     		ldr	r2, [r3]
 689 0040 3B69     		ldr	r3, [r7, #16]
 690 0042 5B68     		ldr	r3, [r3, #4]
 691 0044 92FBF3F2 		sdiv	r2, r2, r3
 692 0048 FB68     		ldr	r3, [r7, #12]
 693 004a 1A61     		str	r2, [r3, #16]
 134:STM32F10x_Speex_Lib/STM32/libspeex/nb_celp.c ****    st->subframeSize=mode->subframeSize;
 694              		.loc 3 134 0
 695 004c 3B69     		ldr	r3, [r7, #16]
 696 004e 5A68     		ldr	r2, [r3, #4]
 697 0050 FB68     		ldr	r3, [r7, #12]
 698 0052 DA60     		str	r2, [r3, #12]
 135:STM32F10x_Speex_Lib/STM32/libspeex/nb_celp.c ****    st->windowSize = st->frameSize+st->subframeSize;
 699              		.loc 3 135 0
 700 0054 FB68     		ldr	r3, [r7, #12]
 701 0056 9A68     		ldr	r2, [r3, #8]
 702 0058 FB68     		ldr	r3, [r7, #12]
 703 005a DB68     		ldr	r3, [r3, #12]
 704 005c 1A44     		add	r2, r2, r3
 705 005e FB68     		ldr	r3, [r7, #12]
 706 0060 5A61     		str	r2, [r3, #20]
 136:STM32F10x_Speex_Lib/STM32/libspeex/nb_celp.c ****    st->lpcSize = mode->lpcSize;
 707              		.loc 3 136 0
 708 0062 3B69     		ldr	r3, [r7, #16]
 709 0064 9A68     		ldr	r2, [r3, #8]
 710 0066 FB68     		ldr	r3, [r7, #12]
 711 0068 9A61     		str	r2, [r3, #24]
 137:STM32F10x_Speex_Lib/STM32/libspeex/nb_celp.c ****    st->gamma1=mode->gamma1;
 712              		.loc 3 137 0
 713 006a 3B69     		ldr	r3, [r7, #16]
 714 006c B3F91420 		ldrsh	r2, [r3, #20]
 715 0070 FB68     		ldr	r3, [r7, #12]
 716 0072 1A87     		strh	r2, [r3, #56]	@ movhi
 138:STM32F10x_Speex_Lib/STM32/libspeex/nb_celp.c ****    st->gamma2=mode->gamma2;
 717              		.loc 3 138 0
 718 0074 3B69     		ldr	r3, [r7, #16]
 719 0076 B3F91620 		ldrsh	r2, [r3, #22]
 720 007a FB68     		ldr	r3, [r7, #12]
 721 007c 5A87     		strh	r2, [r3, #58]	@ movhi
 139:STM32F10x_Speex_Lib/STM32/libspeex/nb_celp.c ****    st->min_pitch=mode->pitchStart;
 722              		.loc 3 139 0
 723 007e 3B69     		ldr	r3, [r7, #16]
 724 0080 DA68     		ldr	r2, [r3, #12]
 725 0082 FB68     		ldr	r3, [r7, #12]
 726 0084 DA61     		str	r2, [r3, #28]
 140:STM32F10x_Speex_Lib/STM32/libspeex/nb_celp.c ****    st->max_pitch=mode->pitchEnd;
 727              		.loc 3 140 0
 728 0086 3B69     		ldr	r3, [r7, #16]
 729 0088 1A69     		ldr	r2, [r3, #16]
 730 008a FB68     		ldr	r3, [r7, #12]
 731 008c 1A62     		str	r2, [r3, #32]
 141:STM32F10x_Speex_Lib/STM32/libspeex/nb_celp.c ****    st->lpc_floor = mode->lpc_floor;
 732              		.loc 3 141 0
 733 008e 3B69     		ldr	r3, [r7, #16]
 734 0090 B3F91820 		ldrsh	r2, [r3, #24]
 735 0094 FB68     		ldr	r3, [r7, #12]
ARM GAS  /var/folders/kh/x4vltyy52lbg7p4pcyglc5080000gp/T//ccuucmVt.s 			page 21


 736 0096 9A87     		strh	r2, [r3, #60]	@ movhi
 142:STM32F10x_Speex_Lib/STM32/libspeex/nb_celp.c ****   
 143:STM32F10x_Speex_Lib/STM32/libspeex/nb_celp.c ****    st->submodes=mode->submodes;
 737              		.loc 3 143 0
 738 0098 3B69     		ldr	r3, [r7, #16]
 739 009a 03F11C02 		add	r2, r3, #28
 740 009e FB68     		ldr	r3, [r7, #12]
 741 00a0 C3F89C20 		str	r2, [r3, #156]
 144:STM32F10x_Speex_Lib/STM32/libspeex/nb_celp.c ****    st->submodeID=st->submodeSelect=mode->defaultSubmode;
 742              		.loc 3 144 0
 743 00a4 3B69     		ldr	r3, [r7, #16]
 744 00a6 DA6D     		ldr	r2, [r3, #92]
 745 00a8 FB68     		ldr	r3, [r7, #12]
 746 00aa C3F8A420 		str	r2, [r3, #164]
 747 00ae FB68     		ldr	r3, [r7, #12]
 748 00b0 D3F8A420 		ldr	r2, [r3, #164]
 749 00b4 FB68     		ldr	r3, [r7, #12]
 750 00b6 C3F8A020 		str	r2, [r3, #160]
 145:STM32F10x_Speex_Lib/STM32/libspeex/nb_celp.c ****    st->bounded_pitch = 1;
 751              		.loc 3 145 0
 752 00ba FB68     		ldr	r3, [r7, #12]
 753 00bc 0122     		movs	r2, #1
 754 00be 9A62     		str	r2, [r3, #40]
 146:STM32F10x_Speex_Lib/STM32/libspeex/nb_celp.c **** 
 147:STM32F10x_Speex_Lib/STM32/libspeex/nb_celp.c ****    st->encode_submode = 1;
 755              		.loc 3 147 0
 756 00c0 FB68     		ldr	r3, [r7, #12]
 757 00c2 0122     		movs	r2, #1
 758 00c4 C3F89820 		str	r2, [r3, #152]
 148:STM32F10x_Speex_Lib/STM32/libspeex/nb_celp.c **** 
 149:STM32F10x_Speex_Lib/STM32/libspeex/nb_celp.c **** #ifdef VORBIS_PSYCHO
 150:STM32F10x_Speex_Lib/STM32/libspeex/nb_celp.c ****    st->psy = vorbis_psy_init(8000, 256);
 151:STM32F10x_Speex_Lib/STM32/libspeex/nb_celp.c ****    st->curve = (float*)speex_alloc(128*sizeof(float));
 152:STM32F10x_Speex_Lib/STM32/libspeex/nb_celp.c ****    st->old_curve = (float*)speex_alloc(128*sizeof(float));
 153:STM32F10x_Speex_Lib/STM32/libspeex/nb_celp.c ****    st->psy_window = (float*)speex_alloc(256*sizeof(float));
 154:STM32F10x_Speex_Lib/STM32/libspeex/nb_celp.c **** #endif
 155:STM32F10x_Speex_Lib/STM32/libspeex/nb_celp.c **** 
 156:STM32F10x_Speex_Lib/STM32/libspeex/nb_celp.c ****    st->cumul_gain = 1024;
 759              		.loc 3 156 0
 760 00c8 FB68     		ldr	r3, [r7, #12]
 761 00ca 4FF48062 		mov	r2, #1024
 762 00ce 5A62     		str	r2, [r3, #36]
 157:STM32F10x_Speex_Lib/STM32/libspeex/nb_celp.c **** 
 158:STM32F10x_Speex_Lib/STM32/libspeex/nb_celp.c ****    /* Allocating input buffer */
 159:STM32F10x_Speex_Lib/STM32/libspeex/nb_celp.c ****    st->winBuf = (spx_word16_t*)speex_alloc((st->windowSize-st->frameSize)*sizeof(spx_word16_t));
 763              		.loc 3 159 0
 764 00d0 FB68     		ldr	r3, [r7, #12]
 765 00d2 5A69     		ldr	r2, [r3, #20]
 766 00d4 FB68     		ldr	r3, [r7, #12]
 767 00d6 9B68     		ldr	r3, [r3, #8]
 768 00d8 D31A     		subs	r3, r2, r3
 769 00da 5B00     		lsls	r3, r3, #1
 770 00dc 1846     		mov	r0, r3
 771 00de FFF7FEFF 		bl	speex_alloc
 772 00e2 0246     		mov	r2, r0
 773 00e4 FB68     		ldr	r3, [r7, #12]
 774 00e6 5A64     		str	r2, [r3, #68]
ARM GAS  /var/folders/kh/x4vltyy52lbg7p4pcyglc5080000gp/T//ccuucmVt.s 			page 22


 160:STM32F10x_Speex_Lib/STM32/libspeex/nb_celp.c ****    /* Allocating excitation buffer */
 161:STM32F10x_Speex_Lib/STM32/libspeex/nb_celp.c ****    st->excBuf = (spx_word16_t*)speex_alloc((mode->frameSize+mode->pitchEnd+2)*sizeof(spx_word16_t))
 775              		.loc 3 161 0
 776 00e8 3B69     		ldr	r3, [r7, #16]
 777 00ea 1A68     		ldr	r2, [r3]
 778 00ec 3B69     		ldr	r3, [r7, #16]
 779 00ee 1B69     		ldr	r3, [r3, #16]
 780 00f0 1344     		add	r3, r3, r2
 781 00f2 0233     		adds	r3, r3, #2
 782 00f4 5B00     		lsls	r3, r3, #1
 783 00f6 1846     		mov	r0, r3
 784 00f8 FFF7FEFF 		bl	speex_alloc
 785 00fc 0246     		mov	r2, r0
 786 00fe FB68     		ldr	r3, [r7, #12]
 787 0100 9A64     		str	r2, [r3, #72]
 162:STM32F10x_Speex_Lib/STM32/libspeex/nb_celp.c ****    st->exc = st->excBuf + mode->pitchEnd + 2;
 788              		.loc 3 162 0
 789 0102 FB68     		ldr	r3, [r7, #12]
 790 0104 9A6C     		ldr	r2, [r3, #72]
 791 0106 3B69     		ldr	r3, [r7, #16]
 792 0108 1B69     		ldr	r3, [r3, #16]
 793 010a 0233     		adds	r3, r3, #2
 794 010c 5B00     		lsls	r3, r3, #1
 795 010e 1A44     		add	r2, r2, r3
 796 0110 FB68     		ldr	r3, [r7, #12]
 797 0112 DA64     		str	r2, [r3, #76]
 163:STM32F10x_Speex_Lib/STM32/libspeex/nb_celp.c ****    st->swBuf = (spx_word16_t*)speex_alloc((mode->frameSize+mode->pitchEnd+2)*sizeof(spx_word16_t));
 798              		.loc 3 163 0
 799 0114 3B69     		ldr	r3, [r7, #16]
 800 0116 1A68     		ldr	r2, [r3]
 801 0118 3B69     		ldr	r3, [r7, #16]
 802 011a 1B69     		ldr	r3, [r3, #16]
 803 011c 1344     		add	r3, r3, r2
 804 011e 0233     		adds	r3, r3, #2
 805 0120 5B00     		lsls	r3, r3, #1
 806 0122 1846     		mov	r0, r3
 807 0124 FFF7FEFF 		bl	speex_alloc
 808 0128 0246     		mov	r2, r0
 809 012a FB68     		ldr	r3, [r7, #12]
 810 012c 1A65     		str	r2, [r3, #80]
 164:STM32F10x_Speex_Lib/STM32/libspeex/nb_celp.c ****    st->sw = st->swBuf + mode->pitchEnd + 2;
 811              		.loc 3 164 0
 812 012e FB68     		ldr	r3, [r7, #12]
 813 0130 1A6D     		ldr	r2, [r3, #80]
 814 0132 3B69     		ldr	r3, [r7, #16]
 815 0134 1B69     		ldr	r3, [r3, #16]
 816 0136 0233     		adds	r3, r3, #2
 817 0138 5B00     		lsls	r3, r3, #1
 818 013a 1A44     		add	r2, r2, r3
 819 013c FB68     		ldr	r3, [r7, #12]
 820 013e 5A65     		str	r2, [r3, #84]
 165:STM32F10x_Speex_Lib/STM32/libspeex/nb_celp.c **** 
 166:STM32F10x_Speex_Lib/STM32/libspeex/nb_celp.c ****    st->window= lpc_window;
 821              		.loc 3 166 0
 822 0140 FB68     		ldr	r3, [r7, #12]
 823 0142 4C4A     		ldr	r2, .L30
 824 0144 9A65     		str	r2, [r3, #88]
ARM GAS  /var/folders/kh/x4vltyy52lbg7p4pcyglc5080000gp/T//ccuucmVt.s 			page 23


 167:STM32F10x_Speex_Lib/STM32/libspeex/nb_celp.c ****    
 168:STM32F10x_Speex_Lib/STM32/libspeex/nb_celp.c ****    /* Create the window for autocorrelation (lag-windowing) */
 169:STM32F10x_Speex_Lib/STM32/libspeex/nb_celp.c ****    st->lagWindow = lag_window;
 825              		.loc 3 169 0
 826 0146 FB68     		ldr	r3, [r7, #12]
 827 0148 4B4A     		ldr	r2, .L30+4
 828 014a DA65     		str	r2, [r3, #92]
 170:STM32F10x_Speex_Lib/STM32/libspeex/nb_celp.c **** 
 171:STM32F10x_Speex_Lib/STM32/libspeex/nb_celp.c ****    st->old_lsp = (spx_lsp_t*)speex_alloc((st->lpcSize)*sizeof(spx_lsp_t));
 829              		.loc 3 171 0
 830 014c FB68     		ldr	r3, [r7, #12]
 831 014e 9B69     		ldr	r3, [r3, #24]
 832 0150 5B00     		lsls	r3, r3, #1
 833 0152 1846     		mov	r0, r3
 834 0154 FFF7FEFF 		bl	speex_alloc
 835 0158 0246     		mov	r2, r0
 836 015a FB68     		ldr	r3, [r7, #12]
 837 015c 1A66     		str	r2, [r3, #96]
 172:STM32F10x_Speex_Lib/STM32/libspeex/nb_celp.c ****    st->old_qlsp = (spx_lsp_t*)speex_alloc((st->lpcSize)*sizeof(spx_lsp_t));
 838              		.loc 3 172 0
 839 015e FB68     		ldr	r3, [r7, #12]
 840 0160 9B69     		ldr	r3, [r3, #24]
 841 0162 5B00     		lsls	r3, r3, #1
 842 0164 1846     		mov	r0, r3
 843 0166 FFF7FEFF 		bl	speex_alloc
 844 016a 0246     		mov	r2, r0
 845 016c FB68     		ldr	r3, [r7, #12]
 846 016e 5A66     		str	r2, [r3, #100]
 173:STM32F10x_Speex_Lib/STM32/libspeex/nb_celp.c ****    st->first = 1;
 847              		.loc 3 173 0
 848 0170 FB68     		ldr	r3, [r7, #12]
 849 0172 0122     		movs	r2, #1
 850 0174 5A60     		str	r2, [r3, #4]
 174:STM32F10x_Speex_Lib/STM32/libspeex/nb_celp.c ****    for (i=0;i<st->lpcSize;i++)
 851              		.loc 3 174 0
 852 0176 0023     		movs	r3, #0
 853 0178 7B61     		str	r3, [r7, #20]
 854 017a 18E0     		b	.L28
 855              	.L29:
 175:STM32F10x_Speex_Lib/STM32/libspeex/nb_celp.c ****       st->old_lsp[i]= DIV32(MULT16_16(QCONST16(3.1415927f, LSP_SHIFT), i+1), st->lpcSize+1);
 856              		.loc 3 175 0 discriminator 3
 857 017c FB68     		ldr	r3, [r7, #12]
 858 017e 1A6E     		ldr	r2, [r3, #96]
 859 0180 7B69     		ldr	r3, [r7, #20]
 860 0182 5B00     		lsls	r3, r3, #1
 861 0184 1344     		add	r3, r3, r2
 862 0186 7A69     		ldr	r2, [r7, #20]
 863 0188 92B2     		uxth	r2, r2
 864 018a 0132     		adds	r2, r2, #1
 865 018c 92B2     		uxth	r2, r2
 866 018e 12B2     		sxth	r2, r2
 867 0190 1146     		mov	r1, r2
 868 0192 46F28842 		movw	r2, #25736
 869 0196 02FB01F1 		mul	r1, r2, r1
 870 019a FA68     		ldr	r2, [r7, #12]
 871 019c 9269     		ldr	r2, [r2, #24]
 872 019e 0132     		adds	r2, r2, #1
ARM GAS  /var/folders/kh/x4vltyy52lbg7p4pcyglc5080000gp/T//ccuucmVt.s 			page 24


 873 01a0 91FBF2F2 		sdiv	r2, r1, r2
 874 01a4 12B2     		sxth	r2, r2
 875 01a6 1A80     		strh	r2, [r3]	@ movhi
 174:STM32F10x_Speex_Lib/STM32/libspeex/nb_celp.c ****    for (i=0;i<st->lpcSize;i++)
 876              		.loc 3 174 0 discriminator 3
 877 01a8 7B69     		ldr	r3, [r7, #20]
 878 01aa 0133     		adds	r3, r3, #1
 879 01ac 7B61     		str	r3, [r7, #20]
 880              	.L28:
 174:STM32F10x_Speex_Lib/STM32/libspeex/nb_celp.c ****    for (i=0;i<st->lpcSize;i++)
 881              		.loc 3 174 0 is_stmt 0 discriminator 1
 882 01ae FB68     		ldr	r3, [r7, #12]
 883 01b0 9A69     		ldr	r2, [r3, #24]
 884 01b2 7B69     		ldr	r3, [r7, #20]
 885 01b4 9A42     		cmp	r2, r3
 886 01b6 E1DC     		bgt	.L29
 176:STM32F10x_Speex_Lib/STM32/libspeex/nb_celp.c **** 
 177:STM32F10x_Speex_Lib/STM32/libspeex/nb_celp.c ****    st->mem_sp = (spx_mem_t*)speex_alloc((st->lpcSize)*sizeof(spx_mem_t));
 887              		.loc 3 177 0 is_stmt 1
 888 01b8 FB68     		ldr	r3, [r7, #12]
 889 01ba 9B69     		ldr	r3, [r3, #24]
 890 01bc 9B00     		lsls	r3, r3, #2
 891 01be 1846     		mov	r0, r3
 892 01c0 FFF7FEFF 		bl	speex_alloc
 893 01c4 0246     		mov	r2, r0
 894 01c6 FB68     		ldr	r3, [r7, #12]
 895 01c8 9A66     		str	r2, [r3, #104]
 178:STM32F10x_Speex_Lib/STM32/libspeex/nb_celp.c ****    st->mem_sw = (spx_mem_t*)speex_alloc((st->lpcSize)*sizeof(spx_mem_t));
 896              		.loc 3 178 0
 897 01ca FB68     		ldr	r3, [r7, #12]
 898 01cc 9B69     		ldr	r3, [r3, #24]
 899 01ce 9B00     		lsls	r3, r3, #2
 900 01d0 1846     		mov	r0, r3
 901 01d2 FFF7FEFF 		bl	speex_alloc
 902 01d6 0246     		mov	r2, r0
 903 01d8 FB68     		ldr	r3, [r7, #12]
 904 01da DA66     		str	r2, [r3, #108]
 179:STM32F10x_Speex_Lib/STM32/libspeex/nb_celp.c ****    st->mem_sw_whole = (spx_mem_t*)speex_alloc((st->lpcSize)*sizeof(spx_mem_t));
 905              		.loc 3 179 0
 906 01dc FB68     		ldr	r3, [r7, #12]
 907 01de 9B69     		ldr	r3, [r3, #24]
 908 01e0 9B00     		lsls	r3, r3, #2
 909 01e2 1846     		mov	r0, r3
 910 01e4 FFF7FEFF 		bl	speex_alloc
 911 01e8 0246     		mov	r2, r0
 912 01ea FB68     		ldr	r3, [r7, #12]
 913 01ec 1A67     		str	r2, [r3, #112]
 180:STM32F10x_Speex_Lib/STM32/libspeex/nb_celp.c ****    st->mem_exc = (spx_mem_t*)speex_alloc((st->lpcSize)*sizeof(spx_mem_t));
 914              		.loc 3 180 0
 915 01ee FB68     		ldr	r3, [r7, #12]
 916 01f0 9B69     		ldr	r3, [r3, #24]
 917 01f2 9B00     		lsls	r3, r3, #2
 918 01f4 1846     		mov	r0, r3
 919 01f6 FFF7FEFF 		bl	speex_alloc
 920 01fa 0246     		mov	r2, r0
 921 01fc FB68     		ldr	r3, [r7, #12]
 922 01fe 5A67     		str	r2, [r3, #116]
ARM GAS  /var/folders/kh/x4vltyy52lbg7p4pcyglc5080000gp/T//ccuucmVt.s 			page 25


 181:STM32F10x_Speex_Lib/STM32/libspeex/nb_celp.c ****    st->mem_exc2 = (spx_mem_t*)speex_alloc((st->lpcSize)*sizeof(spx_mem_t));
 923              		.loc 3 181 0
 924 0200 FB68     		ldr	r3, [r7, #12]
 925 0202 9B69     		ldr	r3, [r3, #24]
 926 0204 9B00     		lsls	r3, r3, #2
 927 0206 1846     		mov	r0, r3
 928 0208 FFF7FEFF 		bl	speex_alloc
 929 020c 0246     		mov	r2, r0
 930 020e FB68     		ldr	r3, [r7, #12]
 931 0210 9A67     		str	r2, [r3, #120]
 182:STM32F10x_Speex_Lib/STM32/libspeex/nb_celp.c **** 
 183:STM32F10x_Speex_Lib/STM32/libspeex/nb_celp.c ****    st->pi_gain = (spx_word32_t*)speex_alloc((st->nbSubframes)*sizeof(spx_word32_t));
 932              		.loc 3 183 0
 933 0212 FB68     		ldr	r3, [r7, #12]
 934 0214 1B69     		ldr	r3, [r3, #16]
 935 0216 9B00     		lsls	r3, r3, #2
 936 0218 1846     		mov	r0, r3
 937 021a FFF7FEFF 		bl	speex_alloc
 938 021e 0246     		mov	r2, r0
 939 0220 FB68     		ldr	r3, [r7, #12]
 940 0222 C3F88420 		str	r2, [r3, #132]
 184:STM32F10x_Speex_Lib/STM32/libspeex/nb_celp.c ****    st->innov_rms_save = NULL;
 941              		.loc 3 184 0
 942 0226 FB68     		ldr	r3, [r7, #12]
 943 0228 0022     		movs	r2, #0
 944 022a C3F88820 		str	r2, [r3, #136]
 185:STM32F10x_Speex_Lib/STM32/libspeex/nb_celp.c ****    
 186:STM32F10x_Speex_Lib/STM32/libspeex/nb_celp.c ****    st->pitch = (int*)speex_alloc((st->nbSubframes)*sizeof(int));
 945              		.loc 3 186 0
 946 022e FB68     		ldr	r3, [r7, #12]
 947 0230 1B69     		ldr	r3, [r3, #16]
 948 0232 9B00     		lsls	r3, r3, #2
 949 0234 1846     		mov	r0, r3
 950 0236 FFF7FEFF 		bl	speex_alloc
 951 023a 0246     		mov	r2, r0
 952 023c FB68     		ldr	r3, [r7, #12]
 953 023e 5A63     		str	r2, [r3, #52]
 187:STM32F10x_Speex_Lib/STM32/libspeex/nb_celp.c **** 
 188:STM32F10x_Speex_Lib/STM32/libspeex/nb_celp.c **** #ifndef DISABLE_VBR
 189:STM32F10x_Speex_Lib/STM32/libspeex/nb_celp.c ****    st->vbr = (VBRState*)speex_alloc(sizeof(VBRState));
 190:STM32F10x_Speex_Lib/STM32/libspeex/nb_celp.c ****    vbr_init(st->vbr);
 191:STM32F10x_Speex_Lib/STM32/libspeex/nb_celp.c ****    st->vbr_quality = 8;
 192:STM32F10x_Speex_Lib/STM32/libspeex/nb_celp.c ****    st->vbr_enabled = 0;
 193:STM32F10x_Speex_Lib/STM32/libspeex/nb_celp.c ****    st->vbr_max = 0;
 194:STM32F10x_Speex_Lib/STM32/libspeex/nb_celp.c ****    st->vad_enabled = 0;
 195:STM32F10x_Speex_Lib/STM32/libspeex/nb_celp.c ****    st->dtx_enabled = 0;
 196:STM32F10x_Speex_Lib/STM32/libspeex/nb_celp.c ****    st->dtx_count=0;
 197:STM32F10x_Speex_Lib/STM32/libspeex/nb_celp.c ****    st->abr_enabled = 0;
 198:STM32F10x_Speex_Lib/STM32/libspeex/nb_celp.c ****    st->abr_drift = 0;
 199:STM32F10x_Speex_Lib/STM32/libspeex/nb_celp.c ****    st->abr_drift2 = 0;
 200:STM32F10x_Speex_Lib/STM32/libspeex/nb_celp.c **** #endif /* #ifndef DISABLE_VBR */
 201:STM32F10x_Speex_Lib/STM32/libspeex/nb_celp.c **** 
 202:STM32F10x_Speex_Lib/STM32/libspeex/nb_celp.c ****    st->plc_tuning = 2;
 954              		.loc 3 202 0
 955 0240 FB68     		ldr	r3, [r7, #12]
 956 0242 0222     		movs	r2, #2
 957 0244 C3F89420 		str	r2, [r3, #148]
ARM GAS  /var/folders/kh/x4vltyy52lbg7p4pcyglc5080000gp/T//ccuucmVt.s 			page 26


 203:STM32F10x_Speex_Lib/STM32/libspeex/nb_celp.c ****    st->complexity=2;
 958              		.loc 3 203 0
 959 0248 FB68     		ldr	r3, [r7, #12]
 960 024a 0222     		movs	r2, #2
 961 024c C3F88C20 		str	r2, [r3, #140]
 204:STM32F10x_Speex_Lib/STM32/libspeex/nb_celp.c ****    st->sampling_rate=8000;
 962              		.loc 3 204 0
 963 0250 FB68     		ldr	r3, [r7, #12]
 964 0252 4FF4FA52 		mov	r2, #8000
 965 0256 C3F89020 		str	r2, [r3, #144]
 205:STM32F10x_Speex_Lib/STM32/libspeex/nb_celp.c ****    st->isWideband = 0;
 966              		.loc 3 205 0
 967 025a FB68     		ldr	r3, [r7, #12]
 968 025c 0022     		movs	r2, #0
 969 025e C3F8A820 		str	r2, [r3, #168]
 206:STM32F10x_Speex_Lib/STM32/libspeex/nb_celp.c ****    st->highpass_enabled = 1;
 970              		.loc 3 206 0
 971 0262 FB68     		ldr	r3, [r7, #12]
 972 0264 0122     		movs	r2, #1
 973 0266 C3F8AC20 		str	r2, [r3, #172]
 207:STM32F10x_Speex_Lib/STM32/libspeex/nb_celp.c ****    
 208:STM32F10x_Speex_Lib/STM32/libspeex/nb_celp.c **** #ifdef ENABLE_VALGRIND
 209:STM32F10x_Speex_Lib/STM32/libspeex/nb_celp.c ****    VALGRIND_MAKE_READABLE(st, NB_ENC_STACK);
 210:STM32F10x_Speex_Lib/STM32/libspeex/nb_celp.c **** #endif
 211:STM32F10x_Speex_Lib/STM32/libspeex/nb_celp.c ****    return st;
 974              		.loc 3 211 0
 975 026a FB68     		ldr	r3, [r7, #12]
 976              	.L27:
 212:STM32F10x_Speex_Lib/STM32/libspeex/nb_celp.c **** }
 977              		.loc 3 212 0
 978 026c 1846     		mov	r0, r3
 979 026e 1837     		adds	r7, r7, #24
 980              	.LCFI52:
 981              		.cfi_def_cfa_offset 8
 982 0270 BD46     		mov	sp, r7
 983              	.LCFI53:
 984              		.cfi_def_cfa_register 13
 985              		@ sp needed
 986 0272 80BD     		pop	{r7, pc}
 987              	.L31:
 988              		.align	2
 989              	.L30:
 990 0274 00000000 		.word	lpc_window
 991 0278 00000000 		.word	lag_window
 992              		.cfi_endproc
 993              	.LFE21:
 995              		.section	.text.nb_encoder_destroy,"ax",%progbits
 996              		.align	2
 997              		.global	nb_encoder_destroy
 998              		.thumb
 999              		.thumb_func
 1001              	nb_encoder_destroy:
 1002              	.LFB22:
 213:STM32F10x_Speex_Lib/STM32/libspeex/nb_celp.c **** 
 214:STM32F10x_Speex_Lib/STM32/libspeex/nb_celp.c **** void nb_encoder_destroy(void *state)
 215:STM32F10x_Speex_Lib/STM32/libspeex/nb_celp.c **** {
 1003              		.loc 3 215 0
ARM GAS  /var/folders/kh/x4vltyy52lbg7p4pcyglc5080000gp/T//ccuucmVt.s 			page 27


 1004              		.cfi_startproc
 1005              		@ args = 0, pretend = 0, frame = 16
 1006              		@ frame_needed = 1, uses_anonymous_args = 0
 1007 0000 80B5     		push	{r7, lr}
 1008              	.LCFI54:
 1009              		.cfi_def_cfa_offset 8
 1010              		.cfi_offset 7, -8
 1011              		.cfi_offset 14, -4
 1012 0002 84B0     		sub	sp, sp, #16
 1013              	.LCFI55:
 1014              		.cfi_def_cfa_offset 24
 1015 0004 00AF     		add	r7, sp, #0
 1016              	.LCFI56:
 1017              		.cfi_def_cfa_register 7
 1018 0006 7860     		str	r0, [r7, #4]
 216:STM32F10x_Speex_Lib/STM32/libspeex/nb_celp.c ****    EncState *st=(EncState *)state;
 1019              		.loc 3 216 0
 1020 0008 7B68     		ldr	r3, [r7, #4]
 1021 000a FB60     		str	r3, [r7, #12]
 217:STM32F10x_Speex_Lib/STM32/libspeex/nb_celp.c ****    /* Free all allocated memory */
 218:STM32F10x_Speex_Lib/STM32/libspeex/nb_celp.c **** #if !(defined(VAR_ARRAYS) || defined (USE_ALLOCA))
 219:STM32F10x_Speex_Lib/STM32/libspeex/nb_celp.c ****    speex_free_scratch(st->stack);
 1022              		.loc 3 219 0
 1023 000c FB68     		ldr	r3, [r7, #12]
 1024 000e 1B6C     		ldr	r3, [r3, #64]
 1025 0010 1846     		mov	r0, r3
 1026 0012 FFF7FEFF 		bl	speex_free_scratch
 220:STM32F10x_Speex_Lib/STM32/libspeex/nb_celp.c **** #endif
 221:STM32F10x_Speex_Lib/STM32/libspeex/nb_celp.c **** 
 222:STM32F10x_Speex_Lib/STM32/libspeex/nb_celp.c ****    speex_free (st->winBuf);
 1027              		.loc 3 222 0
 1028 0016 FB68     		ldr	r3, [r7, #12]
 1029 0018 5B6C     		ldr	r3, [r3, #68]
 1030 001a 1846     		mov	r0, r3
 1031 001c FFF7FEFF 		bl	speex_free
 223:STM32F10x_Speex_Lib/STM32/libspeex/nb_celp.c ****    speex_free (st->excBuf);
 1032              		.loc 3 223 0
 1033 0020 FB68     		ldr	r3, [r7, #12]
 1034 0022 9B6C     		ldr	r3, [r3, #72]
 1035 0024 1846     		mov	r0, r3
 1036 0026 FFF7FEFF 		bl	speex_free
 224:STM32F10x_Speex_Lib/STM32/libspeex/nb_celp.c ****    speex_free (st->old_qlsp);
 1037              		.loc 3 224 0
 1038 002a FB68     		ldr	r3, [r7, #12]
 1039 002c 5B6E     		ldr	r3, [r3, #100]
 1040 002e 1846     		mov	r0, r3
 1041 0030 FFF7FEFF 		bl	speex_free
 225:STM32F10x_Speex_Lib/STM32/libspeex/nb_celp.c ****    speex_free (st->swBuf);
 1042              		.loc 3 225 0
 1043 0034 FB68     		ldr	r3, [r7, #12]
 1044 0036 1B6D     		ldr	r3, [r3, #80]
 1045 0038 1846     		mov	r0, r3
 1046 003a FFF7FEFF 		bl	speex_free
 226:STM32F10x_Speex_Lib/STM32/libspeex/nb_celp.c **** 
 227:STM32F10x_Speex_Lib/STM32/libspeex/nb_celp.c ****    speex_free (st->old_lsp);
 1047              		.loc 3 227 0
 1048 003e FB68     		ldr	r3, [r7, #12]
ARM GAS  /var/folders/kh/x4vltyy52lbg7p4pcyglc5080000gp/T//ccuucmVt.s 			page 28


 1049 0040 1B6E     		ldr	r3, [r3, #96]
 1050 0042 1846     		mov	r0, r3
 1051 0044 FFF7FEFF 		bl	speex_free
 228:STM32F10x_Speex_Lib/STM32/libspeex/nb_celp.c ****    speex_free (st->mem_sp);
 1052              		.loc 3 228 0
 1053 0048 FB68     		ldr	r3, [r7, #12]
 1054 004a 9B6E     		ldr	r3, [r3, #104]
 1055 004c 1846     		mov	r0, r3
 1056 004e FFF7FEFF 		bl	speex_free
 229:STM32F10x_Speex_Lib/STM32/libspeex/nb_celp.c ****    speex_free (st->mem_sw);
 1057              		.loc 3 229 0
 1058 0052 FB68     		ldr	r3, [r7, #12]
 1059 0054 DB6E     		ldr	r3, [r3, #108]
 1060 0056 1846     		mov	r0, r3
 1061 0058 FFF7FEFF 		bl	speex_free
 230:STM32F10x_Speex_Lib/STM32/libspeex/nb_celp.c ****    speex_free (st->mem_sw_whole);
 1062              		.loc 3 230 0
 1063 005c FB68     		ldr	r3, [r7, #12]
 1064 005e 1B6F     		ldr	r3, [r3, #112]
 1065 0060 1846     		mov	r0, r3
 1066 0062 FFF7FEFF 		bl	speex_free
 231:STM32F10x_Speex_Lib/STM32/libspeex/nb_celp.c ****    speex_free (st->mem_exc);
 1067              		.loc 3 231 0
 1068 0066 FB68     		ldr	r3, [r7, #12]
 1069 0068 5B6F     		ldr	r3, [r3, #116]
 1070 006a 1846     		mov	r0, r3
 1071 006c FFF7FEFF 		bl	speex_free
 232:STM32F10x_Speex_Lib/STM32/libspeex/nb_celp.c ****    speex_free (st->mem_exc2);
 1072              		.loc 3 232 0
 1073 0070 FB68     		ldr	r3, [r7, #12]
 1074 0072 9B6F     		ldr	r3, [r3, #120]
 1075 0074 1846     		mov	r0, r3
 1076 0076 FFF7FEFF 		bl	speex_free
 233:STM32F10x_Speex_Lib/STM32/libspeex/nb_celp.c ****    speex_free (st->pi_gain);
 1077              		.loc 3 233 0
 1078 007a FB68     		ldr	r3, [r7, #12]
 1079 007c D3F88430 		ldr	r3, [r3, #132]
 1080 0080 1846     		mov	r0, r3
 1081 0082 FFF7FEFF 		bl	speex_free
 234:STM32F10x_Speex_Lib/STM32/libspeex/nb_celp.c ****    speex_free (st->pitch);
 1082              		.loc 3 234 0
 1083 0086 FB68     		ldr	r3, [r7, #12]
 1084 0088 5B6B     		ldr	r3, [r3, #52]
 1085 008a 1846     		mov	r0, r3
 1086 008c FFF7FEFF 		bl	speex_free
 235:STM32F10x_Speex_Lib/STM32/libspeex/nb_celp.c **** 
 236:STM32F10x_Speex_Lib/STM32/libspeex/nb_celp.c **** #ifndef DISABLE_VBR
 237:STM32F10x_Speex_Lib/STM32/libspeex/nb_celp.c ****    vbr_destroy(st->vbr);
 238:STM32F10x_Speex_Lib/STM32/libspeex/nb_celp.c ****    speex_free (st->vbr);
 239:STM32F10x_Speex_Lib/STM32/libspeex/nb_celp.c **** #endif /* #ifndef DISABLE_VBR */
 240:STM32F10x_Speex_Lib/STM32/libspeex/nb_celp.c **** 
 241:STM32F10x_Speex_Lib/STM32/libspeex/nb_celp.c **** #ifdef VORBIS_PSYCHO
 242:STM32F10x_Speex_Lib/STM32/libspeex/nb_celp.c ****    vorbis_psy_destroy(st->psy);
 243:STM32F10x_Speex_Lib/STM32/libspeex/nb_celp.c ****    speex_free (st->curve);
 244:STM32F10x_Speex_Lib/STM32/libspeex/nb_celp.c ****    speex_free (st->old_curve);
 245:STM32F10x_Speex_Lib/STM32/libspeex/nb_celp.c ****    speex_free (st->psy_window);
 246:STM32F10x_Speex_Lib/STM32/libspeex/nb_celp.c **** #endif
ARM GAS  /var/folders/kh/x4vltyy52lbg7p4pcyglc5080000gp/T//ccuucmVt.s 			page 29


 247:STM32F10x_Speex_Lib/STM32/libspeex/nb_celp.c **** 
 248:STM32F10x_Speex_Lib/STM32/libspeex/nb_celp.c ****    /*Free state memory... should be last*/
 249:STM32F10x_Speex_Lib/STM32/libspeex/nb_celp.c ****    speex_free(st);
 1087              		.loc 3 249 0
 1088 0090 F868     		ldr	r0, [r7, #12]
 1089 0092 FFF7FEFF 		bl	speex_free
 250:STM32F10x_Speex_Lib/STM32/libspeex/nb_celp.c **** }
 1090              		.loc 3 250 0
 1091 0096 00BF     		nop
 1092 0098 1037     		adds	r7, r7, #16
 1093              	.LCFI57:
 1094              		.cfi_def_cfa_offset 8
 1095 009a BD46     		mov	sp, r7
 1096              	.LCFI58:
 1097              		.cfi_def_cfa_register 13
 1098              		@ sp needed
 1099 009c 80BD     		pop	{r7, pc}
 1100              		.cfi_endproc
 1101              	.LFE22:
 1103 009e 00BF     		.section	.text.nb_encode,"ax",%progbits
 1104              		.align	2
 1105              		.global	nb_encode
 1106              		.thumb
 1107              		.thumb_func
 1109              	nb_encode:
 1110              	.LFB23:
 251:STM32F10x_Speex_Lib/STM32/libspeex/nb_celp.c **** 
 252:STM32F10x_Speex_Lib/STM32/libspeex/nb_celp.c **** /********************************************************************************************/
 253:STM32F10x_Speex_Lib/STM32/libspeex/nb_celp.c **** /* This function has been modified by STMicroelectronics, MCD Application team, June 2008.  */
 254:STM32F10x_Speex_Lib/STM32/libspeex/nb_celp.c **** /********************************************************************************************/
 255:STM32F10x_Speex_Lib/STM32/libspeex/nb_celp.c **** int nb_encode(void *state, void *vin, SpeexBits *bits)
 256:STM32F10x_Speex_Lib/STM32/libspeex/nb_celp.c **** {
 1111              		.loc 3 256 0
 1112              		.cfi_startproc
 1113              		@ args = 0, pretend = 0, frame = 368
 1114              		@ frame_needed = 1, uses_anonymous_args = 0
 1115 0000 F0B5     		push	{r4, r5, r6, r7, lr}
 1116              	.LCFI59:
 1117              		.cfi_def_cfa_offset 20
 1118              		.cfi_offset 4, -20
 1119              		.cfi_offset 5, -16
 1120              		.cfi_offset 6, -12
 1121              		.cfi_offset 7, -8
 1122              		.cfi_offset 14, -4
 1123 0002 EDB0     		sub	sp, sp, #436
 1124              	.LCFI60:
 1125              		.cfi_def_cfa_offset 456
 1126 0004 10AF     		add	r7, sp, #64
 1127              	.LCFI61:
 1128              		.cfi_def_cfa 7, 392
 1129 0006 07F10C03 		add	r3, r7, #12
 1130 000a 1860     		str	r0, [r3]
 1131 000c 07F10803 		add	r3, r7, #8
 1132 0010 1960     		str	r1, [r3]
 1133 0012 3B1D     		adds	r3, r7, #4
 1134 0014 1A60     		str	r2, [r3]
 257:STM32F10x_Speex_Lib/STM32/libspeex/nb_celp.c ****    EncState *st;
ARM GAS  /var/folders/kh/x4vltyy52lbg7p4pcyglc5080000gp/T//ccuucmVt.s 			page 30


 258:STM32F10x_Speex_Lib/STM32/libspeex/nb_celp.c ****    int i, sub, roots;
 259:STM32F10x_Speex_Lib/STM32/libspeex/nb_celp.c ****    int ol_pitch;
 260:STM32F10x_Speex_Lib/STM32/libspeex/nb_celp.c ****    spx_word16_t ol_pitch_coef;
 261:STM32F10x_Speex_Lib/STM32/libspeex/nb_celp.c ****    spx_word32_t ol_gain;
 262:STM32F10x_Speex_Lib/STM32/libspeex/nb_celp.c ****    VARDECL(spx_word16_t *ringing);
 263:STM32F10x_Speex_Lib/STM32/libspeex/nb_celp.c ****    VARDECL(spx_word16_t *target);
 264:STM32F10x_Speex_Lib/STM32/libspeex/nb_celp.c ****    VARDECL(spx_sig_t *innov);
 265:STM32F10x_Speex_Lib/STM32/libspeex/nb_celp.c ****    VARDECL(spx_word32_t *exc32);
 266:STM32F10x_Speex_Lib/STM32/libspeex/nb_celp.c ****    VARDECL(spx_mem_t *mem);
 267:STM32F10x_Speex_Lib/STM32/libspeex/nb_celp.c **** 
 268:STM32F10x_Speex_Lib/STM32/libspeex/nb_celp.c ****    spx_coef_t lpc[10];
 269:STM32F10x_Speex_Lib/STM32/libspeex/nb_celp.c ****    spx_coef_t bw_lpc1[10];
 270:STM32F10x_Speex_Lib/STM32/libspeex/nb_celp.c ****    spx_coef_t bw_lpc2[10];
 271:STM32F10x_Speex_Lib/STM32/libspeex/nb_celp.c ****    spx_lsp_t lsp[10];
 272:STM32F10x_Speex_Lib/STM32/libspeex/nb_celp.c ****    spx_lsp_t qlsp[10];
 273:STM32F10x_Speex_Lib/STM32/libspeex/nb_celp.c ****    spx_lsp_t interp_lsp[10];
 274:STM32F10x_Speex_Lib/STM32/libspeex/nb_celp.c ****    spx_lsp_t interp_qlsp[10];
 275:STM32F10x_Speex_Lib/STM32/libspeex/nb_celp.c ****    spx_coef_t interp_lpc[10];
 276:STM32F10x_Speex_Lib/STM32/libspeex/nb_celp.c ****    spx_coef_t interp_qlpc[10];
 277:STM32F10x_Speex_Lib/STM32/libspeex/nb_celp.c ****    char *stack;
 278:STM32F10x_Speex_Lib/STM32/libspeex/nb_celp.c ****    VARDECL(spx_word16_t *syn_resp);
 279:STM32F10x_Speex_Lib/STM32/libspeex/nb_celp.c ****    VARDECL(spx_word16_t *real_exc);
 280:STM32F10x_Speex_Lib/STM32/libspeex/nb_celp.c ****    
 281:STM32F10x_Speex_Lib/STM32/libspeex/nb_celp.c ****    spx_word32_t ener=0;
 1135              		.loc 3 281 0
 1136 0016 0023     		movs	r3, #0
 1137 0018 C7F84831 		str	r3, [r7, #328]
 282:STM32F10x_Speex_Lib/STM32/libspeex/nb_celp.c ****    spx_word16_t fine_gain;
 283:STM32F10x_Speex_Lib/STM32/libspeex/nb_celp.c ****    spx_word16_t *in = (spx_word16_t*)vin;
 1138              		.loc 3 283 0
 1139 001c 07F10803 		add	r3, r7, #8
 1140 0020 1B68     		ldr	r3, [r3]
 1141 0022 C7F84431 		str	r3, [r7, #324]
 284:STM32F10x_Speex_Lib/STM32/libspeex/nb_celp.c **** 
 285:STM32F10x_Speex_Lib/STM32/libspeex/nb_celp.c ****    st=(EncState *)state;
 1142              		.loc 3 285 0
 1143 0026 07F10C03 		add	r3, r7, #12
 1144 002a 1B68     		ldr	r3, [r3]
 1145 002c C7F84031 		str	r3, [r7, #320]
 286:STM32F10x_Speex_Lib/STM32/libspeex/nb_celp.c ****    stack=st->stack;
 1146              		.loc 3 286 0
 1147 0030 D7F84031 		ldr	r3, [r7, #320]
 1148 0034 1B6C     		ldr	r3, [r3, #64]
 1149 0036 C7F83C31 		str	r3, [r7, #316]
 287:STM32F10x_Speex_Lib/STM32/libspeex/nb_celp.c **** 
 288:STM32F10x_Speex_Lib/STM32/libspeex/nb_celp.c ****    /* Move signals 1 frame towards the past */
 289:STM32F10x_Speex_Lib/STM32/libspeex/nb_celp.c ****    SPEEX_MOVE(st->excBuf, st->excBuf+st->frameSize, st->max_pitch+2);
 1150              		.loc 3 289 0
 1151 003a D7F84031 		ldr	r3, [r7, #320]
 1152 003e 986C     		ldr	r0, [r3, #72]
 1153 0040 D7F84031 		ldr	r3, [r7, #320]
 1154 0044 9A6C     		ldr	r2, [r3, #72]
 1155 0046 D7F84031 		ldr	r3, [r7, #320]
 1156 004a 9B68     		ldr	r3, [r3, #8]
 1157 004c 5B00     		lsls	r3, r3, #1
 1158 004e D118     		adds	r1, r2, r3
 1159 0050 D7F84031 		ldr	r3, [r7, #320]
ARM GAS  /var/folders/kh/x4vltyy52lbg7p4pcyglc5080000gp/T//ccuucmVt.s 			page 31


 1160 0054 1B6A     		ldr	r3, [r3, #32]
 1161 0056 0233     		adds	r3, r3, #2
 1162 0058 5B00     		lsls	r3, r3, #1
 1163 005a 1A46     		mov	r2, r3
 1164 005c FFF7FEFF 		bl	memmove
 290:STM32F10x_Speex_Lib/STM32/libspeex/nb_celp.c ****    SPEEX_MOVE(st->swBuf, st->swBuf+st->frameSize, st->max_pitch+2);
 1165              		.loc 3 290 0
 1166 0060 D7F84031 		ldr	r3, [r7, #320]
 1167 0064 186D     		ldr	r0, [r3, #80]
 1168 0066 D7F84031 		ldr	r3, [r7, #320]
 1169 006a 1A6D     		ldr	r2, [r3, #80]
 1170 006c D7F84031 		ldr	r3, [r7, #320]
 1171 0070 9B68     		ldr	r3, [r3, #8]
 1172 0072 5B00     		lsls	r3, r3, #1
 1173 0074 D118     		adds	r1, r2, r3
 1174 0076 D7F84031 		ldr	r3, [r7, #320]
 1175 007a 1B6A     		ldr	r3, [r3, #32]
 1176 007c 0233     		adds	r3, r3, #2
 1177 007e 5B00     		lsls	r3, r3, #1
 1178 0080 1A46     		mov	r2, r3
 1179 0082 FFF7FEFF 		bl	memmove
 291:STM32F10x_Speex_Lib/STM32/libspeex/nb_celp.c **** 
 292:STM32F10x_Speex_Lib/STM32/libspeex/nb_celp.c ****    if (st->highpass_enabled)
 1180              		.loc 3 292 0
 1181 0086 D7F84031 		ldr	r3, [r7, #320]
 1182 008a D3F8AC30 		ldr	r3, [r3, #172]
 1183 008e 002B     		cmp	r3, #0
 1184 0090 16D0     		beq	.L34
 293:STM32F10x_Speex_Lib/STM32/libspeex/nb_celp.c ****       highpass(in, in, st->frameSize, (st->isWideband?HIGHPASS_WIDEBAND:HIGHPASS_NARROWBAND)|HIGHPA
 1185              		.loc 3 293 0
 1186 0092 D7F84031 		ldr	r3, [r7, #320]
 1187 0096 9A68     		ldr	r2, [r3, #8]
 1188 0098 D7F84031 		ldr	r3, [r7, #320]
 1189 009c D3F8A830 		ldr	r3, [r3, #168]
 1190 00a0 002B     		cmp	r3, #0
 1191 00a2 01D0     		beq	.L35
 1192              		.loc 3 293 0 is_stmt 0 discriminator 1
 1193 00a4 0221     		movs	r1, #2
 1194 00a6 00E0     		b	.L36
 1195              	.L35:
 1196              		.loc 3 293 0 discriminator 2
 1197 00a8 0021     		movs	r1, #0
 1198              	.L36:
 1199              		.loc 3 293 0 discriminator 4
 1200 00aa D7F84031 		ldr	r3, [r7, #320]
 1201 00ae 7C33     		adds	r3, r3, #124
 1202 00b0 0093     		str	r3, [sp]
 1203 00b2 0B46     		mov	r3, r1
 1204 00b4 D7F84411 		ldr	r1, [r7, #324]
 1205 00b8 D7F84401 		ldr	r0, [r7, #324]
 1206 00bc FFF7FEFF 		bl	highpass
 1207              	.L34:
 1208              	.LBB2:
 294:STM32F10x_Speex_Lib/STM32/libspeex/nb_celp.c ****    
 295:STM32F10x_Speex_Lib/STM32/libspeex/nb_celp.c ****    {
 296:STM32F10x_Speex_Lib/STM32/libspeex/nb_celp.c ****       VARDECL(spx_word16_t *w_sig);
 297:STM32F10x_Speex_Lib/STM32/libspeex/nb_celp.c ****       VARDECL(spx_word16_t *autocorr);
ARM GAS  /var/folders/kh/x4vltyy52lbg7p4pcyglc5080000gp/T//ccuucmVt.s 			page 32


 298:STM32F10x_Speex_Lib/STM32/libspeex/nb_celp.c ****       ALLOC(w_sig, st->windowSize, spx_word16_t);
 1209              		.loc 3 298 0 is_stmt 1
 1210 00c0 D7F83C31 		ldr	r3, [r7, #316]
 1211 00c4 5B42     		negs	r3, r3
 1212 00c6 03F00103 		and	r3, r3, #1
 1213 00ca D7F83C21 		ldr	r2, [r7, #316]
 1214 00ce 1344     		add	r3, r3, r2
 1215 00d0 C7F83C31 		str	r3, [r7, #316]
 1216 00d4 D7F84031 		ldr	r3, [r7, #320]
 1217 00d8 5B69     		ldr	r3, [r3, #20]
 1218 00da 5B00     		lsls	r3, r3, #1
 1219 00dc D7F83C21 		ldr	r2, [r7, #316]
 1220 00e0 1344     		add	r3, r3, r2
 1221 00e2 C7F83C31 		str	r3, [r7, #316]
 1222 00e6 D7F84031 		ldr	r3, [r7, #320]
 1223 00ea 5B69     		ldr	r3, [r3, #20]
 1224 00ec 5B00     		lsls	r3, r3, #1
 1225 00ee 5B42     		negs	r3, r3
 1226 00f0 D7F83C21 		ldr	r2, [r7, #316]
 1227 00f4 1344     		add	r3, r3, r2
 1228 00f6 C7F83831 		str	r3, [r7, #312]
 299:STM32F10x_Speex_Lib/STM32/libspeex/nb_celp.c ****       ALLOC(autocorr, st->lpcSize+1, spx_word16_t);
 1229              		.loc 3 299 0
 1230 00fa D7F83C31 		ldr	r3, [r7, #316]
 1231 00fe 5B42     		negs	r3, r3
 1232 0100 03F00103 		and	r3, r3, #1
 1233 0104 D7F83C21 		ldr	r2, [r7, #316]
 1234 0108 1344     		add	r3, r3, r2
 1235 010a C7F83C31 		str	r3, [r7, #316]
 1236 010e D7F84031 		ldr	r3, [r7, #320]
 1237 0112 9B69     		ldr	r3, [r3, #24]
 1238 0114 0133     		adds	r3, r3, #1
 1239 0116 5B00     		lsls	r3, r3, #1
 1240 0118 D7F83C21 		ldr	r2, [r7, #316]
 1241 011c 1344     		add	r3, r3, r2
 1242 011e C7F83C31 		str	r3, [r7, #316]
 1243 0122 D7F84031 		ldr	r3, [r7, #320]
 1244 0126 9B69     		ldr	r3, [r3, #24]
 1245 0128 0133     		adds	r3, r3, #1
 1246 012a 5B00     		lsls	r3, r3, #1
 1247 012c 5B42     		negs	r3, r3
 1248 012e D7F83C21 		ldr	r2, [r7, #316]
 1249 0132 1344     		add	r3, r3, r2
 1250 0134 C7F83431 		str	r3, [r7, #308]
 300:STM32F10x_Speex_Lib/STM32/libspeex/nb_celp.c ****       /* Window for analysis */
 301:STM32F10x_Speex_Lib/STM32/libspeex/nb_celp.c ****       for (i=0;i<st->windowSize-st->frameSize;i++)
 1251              		.loc 3 301 0
 1252 0138 0023     		movs	r3, #0
 1253 013a C7F86C31 		str	r3, [r7, #364]
 1254 013e 22E0     		b	.L37
 1255              	.L38:
 302:STM32F10x_Speex_Lib/STM32/libspeex/nb_celp.c ****          w_sig[i] = EXTRACT16(SHR32(MULT16_16(st->winBuf[i],st->window[i]),SIG_SHIFT));
 1256              		.loc 3 302 0 discriminator 3
 1257 0140 D7F86C31 		ldr	r3, [r7, #364]
 1258 0144 5B00     		lsls	r3, r3, #1
 1259 0146 D7F83821 		ldr	r2, [r7, #312]
 1260 014a 1344     		add	r3, r3, r2
ARM GAS  /var/folders/kh/x4vltyy52lbg7p4pcyglc5080000gp/T//ccuucmVt.s 			page 33


 1261 014c D7F84021 		ldr	r2, [r7, #320]
 1262 0150 516C     		ldr	r1, [r2, #68]
 1263 0152 D7F86C21 		ldr	r2, [r7, #364]
 1264 0156 5200     		lsls	r2, r2, #1
 1265 0158 0A44     		add	r2, r2, r1
 1266 015a B2F90020 		ldrsh	r2, [r2]
 1267 015e 1046     		mov	r0, r2
 1268 0160 D7F84021 		ldr	r2, [r7, #320]
 1269 0164 916D     		ldr	r1, [r2, #88]
 1270 0166 D7F86C21 		ldr	r2, [r7, #364]
 1271 016a 5200     		lsls	r2, r2, #1
 1272 016c 0A44     		add	r2, r2, r1
 1273 016e B2F90020 		ldrsh	r2, [r2]
 1274 0172 02FB00F2 		mul	r2, r2, r0
 1275 0176 9213     		asrs	r2, r2, #14
 1276 0178 12B2     		sxth	r2, r2
 1277 017a 1A80     		strh	r2, [r3]	@ movhi
 301:STM32F10x_Speex_Lib/STM32/libspeex/nb_celp.c ****          w_sig[i] = EXTRACT16(SHR32(MULT16_16(st->winBuf[i],st->window[i]),SIG_SHIFT));
 1278              		.loc 3 301 0 discriminator 3
 1279 017c D7F86C31 		ldr	r3, [r7, #364]
 1280 0180 0133     		adds	r3, r3, #1
 1281 0182 C7F86C31 		str	r3, [r7, #364]
 1282              	.L37:
 301:STM32F10x_Speex_Lib/STM32/libspeex/nb_celp.c ****          w_sig[i] = EXTRACT16(SHR32(MULT16_16(st->winBuf[i],st->window[i]),SIG_SHIFT));
 1283              		.loc 3 301 0 is_stmt 0 discriminator 1
 1284 0186 D7F84031 		ldr	r3, [r7, #320]
 1285 018a 5A69     		ldr	r2, [r3, #20]
 1286 018c D7F84031 		ldr	r3, [r7, #320]
 1287 0190 9B68     		ldr	r3, [r3, #8]
 1288 0192 D21A     		subs	r2, r2, r3
 1289 0194 D7F86C31 		ldr	r3, [r7, #364]
 1290 0198 9A42     		cmp	r2, r3
 1291 019a D1DC     		bgt	.L38
 303:STM32F10x_Speex_Lib/STM32/libspeex/nb_celp.c ****       for (;i<st->windowSize;i++)
 1292              		.loc 3 303 0 is_stmt 1
 1293 019c 29E0     		b	.L39
 1294              	.L40:
 304:STM32F10x_Speex_Lib/STM32/libspeex/nb_celp.c ****          w_sig[i] = EXTRACT16(SHR32(MULT16_16(in[i-st->windowSize+st->frameSize],st->window[i]),SIG
 1295              		.loc 3 304 0 discriminator 2
 1296 019e D7F86C31 		ldr	r3, [r7, #364]
 1297 01a2 5B00     		lsls	r3, r3, #1
 1298 01a4 D7F83821 		ldr	r2, [r7, #312]
 1299 01a8 1344     		add	r3, r3, r2
 1300 01aa D7F84021 		ldr	r2, [r7, #320]
 1301 01ae 5269     		ldr	r2, [r2, #20]
 1302 01b0 D7F86C11 		ldr	r1, [r7, #364]
 1303 01b4 891A     		subs	r1, r1, r2
 1304 01b6 D7F84021 		ldr	r2, [r7, #320]
 1305 01ba 9268     		ldr	r2, [r2, #8]
 1306 01bc 0A44     		add	r2, r2, r1
 1307 01be 5200     		lsls	r2, r2, #1
 1308 01c0 D7F84411 		ldr	r1, [r7, #324]
 1309 01c4 0A44     		add	r2, r2, r1
 1310 01c6 B2F90020 		ldrsh	r2, [r2]
 1311 01ca 1046     		mov	r0, r2
 1312 01cc D7F84021 		ldr	r2, [r7, #320]
 1313 01d0 916D     		ldr	r1, [r2, #88]
ARM GAS  /var/folders/kh/x4vltyy52lbg7p4pcyglc5080000gp/T//ccuucmVt.s 			page 34


 1314 01d2 D7F86C21 		ldr	r2, [r7, #364]
 1315 01d6 5200     		lsls	r2, r2, #1
 1316 01d8 0A44     		add	r2, r2, r1
 1317 01da B2F90020 		ldrsh	r2, [r2]
 1318 01de 02FB00F2 		mul	r2, r2, r0
 1319 01e2 9213     		asrs	r2, r2, #14
 1320 01e4 12B2     		sxth	r2, r2
 1321 01e6 1A80     		strh	r2, [r3]	@ movhi
 303:STM32F10x_Speex_Lib/STM32/libspeex/nb_celp.c ****       for (;i<st->windowSize;i++)
 1322              		.loc 3 303 0 discriminator 2
 1323 01e8 D7F86C31 		ldr	r3, [r7, #364]
 1324 01ec 0133     		adds	r3, r3, #1
 1325 01ee C7F86C31 		str	r3, [r7, #364]
 1326              	.L39:
 303:STM32F10x_Speex_Lib/STM32/libspeex/nb_celp.c ****       for (;i<st->windowSize;i++)
 1327              		.loc 3 303 0 is_stmt 0 discriminator 1
 1328 01f2 D7F84031 		ldr	r3, [r7, #320]
 1329 01f6 5A69     		ldr	r2, [r3, #20]
 1330 01f8 D7F86C31 		ldr	r3, [r7, #364]
 1331 01fc 9A42     		cmp	r2, r3
 1332 01fe CEDC     		bgt	.L40
 305:STM32F10x_Speex_Lib/STM32/libspeex/nb_celp.c ****       /* Compute auto-correlation */
 306:STM32F10x_Speex_Lib/STM32/libspeex/nb_celp.c ****       _spx_autocorr(w_sig, autocorr, st->lpcSize+1, st->windowSize);
 1333              		.loc 3 306 0 is_stmt 1
 1334 0200 D7F84031 		ldr	r3, [r7, #320]
 1335 0204 9B69     		ldr	r3, [r3, #24]
 1336 0206 5A1C     		adds	r2, r3, #1
 1337 0208 D7F84031 		ldr	r3, [r7, #320]
 1338 020c 5B69     		ldr	r3, [r3, #20]
 1339 020e D7F83411 		ldr	r1, [r7, #308]
 1340 0212 D7F83801 		ldr	r0, [r7, #312]
 1341 0216 FFF7FEFF 		bl	_spx_autocorr
 307:STM32F10x_Speex_Lib/STM32/libspeex/nb_celp.c ****       autocorr[0] = ADD16(autocorr[0],MULT16_16_Q15(autocorr[0],st->lpc_floor)); /* Noise floor in 
 1342              		.loc 3 307 0
 1343 021a D7F83431 		ldr	r3, [r7, #308]
 1344 021e B3F90030 		ldrsh	r3, [r3]
 1345 0222 9AB2     		uxth	r2, r3
 1346 0224 D7F83431 		ldr	r3, [r7, #308]
 1347 0228 B3F90030 		ldrsh	r3, [r3]
 1348 022c 1946     		mov	r1, r3
 1349 022e D7F84031 		ldr	r3, [r7, #320]
 1350 0232 B3F93C30 		ldrsh	r3, [r3, #60]
 1351 0236 03FB01F3 		mul	r3, r3, r1
 1352 023a DB13     		asrs	r3, r3, #15
 1353 023c 9BB2     		uxth	r3, r3
 1354 023e 1344     		add	r3, r3, r2
 1355 0240 9BB2     		uxth	r3, r3
 1356 0242 1AB2     		sxth	r2, r3
 1357 0244 D7F83431 		ldr	r3, [r7, #308]
 1358 0248 1A80     		strh	r2, [r3]	@ movhi
 308:STM32F10x_Speex_Lib/STM32/libspeex/nb_celp.c **** 
 309:STM32F10x_Speex_Lib/STM32/libspeex/nb_celp.c ****       /* Lag windowing: equivalent to filtering in the power-spectrum domain */
 310:STM32F10x_Speex_Lib/STM32/libspeex/nb_celp.c ****       for (i=0;i<st->lpcSize+1;i++)
 1359              		.loc 3 310 0
 1360 024a 0023     		movs	r3, #0
 1361 024c C7F86C31 		str	r3, [r7, #364]
 1362 0250 21E0     		b	.L41
ARM GAS  /var/folders/kh/x4vltyy52lbg7p4pcyglc5080000gp/T//ccuucmVt.s 			page 35


 1363              	.L42:
 311:STM32F10x_Speex_Lib/STM32/libspeex/nb_celp.c ****          autocorr[i] = MULT16_16_Q14(autocorr[i],st->lagWindow[i]);
 1364              		.loc 3 311 0 discriminator 3
 1365 0252 D7F86C31 		ldr	r3, [r7, #364]
 1366 0256 5B00     		lsls	r3, r3, #1
 1367 0258 D7F83421 		ldr	r2, [r7, #308]
 1368 025c 1344     		add	r3, r3, r2
 1369 025e D7F86C21 		ldr	r2, [r7, #364]
 1370 0262 5200     		lsls	r2, r2, #1
 1371 0264 D7F83411 		ldr	r1, [r7, #308]
 1372 0268 0A44     		add	r2, r2, r1
 1373 026a B2F90020 		ldrsh	r2, [r2]
 1374 026e 1046     		mov	r0, r2
 1375 0270 D7F84021 		ldr	r2, [r7, #320]
 1376 0274 D16D     		ldr	r1, [r2, #92]
 1377 0276 D7F86C21 		ldr	r2, [r7, #364]
 1378 027a 5200     		lsls	r2, r2, #1
 1379 027c 0A44     		add	r2, r2, r1
 1380 027e B2F90020 		ldrsh	r2, [r2]
 1381 0282 02FB00F2 		mul	r2, r2, r0
 1382 0286 9213     		asrs	r2, r2, #14
 1383 0288 12B2     		sxth	r2, r2
 1384 028a 1A80     		strh	r2, [r3]	@ movhi
 310:STM32F10x_Speex_Lib/STM32/libspeex/nb_celp.c ****          autocorr[i] = MULT16_16_Q14(autocorr[i],st->lagWindow[i]);
 1385              		.loc 3 310 0 discriminator 3
 1386 028c D7F86C31 		ldr	r3, [r7, #364]
 1387 0290 0133     		adds	r3, r3, #1
 1388 0292 C7F86C31 		str	r3, [r7, #364]
 1389              	.L41:
 310:STM32F10x_Speex_Lib/STM32/libspeex/nb_celp.c ****          autocorr[i] = MULT16_16_Q14(autocorr[i],st->lagWindow[i]);
 1390              		.loc 3 310 0 is_stmt 0 discriminator 1
 1391 0296 D7F84031 		ldr	r3, [r7, #320]
 1392 029a 9B69     		ldr	r3, [r3, #24]
 1393 029c 5A1C     		adds	r2, r3, #1
 1394 029e D7F86C31 		ldr	r3, [r7, #364]
 1395 02a2 9A42     		cmp	r2, r3
 1396 02a4 D5DC     		bgt	.L42
 312:STM32F10x_Speex_Lib/STM32/libspeex/nb_celp.c **** 
 313:STM32F10x_Speex_Lib/STM32/libspeex/nb_celp.c ****       /* Levinson-Durbin */
 314:STM32F10x_Speex_Lib/STM32/libspeex/nb_celp.c ****       _spx_lpc(lpc, autocorr, st->lpcSize);
 1397              		.loc 3 314 0 is_stmt 1
 1398 02a6 D7F84031 		ldr	r3, [r7, #320]
 1399 02aa 9A69     		ldr	r2, [r3, #24]
 1400 02ac 07F1D803 		add	r3, r7, #216
 1401 02b0 D7F83411 		ldr	r1, [r7, #308]
 1402 02b4 1846     		mov	r0, r3
 1403 02b6 FFF7FEFF 		bl	_spx_lpc
 315:STM32F10x_Speex_Lib/STM32/libspeex/nb_celp.c ****       /* LPC to LSPs (x-domain) transform */
 316:STM32F10x_Speex_Lib/STM32/libspeex/nb_celp.c ****       roots=lpc_to_lsp (lpc, st->lpcSize, lsp, 10, LSP_DELTA1, stack);
 1404              		.loc 3 316 0
 1405 02ba D7F84031 		ldr	r3, [r7, #320]
 1406 02be 9969     		ldr	r1, [r3, #24]
 1407 02c0 07F19C02 		add	r2, r7, #156
 1408 02c4 07F1D800 		add	r0, r7, #216
 1409 02c8 D7F83C31 		ldr	r3, [r7, #316]
 1410 02cc 0193     		str	r3, [sp, #4]
 1411 02ce 41F69913 		movw	r3, #6553
ARM GAS  /var/folders/kh/x4vltyy52lbg7p4pcyglc5080000gp/T//ccuucmVt.s 			page 36


 1412 02d2 0093     		str	r3, [sp]
 1413 02d4 0A23     		movs	r3, #10
 1414 02d6 FFF7FEFF 		bl	lpc_to_lsp
 1415 02da C7F83001 		str	r0, [r7, #304]
 317:STM32F10x_Speex_Lib/STM32/libspeex/nb_celp.c ****       /* Check if we found all the roots */
 318:STM32F10x_Speex_Lib/STM32/libspeex/nb_celp.c ****       if (roots!=st->lpcSize)
 1416              		.loc 3 318 0
 1417 02de D7F84031 		ldr	r3, [r7, #320]
 1418 02e2 9A69     		ldr	r2, [r3, #24]
 1419 02e4 D7F83031 		ldr	r3, [r7, #304]
 1420 02e8 9A42     		cmp	r2, r3
 1421 02ea 20D0     		beq	.L43
 319:STM32F10x_Speex_Lib/STM32/libspeex/nb_celp.c ****       {
 320:STM32F10x_Speex_Lib/STM32/libspeex/nb_celp.c ****          /*If we can't find all LSP's, do some damage control and use previous filter*/
 321:STM32F10x_Speex_Lib/STM32/libspeex/nb_celp.c ****          for (i=0;i<st->lpcSize;i++)
 1422              		.loc 3 321 0
 1423 02ec 0023     		movs	r3, #0
 1424 02ee C7F86C31 		str	r3, [r7, #364]
 1425 02f2 15E0     		b	.L44
 1426              	.L45:
 322:STM32F10x_Speex_Lib/STM32/libspeex/nb_celp.c ****          {
 323:STM32F10x_Speex_Lib/STM32/libspeex/nb_celp.c ****             lsp[i]=st->old_lsp[i];
 1427              		.loc 3 323 0 discriminator 3
 1428 02f4 D7F84031 		ldr	r3, [r7, #320]
 1429 02f8 1A6E     		ldr	r2, [r3, #96]
 1430 02fa D7F86C31 		ldr	r3, [r7, #364]
 1431 02fe 5B00     		lsls	r3, r3, #1
 1432 0300 1344     		add	r3, r3, r2
 1433 0302 B3F90020 		ldrsh	r2, [r3]
 1434 0306 D7F86C31 		ldr	r3, [r7, #364]
 1435 030a 5B00     		lsls	r3, r3, #1
 1436 030c 07F5B871 		add	r1, r7, #368
 1437 0310 0B44     		add	r3, r3, r1
 1438 0312 23F8D42C 		strh	r2, [r3, #-212]	@ movhi
 321:STM32F10x_Speex_Lib/STM32/libspeex/nb_celp.c ****          {
 1439              		.loc 3 321 0 discriminator 3
 1440 0316 D7F86C31 		ldr	r3, [r7, #364]
 1441 031a 0133     		adds	r3, r3, #1
 1442 031c C7F86C31 		str	r3, [r7, #364]
 1443              	.L44:
 321:STM32F10x_Speex_Lib/STM32/libspeex/nb_celp.c ****          {
 1444              		.loc 3 321 0 is_stmt 0 discriminator 1
 1445 0320 D7F84031 		ldr	r3, [r7, #320]
 1446 0324 9A69     		ldr	r2, [r3, #24]
 1447 0326 D7F86C31 		ldr	r3, [r7, #364]
 1448 032a 9A42     		cmp	r2, r3
 1449 032c E2DC     		bgt	.L45
 1450              	.L43:
 1451              	.LBE2:
 1452              	.LBB3:
 324:STM32F10x_Speex_Lib/STM32/libspeex/nb_celp.c ****          }
 325:STM32F10x_Speex_Lib/STM32/libspeex/nb_celp.c ****       }
 326:STM32F10x_Speex_Lib/STM32/libspeex/nb_celp.c ****    }
 327:STM32F10x_Speex_Lib/STM32/libspeex/nb_celp.c **** 
 328:STM32F10x_Speex_Lib/STM32/libspeex/nb_celp.c ****    /* Whole frame analysis (open-loop estimation of pitch and excitation gain) */
 329:STM32F10x_Speex_Lib/STM32/libspeex/nb_celp.c ****    {
 330:STM32F10x_Speex_Lib/STM32/libspeex/nb_celp.c ****       int diff = st->windowSize-st->frameSize;
ARM GAS  /var/folders/kh/x4vltyy52lbg7p4pcyglc5080000gp/T//ccuucmVt.s 			page 37


 1453              		.loc 3 330 0 is_stmt 1
 1454 032e D7F84031 		ldr	r3, [r7, #320]
 1455 0332 5A69     		ldr	r2, [r3, #20]
 1456 0334 D7F84031 		ldr	r3, [r7, #320]
 1457 0338 9B68     		ldr	r3, [r3, #8]
 1458 033a D31A     		subs	r3, r2, r3
 1459 033c C7F82C31 		str	r3, [r7, #300]
 331:STM32F10x_Speex_Lib/STM32/libspeex/nb_celp.c ****       if (st->first)
 1460              		.loc 3 331 0
 1461 0340 D7F84031 		ldr	r3, [r7, #320]
 1462 0344 5B68     		ldr	r3, [r3, #4]
 1463 0346 002B     		cmp	r3, #0
 1464 0348 20D0     		beq	.L46
 332:STM32F10x_Speex_Lib/STM32/libspeex/nb_celp.c ****          for (i=0;i<st->lpcSize;i++)
 1465              		.loc 3 332 0
 1466 034a 0023     		movs	r3, #0
 1467 034c C7F86C31 		str	r3, [r7, #364]
 1468 0350 14E0     		b	.L47
 1469              	.L48:
 333:STM32F10x_Speex_Lib/STM32/libspeex/nb_celp.c ****             interp_lsp[i] = lsp[i];
 1470              		.loc 3 333 0 discriminator 3
 1471 0352 D7F86C31 		ldr	r3, [r7, #364]
 1472 0356 5B00     		lsls	r3, r3, #1
 1473 0358 07F5B872 		add	r2, r7, #368
 1474 035c 1344     		add	r3, r3, r2
 1475 035e 33F9D42C 		ldrsh	r2, [r3, #-212]
 1476 0362 D7F86C31 		ldr	r3, [r7, #364]
 1477 0366 5B00     		lsls	r3, r3, #1
 1478 0368 07F5B871 		add	r1, r7, #368
 1479 036c 0B44     		add	r3, r3, r1
 1480 036e 23F8FC2C 		strh	r2, [r3, #-252]	@ movhi
 332:STM32F10x_Speex_Lib/STM32/libspeex/nb_celp.c ****          for (i=0;i<st->lpcSize;i++)
 1481              		.loc 3 332 0 discriminator 3
 1482 0372 D7F86C31 		ldr	r3, [r7, #364]
 1483 0376 0133     		adds	r3, r3, #1
 1484 0378 C7F86C31 		str	r3, [r7, #364]
 1485              	.L47:
 332:STM32F10x_Speex_Lib/STM32/libspeex/nb_celp.c ****          for (i=0;i<st->lpcSize;i++)
 1486              		.loc 3 332 0 is_stmt 0 discriminator 1
 1487 037c D7F84031 		ldr	r3, [r7, #320]
 1488 0380 9A69     		ldr	r2, [r3, #24]
 1489 0382 D7F86C31 		ldr	r3, [r7, #364]
 1490 0386 9A42     		cmp	r2, r3
 1491 0388 E3DC     		bgt	.L48
 1492 038a 16E0     		b	.L49
 1493              	.L46:
 334:STM32F10x_Speex_Lib/STM32/libspeex/nb_celp.c ****       else
 335:STM32F10x_Speex_Lib/STM32/libspeex/nb_celp.c ****          lsp_interpolate(st->old_lsp, lsp, interp_lsp, st->lpcSize, st->nbSubframes, st->nbSubframe
 1494              		.loc 3 335 0 is_stmt 1
 1495 038c D7F84031 		ldr	r3, [r7, #320]
 1496 0390 186E     		ldr	r0, [r3, #96]
 1497 0392 D7F84031 		ldr	r3, [r7, #320]
 1498 0396 9D69     		ldr	r5, [r3, #24]
 1499 0398 D7F84031 		ldr	r3, [r7, #320]
 1500 039c 1B69     		ldr	r3, [r3, #16]
 1501 039e D7F84021 		ldr	r2, [r7, #320]
 1502 03a2 1269     		ldr	r2, [r2, #16]
ARM GAS  /var/folders/kh/x4vltyy52lbg7p4pcyglc5080000gp/T//ccuucmVt.s 			page 38


 1503 03a4 5200     		lsls	r2, r2, #1
 1504 03a6 07F17404 		add	r4, r7, #116
 1505 03aa 07F19C01 		add	r1, r7, #156
 1506 03ae 0192     		str	r2, [sp, #4]
 1507 03b0 0093     		str	r3, [sp]
 1508 03b2 2B46     		mov	r3, r5
 1509 03b4 2246     		mov	r2, r4
 1510 03b6 FFF7FEFF 		bl	lsp_interpolate
 1511              	.L49:
 336:STM32F10x_Speex_Lib/STM32/libspeex/nb_celp.c **** 
 337:STM32F10x_Speex_Lib/STM32/libspeex/nb_celp.c ****       lsp_enforce_margin(interp_lsp, st->lpcSize, LSP_MARGIN);
 1512              		.loc 3 337 0
 1513 03ba D7F84031 		ldr	r3, [r7, #320]
 1514 03be 9969     		ldr	r1, [r3, #24]
 1515 03c0 07F17403 		add	r3, r7, #116
 1516 03c4 1022     		movs	r2, #16
 1517 03c6 1846     		mov	r0, r3
 1518 03c8 FFF7FEFF 		bl	lsp_enforce_margin
 338:STM32F10x_Speex_Lib/STM32/libspeex/nb_celp.c **** 
 339:STM32F10x_Speex_Lib/STM32/libspeex/nb_celp.c ****       /* Compute interpolated LPCs (unquantized) for whole frame*/
 340:STM32F10x_Speex_Lib/STM32/libspeex/nb_celp.c ****       lsp_to_lpc(interp_lsp, interp_lpc, st->lpcSize,stack);
 1519              		.loc 3 340 0
 1520 03cc D7F84031 		ldr	r3, [r7, #320]
 1521 03d0 9A69     		ldr	r2, [r3, #24]
 1522 03d2 07F14C01 		add	r1, r7, #76
 1523 03d6 07F17400 		add	r0, r7, #116
 1524 03da D7F83C31 		ldr	r3, [r7, #316]
 1525 03de FFF7FEFF 		bl	lsp_to_lpc
 341:STM32F10x_Speex_Lib/STM32/libspeex/nb_celp.c **** 
 342:STM32F10x_Speex_Lib/STM32/libspeex/nb_celp.c **** 
 343:STM32F10x_Speex_Lib/STM32/libspeex/nb_celp.c ****       /*Open-loop pitch*/
 344:STM32F10x_Speex_Lib/STM32/libspeex/nb_celp.c ****       if (!st->submodes[st->submodeID] || (st->complexity>2 && SUBMODE(have_subframe_gain)<3) || SU
 1526              		.loc 3 344 0
 1527 03e2 D7F84031 		ldr	r3, [r7, #320]
 1528 03e6 D3F89C20 		ldr	r2, [r3, #156]
 1529 03ea D7F84031 		ldr	r3, [r7, #320]
 1530 03ee D3F8A030 		ldr	r3, [r3, #160]
 1531 03f2 9B00     		lsls	r3, r3, #2
 1532 03f4 1344     		add	r3, r3, r2
 1533 03f6 1B68     		ldr	r3, [r3]
 1534 03f8 002B     		cmp	r3, #0
 1535 03fa 31D0     		beq	.L50
 1536              		.loc 3 344 0 is_stmt 0 discriminator 1
 1537 03fc D7F84031 		ldr	r3, [r7, #320]
 1538 0400 D3F88C30 		ldr	r3, [r3, #140]
 1539 0404 022B     		cmp	r3, #2
 1540 0406 0DDD     		ble	.L51
 1541              		.loc 3 344 0 discriminator 2
 1542 0408 D7F84031 		ldr	r3, [r7, #320]
 1543 040c D3F89C20 		ldr	r2, [r3, #156]
 1544 0410 D7F84031 		ldr	r3, [r7, #320]
 1545 0414 D3F8A030 		ldr	r3, [r3, #160]
 1546 0418 9B00     		lsls	r3, r3, #2
 1547 041a 1344     		add	r3, r3, r2
 1548 041c 1B68     		ldr	r3, [r3]
 1549 041e 9B68     		ldr	r3, [r3, #8]
 1550 0420 022B     		cmp	r3, #2
ARM GAS  /var/folders/kh/x4vltyy52lbg7p4pcyglc5080000gp/T//ccuucmVt.s 			page 39


 1551 0422 1DDD     		ble	.L50
 1552              	.L51:
 1553              		.loc 3 344 0 discriminator 4
 1554 0424 D7F84031 		ldr	r3, [r7, #320]
 1555 0428 D3F89C20 		ldr	r2, [r3, #156]
 1556 042c D7F84031 		ldr	r3, [r7, #320]
 1557 0430 D3F8A030 		ldr	r3, [r3, #160]
 1558 0434 9B00     		lsls	r3, r3, #2
 1559 0436 1344     		add	r3, r3, r2
 1560 0438 1B68     		ldr	r3, [r3]
 1561 043a 5B68     		ldr	r3, [r3, #4]
 1562 043c 002B     		cmp	r3, #0
 1563 043e 0FD1     		bne	.L50
 1564              		.loc 3 344 0 discriminator 5
 1565 0440 D7F84031 		ldr	r3, [r7, #320]
 1566 0444 D3F89C20 		ldr	r2, [r3, #156]
 1567 0448 D7F84031 		ldr	r3, [r7, #320]
 1568 044c D3F8A030 		ldr	r3, [r3, #160]
 1569 0450 9B00     		lsls	r3, r3, #2
 1570 0452 1344     		add	r3, r3, r2
 1571 0454 1B68     		ldr	r3, [r3]
 1572 0456 1B68     		ldr	r3, [r3]
 1573 0458 B3F1FF3F 		cmp	r3, #-1
 1574 045c 00F03281 		beq	.L52
 1575              	.L50:
 1576              	.LBB4:
 345:STM32F10x_Speex_Lib/STM32/libspeex/nb_celp.c ****       {
 346:STM32F10x_Speex_Lib/STM32/libspeex/nb_celp.c ****          int nol_pitch[6];
 347:STM32F10x_Speex_Lib/STM32/libspeex/nb_celp.c ****          spx_word16_t nol_pitch_coef[6];
 348:STM32F10x_Speex_Lib/STM32/libspeex/nb_celp.c ****          
 349:STM32F10x_Speex_Lib/STM32/libspeex/nb_celp.c ****          bw_lpc(st->gamma1, interp_lpc, bw_lpc1, st->lpcSize);
 1577              		.loc 3 349 0 is_stmt 1
 1578 0460 D7F84031 		ldr	r3, [r7, #320]
 1579 0464 B3F93800 		ldrsh	r0, [r3, #56]
 1580 0468 D7F84031 		ldr	r3, [r7, #320]
 1581 046c 9B69     		ldr	r3, [r3, #24]
 1582 046e 07F1C402 		add	r2, r7, #196
 1583 0472 07F14C01 		add	r1, r7, #76
 1584 0476 FFF7FEFF 		bl	bw_lpc
 350:STM32F10x_Speex_Lib/STM32/libspeex/nb_celp.c ****          bw_lpc(st->gamma2, interp_lpc, bw_lpc2, st->lpcSize);
 1585              		.loc 3 350 0
 1586 047a D7F84031 		ldr	r3, [r7, #320]
 1587 047e B3F93A00 		ldrsh	r0, [r3, #58]
 1588 0482 D7F84031 		ldr	r3, [r7, #320]
 1589 0486 9B69     		ldr	r3, [r3, #24]
 1590 0488 07F1B002 		add	r2, r7, #176
 1591 048c 07F14C01 		add	r1, r7, #76
 1592 0490 FFF7FEFF 		bl	bw_lpc
 351:STM32F10x_Speex_Lib/STM32/libspeex/nb_celp.c **** 
 352:STM32F10x_Speex_Lib/STM32/libspeex/nb_celp.c ****          SPEEX_COPY(st->sw, st->winBuf, diff);
 1593              		.loc 3 352 0
 1594 0494 D7F84031 		ldr	r3, [r7, #320]
 1595 0498 586D     		ldr	r0, [r3, #84]
 1596 049a D7F84031 		ldr	r3, [r7, #320]
 1597 049e 596C     		ldr	r1, [r3, #68]
 1598 04a0 D7F82C31 		ldr	r3, [r7, #300]
 1599 04a4 5B00     		lsls	r3, r3, #1
ARM GAS  /var/folders/kh/x4vltyy52lbg7p4pcyglc5080000gp/T//ccuucmVt.s 			page 40


 1600 04a6 1A46     		mov	r2, r3
 1601 04a8 FFF7FEFF 		bl	memcpy
 353:STM32F10x_Speex_Lib/STM32/libspeex/nb_celp.c ****          SPEEX_COPY(st->sw+diff, in, st->frameSize-diff);
 1602              		.loc 3 353 0
 1603 04ac D7F84031 		ldr	r3, [r7, #320]
 1604 04b0 5A6D     		ldr	r2, [r3, #84]
 1605 04b2 D7F82C31 		ldr	r3, [r7, #300]
 1606 04b6 5B00     		lsls	r3, r3, #1
 1607 04b8 D018     		adds	r0, r2, r3
 1608 04ba D7F84031 		ldr	r3, [r7, #320]
 1609 04be 9A68     		ldr	r2, [r3, #8]
 1610 04c0 D7F82C31 		ldr	r3, [r7, #300]
 1611 04c4 D31A     		subs	r3, r2, r3
 1612 04c6 5B00     		lsls	r3, r3, #1
 1613 04c8 1A46     		mov	r2, r3
 1614 04ca D7F84411 		ldr	r1, [r7, #324]
 1615 04ce FFF7FEFF 		bl	memcpy
 354:STM32F10x_Speex_Lib/STM32/libspeex/nb_celp.c ****          filter_mem16(st->sw, bw_lpc1, bw_lpc2, st->sw, st->frameSize, st->lpcSize, st->mem_sw_whol
 1616              		.loc 3 354 0
 1617 04d2 D7F84031 		ldr	r3, [r7, #320]
 1618 04d6 5C6D     		ldr	r4, [r3, #84]
 1619 04d8 D7F84031 		ldr	r3, [r7, #320]
 1620 04dc 5B6D     		ldr	r3, [r3, #84]
 1621 04de 3B60     		str	r3, [r7]
 1622 04e0 D7F84031 		ldr	r3, [r7, #320]
 1623 04e4 9B68     		ldr	r3, [r3, #8]
 1624 04e6 D7F84021 		ldr	r2, [r7, #320]
 1625 04ea 9269     		ldr	r2, [r2, #24]
 1626 04ec D7F84011 		ldr	r1, [r7, #320]
 1627 04f0 096F     		ldr	r1, [r1, #112]
 1628 04f2 07F1B006 		add	r6, r7, #176
 1629 04f6 07F1C405 		add	r5, r7, #196
 1630 04fa D7F83C01 		ldr	r0, [r7, #316]
 1631 04fe 0390     		str	r0, [sp, #12]
 1632 0500 0291     		str	r1, [sp, #8]
 1633 0502 0192     		str	r2, [sp, #4]
 1634 0504 0093     		str	r3, [sp]
 1635 0506 3B68     		ldr	r3, [r7]
 1636 0508 3246     		mov	r2, r6
 1637 050a 2946     		mov	r1, r5
 1638 050c 2046     		mov	r0, r4
 1639 050e FFF7FEFF 		bl	filter_mem16
 355:STM32F10x_Speex_Lib/STM32/libspeex/nb_celp.c **** 
 356:STM32F10x_Speex_Lib/STM32/libspeex/nb_celp.c ****          open_loop_nbest_pitch(st->sw, st->min_pitch, st->max_pitch, st->frameSize, 
 1640              		.loc 3 356 0
 1641 0512 D7F84031 		ldr	r3, [r7, #320]
 1642 0516 586D     		ldr	r0, [r3, #84]
 1643 0518 D7F84031 		ldr	r3, [r7, #320]
 1644 051c D969     		ldr	r1, [r3, #28]
 1645 051e D7F84031 		ldr	r3, [r7, #320]
 1646 0522 1A6A     		ldr	r2, [r3, #32]
 1647 0524 D7F84031 		ldr	r3, [r7, #320]
 1648 0528 9C68     		ldr	r4, [r3, #8]
 1649 052a D7F83C31 		ldr	r3, [r7, #316]
 1650 052e 0393     		str	r3, [sp, #12]
 1651 0530 0623     		movs	r3, #6
 1652 0532 0293     		str	r3, [sp, #8]
ARM GAS  /var/folders/kh/x4vltyy52lbg7p4pcyglc5080000gp/T//ccuucmVt.s 			page 41


 1653 0534 07F11403 		add	r3, r7, #20
 1654 0538 0193     		str	r3, [sp, #4]
 1655 053a 07F12003 		add	r3, r7, #32
 1656 053e 0093     		str	r3, [sp]
 1657 0540 2346     		mov	r3, r4
 1658 0542 FFF7FEFF 		bl	open_loop_nbest_pitch
 357:STM32F10x_Speex_Lib/STM32/libspeex/nb_celp.c ****                                nol_pitch, nol_pitch_coef, 6, stack);
 358:STM32F10x_Speex_Lib/STM32/libspeex/nb_celp.c ****          ol_pitch=nol_pitch[0];
 1659              		.loc 3 358 0
 1660 0546 07F12003 		add	r3, r7, #32
 1661 054a 1B68     		ldr	r3, [r3]
 1662 054c C7F86431 		str	r3, [r7, #356]
 359:STM32F10x_Speex_Lib/STM32/libspeex/nb_celp.c ****          ol_pitch_coef = nol_pitch_coef[0];
 1663              		.loc 3 359 0
 1664 0550 07F11403 		add	r3, r7, #20
 1665 0554 1B88     		ldrh	r3, [r3]	@ movhi
 1666 0556 A7F86231 		strh	r3, [r7, #354]	@ movhi
 360:STM32F10x_Speex_Lib/STM32/libspeex/nb_celp.c ****          /*Try to remove pitch multiples*/
 361:STM32F10x_Speex_Lib/STM32/libspeex/nb_celp.c ****          for (i=1;i<6;i++)
 1667              		.loc 3 361 0
 1668 055a 0123     		movs	r3, #1
 1669 055c C7F86C31 		str	r3, [r7, #364]
 1670 0560 AAE0     		b	.L53
 1671              	.L61:
 362:STM32F10x_Speex_Lib/STM32/libspeex/nb_celp.c ****          {
 363:STM32F10x_Speex_Lib/STM32/libspeex/nb_celp.c ****             if ((nol_pitch_coef[i]>MULT16_16_Q15(nol_pitch_coef[0],27853)) && 
 1672              		.loc 3 363 0
 1673 0562 07F11403 		add	r3, r7, #20
 1674 0566 D7F86C21 		ldr	r2, [r7, #364]
 1675 056a 33F91230 		ldrsh	r3, [r3, r2, lsl #1]
 1676 056e 1A46     		mov	r2, r3
 1677 0570 07F11403 		add	r3, r7, #20
 1678 0574 B3F90030 		ldrsh	r3, [r3]
 1679 0578 1946     		mov	r1, r3
 1680 057a 46F6CD43 		movw	r3, #27853
 1681 057e 03FB01F3 		mul	r3, r3, r1
 1682 0582 DB13     		asrs	r3, r3, #15
 1683 0584 9A42     		cmp	r2, r3
 1684 0586 40F39280 		ble	.L54
 364:STM32F10x_Speex_Lib/STM32/libspeex/nb_celp.c **** 
 365:STM32F10x_Speex_Lib/STM32/libspeex/nb_celp.c ****                 (ABS(2*nol_pitch[i]-ol_pitch)<=2 || ABS(3*nol_pitch[i]-ol_pitch)<=3 || 
 1685              		.loc 3 365 0 discriminator 1
 1686 058a 07F12003 		add	r3, r7, #32
 1687 058e D7F86C21 		ldr	r2, [r7, #364]
 1688 0592 53F82230 		ldr	r3, [r3, r2, lsl #2]
 1689 0596 5A00     		lsls	r2, r3, #1
 1690 0598 D7F86431 		ldr	r3, [r7, #356]
 1691 059c D31A     		subs	r3, r2, r3
 363:STM32F10x_Speex_Lib/STM32/libspeex/nb_celp.c **** 
 1692              		.loc 3 363 0 discriminator 1
 1693 059e 13F1020F 		cmn	r3, #2
 1694 05a2 0BDB     		blt	.L55
 1695              		.loc 3 365 0 discriminator 1
 1696 05a4 07F12003 		add	r3, r7, #32
 1697 05a8 D7F86C21 		ldr	r2, [r7, #364]
 1698 05ac 53F82230 		ldr	r3, [r3, r2, lsl #2]
 1699 05b0 5A00     		lsls	r2, r3, #1
ARM GAS  /var/folders/kh/x4vltyy52lbg7p4pcyglc5080000gp/T//ccuucmVt.s 			page 42


 1700 05b2 D7F86431 		ldr	r3, [r7, #356]
 1701 05b6 D31A     		subs	r3, r2, r3
 1702 05b8 022B     		cmp	r3, #2
 1703 05ba 70DD     		ble	.L56
 1704              	.L55:
 1705              		.loc 3 365 0 is_stmt 0 discriminator 2
 1706 05bc 07F12003 		add	r3, r7, #32
 1707 05c0 D7F86C21 		ldr	r2, [r7, #364]
 1708 05c4 53F82220 		ldr	r2, [r3, r2, lsl #2]
 1709 05c8 1346     		mov	r3, r2
 1710 05ca 5B00     		lsls	r3, r3, #1
 1711 05cc 1A44     		add	r2, r2, r3
 1712 05ce D7F86431 		ldr	r3, [r7, #356]
 1713 05d2 D31A     		subs	r3, r2, r3
 363:STM32F10x_Speex_Lib/STM32/libspeex/nb_celp.c **** 
 1714              		.loc 3 363 0 is_stmt 1 discriminator 2
 1715 05d4 002B     		cmp	r3, #0
 1716 05d6 0EDA     		bge	.L57
 1717              		.loc 3 365 0
 1718 05d8 07F12003 		add	r3, r7, #32
 1719 05dc D7F86C21 		ldr	r2, [r7, #364]
 1720 05e0 53F82230 		ldr	r3, [r3, r2, lsl #2]
 1721 05e4 1A46     		mov	r2, r3
 1722 05e6 9B00     		lsls	r3, r3, #2
 1723 05e8 D21A     		subs	r2, r2, r3
 1724 05ea D7F86431 		ldr	r3, [r7, #356]
 1725 05ee 1344     		add	r3, r3, r2
 1726 05f0 032B     		cmp	r3, #3
 1727 05f2 54DD     		ble	.L56
 1728 05f4 0DE0     		b	.L58
 1729              	.L57:
 1730 05f6 07F12003 		add	r3, r7, #32
 1731 05fa D7F86C21 		ldr	r2, [r7, #364]
 1732 05fe 53F82220 		ldr	r2, [r3, r2, lsl #2]
 1733 0602 1346     		mov	r3, r2
 1734 0604 5B00     		lsls	r3, r3, #1
 1735 0606 1A44     		add	r2, r2, r3
 1736 0608 D7F86431 		ldr	r3, [r7, #356]
 1737 060c D31A     		subs	r3, r2, r3
 1738 060e 032B     		cmp	r3, #3
 1739 0610 45DD     		ble	.L56
 1740              	.L58:
 366:STM32F10x_Speex_Lib/STM32/libspeex/nb_celp.c ****                  ABS(4*nol_pitch[i]-ol_pitch)<=4 || ABS(5*nol_pitch[i]-ol_pitch)<=5))
 1741              		.loc 3 366 0 discriminator 2
 1742 0612 07F12003 		add	r3, r7, #32
 1743 0616 D7F86C21 		ldr	r2, [r7, #364]
 1744 061a 53F82230 		ldr	r3, [r3, r2, lsl #2]
 1745 061e 9A00     		lsls	r2, r3, #2
 1746 0620 D7F86431 		ldr	r3, [r7, #356]
 1747 0624 D31A     		subs	r3, r2, r3
 365:STM32F10x_Speex_Lib/STM32/libspeex/nb_celp.c ****                  ABS(4*nol_pitch[i]-ol_pitch)<=4 || ABS(5*nol_pitch[i]-ol_pitch)<=5))
 1748              		.loc 3 365 0 discriminator 2
 1749 0626 13F1040F 		cmn	r3, #4
 1750 062a 0BDB     		blt	.L59
 1751              		.loc 3 366 0
 1752 062c 07F12003 		add	r3, r7, #32
 1753 0630 D7F86C21 		ldr	r2, [r7, #364]
ARM GAS  /var/folders/kh/x4vltyy52lbg7p4pcyglc5080000gp/T//ccuucmVt.s 			page 43


 1754 0634 53F82230 		ldr	r3, [r3, r2, lsl #2]
 1755 0638 9A00     		lsls	r2, r3, #2
 1756 063a D7F86431 		ldr	r3, [r7, #356]
 1757 063e D31A     		subs	r3, r2, r3
 1758 0640 042B     		cmp	r3, #4
 1759 0642 2CDD     		ble	.L56
 1760              	.L59:
 1761              		.loc 3 366 0 is_stmt 0 discriminator 1
 1762 0644 07F12003 		add	r3, r7, #32
 1763 0648 D7F86C21 		ldr	r2, [r7, #364]
 1764 064c 53F82220 		ldr	r2, [r3, r2, lsl #2]
 1765 0650 1346     		mov	r3, r2
 1766 0652 9B00     		lsls	r3, r3, #2
 1767 0654 1A44     		add	r2, r2, r3
 1768 0656 D7F86431 		ldr	r3, [r7, #356]
 1769 065a D31A     		subs	r3, r2, r3
 363:STM32F10x_Speex_Lib/STM32/libspeex/nb_celp.c **** 
 1770              		.loc 3 363 0 is_stmt 1 discriminator 1
 1771 065c 002B     		cmp	r3, #0
 1772 065e 10DA     		bge	.L60
 1773              		.loc 3 366 0
 1774 0660 07F12003 		add	r3, r7, #32
 1775 0664 D7F86C21 		ldr	r2, [r7, #364]
 1776 0668 53F82220 		ldr	r2, [r3, r2, lsl #2]
 1777 066c 1346     		mov	r3, r2
 1778 066e 9B07     		lsls	r3, r3, #30
 1779 0670 9B1A     		subs	r3, r3, r2
 1780 0672 9B00     		lsls	r3, r3, #2
 1781 0674 9A1A     		subs	r2, r3, r2
 1782 0676 D7F86431 		ldr	r3, [r7, #356]
 1783 067a 1344     		add	r3, r3, r2
 1784 067c 052B     		cmp	r3, #5
 1785 067e 0EDD     		ble	.L56
 1786 0680 15E0     		b	.L54
 1787              	.L60:
 1788 0682 07F12003 		add	r3, r7, #32
 1789 0686 D7F86C21 		ldr	r2, [r7, #364]
 1790 068a 53F82220 		ldr	r2, [r3, r2, lsl #2]
 1791 068e 1346     		mov	r3, r2
 1792 0690 9B00     		lsls	r3, r3, #2
 1793 0692 1A44     		add	r2, r2, r3
 1794 0694 D7F86431 		ldr	r3, [r7, #356]
 1795 0698 D31A     		subs	r3, r2, r3
 1796 069a 052B     		cmp	r3, #5
 1797 069c 07DC     		bgt	.L54
 1798              	.L56:
 367:STM32F10x_Speex_Lib/STM32/libspeex/nb_celp.c ****             {
 368:STM32F10x_Speex_Lib/STM32/libspeex/nb_celp.c ****                /*ol_pitch_coef=nol_pitch_coef[i];*/
 369:STM32F10x_Speex_Lib/STM32/libspeex/nb_celp.c ****                ol_pitch = nol_pitch[i];
 1799              		.loc 3 369 0
 1800 069e 07F12003 		add	r3, r7, #32
 1801 06a2 D7F86C21 		ldr	r2, [r7, #364]
 1802 06a6 53F82230 		ldr	r3, [r3, r2, lsl #2]
 1803 06aa C7F86431 		str	r3, [r7, #356]
 1804              	.L54:
 361:STM32F10x_Speex_Lib/STM32/libspeex/nb_celp.c ****          {
 1805              		.loc 3 361 0 discriminator 2
ARM GAS  /var/folders/kh/x4vltyy52lbg7p4pcyglc5080000gp/T//ccuucmVt.s 			page 44


 1806 06ae D7F86C31 		ldr	r3, [r7, #364]
 1807 06b2 0133     		adds	r3, r3, #1
 1808 06b4 C7F86C31 		str	r3, [r7, #364]
 1809              	.L53:
 361:STM32F10x_Speex_Lib/STM32/libspeex/nb_celp.c ****          {
 1810              		.loc 3 361 0 is_stmt 0 discriminator 1
 1811 06b8 D7F86C31 		ldr	r3, [r7, #364]
 1812 06bc 052B     		cmp	r3, #5
 1813 06be 7FF750AF 		ble	.L61
 1814              	.LBE4:
 345:STM32F10x_Speex_Lib/STM32/libspeex/nb_celp.c ****          int nol_pitch[6];
 1815              		.loc 3 345 0 is_stmt 1
 1816 06c2 05E0     		b	.L62
 1817              	.L52:
 370:STM32F10x_Speex_Lib/STM32/libspeex/nb_celp.c ****             }
 371:STM32F10x_Speex_Lib/STM32/libspeex/nb_celp.c ****          }
 372:STM32F10x_Speex_Lib/STM32/libspeex/nb_celp.c ****          /*if (ol_pitch>50)
 373:STM32F10x_Speex_Lib/STM32/libspeex/nb_celp.c ****            ol_pitch/=2;*/
 374:STM32F10x_Speex_Lib/STM32/libspeex/nb_celp.c ****          /*ol_pitch_coef = sqrt(ol_pitch_coef);*/
 375:STM32F10x_Speex_Lib/STM32/libspeex/nb_celp.c **** 
 376:STM32F10x_Speex_Lib/STM32/libspeex/nb_celp.c ****       } else {
 377:STM32F10x_Speex_Lib/STM32/libspeex/nb_celp.c ****          ol_pitch=0;
 1818              		.loc 3 377 0
 1819 06c4 0023     		movs	r3, #0
 1820 06c6 C7F86431 		str	r3, [r7, #356]
 378:STM32F10x_Speex_Lib/STM32/libspeex/nb_celp.c ****          ol_pitch_coef=0;
 1821              		.loc 3 378 0
 1822 06ca 0023     		movs	r3, #0
 1823 06cc A7F86231 		strh	r3, [r7, #354]	@ movhi
 1824              	.L62:
 379:STM32F10x_Speex_Lib/STM32/libspeex/nb_celp.c ****       }
 380:STM32F10x_Speex_Lib/STM32/libspeex/nb_celp.c ****       
 381:STM32F10x_Speex_Lib/STM32/libspeex/nb_celp.c ****       /*Compute "real" excitation*/
 382:STM32F10x_Speex_Lib/STM32/libspeex/nb_celp.c ****       SPEEX_COPY(st->exc, st->winBuf, diff);
 1825              		.loc 3 382 0
 1826 06d0 D7F84031 		ldr	r3, [r7, #320]
 1827 06d4 D86C     		ldr	r0, [r3, #76]
 1828 06d6 D7F84031 		ldr	r3, [r7, #320]
 1829 06da 596C     		ldr	r1, [r3, #68]
 1830 06dc D7F82C31 		ldr	r3, [r7, #300]
 1831 06e0 5B00     		lsls	r3, r3, #1
 1832 06e2 1A46     		mov	r2, r3
 1833 06e4 FFF7FEFF 		bl	memcpy
 383:STM32F10x_Speex_Lib/STM32/libspeex/nb_celp.c ****       SPEEX_COPY(st->exc+diff, in, st->frameSize-diff);
 1834              		.loc 3 383 0
 1835 06e8 D7F84031 		ldr	r3, [r7, #320]
 1836 06ec DA6C     		ldr	r2, [r3, #76]
 1837 06ee D7F82C31 		ldr	r3, [r7, #300]
 1838 06f2 5B00     		lsls	r3, r3, #1
 1839 06f4 D018     		adds	r0, r2, r3
 1840 06f6 D7F84031 		ldr	r3, [r7, #320]
 1841 06fa 9A68     		ldr	r2, [r3, #8]
 1842 06fc D7F82C31 		ldr	r3, [r7, #300]
 1843 0700 D31A     		subs	r3, r2, r3
 1844 0702 5B00     		lsls	r3, r3, #1
 1845 0704 1A46     		mov	r2, r3
 1846 0706 D7F84411 		ldr	r1, [r7, #324]
ARM GAS  /var/folders/kh/x4vltyy52lbg7p4pcyglc5080000gp/T//ccuucmVt.s 			page 45


 1847 070a FFF7FEFF 		bl	memcpy
 384:STM32F10x_Speex_Lib/STM32/libspeex/nb_celp.c ****       fir_mem16(st->exc, interp_lpc, st->exc, st->frameSize, st->lpcSize, st->mem_exc, stack);
 1848              		.loc 3 384 0
 1849 070e D7F84031 		ldr	r3, [r7, #320]
 1850 0712 D86C     		ldr	r0, [r3, #76]
 1851 0714 D7F84031 		ldr	r3, [r7, #320]
 1852 0718 DD6C     		ldr	r5, [r3, #76]
 1853 071a D7F84031 		ldr	r3, [r7, #320]
 1854 071e 9E68     		ldr	r6, [r3, #8]
 1855 0720 D7F84031 		ldr	r3, [r7, #320]
 1856 0724 9B69     		ldr	r3, [r3, #24]
 1857 0726 D7F84021 		ldr	r2, [r7, #320]
 1858 072a 526F     		ldr	r2, [r2, #116]
 1859 072c 07F14C04 		add	r4, r7, #76
 1860 0730 D7F83C11 		ldr	r1, [r7, #316]
 1861 0734 0291     		str	r1, [sp, #8]
 1862 0736 0192     		str	r2, [sp, #4]
 1863 0738 0093     		str	r3, [sp]
 1864 073a 3346     		mov	r3, r6
 1865 073c 2A46     		mov	r2, r5
 1866 073e 2146     		mov	r1, r4
 1867 0740 FFF7FEFF 		bl	fir_mem16
 1868              	.LBB5:
 385:STM32F10x_Speex_Lib/STM32/libspeex/nb_celp.c **** 
 386:STM32F10x_Speex_Lib/STM32/libspeex/nb_celp.c ****       /* Compute open-loop excitation gain */
 387:STM32F10x_Speex_Lib/STM32/libspeex/nb_celp.c ****       {
 388:STM32F10x_Speex_Lib/STM32/libspeex/nb_celp.c ****          spx_word16_t g = compute_rms16(st->exc, st->frameSize);
 1869              		.loc 3 388 0
 1870 0744 D7F84031 		ldr	r3, [r7, #320]
 1871 0748 DA6C     		ldr	r2, [r3, #76]
 1872 074a D7F84031 		ldr	r3, [r7, #320]
 1873 074e 9B68     		ldr	r3, [r3, #8]
 1874 0750 1946     		mov	r1, r3
 1875 0752 1046     		mov	r0, r2
 1876 0754 FFF7FEFF 		bl	compute_rms16
 1877 0758 0346     		mov	r3, r0
 1878 075a A7F82A31 		strh	r3, [r7, #298]	@ movhi
 389:STM32F10x_Speex_Lib/STM32/libspeex/nb_celp.c ****          if (st->submodeID!=1 && ol_pitch>0)
 1879              		.loc 3 389 0
 1880 075e D7F84031 		ldr	r3, [r7, #320]
 1881 0762 D3F8A030 		ldr	r3, [r3, #160]
 1882 0766 012B     		cmp	r3, #1
 1883 0768 24D0     		beq	.L63
 1884              		.loc 3 389 0 is_stmt 0 discriminator 1
 1885 076a D7F86431 		ldr	r3, [r7, #356]
 1886 076e 002B     		cmp	r3, #0
 1887 0770 20DD     		ble	.L63
 390:STM32F10x_Speex_Lib/STM32/libspeex/nb_celp.c ****             ol_gain = MULT16_16(g, MULT16_16_Q14(QCONST16(1.1,14),
 1888              		.loc 3 390 0 is_stmt 1
 1889 0772 B7F92A41 		ldrsh	r4, [r7, #298]
 1890 0776 B7F96231 		ldrsh	r3, [r7, #354]
 1891 077a B7F96221 		ldrsh	r2, [r7, #354]
 1892 077e 02FB03F3 		mul	r3, r2, r3
 1893 0782 1B04     		lsls	r3, r3, #16
 1894 0784 DB13     		asrs	r3, r3, #15
 1895 0786 1BB2     		sxth	r3, r3
 1896 0788 1A46     		mov	r2, r3
ARM GAS  /var/folders/kh/x4vltyy52lbg7p4pcyglc5080000gp/T//ccuucmVt.s 			page 46


 1897 078a C44B     		ldr	r3, .L125
 1898 078c 03FB02F3 		mul	r3, r3, r2
 1899 0790 03F18053 		add	r3, r3, #268435456
 1900 0794 1846     		mov	r0, r3
 1901 0796 FFF7FEFF 		bl	spx_sqrt
 1902 079a 0346     		mov	r3, r0
 1903 079c 1A46     		mov	r2, r3
 1904 079e 44F26663 		movw	r3, #18022
 1905 07a2 03FB02F3 		mul	r3, r3, r2
 1906 07a6 9B13     		asrs	r3, r3, #14
 1907 07a8 1BB2     		sxth	r3, r3
 1908 07aa 03FB04F3 		mul	r3, r3, r4
 1909 07ae C7F85C31 		str	r3, [r7, #348]
 1910 07b2 04E0     		b	.L64
 1911              	.L63:
 391:STM32F10x_Speex_Lib/STM32/libspeex/nb_celp.c ****                                 spx_sqrt(QCONST32(1.,28)-MULT16_32_Q15(QCONST16(.8,15),SHL32(MULT16
 392:STM32F10x_Speex_Lib/STM32/libspeex/nb_celp.c ****          else
 393:STM32F10x_Speex_Lib/STM32/libspeex/nb_celp.c ****             ol_gain = SHL32(EXTEND32(g),SIG_SHIFT);
 1912              		.loc 3 393 0
 1913 07b4 B7F92A31 		ldrsh	r3, [r7, #298]
 1914 07b8 9B03     		lsls	r3, r3, #14
 1915 07ba C7F85C31 		str	r3, [r7, #348]
 1916              	.L64:
 1917              	.LBE5:
 1918              	.LBE3:
 394:STM32F10x_Speex_Lib/STM32/libspeex/nb_celp.c ****       }
 395:STM32F10x_Speex_Lib/STM32/libspeex/nb_celp.c ****    }
 396:STM32F10x_Speex_Lib/STM32/libspeex/nb_celp.c **** 
 397:STM32F10x_Speex_Lib/STM32/libspeex/nb_celp.c ****    if (st->encode_submode)
 1919              		.loc 3 397 0
 1920 07be D7F84031 		ldr	r3, [r7, #320]
 1921 07c2 D3F89830 		ldr	r3, [r3, #152]
 1922 07c6 002B     		cmp	r3, #0
 1923 07c8 0ED0     		beq	.L65
 398:STM32F10x_Speex_Lib/STM32/libspeex/nb_celp.c ****    {
 399:STM32F10x_Speex_Lib/STM32/libspeex/nb_celp.c ****       /* First, transmit a zero for narrowband */
 400:STM32F10x_Speex_Lib/STM32/libspeex/nb_celp.c ****       speex_bits_pack(bits, 0, 1);
 1924              		.loc 3 400 0
 1925 07ca 3B1D     		adds	r3, r7, #4
 1926 07cc 0122     		movs	r2, #1
 1927 07ce 0021     		movs	r1, #0
 1928 07d0 1868     		ldr	r0, [r3]
 1929 07d2 FFF7FEFF 		bl	speex_bits_pack
 401:STM32F10x_Speex_Lib/STM32/libspeex/nb_celp.c **** 
 402:STM32F10x_Speex_Lib/STM32/libspeex/nb_celp.c ****       /* Transmit the sub-mode we use for this frame */
 403:STM32F10x_Speex_Lib/STM32/libspeex/nb_celp.c ****       speex_bits_pack(bits, st->submodeID, NB_SUBMODE_BITS);
 1930              		.loc 3 403 0
 1931 07d6 D7F84031 		ldr	r3, [r7, #320]
 1932 07da D3F8A010 		ldr	r1, [r3, #160]
 1933 07de 3B1D     		adds	r3, r7, #4
 1934 07e0 0422     		movs	r2, #4
 1935 07e2 1868     		ldr	r0, [r3]
 1936 07e4 FFF7FEFF 		bl	speex_bits_pack
 1937              	.L65:
 404:STM32F10x_Speex_Lib/STM32/libspeex/nb_celp.c **** 
 405:STM32F10x_Speex_Lib/STM32/libspeex/nb_celp.c ****    }
 406:STM32F10x_Speex_Lib/STM32/libspeex/nb_celp.c **** 
ARM GAS  /var/folders/kh/x4vltyy52lbg7p4pcyglc5080000gp/T//ccuucmVt.s 			page 47


 407:STM32F10x_Speex_Lib/STM32/libspeex/nb_celp.c ****    /* LSP Quantization */
 408:STM32F10x_Speex_Lib/STM32/libspeex/nb_celp.c ****    if (st->first)
 1938              		.loc 3 408 0
 1939 07e8 D7F84031 		ldr	r3, [r7, #320]
 1940 07ec 5B68     		ldr	r3, [r3, #4]
 1941 07ee 002B     		cmp	r3, #0
 1942 07f0 1FD0     		beq	.L66
 409:STM32F10x_Speex_Lib/STM32/libspeex/nb_celp.c ****    {
 410:STM32F10x_Speex_Lib/STM32/libspeex/nb_celp.c ****       for (i=0;i<st->lpcSize;i++)
 1943              		.loc 3 410 0
 1944 07f2 0023     		movs	r3, #0
 1945 07f4 C7F86C31 		str	r3, [r7, #364]
 1946 07f8 14E0     		b	.L67
 1947              	.L68:
 411:STM32F10x_Speex_Lib/STM32/libspeex/nb_celp.c ****          st->old_lsp[i] = lsp[i];
 1948              		.loc 3 411 0 discriminator 3
 1949 07fa D7F84031 		ldr	r3, [r7, #320]
 1950 07fe 1A6E     		ldr	r2, [r3, #96]
 1951 0800 D7F86C31 		ldr	r3, [r7, #364]
 1952 0804 5B00     		lsls	r3, r3, #1
 1953 0806 1A44     		add	r2, r2, r3
 1954 0808 D7F86C31 		ldr	r3, [r7, #364]
 1955 080c 5B00     		lsls	r3, r3, #1
 1956 080e 07F5B871 		add	r1, r7, #368
 1957 0812 0B44     		add	r3, r3, r1
 1958 0814 33F9D43C 		ldrsh	r3, [r3, #-212]
 1959 0818 1380     		strh	r3, [r2]	@ movhi
 410:STM32F10x_Speex_Lib/STM32/libspeex/nb_celp.c ****          st->old_lsp[i] = lsp[i];
 1960              		.loc 3 410 0 discriminator 3
 1961 081a D7F86C31 		ldr	r3, [r7, #364]
 1962 081e 0133     		adds	r3, r3, #1
 1963 0820 C7F86C31 		str	r3, [r7, #364]
 1964              	.L67:
 410:STM32F10x_Speex_Lib/STM32/libspeex/nb_celp.c ****          st->old_lsp[i] = lsp[i];
 1965              		.loc 3 410 0 is_stmt 0 discriminator 1
 1966 0824 D7F84031 		ldr	r3, [r7, #320]
 1967 0828 9A69     		ldr	r2, [r3, #24]
 1968 082a D7F86C31 		ldr	r3, [r7, #364]
 1969 082e 9A42     		cmp	r2, r3
 1970 0830 E3DC     		bgt	.L68
 1971              	.L66:
 412:STM32F10x_Speex_Lib/STM32/libspeex/nb_celp.c ****    }
 413:STM32F10x_Speex_Lib/STM32/libspeex/nb_celp.c **** 
 414:STM32F10x_Speex_Lib/STM32/libspeex/nb_celp.c **** 
 415:STM32F10x_Speex_Lib/STM32/libspeex/nb_celp.c ****    /*Quantize LSPs*/
 416:STM32F10x_Speex_Lib/STM32/libspeex/nb_celp.c ****    SUBMODE(lsp_quant)(lsp, qlsp, st->lpcSize, bits);  
 1972              		.loc 3 416 0 is_stmt 1
 1973 0832 D7F84031 		ldr	r3, [r7, #320]
 1974 0836 D3F89C20 		ldr	r2, [r3, #156]
 1975 083a D7F84031 		ldr	r3, [r7, #320]
 1976 083e D3F8A030 		ldr	r3, [r3, #160]
 1977 0842 9B00     		lsls	r3, r3, #2
 1978 0844 1344     		add	r3, r3, r2
 1979 0846 1B68     		ldr	r3, [r3]
 1980 0848 1C69     		ldr	r4, [r3, #16]
 1981 084a D7F84031 		ldr	r3, [r7, #320]
 1982 084e 9A69     		ldr	r2, [r3, #24]
ARM GAS  /var/folders/kh/x4vltyy52lbg7p4pcyglc5080000gp/T//ccuucmVt.s 			page 48


 1983 0850 3B1D     		adds	r3, r7, #4
 1984 0852 07F18801 		add	r1, r7, #136
 1985 0856 07F19C00 		add	r0, r7, #156
 1986 085a 1B68     		ldr	r3, [r3]
 1987 085c A047     		blx	r4
 1988              	.LBB6:
 417:STM32F10x_Speex_Lib/STM32/libspeex/nb_celp.c ****    
 418:STM32F10x_Speex_Lib/STM32/libspeex/nb_celp.c ****    /*Quantize and transmit open-loop excitation gain*/
 419:STM32F10x_Speex_Lib/STM32/libspeex/nb_celp.c ****    {
 420:STM32F10x_Speex_Lib/STM32/libspeex/nb_celp.c ****       int qe = scal_quant32(ol_gain, ol_gain_table, 32);
 1989              		.loc 3 420 0
 1990 085e 2022     		movs	r2, #32
 1991 0860 8F49     		ldr	r1, .L125+4
 1992 0862 D7F85C01 		ldr	r0, [r7, #348]
 1993 0866 FFF7FEFF 		bl	scal_quant32
 1994 086a C7F82401 		str	r0, [r7, #292]
 421:STM32F10x_Speex_Lib/STM32/libspeex/nb_celp.c ****       /*ol_gain = exp(qe/3.5)*SIG_SCALING;*/
 422:STM32F10x_Speex_Lib/STM32/libspeex/nb_celp.c ****       ol_gain = MULT16_32_Q15(28406,ol_gain_table[qe]);
 1995              		.loc 3 422 0
 1996 086e 8C4A     		ldr	r2, .L125+4
 1997 0870 D7F82431 		ldr	r3, [r7, #292]
 1998 0874 52F82330 		ldr	r3, [r2, r3, lsl #2]
 1999 0878 DB13     		asrs	r3, r3, #15
 2000 087a 1BB2     		sxth	r3, r3
 2001 087c 1A46     		mov	r2, r3
 2002 087e 46F6F663 		movw	r3, #28406
 2003 0882 03FB02F2 		mul	r2, r3, r2
 2004 0886 8649     		ldr	r1, .L125+4
 2005 0888 D7F82431 		ldr	r3, [r7, #292]
 2006 088c 51F82330 		ldr	r3, [r1, r3, lsl #2]
 2007 0890 C3F30E03 		ubfx	r3, r3, #0, #15
 2008 0894 46F6F661 		movw	r1, #28406
 2009 0898 01FB03F3 		mul	r3, r1, r3
 2010 089c DB13     		asrs	r3, r3, #15
 2011 089e 1344     		add	r3, r3, r2
 2012 08a0 C7F85C31 		str	r3, [r7, #348]
 423:STM32F10x_Speex_Lib/STM32/libspeex/nb_celp.c ****       speex_bits_pack(bits, qe, 5);
 2013              		.loc 3 423 0
 2014 08a4 3B1D     		adds	r3, r7, #4
 2015 08a6 0522     		movs	r2, #5
 2016 08a8 D7F82411 		ldr	r1, [r7, #292]
 2017 08ac 1868     		ldr	r0, [r3]
 2018 08ae FFF7FEFF 		bl	speex_bits_pack
 2019              	.LBE6:
 424:STM32F10x_Speex_Lib/STM32/libspeex/nb_celp.c ****    }
 425:STM32F10x_Speex_Lib/STM32/libspeex/nb_celp.c **** 
 426:STM32F10x_Speex_Lib/STM32/libspeex/nb_celp.c **** 
 427:STM32F10x_Speex_Lib/STM32/libspeex/nb_celp.c **** 
 428:STM32F10x_Speex_Lib/STM32/libspeex/nb_celp.c **** 
 429:STM32F10x_Speex_Lib/STM32/libspeex/nb_celp.c ****    /* Special case for first frame */
 430:STM32F10x_Speex_Lib/STM32/libspeex/nb_celp.c ****    if (st->first)
 2020              		.loc 3 430 0
 2021 08b2 D7F84031 		ldr	r3, [r7, #320]
 2022 08b6 5B68     		ldr	r3, [r3, #4]
 2023 08b8 002B     		cmp	r3, #0
 2024 08ba 1FD0     		beq	.L69
 431:STM32F10x_Speex_Lib/STM32/libspeex/nb_celp.c ****    {
ARM GAS  /var/folders/kh/x4vltyy52lbg7p4pcyglc5080000gp/T//ccuucmVt.s 			page 49


 432:STM32F10x_Speex_Lib/STM32/libspeex/nb_celp.c ****       for (i=0;i<st->lpcSize;i++)
 2025              		.loc 3 432 0
 2026 08bc 0023     		movs	r3, #0
 2027 08be C7F86C31 		str	r3, [r7, #364]
 2028 08c2 14E0     		b	.L70
 2029              	.L71:
 433:STM32F10x_Speex_Lib/STM32/libspeex/nb_celp.c ****          st->old_qlsp[i] = qlsp[i];
 2030              		.loc 3 433 0 discriminator 3
 2031 08c4 D7F84031 		ldr	r3, [r7, #320]
 2032 08c8 5A6E     		ldr	r2, [r3, #100]
 2033 08ca D7F86C31 		ldr	r3, [r7, #364]
 2034 08ce 5B00     		lsls	r3, r3, #1
 2035 08d0 1A44     		add	r2, r2, r3
 2036 08d2 D7F86C31 		ldr	r3, [r7, #364]
 2037 08d6 5B00     		lsls	r3, r3, #1
 2038 08d8 07F5B871 		add	r1, r7, #368
 2039 08dc 0B44     		add	r3, r3, r1
 2040 08de 33F9E83C 		ldrsh	r3, [r3, #-232]
 2041 08e2 1380     		strh	r3, [r2]	@ movhi
 432:STM32F10x_Speex_Lib/STM32/libspeex/nb_celp.c ****          st->old_qlsp[i] = qlsp[i];
 2042              		.loc 3 432 0 discriminator 3
 2043 08e4 D7F86C31 		ldr	r3, [r7, #364]
 2044 08e8 0133     		adds	r3, r3, #1
 2045 08ea C7F86C31 		str	r3, [r7, #364]
 2046              	.L70:
 432:STM32F10x_Speex_Lib/STM32/libspeex/nb_celp.c ****          st->old_qlsp[i] = qlsp[i];
 2047              		.loc 3 432 0 is_stmt 0 discriminator 1
 2048 08ee D7F84031 		ldr	r3, [r7, #320]
 2049 08f2 9A69     		ldr	r2, [r3, #24]
 2050 08f4 D7F86C31 		ldr	r3, [r7, #364]
 2051 08f8 9A42     		cmp	r2, r3
 2052 08fa E3DC     		bgt	.L71
 2053              	.L69:
 434:STM32F10x_Speex_Lib/STM32/libspeex/nb_celp.c ****    }
 435:STM32F10x_Speex_Lib/STM32/libspeex/nb_celp.c **** 
 436:STM32F10x_Speex_Lib/STM32/libspeex/nb_celp.c ****    /* Target signal */
 437:STM32F10x_Speex_Lib/STM32/libspeex/nb_celp.c ****    ALLOC(target, st->subframeSize, spx_word16_t);
 2054              		.loc 3 437 0 is_stmt 1
 2055 08fc D7F83C31 		ldr	r3, [r7, #316]
 2056 0900 5B42     		negs	r3, r3
 2057 0902 03F00103 		and	r3, r3, #1
 2058 0906 D7F83C21 		ldr	r2, [r7, #316]
 2059 090a 1344     		add	r3, r3, r2
 2060 090c C7F83C31 		str	r3, [r7, #316]
 2061 0910 D7F84031 		ldr	r3, [r7, #320]
 2062 0914 DB68     		ldr	r3, [r3, #12]
 2063 0916 5B00     		lsls	r3, r3, #1
 2064 0918 D7F83C21 		ldr	r2, [r7, #316]
 2065 091c 1344     		add	r3, r3, r2
 2066 091e C7F83C31 		str	r3, [r7, #316]
 2067 0922 D7F84031 		ldr	r3, [r7, #320]
 2068 0926 DB68     		ldr	r3, [r3, #12]
 2069 0928 5B00     		lsls	r3, r3, #1
 2070 092a 5B42     		negs	r3, r3
 2071 092c D7F83C21 		ldr	r2, [r7, #316]
 2072 0930 1344     		add	r3, r3, r2
 2073 0932 C7F82031 		str	r3, [r7, #288]
ARM GAS  /var/folders/kh/x4vltyy52lbg7p4pcyglc5080000gp/T//ccuucmVt.s 			page 50


 438:STM32F10x_Speex_Lib/STM32/libspeex/nb_celp.c ****    ALLOC(innov, st->subframeSize, spx_sig_t);
 2074              		.loc 3 438 0
 2075 0936 D7F83C31 		ldr	r3, [r7, #316]
 2076 093a 5B42     		negs	r3, r3
 2077 093c 03F00303 		and	r3, r3, #3
 2078 0940 D7F83C21 		ldr	r2, [r7, #316]
 2079 0944 1344     		add	r3, r3, r2
 2080 0946 C7F83C31 		str	r3, [r7, #316]
 2081 094a D7F84031 		ldr	r3, [r7, #320]
 2082 094e DB68     		ldr	r3, [r3, #12]
 2083 0950 9B00     		lsls	r3, r3, #2
 2084 0952 D7F83C21 		ldr	r2, [r7, #316]
 2085 0956 1344     		add	r3, r3, r2
 2086 0958 C7F83C31 		str	r3, [r7, #316]
 2087 095c D7F84031 		ldr	r3, [r7, #320]
 2088 0960 DB68     		ldr	r3, [r3, #12]
 2089 0962 9B00     		lsls	r3, r3, #2
 2090 0964 5B42     		negs	r3, r3
 2091 0966 D7F83C21 		ldr	r2, [r7, #316]
 2092 096a 1344     		add	r3, r3, r2
 2093 096c C7F81C31 		str	r3, [r7, #284]
 439:STM32F10x_Speex_Lib/STM32/libspeex/nb_celp.c ****    ALLOC(exc32, st->subframeSize, spx_word32_t);
 2094              		.loc 3 439 0
 2095 0970 D7F83C31 		ldr	r3, [r7, #316]
 2096 0974 5B42     		negs	r3, r3
 2097 0976 03F00303 		and	r3, r3, #3
 2098 097a D7F83C21 		ldr	r2, [r7, #316]
 2099 097e 1344     		add	r3, r3, r2
 2100 0980 C7F83C31 		str	r3, [r7, #316]
 2101 0984 D7F84031 		ldr	r3, [r7, #320]
 2102 0988 DB68     		ldr	r3, [r3, #12]
 2103 098a 9B00     		lsls	r3, r3, #2
 2104 098c D7F83C21 		ldr	r2, [r7, #316]
 2105 0990 1344     		add	r3, r3, r2
 2106 0992 C7F83C31 		str	r3, [r7, #316]
 2107 0996 D7F84031 		ldr	r3, [r7, #320]
 2108 099a DB68     		ldr	r3, [r3, #12]
 2109 099c 9B00     		lsls	r3, r3, #2
 2110 099e 5B42     		negs	r3, r3
 2111 09a0 D7F83C21 		ldr	r2, [r7, #316]
 2112 09a4 1344     		add	r3, r3, r2
 2113 09a6 C7F81831 		str	r3, [r7, #280]
 440:STM32F10x_Speex_Lib/STM32/libspeex/nb_celp.c ****    ALLOC(ringing, st->subframeSize, spx_word16_t);
 2114              		.loc 3 440 0
 2115 09aa D7F83C31 		ldr	r3, [r7, #316]
 2116 09ae 5B42     		negs	r3, r3
 2117 09b0 03F00103 		and	r3, r3, #1
 2118 09b4 D7F83C21 		ldr	r2, [r7, #316]
 2119 09b8 1344     		add	r3, r3, r2
 2120 09ba C7F83C31 		str	r3, [r7, #316]
 2121 09be D7F84031 		ldr	r3, [r7, #320]
 2122 09c2 DB68     		ldr	r3, [r3, #12]
 2123 09c4 5B00     		lsls	r3, r3, #1
 2124 09c6 D7F83C21 		ldr	r2, [r7, #316]
 2125 09ca 1344     		add	r3, r3, r2
 2126 09cc C7F83C31 		str	r3, [r7, #316]
 2127 09d0 D7F84031 		ldr	r3, [r7, #320]
ARM GAS  /var/folders/kh/x4vltyy52lbg7p4pcyglc5080000gp/T//ccuucmVt.s 			page 51


 2128 09d4 DB68     		ldr	r3, [r3, #12]
 2129 09d6 5B00     		lsls	r3, r3, #1
 2130 09d8 5B42     		negs	r3, r3
 2131 09da D7F83C21 		ldr	r2, [r7, #316]
 2132 09de 1344     		add	r3, r3, r2
 2133 09e0 C7F81431 		str	r3, [r7, #276]
 441:STM32F10x_Speex_Lib/STM32/libspeex/nb_celp.c ****    ALLOC(syn_resp, st->subframeSize, spx_word16_t);
 2134              		.loc 3 441 0
 2135 09e4 D7F83C31 		ldr	r3, [r7, #316]
 2136 09e8 5B42     		negs	r3, r3
 2137 09ea 03F00103 		and	r3, r3, #1
 2138 09ee D7F83C21 		ldr	r2, [r7, #316]
 2139 09f2 1344     		add	r3, r3, r2
 2140 09f4 C7F83C31 		str	r3, [r7, #316]
 2141 09f8 D7F84031 		ldr	r3, [r7, #320]
 2142 09fc DB68     		ldr	r3, [r3, #12]
 2143 09fe 5B00     		lsls	r3, r3, #1
 2144 0a00 D7F83C21 		ldr	r2, [r7, #316]
 2145 0a04 1344     		add	r3, r3, r2
 2146 0a06 C7F83C31 		str	r3, [r7, #316]
 2147 0a0a D7F84031 		ldr	r3, [r7, #320]
 2148 0a0e DB68     		ldr	r3, [r3, #12]
 2149 0a10 5B00     		lsls	r3, r3, #1
 2150 0a12 5B42     		negs	r3, r3
 2151 0a14 D7F83C21 		ldr	r2, [r7, #316]
 2152 0a18 1344     		add	r3, r3, r2
 2153 0a1a C7F81031 		str	r3, [r7, #272]
 442:STM32F10x_Speex_Lib/STM32/libspeex/nb_celp.c ****    ALLOC(real_exc, st->subframeSize, spx_word16_t);
 2154              		.loc 3 442 0
 2155 0a1e D7F83C31 		ldr	r3, [r7, #316]
 2156 0a22 5B42     		negs	r3, r3
 2157 0a24 03F00103 		and	r3, r3, #1
 2158 0a28 D7F83C21 		ldr	r2, [r7, #316]
 2159 0a2c 1344     		add	r3, r3, r2
 2160 0a2e C7F83C31 		str	r3, [r7, #316]
 2161 0a32 D7F84031 		ldr	r3, [r7, #320]
 2162 0a36 DB68     		ldr	r3, [r3, #12]
 2163 0a38 5B00     		lsls	r3, r3, #1
 2164 0a3a D7F83C21 		ldr	r2, [r7, #316]
 2165 0a3e 1344     		add	r3, r3, r2
 2166 0a40 C7F83C31 		str	r3, [r7, #316]
 2167 0a44 D7F84031 		ldr	r3, [r7, #320]
 2168 0a48 DB68     		ldr	r3, [r3, #12]
 2169 0a4a 5B00     		lsls	r3, r3, #1
 2170 0a4c 5B42     		negs	r3, r3
 2171 0a4e D7F83C21 		ldr	r2, [r7, #316]
 2172 0a52 1344     		add	r3, r3, r2
 2173 0a54 C7F80C31 		str	r3, [r7, #268]
 443:STM32F10x_Speex_Lib/STM32/libspeex/nb_celp.c ****    ALLOC(mem, st->lpcSize, spx_mem_t);
 2174              		.loc 3 443 0
 2175 0a58 D7F83C31 		ldr	r3, [r7, #316]
 2176 0a5c 5B42     		negs	r3, r3
 2177 0a5e 03F00303 		and	r3, r3, #3
 2178 0a62 D7F83C21 		ldr	r2, [r7, #316]
 2179 0a66 1344     		add	r3, r3, r2
 2180 0a68 C7F83C31 		str	r3, [r7, #316]
 2181 0a6c D7F84031 		ldr	r3, [r7, #320]
ARM GAS  /var/folders/kh/x4vltyy52lbg7p4pcyglc5080000gp/T//ccuucmVt.s 			page 52


 2182 0a70 9B69     		ldr	r3, [r3, #24]
 2183 0a72 9B00     		lsls	r3, r3, #2
 2184 0a74 D7F83C21 		ldr	r2, [r7, #316]
 2185 0a78 1344     		add	r3, r3, r2
 2186 0a7a C7F83C31 		str	r3, [r7, #316]
 2187 0a7e D7F84031 		ldr	r3, [r7, #320]
 2188 0a82 9B69     		ldr	r3, [r3, #24]
 2189 0a84 9B00     		lsls	r3, r3, #2
 2190 0a86 5B42     		negs	r3, r3
 2191 0a88 D7F83C21 		ldr	r2, [r7, #316]
 2192 0a8c 1344     		add	r3, r3, r2
 2193 0a8e C7F80831 		str	r3, [r7, #264]
 444:STM32F10x_Speex_Lib/STM32/libspeex/nb_celp.c **** 
 445:STM32F10x_Speex_Lib/STM32/libspeex/nb_celp.c **** 
 446:STM32F10x_Speex_Lib/STM32/libspeex/nb_celp.c ****    /* Loop on sub-frames */
 447:STM32F10x_Speex_Lib/STM32/libspeex/nb_celp.c ****    for (sub=0;sub<st->nbSubframes;sub++)
 2194              		.loc 3 447 0
 2195 0a92 0023     		movs	r3, #0
 2196 0a94 C7F86831 		str	r3, [r7, #360]
 2197 0a98 00F0EFBC 		b	.L72
 2198              	.L126:
 2199              		.align	2
 2200              	.L125:
 2201 0a9c 9A99FFFF 		.word	-26214
 2202 0aa0 00000000 		.word	ol_gain_table
 2203              	.L118:
 2204              	.LBB7:
 448:STM32F10x_Speex_Lib/STM32/libspeex/nb_celp.c ****    {
 449:STM32F10x_Speex_Lib/STM32/libspeex/nb_celp.c ****       int   offset;
 450:STM32F10x_Speex_Lib/STM32/libspeex/nb_celp.c ****       spx_word16_t *sw;
 451:STM32F10x_Speex_Lib/STM32/libspeex/nb_celp.c ****       spx_word16_t *exc;
 452:STM32F10x_Speex_Lib/STM32/libspeex/nb_celp.c ****       int pitch;
 453:STM32F10x_Speex_Lib/STM32/libspeex/nb_celp.c ****       int response_bound = st->subframeSize;
 2205              		.loc 3 453 0
 2206 0aa4 D7F84031 		ldr	r3, [r7, #320]
 2207 0aa8 DB68     		ldr	r3, [r3, #12]
 2208 0aaa C7F85431 		str	r3, [r7, #340]
 454:STM32F10x_Speex_Lib/STM32/libspeex/nb_celp.c **** 
 455:STM32F10x_Speex_Lib/STM32/libspeex/nb_celp.c ****       /* Offset relative to start of frame */
 456:STM32F10x_Speex_Lib/STM32/libspeex/nb_celp.c ****       offset = st->subframeSize*sub;	
 2209              		.loc 3 456 0
 2210 0aae D7F84031 		ldr	r3, [r7, #320]
 2211 0ab2 DB68     		ldr	r3, [r3, #12]
 2212 0ab4 D7F86821 		ldr	r2, [r7, #360]
 2213 0ab8 02FB03F3 		mul	r3, r2, r3
 2214 0abc C7F80431 		str	r3, [r7, #260]
 457:STM32F10x_Speex_Lib/STM32/libspeex/nb_celp.c ****       /* Excitation */
 458:STM32F10x_Speex_Lib/STM32/libspeex/nb_celp.c ****       exc=st->exc+offset;
 2215              		.loc 3 458 0
 2216 0ac0 D7F84031 		ldr	r3, [r7, #320]
 2217 0ac4 DA6C     		ldr	r2, [r3, #76]
 2218 0ac6 D7F80431 		ldr	r3, [r7, #260]
 2219 0aca 5B00     		lsls	r3, r3, #1
 2220 0acc 1344     		add	r3, r3, r2
 2221 0ace C7F80031 		str	r3, [r7, #256]
 459:STM32F10x_Speex_Lib/STM32/libspeex/nb_celp.c ****       /* Weighted signal */
 460:STM32F10x_Speex_Lib/STM32/libspeex/nb_celp.c ****       sw=st->sw+offset;
ARM GAS  /var/folders/kh/x4vltyy52lbg7p4pcyglc5080000gp/T//ccuucmVt.s 			page 53


 2222              		.loc 3 460 0
 2223 0ad2 D7F84031 		ldr	r3, [r7, #320]
 2224 0ad6 5A6D     		ldr	r2, [r3, #84]
 2225 0ad8 D7F80431 		ldr	r3, [r7, #260]
 2226 0adc 5B00     		lsls	r3, r3, #1
 2227 0ade 1344     		add	r3, r3, r2
 2228 0ae0 C7F8FC30 		str	r3, [r7, #252]
 461:STM32F10x_Speex_Lib/STM32/libspeex/nb_celp.c ****       
 462:STM32F10x_Speex_Lib/STM32/libspeex/nb_celp.c ****       /* LSP interpolation (quantized and unquantized) */
 463:STM32F10x_Speex_Lib/STM32/libspeex/nb_celp.c ****       lsp_interpolate(st->old_lsp, lsp, interp_lsp, st->lpcSize, sub, st->nbSubframes);
 2229              		.loc 3 463 0
 2230 0ae4 D7F84031 		ldr	r3, [r7, #320]
 2231 0ae8 186E     		ldr	r0, [r3, #96]
 2232 0aea D7F84031 		ldr	r3, [r7, #320]
 2233 0aee 9C69     		ldr	r4, [r3, #24]
 2234 0af0 D7F84031 		ldr	r3, [r7, #320]
 2235 0af4 1B69     		ldr	r3, [r3, #16]
 2236 0af6 07F17402 		add	r2, r7, #116
 2237 0afa 07F19C01 		add	r1, r7, #156
 2238 0afe 0193     		str	r3, [sp, #4]
 2239 0b00 D7F86831 		ldr	r3, [r7, #360]
 2240 0b04 0093     		str	r3, [sp]
 2241 0b06 2346     		mov	r3, r4
 2242 0b08 FFF7FEFF 		bl	lsp_interpolate
 464:STM32F10x_Speex_Lib/STM32/libspeex/nb_celp.c ****       lsp_interpolate(st->old_qlsp, qlsp, interp_qlsp, st->lpcSize, sub, st->nbSubframes);
 2243              		.loc 3 464 0
 2244 0b0c D7F84031 		ldr	r3, [r7, #320]
 2245 0b10 586E     		ldr	r0, [r3, #100]
 2246 0b12 D7F84031 		ldr	r3, [r7, #320]
 2247 0b16 9C69     		ldr	r4, [r3, #24]
 2248 0b18 D7F84031 		ldr	r3, [r7, #320]
 2249 0b1c 1B69     		ldr	r3, [r3, #16]
 2250 0b1e 07F16002 		add	r2, r7, #96
 2251 0b22 07F18801 		add	r1, r7, #136
 2252 0b26 0193     		str	r3, [sp, #4]
 2253 0b28 D7F86831 		ldr	r3, [r7, #360]
 2254 0b2c 0093     		str	r3, [sp]
 2255 0b2e 2346     		mov	r3, r4
 2256 0b30 FFF7FEFF 		bl	lsp_interpolate
 465:STM32F10x_Speex_Lib/STM32/libspeex/nb_celp.c **** 
 466:STM32F10x_Speex_Lib/STM32/libspeex/nb_celp.c ****       /* Make sure the filters are stable */
 467:STM32F10x_Speex_Lib/STM32/libspeex/nb_celp.c ****       lsp_enforce_margin(interp_lsp, st->lpcSize, LSP_MARGIN);
 2257              		.loc 3 467 0
 2258 0b34 D7F84031 		ldr	r3, [r7, #320]
 2259 0b38 9969     		ldr	r1, [r3, #24]
 2260 0b3a 07F17403 		add	r3, r7, #116
 2261 0b3e 1022     		movs	r2, #16
 2262 0b40 1846     		mov	r0, r3
 2263 0b42 FFF7FEFF 		bl	lsp_enforce_margin
 468:STM32F10x_Speex_Lib/STM32/libspeex/nb_celp.c ****       lsp_enforce_margin(interp_qlsp, st->lpcSize, LSP_MARGIN);
 2264              		.loc 3 468 0
 2265 0b46 D7F84031 		ldr	r3, [r7, #320]
 2266 0b4a 9969     		ldr	r1, [r3, #24]
 2267 0b4c 07F16003 		add	r3, r7, #96
 2268 0b50 1022     		movs	r2, #16
 2269 0b52 1846     		mov	r0, r3
 2270 0b54 FFF7FEFF 		bl	lsp_enforce_margin
ARM GAS  /var/folders/kh/x4vltyy52lbg7p4pcyglc5080000gp/T//ccuucmVt.s 			page 54


 469:STM32F10x_Speex_Lib/STM32/libspeex/nb_celp.c **** 
 470:STM32F10x_Speex_Lib/STM32/libspeex/nb_celp.c ****       /* Compute interpolated LPCs (quantized and unquantized) */
 471:STM32F10x_Speex_Lib/STM32/libspeex/nb_celp.c ****       lsp_to_lpc(interp_lsp, interp_lpc, st->lpcSize,stack);
 2271              		.loc 3 471 0
 2272 0b58 D7F84031 		ldr	r3, [r7, #320]
 2273 0b5c 9A69     		ldr	r2, [r3, #24]
 2274 0b5e 07F14C01 		add	r1, r7, #76
 2275 0b62 07F17400 		add	r0, r7, #116
 2276 0b66 D7F83C31 		ldr	r3, [r7, #316]
 2277 0b6a FFF7FEFF 		bl	lsp_to_lpc
 472:STM32F10x_Speex_Lib/STM32/libspeex/nb_celp.c **** 
 473:STM32F10x_Speex_Lib/STM32/libspeex/nb_celp.c ****       lsp_to_lpc(interp_qlsp, interp_qlpc, st->lpcSize, stack);
 2278              		.loc 3 473 0
 2279 0b6e D7F84031 		ldr	r3, [r7, #320]
 2280 0b72 9A69     		ldr	r2, [r3, #24]
 2281 0b74 07F13801 		add	r1, r7, #56
 2282 0b78 07F16000 		add	r0, r7, #96
 2283 0b7c D7F83C31 		ldr	r3, [r7, #316]
 2284 0b80 FFF7FEFF 		bl	lsp_to_lpc
 2285              	.LBB8:
 474:STM32F10x_Speex_Lib/STM32/libspeex/nb_celp.c **** 
 475:STM32F10x_Speex_Lib/STM32/libspeex/nb_celp.c ****       /* Compute analysis filter gain at w=pi (for use in SB-CELP) */
 476:STM32F10x_Speex_Lib/STM32/libspeex/nb_celp.c ****       {
 477:STM32F10x_Speex_Lib/STM32/libspeex/nb_celp.c ****          spx_word32_t pi_g=LPC_SCALING;
 2286              		.loc 3 477 0
 2287 0b84 4FF40053 		mov	r3, #8192
 2288 0b88 C7F85031 		str	r3, [r7, #336]
 478:STM32F10x_Speex_Lib/STM32/libspeex/nb_celp.c ****          for (i=0;i<st->lpcSize;i+=2)
 2289              		.loc 3 478 0
 2290 0b8c 0023     		movs	r3, #0
 2291 0b8e C7F86C31 		str	r3, [r7, #364]
 2292 0b92 18E0     		b	.L73
 2293              	.L74:
 479:STM32F10x_Speex_Lib/STM32/libspeex/nb_celp.c ****          {
 480:STM32F10x_Speex_Lib/STM32/libspeex/nb_celp.c ****             /*pi_g += -st->interp_qlpc[i] +  st->interp_qlpc[i+1];*/
 481:STM32F10x_Speex_Lib/STM32/libspeex/nb_celp.c ****             pi_g = ADD32(pi_g, SUB32(EXTEND32(interp_qlpc[i+1]),EXTEND32(interp_qlpc[i])));
 2294              		.loc 3 481 0 discriminator 3
 2295 0b94 D7F86C31 		ldr	r3, [r7, #364]
 2296 0b98 5A1C     		adds	r2, r3, #1
 2297 0b9a 07F13803 		add	r3, r7, #56
 2298 0b9e 33F91230 		ldrsh	r3, [r3, r2, lsl #1]
 2299 0ba2 1946     		mov	r1, r3
 2300 0ba4 07F13803 		add	r3, r7, #56
 2301 0ba8 D7F86C21 		ldr	r2, [r7, #364]
 2302 0bac 33F91230 		ldrsh	r3, [r3, r2, lsl #1]
 2303 0bb0 CB1A     		subs	r3, r1, r3
 2304 0bb2 D7F85021 		ldr	r2, [r7, #336]
 2305 0bb6 1344     		add	r3, r3, r2
 2306 0bb8 C7F85031 		str	r3, [r7, #336]
 478:STM32F10x_Speex_Lib/STM32/libspeex/nb_celp.c ****          for (i=0;i<st->lpcSize;i+=2)
 2307              		.loc 3 478 0 discriminator 3
 2308 0bbc D7F86C31 		ldr	r3, [r7, #364]
 2309 0bc0 0233     		adds	r3, r3, #2
 2310 0bc2 C7F86C31 		str	r3, [r7, #364]
 2311              	.L73:
 478:STM32F10x_Speex_Lib/STM32/libspeex/nb_celp.c ****          for (i=0;i<st->lpcSize;i+=2)
 2312              		.loc 3 478 0 is_stmt 0 discriminator 1
ARM GAS  /var/folders/kh/x4vltyy52lbg7p4pcyglc5080000gp/T//ccuucmVt.s 			page 55


 2313 0bc6 D7F84031 		ldr	r3, [r7, #320]
 2314 0bca 9A69     		ldr	r2, [r3, #24]
 2315 0bcc D7F86C31 		ldr	r3, [r7, #364]
 2316 0bd0 9A42     		cmp	r2, r3
 2317 0bd2 DFDC     		bgt	.L74
 482:STM32F10x_Speex_Lib/STM32/libspeex/nb_celp.c ****          }
 483:STM32F10x_Speex_Lib/STM32/libspeex/nb_celp.c ****          st->pi_gain[sub] = pi_g;
 2318              		.loc 3 483 0 is_stmt 1
 2319 0bd4 D7F84031 		ldr	r3, [r7, #320]
 2320 0bd8 D3F88420 		ldr	r2, [r3, #132]
 2321 0bdc D7F86831 		ldr	r3, [r7, #360]
 2322 0be0 9B00     		lsls	r3, r3, #2
 2323 0be2 1344     		add	r3, r3, r2
 2324 0be4 D7F85021 		ldr	r2, [r7, #336]
 2325 0be8 1A60     		str	r2, [r3]
 2326              	.LBE8:
 484:STM32F10x_Speex_Lib/STM32/libspeex/nb_celp.c ****       }
 485:STM32F10x_Speex_Lib/STM32/libspeex/nb_celp.c **** 
 486:STM32F10x_Speex_Lib/STM32/libspeex/nb_celp.c ****       /* Compute bandwidth-expanded (unquantized) LPCs for perceptual weighting */
 487:STM32F10x_Speex_Lib/STM32/libspeex/nb_celp.c ****       bw_lpc(st->gamma1, interp_lpc, bw_lpc1, st->lpcSize);
 2327              		.loc 3 487 0
 2328 0bea D7F84031 		ldr	r3, [r7, #320]
 2329 0bee B3F93800 		ldrsh	r0, [r3, #56]
 2330 0bf2 D7F84031 		ldr	r3, [r7, #320]
 2331 0bf6 9B69     		ldr	r3, [r3, #24]
 2332 0bf8 07F1C402 		add	r2, r7, #196
 2333 0bfc 07F14C01 		add	r1, r7, #76
 2334 0c00 FFF7FEFF 		bl	bw_lpc
 488:STM32F10x_Speex_Lib/STM32/libspeex/nb_celp.c ****       if (st->gamma2>=0)
 2335              		.loc 3 488 0
 2336 0c04 D7F84031 		ldr	r3, [r7, #320]
 2337 0c08 B3F93A30 		ldrsh	r3, [r3, #58]
 2338 0c0c 002B     		cmp	r3, #0
 2339 0c0e 0DDB     		blt	.L75
 489:STM32F10x_Speex_Lib/STM32/libspeex/nb_celp.c ****          bw_lpc(st->gamma2, interp_lpc, bw_lpc2, st->lpcSize);
 2340              		.loc 3 489 0
 2341 0c10 D7F84031 		ldr	r3, [r7, #320]
 2342 0c14 B3F93A00 		ldrsh	r0, [r3, #58]
 2343 0c18 D7F84031 		ldr	r3, [r7, #320]
 2344 0c1c 9B69     		ldr	r3, [r3, #24]
 2345 0c1e 07F1B002 		add	r2, r7, #176
 2346 0c22 07F14C01 		add	r1, r7, #76
 2347 0c26 FFF7FEFF 		bl	bw_lpc
 2348 0c2a 18E0     		b	.L76
 2349              	.L75:
 490:STM32F10x_Speex_Lib/STM32/libspeex/nb_celp.c ****       else
 491:STM32F10x_Speex_Lib/STM32/libspeex/nb_celp.c ****       {
 492:STM32F10x_Speex_Lib/STM32/libspeex/nb_celp.c ****          for (i=0;i<st->lpcSize;i++)
 2350              		.loc 3 492 0
 2351 0c2c 0023     		movs	r3, #0
 2352 0c2e C7F86C31 		str	r3, [r7, #364]
 2353 0c32 0DE0     		b	.L77
 2354              	.L78:
 493:STM32F10x_Speex_Lib/STM32/libspeex/nb_celp.c ****             bw_lpc2[i]=0;
 2355              		.loc 3 493 0 discriminator 3
 2356 0c34 D7F86C31 		ldr	r3, [r7, #364]
 2357 0c38 5B00     		lsls	r3, r3, #1
ARM GAS  /var/folders/kh/x4vltyy52lbg7p4pcyglc5080000gp/T//ccuucmVt.s 			page 56


 2358 0c3a 07F5B872 		add	r2, r7, #368
 2359 0c3e 1344     		add	r3, r3, r2
 2360 0c40 0022     		movs	r2, #0
 2361 0c42 23F8C02C 		strh	r2, [r3, #-192]	@ movhi
 492:STM32F10x_Speex_Lib/STM32/libspeex/nb_celp.c ****             bw_lpc2[i]=0;
 2362              		.loc 3 492 0 discriminator 3
 2363 0c46 D7F86C31 		ldr	r3, [r7, #364]
 2364 0c4a 0133     		adds	r3, r3, #1
 2365 0c4c C7F86C31 		str	r3, [r7, #364]
 2366              	.L77:
 492:STM32F10x_Speex_Lib/STM32/libspeex/nb_celp.c ****             bw_lpc2[i]=0;
 2367              		.loc 3 492 0 is_stmt 0 discriminator 1
 2368 0c50 D7F84031 		ldr	r3, [r7, #320]
 2369 0c54 9A69     		ldr	r2, [r3, #24]
 2370 0c56 D7F86C31 		ldr	r3, [r7, #364]
 2371 0c5a 9A42     		cmp	r2, r3
 2372 0c5c EADC     		bgt	.L78
 2373              	.L76:
 494:STM32F10x_Speex_Lib/STM32/libspeex/nb_celp.c ****       }
 495:STM32F10x_Speex_Lib/STM32/libspeex/nb_celp.c **** 
 496:STM32F10x_Speex_Lib/STM32/libspeex/nb_celp.c **** 
 497:STM32F10x_Speex_Lib/STM32/libspeex/nb_celp.c ****       /*FIXME: This will break if we change the window size */
 498:STM32F10x_Speex_Lib/STM32/libspeex/nb_celp.c ****       if (sub==0)
 2374              		.loc 3 498 0 is_stmt 1
 2375 0c5e D7F86831 		ldr	r3, [r7, #360]
 2376 0c62 002B     		cmp	r3, #0
 2377 0c64 29D1     		bne	.L79
 499:STM32F10x_Speex_Lib/STM32/libspeex/nb_celp.c ****       {
 500:STM32F10x_Speex_Lib/STM32/libspeex/nb_celp.c ****          for (i=0;i<st->subframeSize;i++)
 2378              		.loc 3 500 0
 2379 0c66 0023     		movs	r3, #0
 2380 0c68 C7F86C31 		str	r3, [r7, #364]
 2381 0c6c 1DE0     		b	.L80
 2382              	.L81:
 501:STM32F10x_Speex_Lib/STM32/libspeex/nb_celp.c ****             real_exc[i] = sw[i] = st->winBuf[i];
 2383              		.loc 3 501 0 discriminator 3
 2384 0c6e D7F86C31 		ldr	r3, [r7, #364]
 2385 0c72 5B00     		lsls	r3, r3, #1
 2386 0c74 D7F80C21 		ldr	r2, [r7, #268]
 2387 0c78 1A44     		add	r2, r2, r3
 2388 0c7a D7F86C31 		ldr	r3, [r7, #364]
 2389 0c7e 5B00     		lsls	r3, r3, #1
 2390 0c80 D7F8FC10 		ldr	r1, [r7, #252]
 2391 0c84 0B44     		add	r3, r3, r1
 2392 0c86 D7F84011 		ldr	r1, [r7, #320]
 2393 0c8a 486C     		ldr	r0, [r1, #68]
 2394 0c8c D7F86C11 		ldr	r1, [r7, #364]
 2395 0c90 4900     		lsls	r1, r1, #1
 2396 0c92 0144     		add	r1, r1, r0
 2397 0c94 B1F90010 		ldrsh	r1, [r1]
 2398 0c98 1980     		strh	r1, [r3]	@ movhi
 2399 0c9a B3F90030 		ldrsh	r3, [r3]
 2400 0c9e 1380     		strh	r3, [r2]	@ movhi
 500:STM32F10x_Speex_Lib/STM32/libspeex/nb_celp.c ****             real_exc[i] = sw[i] = st->winBuf[i];
 2401              		.loc 3 500 0 discriminator 3
 2402 0ca0 D7F86C31 		ldr	r3, [r7, #364]
 2403 0ca4 0133     		adds	r3, r3, #1
ARM GAS  /var/folders/kh/x4vltyy52lbg7p4pcyglc5080000gp/T//ccuucmVt.s 			page 57


 2404 0ca6 C7F86C31 		str	r3, [r7, #364]
 2405              	.L80:
 500:STM32F10x_Speex_Lib/STM32/libspeex/nb_celp.c ****             real_exc[i] = sw[i] = st->winBuf[i];
 2406              		.loc 3 500 0 is_stmt 0 discriminator 1
 2407 0caa D7F84031 		ldr	r3, [r7, #320]
 2408 0cae DA68     		ldr	r2, [r3, #12]
 2409 0cb0 D7F86C31 		ldr	r3, [r7, #364]
 2410 0cb4 9A42     		cmp	r2, r3
 2411 0cb6 DADC     		bgt	.L81
 2412 0cb8 30E0     		b	.L82
 2413              	.L79:
 502:STM32F10x_Speex_Lib/STM32/libspeex/nb_celp.c ****       } else {
 503:STM32F10x_Speex_Lib/STM32/libspeex/nb_celp.c ****          for (i=0;i<st->subframeSize;i++)
 2414              		.loc 3 503 0 is_stmt 1
 2415 0cba 0023     		movs	r3, #0
 2416 0cbc C7F86C31 		str	r3, [r7, #364]
 2417 0cc0 25E0     		b	.L83
 2418              	.L84:
 504:STM32F10x_Speex_Lib/STM32/libspeex/nb_celp.c ****             real_exc[i] = sw[i] = in[i+((sub-1)*st->subframeSize)];
 2419              		.loc 3 504 0 discriminator 3
 2420 0cc2 D7F86C31 		ldr	r3, [r7, #364]
 2421 0cc6 5B00     		lsls	r3, r3, #1
 2422 0cc8 D7F80C21 		ldr	r2, [r7, #268]
 2423 0ccc 1A44     		add	r2, r2, r3
 2424 0cce D7F86C31 		ldr	r3, [r7, #364]
 2425 0cd2 5B00     		lsls	r3, r3, #1
 2426 0cd4 D7F8FC10 		ldr	r1, [r7, #252]
 2427 0cd8 0B44     		add	r3, r3, r1
 2428 0cda D7F86811 		ldr	r1, [r7, #360]
 2429 0cde 0139     		subs	r1, r1, #1
 2430 0ce0 D7F84001 		ldr	r0, [r7, #320]
 2431 0ce4 C068     		ldr	r0, [r0, #12]
 2432 0ce6 00FB01F0 		mul	r0, r0, r1
 2433 0cea D7F86C11 		ldr	r1, [r7, #364]
 2434 0cee 0144     		add	r1, r1, r0
 2435 0cf0 4900     		lsls	r1, r1, #1
 2436 0cf2 D7F84401 		ldr	r0, [r7, #324]
 2437 0cf6 0144     		add	r1, r1, r0
 2438 0cf8 B1F90010 		ldrsh	r1, [r1]
 2439 0cfc 1980     		strh	r1, [r3]	@ movhi
 2440 0cfe B3F90030 		ldrsh	r3, [r3]
 2441 0d02 1380     		strh	r3, [r2]	@ movhi
 503:STM32F10x_Speex_Lib/STM32/libspeex/nb_celp.c ****             real_exc[i] = sw[i] = in[i+((sub-1)*st->subframeSize)];
 2442              		.loc 3 503 0 discriminator 3
 2443 0d04 D7F86C31 		ldr	r3, [r7, #364]
 2444 0d08 0133     		adds	r3, r3, #1
 2445 0d0a C7F86C31 		str	r3, [r7, #364]
 2446              	.L83:
 503:STM32F10x_Speex_Lib/STM32/libspeex/nb_celp.c ****             real_exc[i] = sw[i] = in[i+((sub-1)*st->subframeSize)];
 2447              		.loc 3 503 0 is_stmt 0 discriminator 1
 2448 0d0e D7F84031 		ldr	r3, [r7, #320]
 2449 0d12 DA68     		ldr	r2, [r3, #12]
 2450 0d14 D7F86C31 		ldr	r3, [r7, #364]
 2451 0d18 9A42     		cmp	r2, r3
 2452 0d1a D2DC     		bgt	.L84
 2453              	.L82:
 505:STM32F10x_Speex_Lib/STM32/libspeex/nb_celp.c ****       }
ARM GAS  /var/folders/kh/x4vltyy52lbg7p4pcyglc5080000gp/T//ccuucmVt.s 			page 58


 506:STM32F10x_Speex_Lib/STM32/libspeex/nb_celp.c ****       fir_mem16(real_exc, interp_qlpc, real_exc, st->subframeSize, st->lpcSize, st->mem_exc2, stack
 2454              		.loc 3 506 0 is_stmt 1
 2455 0d1c D7F84031 		ldr	r3, [r7, #320]
 2456 0d20 DC68     		ldr	r4, [r3, #12]
 2457 0d22 D7F84031 		ldr	r3, [r7, #320]
 2458 0d26 9B69     		ldr	r3, [r3, #24]
 2459 0d28 D7F84021 		ldr	r2, [r7, #320]
 2460 0d2c 926F     		ldr	r2, [r2, #120]
 2461 0d2e 07F13800 		add	r0, r7, #56
 2462 0d32 D7F83C11 		ldr	r1, [r7, #316]
 2463 0d36 0291     		str	r1, [sp, #8]
 2464 0d38 0192     		str	r2, [sp, #4]
 2465 0d3a 0093     		str	r3, [sp]
 2466 0d3c 2346     		mov	r3, r4
 2467 0d3e D7F80C21 		ldr	r2, [r7, #268]
 2468 0d42 0146     		mov	r1, r0
 2469 0d44 D7F80C01 		ldr	r0, [r7, #268]
 2470 0d48 FFF7FEFF 		bl	fir_mem16
 507:STM32F10x_Speex_Lib/STM32/libspeex/nb_celp.c ****       
 508:STM32F10x_Speex_Lib/STM32/libspeex/nb_celp.c ****       if (st->complexity==0)
 2471              		.loc 3 508 0
 2472 0d4c D7F84031 		ldr	r3, [r7, #320]
 2473 0d50 D3F88C30 		ldr	r3, [r3, #140]
 2474 0d54 002B     		cmp	r3, #0
 2475 0d56 04D1     		bne	.L85
 509:STM32F10x_Speex_Lib/STM32/libspeex/nb_celp.c ****          response_bound >>= 1;
 2476              		.loc 3 509 0
 2477 0d58 D7F85431 		ldr	r3, [r7, #340]
 2478 0d5c 5B10     		asrs	r3, r3, #1
 2479 0d5e C7F85431 		str	r3, [r7, #340]
 2480              	.L85:
 510:STM32F10x_Speex_Lib/STM32/libspeex/nb_celp.c ****       compute_impulse_response(interp_qlpc, bw_lpc1, bw_lpc2, syn_resp, response_bound, st->lpcSize
 2481              		.loc 3 510 0
 2482 0d62 D7F84031 		ldr	r3, [r7, #320]
 2483 0d66 9B69     		ldr	r3, [r3, #24]
 2484 0d68 07F1B004 		add	r4, r7, #176
 2485 0d6c 07F1C401 		add	r1, r7, #196
 2486 0d70 07F13800 		add	r0, r7, #56
 2487 0d74 D7F83C21 		ldr	r2, [r7, #316]
 2488 0d78 0292     		str	r2, [sp, #8]
 2489 0d7a 0193     		str	r3, [sp, #4]
 2490 0d7c D7F85431 		ldr	r3, [r7, #340]
 2491 0d80 0093     		str	r3, [sp]
 2492 0d82 D7F81031 		ldr	r3, [r7, #272]
 2493 0d86 2246     		mov	r2, r4
 2494 0d88 FFF7FEFF 		bl	compute_impulse_response
 511:STM32F10x_Speex_Lib/STM32/libspeex/nb_celp.c ****       for (i=response_bound;i<st->subframeSize;i++)
 2495              		.loc 3 511 0
 2496 0d8c D7F85431 		ldr	r3, [r7, #340]
 2497 0d90 C7F86C31 		str	r3, [r7, #364]
 2498 0d94 0CE0     		b	.L86
 2499              	.L87:
 512:STM32F10x_Speex_Lib/STM32/libspeex/nb_celp.c ****          syn_resp[i]=VERY_SMALL;
 2500              		.loc 3 512 0 discriminator 3
 2501 0d96 D7F86C31 		ldr	r3, [r7, #364]
 2502 0d9a 5B00     		lsls	r3, r3, #1
 2503 0d9c D7F81021 		ldr	r2, [r7, #272]
ARM GAS  /var/folders/kh/x4vltyy52lbg7p4pcyglc5080000gp/T//ccuucmVt.s 			page 59


 2504 0da0 1344     		add	r3, r3, r2
 2505 0da2 0022     		movs	r2, #0
 2506 0da4 1A80     		strh	r2, [r3]	@ movhi
 511:STM32F10x_Speex_Lib/STM32/libspeex/nb_celp.c ****       for (i=response_bound;i<st->subframeSize;i++)
 2507              		.loc 3 511 0 discriminator 3
 2508 0da6 D7F86C31 		ldr	r3, [r7, #364]
 2509 0daa 0133     		adds	r3, r3, #1
 2510 0dac C7F86C31 		str	r3, [r7, #364]
 2511              	.L86:
 511:STM32F10x_Speex_Lib/STM32/libspeex/nb_celp.c ****       for (i=response_bound;i<st->subframeSize;i++)
 2512              		.loc 3 511 0 is_stmt 0 discriminator 1
 2513 0db0 D7F84031 		ldr	r3, [r7, #320]
 2514 0db4 DA68     		ldr	r2, [r3, #12]
 2515 0db6 D7F86C31 		ldr	r3, [r7, #364]
 2516 0dba 9A42     		cmp	r2, r3
 2517 0dbc EBDC     		bgt	.L87
 513:STM32F10x_Speex_Lib/STM32/libspeex/nb_celp.c ****       
 514:STM32F10x_Speex_Lib/STM32/libspeex/nb_celp.c ****       /* Compute zero response of A(z/g1) / ( A(z/g2) * A(z) ) */
 515:STM32F10x_Speex_Lib/STM32/libspeex/nb_celp.c ****       for (i=0;i<st->lpcSize;i++)
 2518              		.loc 3 515 0 is_stmt 1
 2519 0dbe 0023     		movs	r3, #0
 2520 0dc0 C7F86C31 		str	r3, [r7, #364]
 2521 0dc4 14E0     		b	.L88
 2522              	.L89:
 516:STM32F10x_Speex_Lib/STM32/libspeex/nb_celp.c ****          mem[i]=SHL32(st->mem_sp[i],1);
 2523              		.loc 3 516 0 discriminator 3
 2524 0dc6 D7F86C31 		ldr	r3, [r7, #364]
 2525 0dca 9B00     		lsls	r3, r3, #2
 2526 0dcc D7F80821 		ldr	r2, [r7, #264]
 2527 0dd0 1344     		add	r3, r3, r2
 2528 0dd2 D7F84021 		ldr	r2, [r7, #320]
 2529 0dd6 916E     		ldr	r1, [r2, #104]
 2530 0dd8 D7F86C21 		ldr	r2, [r7, #364]
 2531 0ddc 9200     		lsls	r2, r2, #2
 2532 0dde 0A44     		add	r2, r2, r1
 2533 0de0 1268     		ldr	r2, [r2]
 2534 0de2 5200     		lsls	r2, r2, #1
 2535 0de4 1A60     		str	r2, [r3]
 515:STM32F10x_Speex_Lib/STM32/libspeex/nb_celp.c ****          mem[i]=SHL32(st->mem_sp[i],1);
 2536              		.loc 3 515 0 discriminator 3
 2537 0de6 D7F86C31 		ldr	r3, [r7, #364]
 2538 0dea 0133     		adds	r3, r3, #1
 2539 0dec C7F86C31 		str	r3, [r7, #364]
 2540              	.L88:
 515:STM32F10x_Speex_Lib/STM32/libspeex/nb_celp.c ****          mem[i]=SHL32(st->mem_sp[i],1);
 2541              		.loc 3 515 0 is_stmt 0 discriminator 1
 2542 0df0 D7F84031 		ldr	r3, [r7, #320]
 2543 0df4 9A69     		ldr	r2, [r3, #24]
 2544 0df6 D7F86C31 		ldr	r3, [r7, #364]
 2545 0dfa 9A42     		cmp	r2, r3
 2546 0dfc E3DC     		bgt	.L89
 517:STM32F10x_Speex_Lib/STM32/libspeex/nb_celp.c ****       for (i=0;i<st->subframeSize;i++)
 2547              		.loc 3 517 0 is_stmt 1
 2548 0dfe 0023     		movs	r3, #0
 2549 0e00 C7F86C31 		str	r3, [r7, #364]
 2550 0e04 0CE0     		b	.L90
 2551              	.L91:
ARM GAS  /var/folders/kh/x4vltyy52lbg7p4pcyglc5080000gp/T//ccuucmVt.s 			page 60


 518:STM32F10x_Speex_Lib/STM32/libspeex/nb_celp.c ****          ringing[i] = VERY_SMALL;
 2552              		.loc 3 518 0 discriminator 3
 2553 0e06 D7F86C31 		ldr	r3, [r7, #364]
 2554 0e0a 5B00     		lsls	r3, r3, #1
 2555 0e0c D7F81421 		ldr	r2, [r7, #276]
 2556 0e10 1344     		add	r3, r3, r2
 2557 0e12 0022     		movs	r2, #0
 2558 0e14 1A80     		strh	r2, [r3]	@ movhi
 517:STM32F10x_Speex_Lib/STM32/libspeex/nb_celp.c ****       for (i=0;i<st->subframeSize;i++)
 2559              		.loc 3 517 0 discriminator 3
 2560 0e16 D7F86C31 		ldr	r3, [r7, #364]
 2561 0e1a 0133     		adds	r3, r3, #1
 2562 0e1c C7F86C31 		str	r3, [r7, #364]
 2563              	.L90:
 517:STM32F10x_Speex_Lib/STM32/libspeex/nb_celp.c ****       for (i=0;i<st->subframeSize;i++)
 2564              		.loc 3 517 0 is_stmt 0 discriminator 1
 2565 0e20 D7F84031 		ldr	r3, [r7, #320]
 2566 0e24 DA68     		ldr	r2, [r3, #12]
 2567 0e26 D7F86C31 		ldr	r3, [r7, #364]
 2568 0e2a 9A42     		cmp	r2, r3
 2569 0e2c EBDC     		bgt	.L91
 519:STM32F10x_Speex_Lib/STM32/libspeex/nb_celp.c **** 
 520:STM32F10x_Speex_Lib/STM32/libspeex/nb_celp.c ****       iir_mem16(ringing, interp_qlpc, ringing, st->subframeSize, st->lpcSize, mem, stack);
 2570              		.loc 3 520 0 is_stmt 1
 2571 0e2e D7F84031 		ldr	r3, [r7, #320]
 2572 0e32 D868     		ldr	r0, [r3, #12]
 2573 0e34 D7F84031 		ldr	r3, [r7, #320]
 2574 0e38 9B69     		ldr	r3, [r3, #24]
 2575 0e3a 07F13801 		add	r1, r7, #56
 2576 0e3e D7F83C21 		ldr	r2, [r7, #316]
 2577 0e42 0292     		str	r2, [sp, #8]
 2578 0e44 D7F80821 		ldr	r2, [r7, #264]
 2579 0e48 0192     		str	r2, [sp, #4]
 2580 0e4a 0093     		str	r3, [sp]
 2581 0e4c 0346     		mov	r3, r0
 2582 0e4e D7F81421 		ldr	r2, [r7, #276]
 2583 0e52 D7F81401 		ldr	r0, [r7, #276]
 2584 0e56 FFF7FEFF 		bl	iir_mem16
 521:STM32F10x_Speex_Lib/STM32/libspeex/nb_celp.c ****       for (i=0;i<st->lpcSize;i++)
 2585              		.loc 3 521 0
 2586 0e5a 0023     		movs	r3, #0
 2587 0e5c C7F86C31 		str	r3, [r7, #364]
 2588 0e60 14E0     		b	.L92
 2589              	.L93:
 522:STM32F10x_Speex_Lib/STM32/libspeex/nb_celp.c ****          mem[i]=SHL32(st->mem_sw[i],1);
 2590              		.loc 3 522 0 discriminator 3
 2591 0e62 D7F86C31 		ldr	r3, [r7, #364]
 2592 0e66 9B00     		lsls	r3, r3, #2
 2593 0e68 D7F80821 		ldr	r2, [r7, #264]
 2594 0e6c 1344     		add	r3, r3, r2
 2595 0e6e D7F84021 		ldr	r2, [r7, #320]
 2596 0e72 D16E     		ldr	r1, [r2, #108]
 2597 0e74 D7F86C21 		ldr	r2, [r7, #364]
 2598 0e78 9200     		lsls	r2, r2, #2
 2599 0e7a 0A44     		add	r2, r2, r1
 2600 0e7c 1268     		ldr	r2, [r2]
 2601 0e7e 5200     		lsls	r2, r2, #1
ARM GAS  /var/folders/kh/x4vltyy52lbg7p4pcyglc5080000gp/T//ccuucmVt.s 			page 61


 2602 0e80 1A60     		str	r2, [r3]
 521:STM32F10x_Speex_Lib/STM32/libspeex/nb_celp.c ****       for (i=0;i<st->lpcSize;i++)
 2603              		.loc 3 521 0 discriminator 3
 2604 0e82 D7F86C31 		ldr	r3, [r7, #364]
 2605 0e86 0133     		adds	r3, r3, #1
 2606 0e88 C7F86C31 		str	r3, [r7, #364]
 2607              	.L92:
 521:STM32F10x_Speex_Lib/STM32/libspeex/nb_celp.c ****       for (i=0;i<st->lpcSize;i++)
 2608              		.loc 3 521 0 is_stmt 0 discriminator 1
 2609 0e8c D7F84031 		ldr	r3, [r7, #320]
 2610 0e90 9A69     		ldr	r2, [r3, #24]
 2611 0e92 D7F86C31 		ldr	r3, [r7, #364]
 2612 0e96 9A42     		cmp	r2, r3
 2613 0e98 E3DC     		bgt	.L93
 523:STM32F10x_Speex_Lib/STM32/libspeex/nb_celp.c ****       filter_mem16(ringing, bw_lpc1, bw_lpc2, ringing, st->subframeSize, st->lpcSize, mem, stack);
 2614              		.loc 3 523 0 is_stmt 1
 2615 0e9a D7F84031 		ldr	r3, [r7, #320]
 2616 0e9e DB68     		ldr	r3, [r3, #12]
 2617 0ea0 D7F84021 		ldr	r2, [r7, #320]
 2618 0ea4 9269     		ldr	r2, [r2, #24]
 2619 0ea6 07F1B004 		add	r4, r7, #176
 2620 0eaa 07F1C400 		add	r0, r7, #196
 2621 0eae D7F83C11 		ldr	r1, [r7, #316]
 2622 0eb2 0391     		str	r1, [sp, #12]
 2623 0eb4 D7F80811 		ldr	r1, [r7, #264]
 2624 0eb8 0291     		str	r1, [sp, #8]
 2625 0eba 0192     		str	r2, [sp, #4]
 2626 0ebc 0093     		str	r3, [sp]
 2627 0ebe D7F81431 		ldr	r3, [r7, #276]
 2628 0ec2 2246     		mov	r2, r4
 2629 0ec4 0146     		mov	r1, r0
 2630 0ec6 D7F81401 		ldr	r0, [r7, #276]
 2631 0eca FFF7FEFF 		bl	filter_mem16
 524:STM32F10x_Speex_Lib/STM32/libspeex/nb_celp.c ****       
 525:STM32F10x_Speex_Lib/STM32/libspeex/nb_celp.c ****       /* Compute weighted signal */
 526:STM32F10x_Speex_Lib/STM32/libspeex/nb_celp.c ****       for (i=0;i<st->lpcSize;i++)
 2632              		.loc 3 526 0
 2633 0ece 0023     		movs	r3, #0
 2634 0ed0 C7F86C31 		str	r3, [r7, #364]
 2635 0ed4 13E0     		b	.L94
 2636              	.L95:
 527:STM32F10x_Speex_Lib/STM32/libspeex/nb_celp.c ****          mem[i]=st->mem_sw[i];
 2637              		.loc 3 527 0 discriminator 3
 2638 0ed6 D7F86C31 		ldr	r3, [r7, #364]
 2639 0eda 9B00     		lsls	r3, r3, #2
 2640 0edc D7F80821 		ldr	r2, [r7, #264]
 2641 0ee0 1344     		add	r3, r3, r2
 2642 0ee2 D7F84021 		ldr	r2, [r7, #320]
 2643 0ee6 D16E     		ldr	r1, [r2, #108]
 2644 0ee8 D7F86C21 		ldr	r2, [r7, #364]
 2645 0eec 9200     		lsls	r2, r2, #2
 2646 0eee 0A44     		add	r2, r2, r1
 2647 0ef0 1268     		ldr	r2, [r2]
 2648 0ef2 1A60     		str	r2, [r3]
 526:STM32F10x_Speex_Lib/STM32/libspeex/nb_celp.c ****          mem[i]=st->mem_sw[i];
 2649              		.loc 3 526 0 discriminator 3
 2650 0ef4 D7F86C31 		ldr	r3, [r7, #364]
ARM GAS  /var/folders/kh/x4vltyy52lbg7p4pcyglc5080000gp/T//ccuucmVt.s 			page 62


 2651 0ef8 0133     		adds	r3, r3, #1
 2652 0efa C7F86C31 		str	r3, [r7, #364]
 2653              	.L94:
 526:STM32F10x_Speex_Lib/STM32/libspeex/nb_celp.c ****          mem[i]=st->mem_sw[i];
 2654              		.loc 3 526 0 is_stmt 0 discriminator 1
 2655 0efe D7F84031 		ldr	r3, [r7, #320]
 2656 0f02 9A69     		ldr	r2, [r3, #24]
 2657 0f04 D7F86C31 		ldr	r3, [r7, #364]
 2658 0f08 9A42     		cmp	r2, r3
 2659 0f0a E4DC     		bgt	.L95
 528:STM32F10x_Speex_Lib/STM32/libspeex/nb_celp.c ****       filter_mem16(sw, bw_lpc1, bw_lpc2, sw, st->subframeSize, st->lpcSize, mem, stack);
 2660              		.loc 3 528 0 is_stmt 1
 2661 0f0c D7F84031 		ldr	r3, [r7, #320]
 2662 0f10 DB68     		ldr	r3, [r3, #12]
 2663 0f12 D7F84021 		ldr	r2, [r7, #320]
 2664 0f16 9269     		ldr	r2, [r2, #24]
 2665 0f18 07F1B004 		add	r4, r7, #176
 2666 0f1c 07F1C400 		add	r0, r7, #196
 2667 0f20 D7F83C11 		ldr	r1, [r7, #316]
 2668 0f24 0391     		str	r1, [sp, #12]
 2669 0f26 D7F80811 		ldr	r1, [r7, #264]
 2670 0f2a 0291     		str	r1, [sp, #8]
 2671 0f2c 0192     		str	r2, [sp, #4]
 2672 0f2e 0093     		str	r3, [sp]
 2673 0f30 D7F8FC30 		ldr	r3, [r7, #252]
 2674 0f34 2246     		mov	r2, r4
 2675 0f36 0146     		mov	r1, r0
 2676 0f38 D7F8FC00 		ldr	r0, [r7, #252]
 2677 0f3c FFF7FEFF 		bl	filter_mem16
 529:STM32F10x_Speex_Lib/STM32/libspeex/nb_celp.c ****       
 530:STM32F10x_Speex_Lib/STM32/libspeex/nb_celp.c ****       if (st->complexity==0)
 2678              		.loc 3 530 0
 2679 0f40 D7F84031 		ldr	r3, [r7, #320]
 2680 0f44 D3F88C30 		ldr	r3, [r3, #140]
 2681 0f48 002B     		cmp	r3, #0
 2682 0f4a 1ED1     		bne	.L96
 531:STM32F10x_Speex_Lib/STM32/libspeex/nb_celp.c ****          for (i=0;i<st->lpcSize;i++)
 2683              		.loc 3 531 0
 2684 0f4c 0023     		movs	r3, #0
 2685 0f4e C7F86C31 		str	r3, [r7, #364]
 2686 0f52 13E0     		b	.L97
 2687              	.L98:
 532:STM32F10x_Speex_Lib/STM32/libspeex/nb_celp.c ****             st->mem_sw[i]=mem[i];
 2688              		.loc 3 532 0 discriminator 3
 2689 0f54 D7F84031 		ldr	r3, [r7, #320]
 2690 0f58 DA6E     		ldr	r2, [r3, #108]
 2691 0f5a D7F86C31 		ldr	r3, [r7, #364]
 2692 0f5e 9B00     		lsls	r3, r3, #2
 2693 0f60 1344     		add	r3, r3, r2
 2694 0f62 D7F86C21 		ldr	r2, [r7, #364]
 2695 0f66 9200     		lsls	r2, r2, #2
 2696 0f68 D7F80811 		ldr	r1, [r7, #264]
 2697 0f6c 0A44     		add	r2, r2, r1
 2698 0f6e 1268     		ldr	r2, [r2]
 2699 0f70 1A60     		str	r2, [r3]
 531:STM32F10x_Speex_Lib/STM32/libspeex/nb_celp.c ****          for (i=0;i<st->lpcSize;i++)
 2700              		.loc 3 531 0 discriminator 3
ARM GAS  /var/folders/kh/x4vltyy52lbg7p4pcyglc5080000gp/T//ccuucmVt.s 			page 63


 2701 0f72 D7F86C31 		ldr	r3, [r7, #364]
 2702 0f76 0133     		adds	r3, r3, #1
 2703 0f78 C7F86C31 		str	r3, [r7, #364]
 2704              	.L97:
 531:STM32F10x_Speex_Lib/STM32/libspeex/nb_celp.c ****          for (i=0;i<st->lpcSize;i++)
 2705              		.loc 3 531 0 is_stmt 0 discriminator 1
 2706 0f7c D7F84031 		ldr	r3, [r7, #320]
 2707 0f80 9A69     		ldr	r2, [r3, #24]
 2708 0f82 D7F86C31 		ldr	r3, [r7, #364]
 2709 0f86 9A42     		cmp	r2, r3
 2710 0f88 E4DC     		bgt	.L98
 2711              	.L96:
 533:STM32F10x_Speex_Lib/STM32/libspeex/nb_celp.c ****       
 534:STM32F10x_Speex_Lib/STM32/libspeex/nb_celp.c ****       /* Compute target signal (saturation prevents overflows on clipped input speech) */
 535:STM32F10x_Speex_Lib/STM32/libspeex/nb_celp.c ****       for (i=0;i<st->subframeSize;i++)
 2712              		.loc 3 535 0 is_stmt 1
 2713 0f8a 0023     		movs	r3, #0
 2714 0f8c C7F86C31 		str	r3, [r7, #364]
 2715 0f90 55E0     		b	.L99
 2716              	.L104:
 536:STM32F10x_Speex_Lib/STM32/libspeex/nb_celp.c ****          target[i]=EXTRACT16(SATURATE(SUB32(sw[i],PSHR32(ringing[i],1)),32767));
 2717              		.loc 3 536 0
 2718 0f92 D7F86C31 		ldr	r3, [r7, #364]
 2719 0f96 5B00     		lsls	r3, r3, #1
 2720 0f98 D7F82021 		ldr	r2, [r7, #288]
 2721 0f9c 1A44     		add	r2, r2, r3
 2722 0f9e D7F86C31 		ldr	r3, [r7, #364]
 2723 0fa2 5B00     		lsls	r3, r3, #1
 2724 0fa4 D7F8FC10 		ldr	r1, [r7, #252]
 2725 0fa8 0B44     		add	r3, r3, r1
 2726 0faa B3F90030 		ldrsh	r3, [r3]
 2727 0fae 1846     		mov	r0, r3
 2728 0fb0 D7F86C31 		ldr	r3, [r7, #364]
 2729 0fb4 5B00     		lsls	r3, r3, #1
 2730 0fb6 D7F81411 		ldr	r1, [r7, #276]
 2731 0fba 0B44     		add	r3, r3, r1
 2732 0fbc B3F90030 		ldrsh	r3, [r3]
 2733 0fc0 0133     		adds	r3, r3, #1
 2734 0fc2 5B10     		asrs	r3, r3, #1
 2735 0fc4 C31A     		subs	r3, r0, r3
 2736 0fc6 B3F5004F 		cmp	r3, #32768
 2737 0fca 30DA     		bge	.L100
 2738              		.loc 3 536 0 is_stmt 0 discriminator 1
 2739 0fcc D7F86C31 		ldr	r3, [r7, #364]
 2740 0fd0 5B00     		lsls	r3, r3, #1
 2741 0fd2 D7F8FC10 		ldr	r1, [r7, #252]
 2742 0fd6 0B44     		add	r3, r3, r1
 2743 0fd8 B3F90030 		ldrsh	r3, [r3]
 2744 0fdc 1846     		mov	r0, r3
 2745 0fde D7F86C31 		ldr	r3, [r7, #364]
 2746 0fe2 5B00     		lsls	r3, r3, #1
 2747 0fe4 D7F81411 		ldr	r1, [r7, #276]
 2748 0fe8 0B44     		add	r3, r3, r1
 2749 0fea B3F90030 		ldrsh	r3, [r3]
 2750 0fee 0133     		adds	r3, r3, #1
 2751 0ff0 5B10     		asrs	r3, r3, #1
 2752 0ff2 C31A     		subs	r3, r0, r3
ARM GAS  /var/folders/kh/x4vltyy52lbg7p4pcyglc5080000gp/T//ccuucmVt.s 			page 64


 2753 0ff4 13F5004F 		cmn	r3, #32768
 2754 0ff8 17DD     		ble	.L101
 2755              		.loc 3 536 0 discriminator 3
 2756 0ffa D7F86C31 		ldr	r3, [r7, #364]
 2757 0ffe 5B00     		lsls	r3, r3, #1
 2758 1000 D7F8FC10 		ldr	r1, [r7, #252]
 2759 1004 0B44     		add	r3, r3, r1
 2760 1006 B3F90030 		ldrsh	r3, [r3]
 2761 100a 99B2     		uxth	r1, r3
 2762 100c D7F86C31 		ldr	r3, [r7, #364]
 2763 1010 5B00     		lsls	r3, r3, #1
 2764 1012 D7F81401 		ldr	r0, [r7, #276]
 2765 1016 0344     		add	r3, r3, r0
 2766 1018 B3F90030 		ldrsh	r3, [r3]
 2767 101c 0133     		adds	r3, r3, #1
 2768 101e 5B10     		asrs	r3, r3, #1
 2769 1020 9BB2     		uxth	r3, r3
 2770 1022 CB1A     		subs	r3, r1, r3
 2771 1024 9BB2     		uxth	r3, r3
 2772 1026 1BB2     		sxth	r3, r3
 2773 1028 03E0     		b	.L103
 2774              	.L101:
 2775              		.loc 3 536 0 discriminator 4
 2776 102a BB4B     		ldr	r3, .L127
 2777 102c 01E0     		b	.L103
 2778              	.L100:
 2779              		.loc 3 536 0 discriminator 2
 2780 102e 47F6FF73 		movw	r3, #32767
 2781              	.L103:
 2782              		.loc 3 536 0 discriminator 8
 2783 1032 1380     		strh	r3, [r2]	@ movhi
 535:STM32F10x_Speex_Lib/STM32/libspeex/nb_celp.c ****          target[i]=EXTRACT16(SATURATE(SUB32(sw[i],PSHR32(ringing[i],1)),32767));
 2784              		.loc 3 535 0 is_stmt 1 discriminator 8
 2785 1034 D7F86C31 		ldr	r3, [r7, #364]
 2786 1038 0133     		adds	r3, r3, #1
 2787 103a C7F86C31 		str	r3, [r7, #364]
 2788              	.L99:
 535:STM32F10x_Speex_Lib/STM32/libspeex/nb_celp.c ****          target[i]=EXTRACT16(SATURATE(SUB32(sw[i],PSHR32(ringing[i],1)),32767));
 2789              		.loc 3 535 0 is_stmt 0 discriminator 2
 2790 103e D7F84031 		ldr	r3, [r7, #320]
 2791 1042 DA68     		ldr	r2, [r3, #12]
 2792 1044 D7F86C31 		ldr	r3, [r7, #364]
 2793 1048 9A42     		cmp	r2, r3
 2794 104a A2DC     		bgt	.L104
 537:STM32F10x_Speex_Lib/STM32/libspeex/nb_celp.c **** 
 538:STM32F10x_Speex_Lib/STM32/libspeex/nb_celp.c ****       /* Reset excitation */
 539:STM32F10x_Speex_Lib/STM32/libspeex/nb_celp.c ****       SPEEX_MEMSET(exc, 0, st->subframeSize);
 2795              		.loc 3 539 0 is_stmt 1
 2796 104c D7F84031 		ldr	r3, [r7, #320]
 2797 1050 DB68     		ldr	r3, [r3, #12]
 2798 1052 5B00     		lsls	r3, r3, #1
 2799 1054 1A46     		mov	r2, r3
 2800 1056 0021     		movs	r1, #0
 2801 1058 D7F80001 		ldr	r0, [r7, #256]
 2802 105c FFF7FEFF 		bl	memset
 2803              	.LBB9:
 540:STM32F10x_Speex_Lib/STM32/libspeex/nb_celp.c **** 
ARM GAS  /var/folders/kh/x4vltyy52lbg7p4pcyglc5080000gp/T//ccuucmVt.s 			page 65


 541:STM32F10x_Speex_Lib/STM32/libspeex/nb_celp.c ****       /* If we have a long-term predictor (otherwise, something's wrong) */
 542:STM32F10x_Speex_Lib/STM32/libspeex/nb_celp.c ****       {
 543:STM32F10x_Speex_Lib/STM32/libspeex/nb_celp.c ****          int pit_min, pit_max;
 544:STM32F10x_Speex_Lib/STM32/libspeex/nb_celp.c ****          pit_min = st->min_pitch;
 2804              		.loc 3 544 0
 2805 1060 D7F84031 		ldr	r3, [r7, #320]
 2806 1064 DB69     		ldr	r3, [r3, #28]
 2807 1066 C7F8F830 		str	r3, [r7, #248]
 545:STM32F10x_Speex_Lib/STM32/libspeex/nb_celp.c ****          pit_max = st->max_pitch;
 2808              		.loc 3 545 0
 2809 106a D7F84031 		ldr	r3, [r7, #320]
 2810 106e 1B6A     		ldr	r3, [r3, #32]
 2811 1070 C7F84C31 		str	r3, [r7, #332]
 546:STM32F10x_Speex_Lib/STM32/libspeex/nb_celp.c ****            
 547:STM32F10x_Speex_Lib/STM32/libspeex/nb_celp.c ****          /* Force pitch to use only the current frame if needed */
 548:STM32F10x_Speex_Lib/STM32/libspeex/nb_celp.c ****          if (st->bounded_pitch && pit_max>offset)
 2812              		.loc 3 548 0
 2813 1074 D7F84031 		ldr	r3, [r7, #320]
 2814 1078 9B6A     		ldr	r3, [r3, #40]
 2815 107a 002B     		cmp	r3, #0
 2816 107c 09D0     		beq	.L105
 2817              		.loc 3 548 0 is_stmt 0 discriminator 1
 2818 107e D7F84C21 		ldr	r2, [r7, #332]
 2819 1082 D7F80431 		ldr	r3, [r7, #260]
 2820 1086 9A42     		cmp	r2, r3
 2821 1088 03DD     		ble	.L105
 549:STM32F10x_Speex_Lib/STM32/libspeex/nb_celp.c ****             pit_max=offset;
 2822              		.loc 3 549 0 is_stmt 1
 2823 108a D7F80431 		ldr	r3, [r7, #260]
 2824 108e C7F84C31 		str	r3, [r7, #332]
 2825              	.L105:
 550:STM32F10x_Speex_Lib/STM32/libspeex/nb_celp.c **** 
 551:STM32F10x_Speex_Lib/STM32/libspeex/nb_celp.c ****          /* Perform pitch search */
 552:STM32F10x_Speex_Lib/STM32/libspeex/nb_celp.c **** 		 pitch = pitch_search_3tap(target, sw, interp_qlpc, bw_lpc1, bw_lpc2,
 553:STM32F10x_Speex_Lib/STM32/libspeex/nb_celp.c ****                                     exc32, SUBMODE(ltp_params), pit_min, pit_max, ol_pitch_coef,
 2826              		.loc 3 553 0
 2827 1092 D7F84031 		ldr	r3, [r7, #320]
 2828 1096 D3F89C20 		ldr	r2, [r3, #156]
 2829 109a D7F84031 		ldr	r3, [r7, #320]
 2830 109e D3F8A030 		ldr	r3, [r3, #160]
 2831 10a2 9B00     		lsls	r3, r3, #2
 2832 10a4 1344     		add	r3, r3, r2
 2833 10a6 1B68     		ldr	r3, [r3]
 552:STM32F10x_Speex_Lib/STM32/libspeex/nb_celp.c ****                                     exc32, SUBMODE(ltp_params), pit_min, pit_max, ol_pitch_coef,
 2834              		.loc 3 552 0
 2835 10a8 1B6A     		ldr	r3, [r3, #32]
 2836 10aa D7F84021 		ldr	r2, [r7, #320]
 2837 10ae 9269     		ldr	r2, [r2, #24]
 2838 10b0 D7F84011 		ldr	r1, [r7, #320]
 2839 10b4 C968     		ldr	r1, [r1, #12]
 2840 10b6 D7F84001 		ldr	r0, [r7, #320]
 2841 10ba D0F88C00 		ldr	r0, [r0, #140]
 2842 10be D7F84041 		ldr	r4, [r7, #320]
 2843 10c2 D4F89440 		ldr	r4, [r4, #148]
 2844 10c6 D7F84051 		ldr	r5, [r7, #320]
 2845 10ca 2435     		adds	r5, r5, #36
 2846 10cc 07F1C40E 		add	lr, r7, #196
ARM GAS  /var/folders/kh/x4vltyy52lbg7p4pcyglc5080000gp/T//ccuucmVt.s 			page 66


 2847 10d0 07F13806 		add	r6, r7, #56
 2848 10d4 0F95     		str	r5, [sp, #60]
 2849 10d6 0E94     		str	r4, [sp, #56]
 2850 10d8 0024     		movs	r4, #0
 2851 10da 0D94     		str	r4, [sp, #52]
 2852 10dc 0C90     		str	r0, [sp, #48]
 2853 10de D7F81001 		ldr	r0, [r7, #272]
 2854 10e2 0B90     		str	r0, [sp, #44]
 2855 10e4 D7F80001 		ldr	r0, [r7, #256]
 2856 10e8 0A90     		str	r0, [sp, #40]
 2857 10ea D7F83C01 		ldr	r0, [r7, #316]
 2858 10ee 0990     		str	r0, [sp, #36]
 2859 10f0 381D     		adds	r0, r7, #4
 2860 10f2 0068     		ldr	r0, [r0]
 2861 10f4 0890     		str	r0, [sp, #32]
 2862 10f6 0791     		str	r1, [sp, #28]
 2863 10f8 0692     		str	r2, [sp, #24]
 2864 10fa B7F96221 		ldrsh	r2, [r7, #354]
 2865 10fe 0592     		str	r2, [sp, #20]
 2866 1100 D7F84C21 		ldr	r2, [r7, #332]
 2867 1104 0492     		str	r2, [sp, #16]
 2868 1106 D7F8F820 		ldr	r2, [r7, #248]
 2869 110a 0392     		str	r2, [sp, #12]
 2870 110c 0293     		str	r3, [sp, #8]
 2871 110e D7F81831 		ldr	r3, [r7, #280]
 2872 1112 0193     		str	r3, [sp, #4]
 2873 1114 07F1B003 		add	r3, r7, #176
 2874 1118 0093     		str	r3, [sp]
 2875 111a 7346     		mov	r3, lr
 2876 111c 3246     		mov	r2, r6
 2877 111e D7F8FC10 		ldr	r1, [r7, #252]
 2878 1122 D7F82001 		ldr	r0, [r7, #288]
 2879 1126 FFF7FEFF 		bl	pitch_search_3tap
 2880 112a C7F8F400 		str	r0, [r7, #244]
 554:STM32F10x_Speex_Lib/STM32/libspeex/nb_celp.c ****                                     st->lpcSize, st->subframeSize, bits, stack, 
 555:STM32F10x_Speex_Lib/STM32/libspeex/nb_celp.c ****                                     exc, syn_resp, st->complexity, 0, st->plc_tuning, &st->cumul_ga
 556:STM32F10x_Speex_Lib/STM32/libspeex/nb_celp.c ****          st->pitch[sub]=pitch;
 2881              		.loc 3 556 0
 2882 112e D7F84031 		ldr	r3, [r7, #320]
 2883 1132 5A6B     		ldr	r2, [r3, #52]
 2884 1134 D7F86831 		ldr	r3, [r7, #360]
 2885 1138 9B00     		lsls	r3, r3, #2
 2886 113a 1344     		add	r3, r3, r2
 2887 113c D7F8F420 		ldr	r2, [r7, #244]
 2888 1140 1A60     		str	r2, [r3]
 2889              	.LBE9:
 557:STM32F10x_Speex_Lib/STM32/libspeex/nb_celp.c ****       }
 558:STM32F10x_Speex_Lib/STM32/libspeex/nb_celp.c ****       /* Quantization of innovation */
 559:STM32F10x_Speex_Lib/STM32/libspeex/nb_celp.c ****       SPEEX_MEMSET(innov, 0, st->subframeSize);
 2890              		.loc 3 559 0
 2891 1142 D7F84031 		ldr	r3, [r7, #320]
 2892 1146 DB68     		ldr	r3, [r3, #12]
 2893 1148 9B00     		lsls	r3, r3, #2
 2894 114a 1A46     		mov	r2, r3
 2895 114c 0021     		movs	r1, #0
 2896 114e D7F81C01 		ldr	r0, [r7, #284]
 2897 1152 FFF7FEFF 		bl	memset
ARM GAS  /var/folders/kh/x4vltyy52lbg7p4pcyglc5080000gp/T//ccuucmVt.s 			page 67


 560:STM32F10x_Speex_Lib/STM32/libspeex/nb_celp.c ****       
 561:STM32F10x_Speex_Lib/STM32/libspeex/nb_celp.c ****       /* FIXME: Make sure this is save from overflows (so far so good) */
 562:STM32F10x_Speex_Lib/STM32/libspeex/nb_celp.c ****       for (i=0;i<40;i++)
 2898              		.loc 3 562 0
 2899 1156 0023     		movs	r3, #0
 2900 1158 C7F86C31 		str	r3, [r7, #364]
 2901 115c 22E0     		b	.L106
 2902              	.L107:
 563:STM32F10x_Speex_Lib/STM32/libspeex/nb_celp.c ****          real_exc[i] = EXTRACT16(SUB32(EXTEND32(real_exc[i]), PSHR32(exc32[i],SIG_SHIFT-1)));
 2903              		.loc 3 563 0 discriminator 3
 2904 115e D7F86C31 		ldr	r3, [r7, #364]
 2905 1162 5B00     		lsls	r3, r3, #1
 2906 1164 D7F80C21 		ldr	r2, [r7, #268]
 2907 1168 1344     		add	r3, r3, r2
 2908 116a D7F86C21 		ldr	r2, [r7, #364]
 2909 116e 5200     		lsls	r2, r2, #1
 2910 1170 D7F80C11 		ldr	r1, [r7, #268]
 2911 1174 0A44     		add	r2, r2, r1
 2912 1176 B2F90020 		ldrsh	r2, [r2]
 2913 117a 91B2     		uxth	r1, r2
 2914 117c D7F86C21 		ldr	r2, [r7, #364]
 2915 1180 9200     		lsls	r2, r2, #2
 2916 1182 D7F81801 		ldr	r0, [r7, #280]
 2917 1186 0244     		add	r2, r2, r0
 2918 1188 1268     		ldr	r2, [r2]
 2919 118a 02F58052 		add	r2, r2, #4096
 2920 118e 5213     		asrs	r2, r2, #13
 2921 1190 92B2     		uxth	r2, r2
 2922 1192 8A1A     		subs	r2, r1, r2
 2923 1194 92B2     		uxth	r2, r2
 2924 1196 12B2     		sxth	r2, r2
 2925 1198 1A80     		strh	r2, [r3]	@ movhi
 562:STM32F10x_Speex_Lib/STM32/libspeex/nb_celp.c ****          real_exc[i] = EXTRACT16(SUB32(EXTEND32(real_exc[i]), PSHR32(exc32[i],SIG_SHIFT-1)));
 2926              		.loc 3 562 0 discriminator 3
 2927 119a D7F86C31 		ldr	r3, [r7, #364]
 2928 119e 0133     		adds	r3, r3, #1
 2929 11a0 C7F86C31 		str	r3, [r7, #364]
 2930              	.L106:
 562:STM32F10x_Speex_Lib/STM32/libspeex/nb_celp.c ****          real_exc[i] = EXTRACT16(SUB32(EXTEND32(real_exc[i]), PSHR32(exc32[i],SIG_SHIFT-1)));
 2931              		.loc 3 562 0 is_stmt 0 discriminator 1
 2932 11a4 D7F86C31 		ldr	r3, [r7, #364]
 2933 11a8 272B     		cmp	r3, #39
 2934 11aa D8DD     		ble	.L107
 564:STM32F10x_Speex_Lib/STM32/libspeex/nb_celp.c ****       
 565:STM32F10x_Speex_Lib/STM32/libspeex/nb_celp.c ****       ener = SHL32(EXTEND32(compute_rms16(real_exc, st->subframeSize)),SIG_SHIFT);
 2935              		.loc 3 565 0 is_stmt 1
 2936 11ac D7F84031 		ldr	r3, [r7, #320]
 2937 11b0 DB68     		ldr	r3, [r3, #12]
 2938 11b2 1946     		mov	r1, r3
 2939 11b4 D7F80C01 		ldr	r0, [r7, #268]
 2940 11b8 FFF7FEFF 		bl	compute_rms16
 2941 11bc 0346     		mov	r3, r0
 2942 11be 9B03     		lsls	r3, r3, #14
 2943 11c0 C7F84831 		str	r3, [r7, #328]
 2944              	.LBB10:
 566:STM32F10x_Speex_Lib/STM32/libspeex/nb_celp.c ****       
 567:STM32F10x_Speex_Lib/STM32/libspeex/nb_celp.c ****       /*FIXME: Should use DIV32_16 and make sure result fits in 16 bits */
ARM GAS  /var/folders/kh/x4vltyy52lbg7p4pcyglc5080000gp/T//ccuucmVt.s 			page 68


 568:STM32F10x_Speex_Lib/STM32/libspeex/nb_celp.c ****       {
 569:STM32F10x_Speex_Lib/STM32/libspeex/nb_celp.c ****          spx_word32_t f = PDIV32(ener,PSHR32(ol_gain,SIG_SHIFT));
 2945              		.loc 3 569 0
 2946 11c4 D7F85C31 		ldr	r3, [r7, #348]
 2947 11c8 03F50053 		add	r3, r3, #8192
 2948 11cc 9B13     		asrs	r3, r3, #14
 2949 11ce 1BB2     		sxth	r3, r3
 2950 11d0 5B10     		asrs	r3, r3, #1
 2951 11d2 1BB2     		sxth	r3, r3
 2952 11d4 1A46     		mov	r2, r3
 2953 11d6 D7F84831 		ldr	r3, [r7, #328]
 2954 11da 1A44     		add	r2, r2, r3
 2955 11dc D7F85C31 		ldr	r3, [r7, #348]
 2956 11e0 03F50053 		add	r3, r3, #8192
 2957 11e4 9B13     		asrs	r3, r3, #14
 2958 11e6 92FBF3F3 		sdiv	r3, r2, r3
 2959 11ea C7F8F030 		str	r3, [r7, #240]
 570:STM32F10x_Speex_Lib/STM32/libspeex/nb_celp.c ****          if (f<=32767)
 2960              		.loc 3 570 0
 2961 11ee D7F8F030 		ldr	r3, [r7, #240]
 2962 11f2 B3F5004F 		cmp	r3, #32768
 2963 11f6 04DA     		bge	.L108
 571:STM32F10x_Speex_Lib/STM32/libspeex/nb_celp.c ****             fine_gain = f;
 2964              		.loc 3 571 0
 2965 11f8 D7F8F030 		ldr	r3, [r7, #240]
 2966 11fc A7F85A31 		strh	r3, [r7, #346]	@ movhi
 2967 1200 03E0     		b	.L109
 2968              	.L108:
 572:STM32F10x_Speex_Lib/STM32/libspeex/nb_celp.c ****          else
 573:STM32F10x_Speex_Lib/STM32/libspeex/nb_celp.c ****             fine_gain = 32767;
 2969              		.loc 3 573 0
 2970 1202 47F6FF73 		movw	r3, #32767
 2971 1206 A7F85A31 		strh	r3, [r7, #346]	@ movhi
 2972              	.L109:
 2973              	.LBE10:
 2974              	.LBB11:
 574:STM32F10x_Speex_Lib/STM32/libspeex/nb_celp.c ****       }
 575:STM32F10x_Speex_Lib/STM32/libspeex/nb_celp.c **** 
 576:STM32F10x_Speex_Lib/STM32/libspeex/nb_celp.c ****       /* Calculate gain correction for the sub-frame (if any) */
 577:STM32F10x_Speex_Lib/STM32/libspeex/nb_celp.c ****       {
 578:STM32F10x_Speex_Lib/STM32/libspeex/nb_celp.c ****          int qe;
 579:STM32F10x_Speex_Lib/STM32/libspeex/nb_celp.c ****          qe = scal_quant(fine_gain, exc_gain_quant_scal1_bound, 2);
 2975              		.loc 3 579 0
 2976 120a B7F95A31 		ldrsh	r3, [r7, #346]
 2977 120e 0222     		movs	r2, #2
 2978 1210 4249     		ldr	r1, .L127+4
 2979 1212 1846     		mov	r0, r3
 2980 1214 FFF7FEFF 		bl	scal_quant
 2981 1218 C7F8EC00 		str	r0, [r7, #236]
 580:STM32F10x_Speex_Lib/STM32/libspeex/nb_celp.c ****          speex_bits_pack(bits, qe, 1);
 2982              		.loc 3 580 0
 2983 121c 3B1D     		adds	r3, r7, #4
 2984 121e 0122     		movs	r2, #1
 2985 1220 D7F8EC10 		ldr	r1, [r7, #236]
 2986 1224 1868     		ldr	r0, [r3]
 2987 1226 FFF7FEFF 		bl	speex_bits_pack
 581:STM32F10x_Speex_Lib/STM32/libspeex/nb_celp.c ****          ener=MULT16_32_Q14(exc_gain_quant_scal1[qe],ol_gain);               
ARM GAS  /var/folders/kh/x4vltyy52lbg7p4pcyglc5080000gp/T//ccuucmVt.s 			page 69


 2988              		.loc 3 581 0
 2989 122a 3D4A     		ldr	r2, .L127+8
 2990 122c D7F8EC30 		ldr	r3, [r7, #236]
 2991 1230 32F91330 		ldrsh	r3, [r2, r3, lsl #1]
 2992 1234 1A46     		mov	r2, r3
 2993 1236 D7F85C31 		ldr	r3, [r7, #348]
 2994 123a 9B13     		asrs	r3, r3, #14
 2995 123c 1BB2     		sxth	r3, r3
 2996 123e 03FB02F2 		mul	r2, r3, r2
 2997 1242 3749     		ldr	r1, .L127+8
 2998 1244 D7F8EC30 		ldr	r3, [r7, #236]
 2999 1248 31F91330 		ldrsh	r3, [r1, r3, lsl #1]
 3000 124c 1946     		mov	r1, r3
 3001 124e D7F85C31 		ldr	r3, [r7, #348]
 3002 1252 C3F30D03 		ubfx	r3, r3, #0, #14
 3003 1256 03FB01F3 		mul	r3, r3, r1
 3004 125a 9B13     		asrs	r3, r3, #14
 3005 125c 1344     		add	r3, r3, r2
 3006 125e C7F84831 		str	r3, [r7, #328]
 3007              	.LBE11:
 582:STM32F10x_Speex_Lib/STM32/libspeex/nb_celp.c ****       }
 583:STM32F10x_Speex_Lib/STM32/libspeex/nb_celp.c ****       
 584:STM32F10x_Speex_Lib/STM32/libspeex/nb_celp.c ****       /* Normalize innovation */
 585:STM32F10x_Speex_Lib/STM32/libspeex/nb_celp.c ****       signal_div(target, target, ener, st->subframeSize);
 3008              		.loc 3 585 0
 3009 1262 D7F84031 		ldr	r3, [r7, #320]
 3010 1266 DB68     		ldr	r3, [r3, #12]
 3011 1268 D7F84821 		ldr	r2, [r7, #328]
 3012 126c D7F82011 		ldr	r1, [r7, #288]
 3013 1270 D7F82001 		ldr	r0, [r7, #288]
 3014 1274 FFF7FEFF 		bl	signal_div
 586:STM32F10x_Speex_Lib/STM32/libspeex/nb_celp.c ****       
 587:STM32F10x_Speex_Lib/STM32/libspeex/nb_celp.c ****       /* Quantize innovation */
 588:STM32F10x_Speex_Lib/STM32/libspeex/nb_celp.c ****       {
 589:STM32F10x_Speex_Lib/STM32/libspeex/nb_celp.c ****          /* Codebook search */
 590:STM32F10x_Speex_Lib/STM32/libspeex/nb_celp.c **** 		 split_cb_search_shape_sign(target, interp_qlpc, bw_lpc1, bw_lpc2, 
 591:STM32F10x_Speex_Lib/STM32/libspeex/nb_celp.c ****                   SUBMODE(innovation_params), st->lpcSize, st->subframeSize, 
 3015              		.loc 3 591 0
 3016 1278 D7F84031 		ldr	r3, [r7, #320]
 3017 127c D3F89C20 		ldr	r2, [r3, #156]
 3018 1280 D7F84031 		ldr	r3, [r7, #320]
 3019 1284 D3F8A030 		ldr	r3, [r3, #160]
 3020 1288 9B00     		lsls	r3, r3, #2
 3021 128a 1344     		add	r3, r3, r2
 3022 128c 1B68     		ldr	r3, [r3]
 590:STM32F10x_Speex_Lib/STM32/libspeex/nb_celp.c ****                   SUBMODE(innovation_params), st->lpcSize, st->subframeSize, 
 3023              		.loc 3 590 0
 3024 128e DB6A     		ldr	r3, [r3, #44]
 3025 1290 D7F84021 		ldr	r2, [r7, #320]
 3026 1294 9269     		ldr	r2, [r2, #24]
 3027 1296 D7F84011 		ldr	r1, [r7, #320]
 3028 129a C968     		ldr	r1, [r1, #12]
 3029 129c D7F84001 		ldr	r0, [r7, #320]
 3030 12a0 D0F88C00 		ldr	r0, [r0, #140]
 592:STM32F10x_Speex_Lib/STM32/libspeex/nb_celp.c ****                   innov, syn_resp, bits, stack, st->complexity, SUBMODE(double_codebook));
 3031              		.loc 3 592 0
 3032 12a4 D7F84041 		ldr	r4, [r7, #320]
ARM GAS  /var/folders/kh/x4vltyy52lbg7p4pcyglc5080000gp/T//ccuucmVt.s 			page 70


 3033 12a8 D4F89C50 		ldr	r5, [r4, #156]
 3034 12ac D7F84041 		ldr	r4, [r7, #320]
 3035 12b0 D4F8A040 		ldr	r4, [r4, #160]
 3036 12b4 A400     		lsls	r4, r4, #2
 3037 12b6 2C44     		add	r4, r4, r5
 3038 12b8 2468     		ldr	r4, [r4]
 590:STM32F10x_Speex_Lib/STM32/libspeex/nb_celp.c ****                   SUBMODE(innovation_params), st->lpcSize, st->subframeSize, 
 3039              		.loc 3 590 0
 3040 12ba E468     		ldr	r4, [r4, #12]
 3041 12bc 07F1B00E 		add	lr, r7, #176
 3042 12c0 07F1C406 		add	r6, r7, #196
 3043 12c4 07F13805 		add	r5, r7, #56
 3044 12c8 0894     		str	r4, [sp, #32]
 3045 12ca 0790     		str	r0, [sp, #28]
 3046 12cc D7F83C01 		ldr	r0, [r7, #316]
 3047 12d0 0690     		str	r0, [sp, #24]
 3048 12d2 381D     		adds	r0, r7, #4
 3049 12d4 0068     		ldr	r0, [r0]
 3050 12d6 0590     		str	r0, [sp, #20]
 3051 12d8 D7F81001 		ldr	r0, [r7, #272]
 3052 12dc 0490     		str	r0, [sp, #16]
 3053 12de D7F81C01 		ldr	r0, [r7, #284]
 3054 12e2 0390     		str	r0, [sp, #12]
 3055 12e4 0291     		str	r1, [sp, #8]
 3056 12e6 0192     		str	r2, [sp, #4]
 3057 12e8 0093     		str	r3, [sp]
 3058 12ea 7346     		mov	r3, lr
 3059 12ec 3246     		mov	r2, r6
 3060 12ee 2946     		mov	r1, r5
 3061 12f0 D7F82001 		ldr	r0, [r7, #288]
 3062 12f4 FFF7FEFF 		bl	split_cb_search_shape_sign
 593:STM32F10x_Speex_Lib/STM32/libspeex/nb_celp.c **** 		 /* De-normalize innovation and update excitation */
 594:STM32F10x_Speex_Lib/STM32/libspeex/nb_celp.c ****          signal_mul(innov, innov, ener, st->subframeSize);
 3063              		.loc 3 594 0
 3064 12f8 D7F84031 		ldr	r3, [r7, #320]
 3065 12fc DB68     		ldr	r3, [r3, #12]
 3066 12fe D7F84821 		ldr	r2, [r7, #328]
 3067 1302 D7F81C11 		ldr	r1, [r7, #284]
 3068 1306 D7F81C01 		ldr	r0, [r7, #284]
 3069 130a FFF7FEFF 		bl	signal_mul
 595:STM32F10x_Speex_Lib/STM32/libspeex/nb_celp.c ****          
 596:STM32F10x_Speex_Lib/STM32/libspeex/nb_celp.c ****          for (i=0;i<40;i++)
 3070              		.loc 3 596 0
 3071 130e 0023     		movs	r3, #0
 3072 1310 C7F86C31 		str	r3, [r7, #364]
 3073 1314 57E0     		b	.L110
 3074              	.L128:
 3075 1316 00BF     		.align	2
 3076              	.L127:
 3077 1318 0180FFFF 		.word	-32767
 3078 131c 00000000 		.word	exc_gain_quant_scal1_bound
 3079 1320 00000000 		.word	exc_gain_quant_scal1
 3080              	.L115:
 597:STM32F10x_Speex_Lib/STM32/libspeex/nb_celp.c ****             exc[i] = EXTRACT16(SATURATE32(PSHR32(ADD32(SHL32(exc32[i],1),innov[i]),SIG_SHIFT),32767
 3081              		.loc 3 597 0
 3082 1324 D7F86C31 		ldr	r3, [r7, #364]
 3083 1328 5B00     		lsls	r3, r3, #1
ARM GAS  /var/folders/kh/x4vltyy52lbg7p4pcyglc5080000gp/T//ccuucmVt.s 			page 71


 3084 132a D7F80021 		ldr	r2, [r7, #256]
 3085 132e 1A44     		add	r2, r2, r3
 3086 1330 D7F86C31 		ldr	r3, [r7, #364]
 3087 1334 9B00     		lsls	r3, r3, #2
 3088 1336 D7F81811 		ldr	r1, [r7, #280]
 3089 133a 0B44     		add	r3, r3, r1
 3090 133c 1B68     		ldr	r3, [r3]
 3091 133e 5900     		lsls	r1, r3, #1
 3092 1340 D7F86C31 		ldr	r3, [r7, #364]
 3093 1344 9B00     		lsls	r3, r3, #2
 3094 1346 D7F81C01 		ldr	r0, [r7, #284]
 3095 134a 0344     		add	r3, r3, r0
 3096 134c 1B68     		ldr	r3, [r3]
 3097 134e 0B44     		add	r3, r3, r1
 3098 1350 03F50053 		add	r3, r3, #8192
 3099 1354 9B13     		asrs	r3, r3, #14
 3100 1356 B3F5004F 		cmp	r3, #32768
 3101 135a 2CDA     		bge	.L111
 3102              		.loc 3 597 0 is_stmt 0 discriminator 1
 3103 135c D7F86C31 		ldr	r3, [r7, #364]
 3104 1360 9B00     		lsls	r3, r3, #2
 3105 1362 D7F81811 		ldr	r1, [r7, #280]
 3106 1366 0B44     		add	r3, r3, r1
 3107 1368 1B68     		ldr	r3, [r3]
 3108 136a 5900     		lsls	r1, r3, #1
 3109 136c D7F86C31 		ldr	r3, [r7, #364]
 3110 1370 9B00     		lsls	r3, r3, #2
 3111 1372 D7F81C01 		ldr	r0, [r7, #284]
 3112 1376 0344     		add	r3, r3, r0
 3113 1378 1B68     		ldr	r3, [r3]
 3114 137a 0B44     		add	r3, r3, r1
 3115 137c 03F50053 		add	r3, r3, #8192
 3116 1380 9B13     		asrs	r3, r3, #14
 3117 1382 13F5004F 		cmn	r3, #32768
 3118 1386 14DD     		ble	.L112
 3119              		.loc 3 597 0 discriminator 3
 3120 1388 D7F86C31 		ldr	r3, [r7, #364]
 3121 138c 9B00     		lsls	r3, r3, #2
 3122 138e D7F81811 		ldr	r1, [r7, #280]
 3123 1392 0B44     		add	r3, r3, r1
 3124 1394 1B68     		ldr	r3, [r3]
 3125 1396 5900     		lsls	r1, r3, #1
 3126 1398 D7F86C31 		ldr	r3, [r7, #364]
 3127 139c 9B00     		lsls	r3, r3, #2
 3128 139e D7F81C01 		ldr	r0, [r7, #284]
 3129 13a2 0344     		add	r3, r3, r0
 3130 13a4 1B68     		ldr	r3, [r3]
 3131 13a6 0B44     		add	r3, r3, r1
 3132 13a8 03F50053 		add	r3, r3, #8192
 3133 13ac 9B13     		asrs	r3, r3, #14
 3134 13ae 1BB2     		sxth	r3, r3
 3135 13b0 03E0     		b	.L114
 3136              	.L112:
 3137              		.loc 3 597 0 discriminator 4
 3138 13b2 6E4B     		ldr	r3, .L129
 3139 13b4 01E0     		b	.L114
 3140              	.L111:
ARM GAS  /var/folders/kh/x4vltyy52lbg7p4pcyglc5080000gp/T//ccuucmVt.s 			page 72


 3141              		.loc 3 597 0 discriminator 2
 3142 13b6 47F6FF73 		movw	r3, #32767
 3143              	.L114:
 3144              		.loc 3 597 0 discriminator 8
 3145 13ba 1380     		strh	r3, [r2]	@ movhi
 596:STM32F10x_Speex_Lib/STM32/libspeex/nb_celp.c ****             exc[i] = EXTRACT16(SATURATE32(PSHR32(ADD32(SHL32(exc32[i],1),innov[i]),SIG_SHIFT),32767
 3146              		.loc 3 596 0 is_stmt 1 discriminator 8
 3147 13bc D7F86C31 		ldr	r3, [r7, #364]
 3148 13c0 0133     		adds	r3, r3, #1
 3149 13c2 C7F86C31 		str	r3, [r7, #364]
 3150              	.L110:
 596:STM32F10x_Speex_Lib/STM32/libspeex/nb_celp.c ****             exc[i] = EXTRACT16(SATURATE32(PSHR32(ADD32(SHL32(exc32[i],1),innov[i]),SIG_SHIFT),32767
 3151              		.loc 3 596 0 is_stmt 0 discriminator 2
 3152 13c6 D7F86C31 		ldr	r3, [r7, #364]
 3153 13ca 272B     		cmp	r3, #39
 3154 13cc AADD     		ble	.L115
 598:STM32F10x_Speex_Lib/STM32/libspeex/nb_celp.c **** 
 599:STM32F10x_Speex_Lib/STM32/libspeex/nb_celp.c ****          if (st->innov_rms_save)
 3155              		.loc 3 599 0 is_stmt 1
 3156 13ce D7F84031 		ldr	r3, [r7, #320]
 3157 13d2 D3F88830 		ldr	r3, [r3, #136]
 3158 13d6 002B     		cmp	r3, #0
 3159 13d8 11D0     		beq	.L116
 600:STM32F10x_Speex_Lib/STM32/libspeex/nb_celp.c ****          {
 601:STM32F10x_Speex_Lib/STM32/libspeex/nb_celp.c ****             st->innov_rms_save[sub] = compute_rms(innov, st->subframeSize);
 3160              		.loc 3 601 0
 3161 13da D7F84031 		ldr	r3, [r7, #320]
 3162 13de D3F88820 		ldr	r2, [r3, #136]
 3163 13e2 D7F86831 		ldr	r3, [r7, #360]
 3164 13e6 5B00     		lsls	r3, r3, #1
 3165 13e8 D418     		adds	r4, r2, r3
 3166 13ea D7F84031 		ldr	r3, [r7, #320]
 3167 13ee DB68     		ldr	r3, [r3, #12]
 3168 13f0 1946     		mov	r1, r3
 3169 13f2 D7F81C01 		ldr	r0, [r7, #284]
 3170 13f6 FFF7FEFF 		bl	compute_rms
 3171 13fa 0346     		mov	r3, r0
 3172 13fc 2380     		strh	r3, [r4]	@ movhi
 3173              	.L116:
 602:STM32F10x_Speex_Lib/STM32/libspeex/nb_celp.c ****          }
 603:STM32F10x_Speex_Lib/STM32/libspeex/nb_celp.c ****       }
 604:STM32F10x_Speex_Lib/STM32/libspeex/nb_celp.c **** 
 605:STM32F10x_Speex_Lib/STM32/libspeex/nb_celp.c ****       /* Final signal synthesis from excitation */
 606:STM32F10x_Speex_Lib/STM32/libspeex/nb_celp.c ****       iir_mem16(exc, interp_qlpc, sw, st->subframeSize, st->lpcSize, st->mem_sp, stack);
 3174              		.loc 3 606 0
 3175 13fe D7F84031 		ldr	r3, [r7, #320]
 3176 1402 DC68     		ldr	r4, [r3, #12]
 3177 1404 D7F84031 		ldr	r3, [r7, #320]
 3178 1408 9B69     		ldr	r3, [r3, #24]
 3179 140a D7F84021 		ldr	r2, [r7, #320]
 3180 140e 926E     		ldr	r2, [r2, #104]
 3181 1410 07F13800 		add	r0, r7, #56
 3182 1414 D7F83C11 		ldr	r1, [r7, #316]
 3183 1418 0291     		str	r1, [sp, #8]
 3184 141a 0192     		str	r2, [sp, #4]
 3185 141c 0093     		str	r3, [sp]
 3186 141e 2346     		mov	r3, r4
ARM GAS  /var/folders/kh/x4vltyy52lbg7p4pcyglc5080000gp/T//ccuucmVt.s 			page 73


 3187 1420 D7F8FC20 		ldr	r2, [r7, #252]
 3188 1424 0146     		mov	r1, r0
 3189 1426 D7F80001 		ldr	r0, [r7, #256]
 3190 142a FFF7FEFF 		bl	iir_mem16
 607:STM32F10x_Speex_Lib/STM32/libspeex/nb_celp.c **** 
 608:STM32F10x_Speex_Lib/STM32/libspeex/nb_celp.c ****       /* Compute weighted signal again, from synthesized speech (not sure it's the right thing) */
 609:STM32F10x_Speex_Lib/STM32/libspeex/nb_celp.c ****       if (st->complexity!=0)
 3191              		.loc 3 609 0
 3192 142e D7F84031 		ldr	r3, [r7, #320]
 3193 1432 D3F88C30 		ldr	r3, [r3, #140]
 3194 1436 002B     		cmp	r3, #0
 3195 1438 1AD0     		beq	.L117
 610:STM32F10x_Speex_Lib/STM32/libspeex/nb_celp.c ****          filter_mem16(sw, bw_lpc1, bw_lpc2, sw, st->subframeSize, st->lpcSize, st->mem_sw, stack);
 3196              		.loc 3 610 0
 3197 143a D7F84031 		ldr	r3, [r7, #320]
 3198 143e DB68     		ldr	r3, [r3, #12]
 3199 1440 D7F84021 		ldr	r2, [r7, #320]
 3200 1444 9269     		ldr	r2, [r2, #24]
 3201 1446 D7F84011 		ldr	r1, [r7, #320]
 3202 144a C96E     		ldr	r1, [r1, #108]
 3203 144c 07F1B005 		add	r5, r7, #176
 3204 1450 07F1C404 		add	r4, r7, #196
 3205 1454 D7F83C01 		ldr	r0, [r7, #316]
 3206 1458 0390     		str	r0, [sp, #12]
 3207 145a 0291     		str	r1, [sp, #8]
 3208 145c 0192     		str	r2, [sp, #4]
 3209 145e 0093     		str	r3, [sp]
 3210 1460 D7F8FC30 		ldr	r3, [r7, #252]
 3211 1464 2A46     		mov	r2, r5
 3212 1466 2146     		mov	r1, r4
 3213 1468 D7F8FC00 		ldr	r0, [r7, #252]
 3214 146c FFF7FEFF 		bl	filter_mem16
 3215              	.L117:
 3216              	.LBE7:
 447:STM32F10x_Speex_Lib/STM32/libspeex/nb_celp.c ****    {
 3217              		.loc 3 447 0 discriminator 2
 3218 1470 D7F86831 		ldr	r3, [r7, #360]
 3219 1474 0133     		adds	r3, r3, #1
 3220 1476 C7F86831 		str	r3, [r7, #360]
 3221              	.L72:
 447:STM32F10x_Speex_Lib/STM32/libspeex/nb_celp.c ****    {
 3222              		.loc 3 447 0 is_stmt 0 discriminator 1
 3223 147a D7F84031 		ldr	r3, [r7, #320]
 3224 147e 1A69     		ldr	r2, [r3, #16]
 3225 1480 D7F86831 		ldr	r3, [r7, #360]
 3226 1484 9A42     		cmp	r2, r3
 3227 1486 3FF70DAB 		bgt	.L118
 611:STM32F10x_Speex_Lib/STM32/libspeex/nb_celp.c ****       
 612:STM32F10x_Speex_Lib/STM32/libspeex/nb_celp.c ****    }
 613:STM32F10x_Speex_Lib/STM32/libspeex/nb_celp.c **** 
 614:STM32F10x_Speex_Lib/STM32/libspeex/nb_celp.c ****    /* Store the LSPs for interpolation in the next frame */
 615:STM32F10x_Speex_Lib/STM32/libspeex/nb_celp.c ****    for (i=0;i<10;i++)
 3228              		.loc 3 615 0 is_stmt 1
 3229 148a 0023     		movs	r3, #0
 3230 148c C7F86C31 		str	r3, [r7, #364]
 3231 1490 24E0     		b	.L119
 3232              	.L120:
ARM GAS  /var/folders/kh/x4vltyy52lbg7p4pcyglc5080000gp/T//ccuucmVt.s 			page 74


 616:STM32F10x_Speex_Lib/STM32/libspeex/nb_celp.c ****    {
 617:STM32F10x_Speex_Lib/STM32/libspeex/nb_celp.c **** 	   st->old_lsp[i] = lsp[i];
 3233              		.loc 3 617 0 discriminator 3
 3234 1492 D7F84031 		ldr	r3, [r7, #320]
 3235 1496 1A6E     		ldr	r2, [r3, #96]
 3236 1498 D7F86C31 		ldr	r3, [r7, #364]
 3237 149c 5B00     		lsls	r3, r3, #1
 3238 149e 1A44     		add	r2, r2, r3
 3239 14a0 D7F86C31 		ldr	r3, [r7, #364]
 3240 14a4 5B00     		lsls	r3, r3, #1
 3241 14a6 07F5B871 		add	r1, r7, #368
 3242 14aa 0B44     		add	r3, r3, r1
 3243 14ac 33F9D43C 		ldrsh	r3, [r3, #-212]
 3244 14b0 1380     		strh	r3, [r2]	@ movhi
 618:STM32F10x_Speex_Lib/STM32/libspeex/nb_celp.c ****        st->old_qlsp[i] = qlsp[i];
 3245              		.loc 3 618 0 discriminator 3
 3246 14b2 D7F84031 		ldr	r3, [r7, #320]
 3247 14b6 5A6E     		ldr	r2, [r3, #100]
 3248 14b8 D7F86C31 		ldr	r3, [r7, #364]
 3249 14bc 5B00     		lsls	r3, r3, #1
 3250 14be 1A44     		add	r2, r2, r3
 3251 14c0 D7F86C31 		ldr	r3, [r7, #364]
 3252 14c4 5B00     		lsls	r3, r3, #1
 3253 14c6 07F5B871 		add	r1, r7, #368
 3254 14ca 0B44     		add	r3, r3, r1
 3255 14cc 33F9E83C 		ldrsh	r3, [r3, #-232]
 3256 14d0 1380     		strh	r3, [r2]	@ movhi
 615:STM32F10x_Speex_Lib/STM32/libspeex/nb_celp.c ****    {
 3257              		.loc 3 615 0 discriminator 3
 3258 14d2 D7F86C31 		ldr	r3, [r7, #364]
 3259 14d6 0133     		adds	r3, r3, #1
 3260 14d8 C7F86C31 		str	r3, [r7, #364]
 3261              	.L119:
 615:STM32F10x_Speex_Lib/STM32/libspeex/nb_celp.c ****    {
 3262              		.loc 3 615 0 is_stmt 0 discriminator 1
 3263 14dc D7F86C31 		ldr	r3, [r7, #364]
 3264 14e0 092B     		cmp	r3, #9
 3265 14e2 D6DD     		ble	.L120
 619:STM32F10x_Speex_Lib/STM32/libspeex/nb_celp.c ****    }
 620:STM32F10x_Speex_Lib/STM32/libspeex/nb_celp.c **** 
 621:STM32F10x_Speex_Lib/STM32/libspeex/nb_celp.c ****    /* The next frame will not be the first (Duh!) */
 622:STM32F10x_Speex_Lib/STM32/libspeex/nb_celp.c ****    st->first = 0;
 3266              		.loc 3 622 0 is_stmt 1
 3267 14e4 D7F84031 		ldr	r3, [r7, #320]
 3268 14e8 0022     		movs	r2, #0
 3269 14ea 5A60     		str	r2, [r3, #4]
 623:STM32F10x_Speex_Lib/STM32/libspeex/nb_celp.c ****    SPEEX_COPY(st->winBuf, in+2*st->frameSize-st->windowSize, st->windowSize-st->frameSize);
 3270              		.loc 3 623 0
 3271 14ec D7F84031 		ldr	r3, [r7, #320]
 3272 14f0 586C     		ldr	r0, [r3, #68]
 3273 14f2 D7F84031 		ldr	r3, [r7, #320]
 3274 14f6 9B68     		ldr	r3, [r3, #8]
 3275 14f8 5B00     		lsls	r3, r3, #1
 3276 14fa 1A46     		mov	r2, r3
 3277 14fc D7F84031 		ldr	r3, [r7, #320]
 3278 1500 5B69     		ldr	r3, [r3, #20]
 3279 1502 D31A     		subs	r3, r2, r3
ARM GAS  /var/folders/kh/x4vltyy52lbg7p4pcyglc5080000gp/T//ccuucmVt.s 			page 75


 3280 1504 5B00     		lsls	r3, r3, #1
 3281 1506 D7F84421 		ldr	r2, [r7, #324]
 3282 150a D118     		adds	r1, r2, r3
 3283 150c D7F84031 		ldr	r3, [r7, #320]
 3284 1510 5A69     		ldr	r2, [r3, #20]
 3285 1512 D7F84031 		ldr	r3, [r7, #320]
 3286 1516 9B68     		ldr	r3, [r3, #8]
 3287 1518 D31A     		subs	r3, r2, r3
 3288 151a 5B00     		lsls	r3, r3, #1
 3289 151c 1A46     		mov	r2, r3
 3290 151e FFF7FEFF 		bl	memcpy
 624:STM32F10x_Speex_Lib/STM32/libspeex/nb_celp.c **** 
 625:STM32F10x_Speex_Lib/STM32/libspeex/nb_celp.c ****    if (SUBMODE(innovation_quant) == noise_codebook_quant || st->submodeID==0)
 3291              		.loc 3 625 0
 3292 1522 D7F84031 		ldr	r3, [r7, #320]
 3293 1526 D3F89C20 		ldr	r2, [r3, #156]
 3294 152a D7F84031 		ldr	r3, [r7, #320]
 3295 152e D3F8A030 		ldr	r3, [r3, #160]
 3296 1532 9B00     		lsls	r3, r3, #2
 3297 1534 1344     		add	r3, r3, r2
 3298 1536 1B68     		ldr	r3, [r3]
 3299 1538 5B6A     		ldr	r3, [r3, #36]
 3300 153a 0D4A     		ldr	r2, .L129+4
 3301 153c 9342     		cmp	r3, r2
 3302 153e 05D0     		beq	.L121
 3303              		.loc 3 625 0 is_stmt 0 discriminator 1
 3304 1540 D7F84031 		ldr	r3, [r7, #320]
 3305 1544 D3F8A030 		ldr	r3, [r3, #160]
 3306 1548 002B     		cmp	r3, #0
 3307 154a 04D1     		bne	.L122
 3308              	.L121:
 626:STM32F10x_Speex_Lib/STM32/libspeex/nb_celp.c ****       st->bounded_pitch = 1;
 3309              		.loc 3 626 0 is_stmt 1
 3310 154c D7F84031 		ldr	r3, [r7, #320]
 3311 1550 0122     		movs	r2, #1
 3312 1552 9A62     		str	r2, [r3, #40]
 3313 1554 03E0     		b	.L123
 3314              	.L122:
 627:STM32F10x_Speex_Lib/STM32/libspeex/nb_celp.c ****    else
 628:STM32F10x_Speex_Lib/STM32/libspeex/nb_celp.c ****       st->bounded_pitch = 0;
 3315              		.loc 3 628 0
 3316 1556 D7F84031 		ldr	r3, [r7, #320]
 3317 155a 0022     		movs	r2, #0
 3318 155c 9A62     		str	r2, [r3, #40]
 3319              	.L123:
 629:STM32F10x_Speex_Lib/STM32/libspeex/nb_celp.c **** 
 630:STM32F10x_Speex_Lib/STM32/libspeex/nb_celp.c ****    return 1;
 3320              		.loc 3 630 0
 3321 155e 0123     		movs	r3, #1
 631:STM32F10x_Speex_Lib/STM32/libspeex/nb_celp.c **** }
 3322              		.loc 3 631 0
 3323 1560 1846     		mov	r0, r3
 3324 1562 07F5BA77 		add	r7, r7, #372
 3325              	.LCFI62:
 3326              		.cfi_def_cfa_offset 20
 3327 1566 BD46     		mov	sp, r7
 3328              	.LCFI63:
ARM GAS  /var/folders/kh/x4vltyy52lbg7p4pcyglc5080000gp/T//ccuucmVt.s 			page 76


 3329              		.cfi_def_cfa_register 13
 3330              		@ sp needed
 3331 1568 F0BD     		pop	{r4, r5, r6, r7, pc}
 3332              	.L130:
 3333 156a 00BF     		.align	2
 3334              	.L129:
 3335 156c 0180FFFF 		.word	-32767
 3336 1570 00000000 		.word	noise_codebook_quant
 3337              		.cfi_endproc
 3338              	.LFE23:
 3340              		.section	.text.nb_decoder_init,"ax",%progbits
 3341              		.align	2
 3342              		.global	nb_decoder_init
 3343              		.thumb
 3344              		.thumb_func
 3346              	nb_decoder_init:
 3347              	.LFB24:
 632:STM32F10x_Speex_Lib/STM32/libspeex/nb_celp.c **** 
 633:STM32F10x_Speex_Lib/STM32/libspeex/nb_celp.c **** void *nb_decoder_init(const SpeexMode *m)
 634:STM32F10x_Speex_Lib/STM32/libspeex/nb_celp.c **** {
 3348              		.loc 3 634 0
 3349              		.cfi_startproc
 3350              		@ args = 0, pretend = 0, frame = 24
 3351              		@ frame_needed = 1, uses_anonymous_args = 0
 3352 0000 80B5     		push	{r7, lr}
 3353              	.LCFI64:
 3354              		.cfi_def_cfa_offset 8
 3355              		.cfi_offset 7, -8
 3356              		.cfi_offset 14, -4
 3357 0002 86B0     		sub	sp, sp, #24
 3358              	.LCFI65:
 3359              		.cfi_def_cfa_offset 32
 3360 0004 00AF     		add	r7, sp, #0
 3361              	.LCFI66:
 3362              		.cfi_def_cfa_register 7
 3363 0006 7860     		str	r0, [r7, #4]
 635:STM32F10x_Speex_Lib/STM32/libspeex/nb_celp.c ****    DecState *st;
 636:STM32F10x_Speex_Lib/STM32/libspeex/nb_celp.c ****    const SpeexNBMode *mode;
 637:STM32F10x_Speex_Lib/STM32/libspeex/nb_celp.c ****    int i;
 638:STM32F10x_Speex_Lib/STM32/libspeex/nb_celp.c **** 
 639:STM32F10x_Speex_Lib/STM32/libspeex/nb_celp.c ****    mode=(const SpeexNBMode*)m->mode;
 3364              		.loc 3 639 0
 3365 0008 7B68     		ldr	r3, [r7, #4]
 3366 000a 1B68     		ldr	r3, [r3]
 3367 000c 3B61     		str	r3, [r7, #16]
 640:STM32F10x_Speex_Lib/STM32/libspeex/nb_celp.c ****    st = (DecState *)speex_alloc(sizeof(DecState));
 3368              		.loc 3 640 0
 3369 000e 4FF4F870 		mov	r0, #496
 3370 0012 FFF7FEFF 		bl	speex_alloc
 3371 0016 F860     		str	r0, [r7, #12]
 641:STM32F10x_Speex_Lib/STM32/libspeex/nb_celp.c ****    if (!st)
 3372              		.loc 3 641 0
 3373 0018 FB68     		ldr	r3, [r7, #12]
 3374 001a 002B     		cmp	r3, #0
 3375 001c 01D1     		bne	.L132
 642:STM32F10x_Speex_Lib/STM32/libspeex/nb_celp.c ****       return NULL;
 3376              		.loc 3 642 0
ARM GAS  /var/folders/kh/x4vltyy52lbg7p4pcyglc5080000gp/T//ccuucmVt.s 			page 77


 3377 001e 0023     		movs	r3, #0
 3378 0020 E5E0     		b	.L133
 3379              	.L132:
 643:STM32F10x_Speex_Lib/STM32/libspeex/nb_celp.c **** #if defined(VAR_ARRAYS) || defined (USE_ALLOCA)
 644:STM32F10x_Speex_Lib/STM32/libspeex/nb_celp.c ****    st->stack = NULL;
 645:STM32F10x_Speex_Lib/STM32/libspeex/nb_celp.c **** #else
 646:STM32F10x_Speex_Lib/STM32/libspeex/nb_celp.c ****    st->stack = (char*)speex_alloc_scratch(NB_DEC_STACK);
 3380              		.loc 3 646 0
 3381 0022 4FF47A70 		mov	r0, #1000
 3382 0026 FFF7FEFF 		bl	speex_alloc_scratch
 3383 002a 0246     		mov	r2, r0
 3384 002c FB68     		ldr	r3, [r7, #12]
 3385 002e DA62     		str	r2, [r3, #44]
 647:STM32F10x_Speex_Lib/STM32/libspeex/nb_celp.c **** #endif
 648:STM32F10x_Speex_Lib/STM32/libspeex/nb_celp.c **** 
 649:STM32F10x_Speex_Lib/STM32/libspeex/nb_celp.c ****    st->mode=m;
 3386              		.loc 3 649 0
 3387 0030 FB68     		ldr	r3, [r7, #12]
 3388 0032 7A68     		ldr	r2, [r7, #4]
 3389 0034 1A60     		str	r2, [r3]
 650:STM32F10x_Speex_Lib/STM32/libspeex/nb_celp.c **** 
 651:STM32F10x_Speex_Lib/STM32/libspeex/nb_celp.c **** 
 652:STM32F10x_Speex_Lib/STM32/libspeex/nb_celp.c ****    st->encode_submode = 1;
 3390              		.loc 3 652 0
 3391 0036 FB68     		ldr	r3, [r7, #12]
 3392 0038 0122     		movs	r2, #1
 3393 003a 1A67     		str	r2, [r3, #112]
 653:STM32F10x_Speex_Lib/STM32/libspeex/nb_celp.c **** 
 654:STM32F10x_Speex_Lib/STM32/libspeex/nb_celp.c ****    st->first=1;
 3394              		.loc 3 654 0
 3395 003c FB68     		ldr	r3, [r7, #12]
 3396 003e 0122     		movs	r2, #1
 3397 0040 5A60     		str	r2, [r3, #4]
 655:STM32F10x_Speex_Lib/STM32/libspeex/nb_celp.c ****    /* Codec parameters, should eventually have several "modes"*/
 656:STM32F10x_Speex_Lib/STM32/libspeex/nb_celp.c ****    st->frameSize = mode->frameSize;
 3398              		.loc 3 656 0
 3399 0042 3B69     		ldr	r3, [r7, #16]
 3400 0044 1A68     		ldr	r2, [r3]
 3401 0046 FB68     		ldr	r3, [r7, #12]
 3402 0048 DA60     		str	r2, [r3, #12]
 657:STM32F10x_Speex_Lib/STM32/libspeex/nb_celp.c ****    st->nbSubframes=mode->frameSize/mode->subframeSize;
 3403              		.loc 3 657 0
 3404 004a 3B69     		ldr	r3, [r7, #16]
 3405 004c 1A68     		ldr	r2, [r3]
 3406 004e 3B69     		ldr	r3, [r7, #16]
 3407 0050 5B68     		ldr	r3, [r3, #4]
 3408 0052 92FBF3F2 		sdiv	r2, r2, r3
 3409 0056 FB68     		ldr	r3, [r7, #12]
 3410 0058 5A61     		str	r2, [r3, #20]
 658:STM32F10x_Speex_Lib/STM32/libspeex/nb_celp.c ****    st->subframeSize=mode->subframeSize;
 3411              		.loc 3 658 0
 3412 005a 3B69     		ldr	r3, [r7, #16]
 3413 005c 5A68     		ldr	r2, [r3, #4]
 3414 005e FB68     		ldr	r3, [r7, #12]
 3415 0060 1A61     		str	r2, [r3, #16]
 659:STM32F10x_Speex_Lib/STM32/libspeex/nb_celp.c ****    st->lpcSize = mode->lpcSize;
 3416              		.loc 3 659 0
ARM GAS  /var/folders/kh/x4vltyy52lbg7p4pcyglc5080000gp/T//ccuucmVt.s 			page 78


 3417 0062 3B69     		ldr	r3, [r7, #16]
 3418 0064 9A68     		ldr	r2, [r3, #8]
 3419 0066 FB68     		ldr	r3, [r7, #12]
 3420 0068 9A61     		str	r2, [r3, #24]
 660:STM32F10x_Speex_Lib/STM32/libspeex/nb_celp.c ****    st->min_pitch=mode->pitchStart;
 3421              		.loc 3 660 0
 3422 006a 3B69     		ldr	r3, [r7, #16]
 3423 006c DA68     		ldr	r2, [r3, #12]
 3424 006e FB68     		ldr	r3, [r7, #12]
 3425 0070 DA61     		str	r2, [r3, #28]
 661:STM32F10x_Speex_Lib/STM32/libspeex/nb_celp.c ****    st->max_pitch=mode->pitchEnd;
 3426              		.loc 3 661 0
 3427 0072 3B69     		ldr	r3, [r7, #16]
 3428 0074 1A69     		ldr	r2, [r3, #16]
 3429 0076 FB68     		ldr	r3, [r7, #12]
 3430 0078 1A62     		str	r2, [r3, #32]
 662:STM32F10x_Speex_Lib/STM32/libspeex/nb_celp.c **** 
 663:STM32F10x_Speex_Lib/STM32/libspeex/nb_celp.c ****    st->submodes=mode->submodes;
 3431              		.loc 3 663 0
 3432 007a 3B69     		ldr	r3, [r7, #16]
 3433 007c 03F11C02 		add	r2, r3, #28
 3434 0080 FB68     		ldr	r3, [r7, #12]
 3435 0082 5A67     		str	r2, [r3, #116]
 664:STM32F10x_Speex_Lib/STM32/libspeex/nb_celp.c ****    st->submodeID=mode->defaultSubmode;
 3436              		.loc 3 664 0
 3437 0084 3B69     		ldr	r3, [r7, #16]
 3438 0086 DA6D     		ldr	r2, [r3, #92]
 3439 0088 FB68     		ldr	r3, [r7, #12]
 3440 008a 9A67     		str	r2, [r3, #120]
 665:STM32F10x_Speex_Lib/STM32/libspeex/nb_celp.c **** 
 666:STM32F10x_Speex_Lib/STM32/libspeex/nb_celp.c ****    st->lpc_enh_enabled=1;
 3441              		.loc 3 666 0
 3442 008c FB68     		ldr	r3, [r7, #12]
 3443 008e 0122     		movs	r2, #1
 3444 0090 DA67     		str	r2, [r3, #124]
 667:STM32F10x_Speex_Lib/STM32/libspeex/nb_celp.c **** 
 668:STM32F10x_Speex_Lib/STM32/libspeex/nb_celp.c ****    st->excBuf = (spx_word16_t*)speex_alloc((st->frameSize + 2*st->max_pitch + st->subframeSize + 12
 3445              		.loc 3 668 0
 3446 0092 FB68     		ldr	r3, [r7, #12]
 3447 0094 DA68     		ldr	r2, [r3, #12]
 3448 0096 FB68     		ldr	r3, [r7, #12]
 3449 0098 1B6A     		ldr	r3, [r3, #32]
 3450 009a 5B00     		lsls	r3, r3, #1
 3451 009c 1A44     		add	r2, r2, r3
 3452 009e FB68     		ldr	r3, [r7, #12]
 3453 00a0 1B69     		ldr	r3, [r3, #16]
 3454 00a2 1344     		add	r3, r3, r2
 3455 00a4 0C33     		adds	r3, r3, #12
 3456 00a6 5B00     		lsls	r3, r3, #1
 3457 00a8 1846     		mov	r0, r3
 3458 00aa FFF7FEFF 		bl	speex_alloc
 3459 00ae 0246     		mov	r2, r0
 3460 00b0 FB68     		ldr	r3, [r7, #12]
 3461 00b2 1A63     		str	r2, [r3, #48]
 669:STM32F10x_Speex_Lib/STM32/libspeex/nb_celp.c ****    st->exc = st->excBuf + 2*st->max_pitch + st->subframeSize + 6;
 3462              		.loc 3 669 0
 3463 00b4 FB68     		ldr	r3, [r7, #12]
ARM GAS  /var/folders/kh/x4vltyy52lbg7p4pcyglc5080000gp/T//ccuucmVt.s 			page 79


 3464 00b6 1A6B     		ldr	r2, [r3, #48]
 3465 00b8 FB68     		ldr	r3, [r7, #12]
 3466 00ba 1B6A     		ldr	r3, [r3, #32]
 3467 00bc 5B00     		lsls	r3, r3, #1
 3468 00be 1946     		mov	r1, r3
 3469 00c0 FB68     		ldr	r3, [r7, #12]
 3470 00c2 1B69     		ldr	r3, [r3, #16]
 3471 00c4 0B44     		add	r3, r3, r1
 3472 00c6 0633     		adds	r3, r3, #6
 3473 00c8 5B00     		lsls	r3, r3, #1
 3474 00ca 1A44     		add	r2, r2, r3
 3475 00cc FB68     		ldr	r3, [r7, #12]
 3476 00ce 5A63     		str	r2, [r3, #52]
 670:STM32F10x_Speex_Lib/STM32/libspeex/nb_celp.c ****    SPEEX_MEMSET(st->excBuf, 0, st->frameSize + st->max_pitch);
 3477              		.loc 3 670 0
 3478 00d0 FB68     		ldr	r3, [r7, #12]
 3479 00d2 186B     		ldr	r0, [r3, #48]
 3480 00d4 FB68     		ldr	r3, [r7, #12]
 3481 00d6 DA68     		ldr	r2, [r3, #12]
 3482 00d8 FB68     		ldr	r3, [r7, #12]
 3483 00da 1B6A     		ldr	r3, [r3, #32]
 3484 00dc 1344     		add	r3, r3, r2
 3485 00de 5B00     		lsls	r3, r3, #1
 3486 00e0 1A46     		mov	r2, r3
 3487 00e2 0021     		movs	r1, #0
 3488 00e4 FFF7FEFF 		bl	memset
 671:STM32F10x_Speex_Lib/STM32/libspeex/nb_celp.c **** 
 672:STM32F10x_Speex_Lib/STM32/libspeex/nb_celp.c ****    st->interp_qlpc = (spx_coef_t*)speex_alloc(st->lpcSize*sizeof(spx_coef_t));
 3489              		.loc 3 672 0
 3490 00e8 FB68     		ldr	r3, [r7, #12]
 3491 00ea 9B69     		ldr	r3, [r3, #24]
 3492 00ec 5B00     		lsls	r3, r3, #1
 3493 00ee 1846     		mov	r0, r3
 3494 00f0 FFF7FEFF 		bl	speex_alloc
 3495 00f4 0246     		mov	r2, r0
 3496 00f6 FB68     		ldr	r3, [r7, #12]
 3497 00f8 DA63     		str	r2, [r3, #60]
 673:STM32F10x_Speex_Lib/STM32/libspeex/nb_celp.c ****    st->old_qlsp = (spx_lsp_t*)speex_alloc(st->lpcSize*sizeof(spx_lsp_t));
 3498              		.loc 3 673 0
 3499 00fa FB68     		ldr	r3, [r7, #12]
 3500 00fc 9B69     		ldr	r3, [r3, #24]
 3501 00fe 5B00     		lsls	r3, r3, #1
 3502 0100 1846     		mov	r0, r3
 3503 0102 FFF7FEFF 		bl	speex_alloc
 3504 0106 0246     		mov	r2, r0
 3505 0108 FB68     		ldr	r3, [r7, #12]
 3506 010a 9A63     		str	r2, [r3, #56]
 674:STM32F10x_Speex_Lib/STM32/libspeex/nb_celp.c ****    st->mem_sp = (spx_mem_t*)speex_alloc(st->lpcSize*sizeof(spx_mem_t));
 3507              		.loc 3 674 0
 3508 010c FB68     		ldr	r3, [r7, #12]
 3509 010e 9B69     		ldr	r3, [r3, #24]
 3510 0110 9B00     		lsls	r3, r3, #2
 3511 0112 1846     		mov	r0, r3
 3512 0114 FFF7FEFF 		bl	speex_alloc
 3513 0118 0246     		mov	r2, r0
 3514 011a FB68     		ldr	r3, [r7, #12]
 3515 011c 1A64     		str	r2, [r3, #64]
ARM GAS  /var/folders/kh/x4vltyy52lbg7p4pcyglc5080000gp/T//ccuucmVt.s 			page 80


 675:STM32F10x_Speex_Lib/STM32/libspeex/nb_celp.c ****    st->pi_gain = (spx_word32_t*)speex_alloc((st->nbSubframes)*sizeof(spx_word32_t));
 3516              		.loc 3 675 0
 3517 011e FB68     		ldr	r3, [r7, #12]
 3518 0120 5B69     		ldr	r3, [r3, #20]
 3519 0122 9B00     		lsls	r3, r3, #2
 3520 0124 1846     		mov	r0, r3
 3521 0126 FFF7FEFF 		bl	speex_alloc
 3522 012a 0246     		mov	r2, r0
 3523 012c FB68     		ldr	r3, [r7, #12]
 3524 012e DA64     		str	r2, [r3, #76]
 676:STM32F10x_Speex_Lib/STM32/libspeex/nb_celp.c ****    st->last_pitch = 40;
 3525              		.loc 3 676 0
 3526 0130 FB68     		ldr	r3, [r7, #12]
 3527 0132 2822     		movs	r2, #40
 3528 0134 DA65     		str	r2, [r3, #92]
 677:STM32F10x_Speex_Lib/STM32/libspeex/nb_celp.c ****    st->count_lost=0;
 3529              		.loc 3 677 0
 3530 0136 FB68     		ldr	r3, [r7, #12]
 3531 0138 0022     		movs	r2, #0
 3532 013a 9A60     		str	r2, [r3, #8]
 678:STM32F10x_Speex_Lib/STM32/libspeex/nb_celp.c ****    st->pitch_gain_buf[0] = st->pitch_gain_buf[1] = st->pitch_gain_buf[2] = 0;
 3533              		.loc 3 678 0
 3534 013c FB68     		ldr	r3, [r7, #12]
 3535 013e 0022     		movs	r2, #0
 3536 0140 A3F86620 		strh	r2, [r3, #102]	@ movhi
 3537 0144 FB68     		ldr	r3, [r7, #12]
 3538 0146 B3F96620 		ldrsh	r2, [r3, #102]
 3539 014a FB68     		ldr	r3, [r7, #12]
 3540 014c A3F86420 		strh	r2, [r3, #100]	@ movhi
 3541 0150 FB68     		ldr	r3, [r7, #12]
 3542 0152 B3F96420 		ldrsh	r2, [r3, #100]
 3543 0156 FB68     		ldr	r3, [r7, #12]
 3544 0158 A3F86220 		strh	r2, [r3, #98]	@ movhi
 679:STM32F10x_Speex_Lib/STM32/libspeex/nb_celp.c ****    st->pitch_gain_buf_idx = 0;
 3545              		.loc 3 679 0
 3546 015c FB68     		ldr	r3, [r7, #12]
 3547 015e 0022     		movs	r2, #0
 3548 0160 9A66     		str	r2, [r3, #104]
 680:STM32F10x_Speex_Lib/STM32/libspeex/nb_celp.c ****    st->seed = 1000;
 3549              		.loc 3 680 0
 3550 0162 FB68     		ldr	r3, [r7, #12]
 3551 0164 4FF47A72 		mov	r2, #1000
 3552 0168 DA66     		str	r2, [r3, #108]
 681:STM32F10x_Speex_Lib/STM32/libspeex/nb_celp.c ****    
 682:STM32F10x_Speex_Lib/STM32/libspeex/nb_celp.c ****    st->sampling_rate=8000;
 3553              		.loc 3 682 0
 3554 016a FB68     		ldr	r3, [r7, #12]
 3555 016c 4FF4FA52 		mov	r2, #8000
 3556 0170 5A62     		str	r2, [r3, #36]
 683:STM32F10x_Speex_Lib/STM32/libspeex/nb_celp.c ****    st->last_ol_gain = 0;
 3557              		.loc 3 683 0
 3558 0172 FB68     		ldr	r3, [r7, #12]
 3559 0174 0022     		movs	r2, #0
 3560 0176 1A85     		strh	r2, [r3, #40]	@ movhi
 684:STM32F10x_Speex_Lib/STM32/libspeex/nb_celp.c **** 
 685:STM32F10x_Speex_Lib/STM32/libspeex/nb_celp.c ****    st->user_callback.func = &speex_default_user_handler;
 3561              		.loc 3 685 0
ARM GAS  /var/folders/kh/x4vltyy52lbg7p4pcyglc5080000gp/T//ccuucmVt.s 			page 81


 3562 0178 FB68     		ldr	r3, [r7, #12]
 3563 017a 1F4A     		ldr	r2, .L136
 3564 017c C3F8C421 		str	r2, [r3, #452]
 686:STM32F10x_Speex_Lib/STM32/libspeex/nb_celp.c ****    st->user_callback.data = NULL;
 3565              		.loc 3 686 0
 3566 0180 FB68     		ldr	r3, [r7, #12]
 3567 0182 0022     		movs	r2, #0
 3568 0184 C3F8C821 		str	r2, [r3, #456]
 687:STM32F10x_Speex_Lib/STM32/libspeex/nb_celp.c ****    for (i=0;i<16;i++)
 3569              		.loc 3 687 0
 3570 0188 0023     		movs	r3, #0
 3571 018a 7B61     		str	r3, [r7, #20]
 3572 018c 0CE0     		b	.L134
 3573              	.L135:
 688:STM32F10x_Speex_Lib/STM32/libspeex/nb_celp.c ****       st->speex_callbacks[i].func = NULL;
 3574              		.loc 3 688 0 discriminator 3
 3575 018e F968     		ldr	r1, [r7, #12]
 3576 0190 7A69     		ldr	r2, [r7, #20]
 3577 0192 1346     		mov	r3, r2
 3578 0194 9B00     		lsls	r3, r3, #2
 3579 0196 1344     		add	r3, r3, r2
 3580 0198 9B00     		lsls	r3, r3, #2
 3581 019a 0B44     		add	r3, r3, r1
 3582 019c 8433     		adds	r3, r3, #132
 3583 019e 0022     		movs	r2, #0
 3584 01a0 1A60     		str	r2, [r3]
 687:STM32F10x_Speex_Lib/STM32/libspeex/nb_celp.c ****    for (i=0;i<16;i++)
 3585              		.loc 3 687 0 discriminator 3
 3586 01a2 7B69     		ldr	r3, [r7, #20]
 3587 01a4 0133     		adds	r3, r3, #1
 3588 01a6 7B61     		str	r3, [r7, #20]
 3589              	.L134:
 687:STM32F10x_Speex_Lib/STM32/libspeex/nb_celp.c ****    for (i=0;i<16;i++)
 3590              		.loc 3 687 0 is_stmt 0 discriminator 1
 3591 01a8 7B69     		ldr	r3, [r7, #20]
 3592 01aa 0F2B     		cmp	r3, #15
 3593 01ac EFDD     		ble	.L135
 689:STM32F10x_Speex_Lib/STM32/libspeex/nb_celp.c **** 
 690:STM32F10x_Speex_Lib/STM32/libspeex/nb_celp.c ****    st->voc_m1=st->voc_m2=st->voc_mean=0;
 3594              		.loc 3 690 0 is_stmt 1
 3595 01ae FB68     		ldr	r3, [r7, #12]
 3596 01b0 0022     		movs	r2, #0
 3597 01b2 A3F8DC21 		strh	r2, [r3, #476]	@ movhi
 3598 01b6 FB68     		ldr	r3, [r7, #12]
 3599 01b8 0022     		movs	r2, #0
 3600 01ba C3F8D821 		str	r2, [r3, #472]
 3601 01be FB68     		ldr	r3, [r7, #12]
 3602 01c0 D3F8D831 		ldr	r3, [r3, #472]
 3603 01c4 1AB2     		sxth	r2, r3
 3604 01c6 FB68     		ldr	r3, [r7, #12]
 3605 01c8 A3F8D421 		strh	r2, [r3, #468]	@ movhi
 691:STM32F10x_Speex_Lib/STM32/libspeex/nb_celp.c ****    st->voc_offset=0;
 3606              		.loc 3 691 0
 3607 01cc FB68     		ldr	r3, [r7, #12]
 3608 01ce 0022     		movs	r2, #0
 3609 01d0 C3F8E021 		str	r2, [r3, #480]
 692:STM32F10x_Speex_Lib/STM32/libspeex/nb_celp.c ****    st->dtx_enabled=0;
ARM GAS  /var/folders/kh/x4vltyy52lbg7p4pcyglc5080000gp/T//ccuucmVt.s 			page 82


 3610              		.loc 3 692 0
 3611 01d4 FB68     		ldr	r3, [r7, #12]
 3612 01d6 0022     		movs	r2, #0
 3613 01d8 C3F8E421 		str	r2, [r3, #484]
 693:STM32F10x_Speex_Lib/STM32/libspeex/nb_celp.c ****    st->isWideband = 0;
 3614              		.loc 3 693 0
 3615 01dc FB68     		ldr	r3, [r7, #12]
 3616 01de 0022     		movs	r2, #0
 3617 01e0 C3F8E821 		str	r2, [r3, #488]
 694:STM32F10x_Speex_Lib/STM32/libspeex/nb_celp.c ****    st->highpass_enabled = 1;
 3618              		.loc 3 694 0
 3619 01e4 FB68     		ldr	r3, [r7, #12]
 3620 01e6 0122     		movs	r2, #1
 3621 01e8 C3F8EC21 		str	r2, [r3, #492]
 695:STM32F10x_Speex_Lib/STM32/libspeex/nb_celp.c **** 
 696:STM32F10x_Speex_Lib/STM32/libspeex/nb_celp.c **** #ifdef ENABLE_VALGRIND
 697:STM32F10x_Speex_Lib/STM32/libspeex/nb_celp.c ****    VALGRIND_MAKE_READABLE(st, NB_DEC_STACK);
 698:STM32F10x_Speex_Lib/STM32/libspeex/nb_celp.c **** #endif
 699:STM32F10x_Speex_Lib/STM32/libspeex/nb_celp.c ****    return st;
 3622              		.loc 3 699 0
 3623 01ec FB68     		ldr	r3, [r7, #12]
 3624              	.L133:
 700:STM32F10x_Speex_Lib/STM32/libspeex/nb_celp.c **** }
 3625              		.loc 3 700 0
 3626 01ee 1846     		mov	r0, r3
 3627 01f0 1837     		adds	r7, r7, #24
 3628              	.LCFI67:
 3629              		.cfi_def_cfa_offset 8
 3630 01f2 BD46     		mov	sp, r7
 3631              	.LCFI68:
 3632              		.cfi_def_cfa_register 13
 3633              		@ sp needed
 3634 01f4 80BD     		pop	{r7, pc}
 3635              	.L137:
 3636 01f6 00BF     		.align	2
 3637              	.L136:
 3638 01f8 00000000 		.word	speex_default_user_handler
 3639              		.cfi_endproc
 3640              	.LFE24:
 3642              		.section	.text.nb_decoder_destroy,"ax",%progbits
 3643              		.align	2
 3644              		.global	nb_decoder_destroy
 3645              		.thumb
 3646              		.thumb_func
 3648              	nb_decoder_destroy:
 3649              	.LFB25:
 701:STM32F10x_Speex_Lib/STM32/libspeex/nb_celp.c **** 
 702:STM32F10x_Speex_Lib/STM32/libspeex/nb_celp.c **** void nb_decoder_destroy(void *state)
 703:STM32F10x_Speex_Lib/STM32/libspeex/nb_celp.c **** {
 3650              		.loc 3 703 0
 3651              		.cfi_startproc
 3652              		@ args = 0, pretend = 0, frame = 16
 3653              		@ frame_needed = 1, uses_anonymous_args = 0
 3654 0000 80B5     		push	{r7, lr}
 3655              	.LCFI69:
 3656              		.cfi_def_cfa_offset 8
 3657              		.cfi_offset 7, -8
ARM GAS  /var/folders/kh/x4vltyy52lbg7p4pcyglc5080000gp/T//ccuucmVt.s 			page 83


 3658              		.cfi_offset 14, -4
 3659 0002 84B0     		sub	sp, sp, #16
 3660              	.LCFI70:
 3661              		.cfi_def_cfa_offset 24
 3662 0004 00AF     		add	r7, sp, #0
 3663              	.LCFI71:
 3664              		.cfi_def_cfa_register 7
 3665 0006 7860     		str	r0, [r7, #4]
 704:STM32F10x_Speex_Lib/STM32/libspeex/nb_celp.c ****    DecState *st;
 705:STM32F10x_Speex_Lib/STM32/libspeex/nb_celp.c ****    st=(DecState*)state;
 3666              		.loc 3 705 0
 3667 0008 7B68     		ldr	r3, [r7, #4]
 3668 000a FB60     		str	r3, [r7, #12]
 706:STM32F10x_Speex_Lib/STM32/libspeex/nb_celp.c ****    
 707:STM32F10x_Speex_Lib/STM32/libspeex/nb_celp.c **** #if !(defined(VAR_ARRAYS) || defined (USE_ALLOCA))
 708:STM32F10x_Speex_Lib/STM32/libspeex/nb_celp.c ****    speex_free_scratch(st->stack);
 3669              		.loc 3 708 0
 3670 000c FB68     		ldr	r3, [r7, #12]
 3671 000e DB6A     		ldr	r3, [r3, #44]
 3672 0010 1846     		mov	r0, r3
 3673 0012 FFF7FEFF 		bl	speex_free_scratch
 709:STM32F10x_Speex_Lib/STM32/libspeex/nb_celp.c **** #endif
 710:STM32F10x_Speex_Lib/STM32/libspeex/nb_celp.c **** 
 711:STM32F10x_Speex_Lib/STM32/libspeex/nb_celp.c ****    speex_free (st->excBuf);
 3674              		.loc 3 711 0
 3675 0016 FB68     		ldr	r3, [r7, #12]
 3676 0018 1B6B     		ldr	r3, [r3, #48]
 3677 001a 1846     		mov	r0, r3
 3678 001c FFF7FEFF 		bl	speex_free
 712:STM32F10x_Speex_Lib/STM32/libspeex/nb_celp.c ****    speex_free (st->interp_qlpc);
 3679              		.loc 3 712 0
 3680 0020 FB68     		ldr	r3, [r7, #12]
 3681 0022 DB6B     		ldr	r3, [r3, #60]
 3682 0024 1846     		mov	r0, r3
 3683 0026 FFF7FEFF 		bl	speex_free
 713:STM32F10x_Speex_Lib/STM32/libspeex/nb_celp.c ****    speex_free (st->old_qlsp);
 3684              		.loc 3 713 0
 3685 002a FB68     		ldr	r3, [r7, #12]
 3686 002c 9B6B     		ldr	r3, [r3, #56]
 3687 002e 1846     		mov	r0, r3
 3688 0030 FFF7FEFF 		bl	speex_free
 714:STM32F10x_Speex_Lib/STM32/libspeex/nb_celp.c ****    speex_free (st->mem_sp);
 3689              		.loc 3 714 0
 3690 0034 FB68     		ldr	r3, [r7, #12]
 3691 0036 1B6C     		ldr	r3, [r3, #64]
 3692 0038 1846     		mov	r0, r3
 3693 003a FFF7FEFF 		bl	speex_free
 715:STM32F10x_Speex_Lib/STM32/libspeex/nb_celp.c ****    speex_free (st->pi_gain);
 3694              		.loc 3 715 0
 3695 003e FB68     		ldr	r3, [r7, #12]
 3696 0040 DB6C     		ldr	r3, [r3, #76]
 3697 0042 1846     		mov	r0, r3
 3698 0044 FFF7FEFF 		bl	speex_free
 716:STM32F10x_Speex_Lib/STM32/libspeex/nb_celp.c **** 
 717:STM32F10x_Speex_Lib/STM32/libspeex/nb_celp.c ****    speex_free(state);
 3699              		.loc 3 717 0
 3700 0048 7868     		ldr	r0, [r7, #4]
ARM GAS  /var/folders/kh/x4vltyy52lbg7p4pcyglc5080000gp/T//ccuucmVt.s 			page 84


 3701 004a FFF7FEFF 		bl	speex_free
 718:STM32F10x_Speex_Lib/STM32/libspeex/nb_celp.c **** }
 3702              		.loc 3 718 0
 3703 004e 00BF     		nop
 3704 0050 1037     		adds	r7, r7, #16
 3705              	.LCFI72:
 3706              		.cfi_def_cfa_offset 8
 3707 0052 BD46     		mov	sp, r7
 3708              	.LCFI73:
 3709              		.cfi_def_cfa_register 13
 3710              		@ sp needed
 3711 0054 80BD     		pop	{r7, pc}
 3712              		.cfi_endproc
 3713              	.LFE25:
 3715              		.global	attenuation
 3716 0056 00BF     		.section	.rodata.attenuation,"a",%progbits
 3717              		.align	2
 3720              	attenuation:
 3721 0000 FF7F     		.short	32767
 3722 0002 FB7A     		.short	31483
 3723 0004 136D     		.short	27923
 3724 0006 4D59     		.short	22861
 3725 0008 7E43     		.short	17278
 3726 000a 172F     		.short	12055
 3727 000c 541E     		.short	7764
 3728 000e 0812     		.short	4616
 3729 0010 E509     		.short	2533
 3730 0012 0305     		.short	1283
 3731              		.section	.text.nb_decode_lost,"ax",%progbits
 3732              		.align	2
 3733              		.thumb
 3734              		.thumb_func
 3736              	nb_decode_lost:
 3737              	.LFB26:
 719:STM32F10x_Speex_Lib/STM32/libspeex/nb_celp.c **** 
 720:STM32F10x_Speex_Lib/STM32/libspeex/nb_celp.c **** #define median3(a, b, c)	((a) < (b) ? ((b) < (c) ? (b) : ((a) < (c) ? (c) : (a))) : ((c) < (b) ? (b
 721:STM32F10x_Speex_Lib/STM32/libspeex/nb_celp.c **** 
 722:STM32F10x_Speex_Lib/STM32/libspeex/nb_celp.c **** #ifdef FIXED_POINT
 723:STM32F10x_Speex_Lib/STM32/libspeex/nb_celp.c **** const spx_word16_t attenuation[10] = {32767, 31483, 27923, 22861, 17278, 12055, 7764, 4616, 2533, 1
 724:STM32F10x_Speex_Lib/STM32/libspeex/nb_celp.c **** #else
 725:STM32F10x_Speex_Lib/STM32/libspeex/nb_celp.c **** const spx_word16_t attenuation[10] = {1., 0.961, 0.852, 0.698, 0.527, 0.368, 0.237, 0.141, 0.077, 0
 726:STM32F10x_Speex_Lib/STM32/libspeex/nb_celp.c **** 
 727:STM32F10x_Speex_Lib/STM32/libspeex/nb_celp.c **** #endif
 728:STM32F10x_Speex_Lib/STM32/libspeex/nb_celp.c **** 
 729:STM32F10x_Speex_Lib/STM32/libspeex/nb_celp.c **** static void nb_decode_lost(DecState *st, spx_word16_t *out, char *stack)
 730:STM32F10x_Speex_Lib/STM32/libspeex/nb_celp.c **** {
 3738              		.loc 3 730 0
 3739              		.cfi_startproc
 3740              		@ args = 0, pretend = 0, frame = 40
 3741              		@ frame_needed = 1, uses_anonymous_args = 0
 3742 0000 B0B5     		push	{r4, r5, r7, lr}
 3743              	.LCFI74:
 3744              		.cfi_def_cfa_offset 16
 3745              		.cfi_offset 4, -16
 3746              		.cfi_offset 5, -12
 3747              		.cfi_offset 7, -8
 3748              		.cfi_offset 14, -4
ARM GAS  /var/folders/kh/x4vltyy52lbg7p4pcyglc5080000gp/T//ccuucmVt.s 			page 85


 3749 0002 8EB0     		sub	sp, sp, #56
 3750              	.LCFI75:
 3751              		.cfi_def_cfa_offset 72
 3752 0004 04AF     		add	r7, sp, #16
 3753              	.LCFI76:
 3754              		.cfi_def_cfa 7, 56
 3755 0006 F860     		str	r0, [r7, #12]
 3756 0008 B960     		str	r1, [r7, #8]
 3757 000a 7A60     		str	r2, [r7, #4]
 731:STM32F10x_Speex_Lib/STM32/libspeex/nb_celp.c ****    int i;
 732:STM32F10x_Speex_Lib/STM32/libspeex/nb_celp.c ****    int pitch_val;
 733:STM32F10x_Speex_Lib/STM32/libspeex/nb_celp.c ****    spx_word16_t pitch_gain;
 734:STM32F10x_Speex_Lib/STM32/libspeex/nb_celp.c ****    spx_word16_t fact;
 735:STM32F10x_Speex_Lib/STM32/libspeex/nb_celp.c ****    spx_word16_t gain_med;
 736:STM32F10x_Speex_Lib/STM32/libspeex/nb_celp.c ****    spx_word16_t innov_gain;
 737:STM32F10x_Speex_Lib/STM32/libspeex/nb_celp.c ****    spx_word16_t noise_gain;
 738:STM32F10x_Speex_Lib/STM32/libspeex/nb_celp.c ****    
 739:STM32F10x_Speex_Lib/STM32/libspeex/nb_celp.c ****    if (st->count_lost<10)
 3758              		.loc 3 739 0
 3759 000c FB68     		ldr	r3, [r7, #12]
 3760 000e 9B68     		ldr	r3, [r3, #8]
 3761 0010 092B     		cmp	r3, #9
 3762 0012 06DC     		bgt	.L140
 740:STM32F10x_Speex_Lib/STM32/libspeex/nb_celp.c ****       fact = attenuation[st->count_lost];
 3763              		.loc 3 740 0
 3764 0014 FB68     		ldr	r3, [r7, #12]
 3765 0016 9B68     		ldr	r3, [r3, #8]
 3766 0018 9B4A     		ldr	r2, .L156
 3767 001a 32F81330 		ldrh	r3, [r2, r3, lsl #1]	@ movhi
 3768 001e BB83     		strh	r3, [r7, #28]	@ movhi
 3769 0020 01E0     		b	.L141
 3770              	.L140:
 741:STM32F10x_Speex_Lib/STM32/libspeex/nb_celp.c ****    else
 742:STM32F10x_Speex_Lib/STM32/libspeex/nb_celp.c ****       fact = 0;
 3771              		.loc 3 742 0
 3772 0022 0023     		movs	r3, #0
 3773 0024 BB83     		strh	r3, [r7, #28]	@ movhi
 3774              	.L141:
 743:STM32F10x_Speex_Lib/STM32/libspeex/nb_celp.c **** 
 744:STM32F10x_Speex_Lib/STM32/libspeex/nb_celp.c ****    gain_med = median3(st->pitch_gain_buf[0], st->pitch_gain_buf[1], st->pitch_gain_buf[2]);
 3775              		.loc 3 744 0
 3776 0026 FB68     		ldr	r3, [r7, #12]
 3777 0028 B3F96220 		ldrsh	r2, [r3, #98]
 3778 002c FB68     		ldr	r3, [r7, #12]
 3779 002e B3F96430 		ldrsh	r3, [r3, #100]
 3780 0032 9A42     		cmp	r2, r3
 3781 0034 16DA     		bge	.L142
 3782              		.loc 3 744 0 is_stmt 0 discriminator 1
 3783 0036 FB68     		ldr	r3, [r7, #12]
 3784 0038 B3F96420 		ldrsh	r2, [r3, #100]
 3785 003c FB68     		ldr	r3, [r7, #12]
 3786 003e B3F96630 		ldrsh	r3, [r3, #102]
 3787 0042 9A42     		cmp	r2, r3
 3788 0044 03DA     		bge	.L143
 3789              		.loc 3 744 0 discriminator 3
 3790 0046 FB68     		ldr	r3, [r7, #12]
 3791 0048 B3F96430 		ldrsh	r3, [r3, #100]
ARM GAS  /var/folders/kh/x4vltyy52lbg7p4pcyglc5080000gp/T//ccuucmVt.s 			page 86


 3792 004c 20E0     		b	.L145
 3793              	.L143:
 3794              		.loc 3 744 0 discriminator 4
 3795 004e FB68     		ldr	r3, [r7, #12]
 3796 0050 B3F96220 		ldrsh	r2, [r3, #98]
 3797 0054 FB68     		ldr	r3, [r7, #12]
 3798 0056 B3F96630 		ldrsh	r3, [r3, #102]
 3799 005a 9342     		cmp	r3, r2
 3800 005c B8BF     		it	lt
 3801 005e 1346     		movlt	r3, r2
 3802 0060 1BB2     		sxth	r3, r3
 3803 0062 15E0     		b	.L145
 3804              	.L142:
 3805              		.loc 3 744 0 discriminator 2
 3806 0064 FB68     		ldr	r3, [r7, #12]
 3807 0066 B3F96620 		ldrsh	r2, [r3, #102]
 3808 006a FB68     		ldr	r3, [r7, #12]
 3809 006c B3F96430 		ldrsh	r3, [r3, #100]
 3810 0070 9A42     		cmp	r2, r3
 3811 0072 03DA     		bge	.L146
 3812              		.loc 3 744 0 discriminator 8
 3813 0074 FB68     		ldr	r3, [r7, #12]
 3814 0076 B3F96430 		ldrsh	r3, [r3, #100]
 3815 007a 09E0     		b	.L145
 3816              	.L146:
 3817              		.loc 3 744 0 discriminator 9
 3818 007c FB68     		ldr	r3, [r7, #12]
 3819 007e B3F96220 		ldrsh	r2, [r3, #98]
 3820 0082 FB68     		ldr	r3, [r7, #12]
 3821 0084 B3F96630 		ldrsh	r3, [r3, #102]
 3822 0088 9342     		cmp	r3, r2
 3823 008a A8BF     		it	ge
 3824 008c 1346     		movge	r3, r2
 3825 008e 1BB2     		sxth	r3, r3
 3826              	.L145:
 3827              		.loc 3 744 0 discriminator 12
 3828 0090 7B83     		strh	r3, [r7, #26]	@ movhi
 745:STM32F10x_Speex_Lib/STM32/libspeex/nb_celp.c ****    if (gain_med < st->last_pitch_gain)
 3829              		.loc 3 745 0 is_stmt 1 discriminator 12
 3830 0092 FB68     		ldr	r3, [r7, #12]
 3831 0094 B3F96030 		ldrsh	r3, [r3, #96]
 3832 0098 B7F91A20 		ldrsh	r2, [r7, #26]
 3833 009c 9A42     		cmp	r2, r3
 3834 009e 03DA     		bge	.L148
 746:STM32F10x_Speex_Lib/STM32/libspeex/nb_celp.c ****       st->last_pitch_gain = gain_med;
 3835              		.loc 3 746 0
 3836 00a0 FB68     		ldr	r3, [r7, #12]
 3837 00a2 7A8B     		ldrh	r2, [r7, #26]	@ movhi
 3838 00a4 A3F86020 		strh	r2, [r3, #96]	@ movhi
 3839              	.L148:
 747:STM32F10x_Speex_Lib/STM32/libspeex/nb_celp.c ****    
 748:STM32F10x_Speex_Lib/STM32/libspeex/nb_celp.c **** #ifdef FIXED_POINT
 749:STM32F10x_Speex_Lib/STM32/libspeex/nb_celp.c ****    pitch_gain = st->last_pitch_gain;
 3840              		.loc 3 749 0
 3841 00a8 FB68     		ldr	r3, [r7, #12]
 3842 00aa B3F86030 		ldrh	r3, [r3, #96]	@ movhi
 3843 00ae FB83     		strh	r3, [r7, #30]	@ movhi
ARM GAS  /var/folders/kh/x4vltyy52lbg7p4pcyglc5080000gp/T//ccuucmVt.s 			page 87


 750:STM32F10x_Speex_Lib/STM32/libspeex/nb_celp.c ****    if (pitch_gain>54)
 3844              		.loc 3 750 0
 3845 00b0 B7F91E30 		ldrsh	r3, [r7, #30]
 3846 00b4 362B     		cmp	r3, #54
 3847 00b6 01DD     		ble	.L149
 751:STM32F10x_Speex_Lib/STM32/libspeex/nb_celp.c ****       pitch_gain = 54;
 3848              		.loc 3 751 0
 3849 00b8 3623     		movs	r3, #54
 3850 00ba FB83     		strh	r3, [r7, #30]	@ movhi
 3851              	.L149:
 752:STM32F10x_Speex_Lib/STM32/libspeex/nb_celp.c ****    pitch_gain = SHL16(pitch_gain, 9);
 3852              		.loc 3 752 0
 3853 00bc B7F91E30 		ldrsh	r3, [r7, #30]
 3854 00c0 5B02     		lsls	r3, r3, #9
 3855 00c2 FB83     		strh	r3, [r7, #30]	@ movhi
 753:STM32F10x_Speex_Lib/STM32/libspeex/nb_celp.c **** #else   
 754:STM32F10x_Speex_Lib/STM32/libspeex/nb_celp.c ****    pitch_gain = GAIN_SCALING_1*st->last_pitch_gain;
 755:STM32F10x_Speex_Lib/STM32/libspeex/nb_celp.c ****    if (pitch_gain>.85)
 756:STM32F10x_Speex_Lib/STM32/libspeex/nb_celp.c ****       pitch_gain=.85;
 757:STM32F10x_Speex_Lib/STM32/libspeex/nb_celp.c **** #endif
 758:STM32F10x_Speex_Lib/STM32/libspeex/nb_celp.c ****    pitch_gain = MULT16_16_Q15(fact,pitch_gain) + VERY_SMALL;
 3856              		.loc 3 758 0
 3857 00c4 B7F91C30 		ldrsh	r3, [r7, #28]
 3858 00c8 B7F91E20 		ldrsh	r2, [r7, #30]
 3859 00cc 02FB03F3 		mul	r3, r2, r3
 3860 00d0 DB13     		asrs	r3, r3, #15
 3861 00d2 FB83     		strh	r3, [r7, #30]	@ movhi
 759:STM32F10x_Speex_Lib/STM32/libspeex/nb_celp.c ****    /* FIXME: This was rms of innovation (not exc) */
 760:STM32F10x_Speex_Lib/STM32/libspeex/nb_celp.c ****    innov_gain = compute_rms16(st->exc, st->frameSize);
 3862              		.loc 3 760 0
 3863 00d4 FB68     		ldr	r3, [r7, #12]
 3864 00d6 5A6B     		ldr	r2, [r3, #52]
 3865 00d8 FB68     		ldr	r3, [r7, #12]
 3866 00da DB68     		ldr	r3, [r3, #12]
 3867 00dc 1946     		mov	r1, r3
 3868 00de 1046     		mov	r0, r2
 3869 00e0 FFF7FEFF 		bl	compute_rms16
 3870 00e4 0346     		mov	r3, r0
 3871 00e6 3B83     		strh	r3, [r7, #24]	@ movhi
 761:STM32F10x_Speex_Lib/STM32/libspeex/nb_celp.c ****    noise_gain = MULT16_16_Q15(innov_gain, MULT16_16_Q15(fact, SUB16(Q15ONE,MULT16_16_Q15(pitch_gain
 3872              		.loc 3 761 0
 3873 00e8 B7F91820 		ldrsh	r2, [r7, #24]
 3874 00ec B7F91C10 		ldrsh	r1, [r7, #28]
 3875 00f0 B7F91E30 		ldrsh	r3, [r7, #30]
 3876 00f4 B7F91E00 		ldrsh	r0, [r7, #30]
 3877 00f8 00FB03F3 		mul	r3, r0, r3
 3878 00fc DB13     		asrs	r3, r3, #15
 3879 00fe 9BB2     		uxth	r3, r3
 3880 0100 C3F5FF43 		rsb	r3, r3, #32640
 3881 0104 7F33     		adds	r3, r3, #127
 3882 0106 9BB2     		uxth	r3, r3
 3883 0108 1BB2     		sxth	r3, r3
 3884 010a 03FB01F3 		mul	r3, r3, r1
 3885 010e DB13     		asrs	r3, r3, #15
 3886 0110 1BB2     		sxth	r3, r3
 3887 0112 03FB02F3 		mul	r3, r3, r2
 3888 0116 DB13     		asrs	r3, r3, #15
ARM GAS  /var/folders/kh/x4vltyy52lbg7p4pcyglc5080000gp/T//ccuucmVt.s 			page 88


 3889 0118 FB82     		strh	r3, [r7, #22]	@ movhi
 762:STM32F10x_Speex_Lib/STM32/libspeex/nb_celp.c ****    /* Shift all buffers by one frame */
 763:STM32F10x_Speex_Lib/STM32/libspeex/nb_celp.c ****    SPEEX_MOVE(st->excBuf, st->excBuf+st->frameSize, 2*st->max_pitch + st->subframeSize + 12);
 3890              		.loc 3 763 0
 3891 011a FB68     		ldr	r3, [r7, #12]
 3892 011c 186B     		ldr	r0, [r3, #48]
 3893 011e FB68     		ldr	r3, [r7, #12]
 3894 0120 1A6B     		ldr	r2, [r3, #48]
 3895 0122 FB68     		ldr	r3, [r7, #12]
 3896 0124 DB68     		ldr	r3, [r3, #12]
 3897 0126 5B00     		lsls	r3, r3, #1
 3898 0128 D118     		adds	r1, r2, r3
 3899 012a FB68     		ldr	r3, [r7, #12]
 3900 012c 1B6A     		ldr	r3, [r3, #32]
 3901 012e 5A00     		lsls	r2, r3, #1
 3902 0130 FB68     		ldr	r3, [r7, #12]
 3903 0132 1B69     		ldr	r3, [r3, #16]
 3904 0134 1344     		add	r3, r3, r2
 3905 0136 0C33     		adds	r3, r3, #12
 3906 0138 5B00     		lsls	r3, r3, #1
 3907 013a 1A46     		mov	r2, r3
 3908 013c FFF7FEFF 		bl	memmove
 764:STM32F10x_Speex_Lib/STM32/libspeex/nb_celp.c ****    
 765:STM32F10x_Speex_Lib/STM32/libspeex/nb_celp.c **** 
 766:STM32F10x_Speex_Lib/STM32/libspeex/nb_celp.c ****    pitch_val = st->last_pitch + SHR32((spx_int32_t)speex_rand(1+st->count_lost, &st->seed),SIG_SHIF
 3909              		.loc 3 766 0
 3910 0140 FB68     		ldr	r3, [r7, #12]
 3911 0142 DC6D     		ldr	r4, [r3, #92]
 3912 0144 FB68     		ldr	r3, [r7, #12]
 3913 0146 9B68     		ldr	r3, [r3, #8]
 3914 0148 9BB2     		uxth	r3, r3
 3915 014a 0133     		adds	r3, r3, #1
 3916 014c 9BB2     		uxth	r3, r3
 3917 014e 1AB2     		sxth	r2, r3
 3918 0150 FB68     		ldr	r3, [r7, #12]
 3919 0152 6C33     		adds	r3, r3, #108
 3920 0154 1946     		mov	r1, r3
 3921 0156 1046     		mov	r0, r2
 3922 0158 FFF7FEFF 		bl	speex_rand
 3923 015c 0346     		mov	r3, r0
 3924 015e 9B13     		asrs	r3, r3, #14
 3925 0160 1BB2     		sxth	r3, r3
 3926 0162 2344     		add	r3, r3, r4
 3927 0164 3B62     		str	r3, [r7, #32]
 767:STM32F10x_Speex_Lib/STM32/libspeex/nb_celp.c ****    if (pitch_val > st->max_pitch)
 3928              		.loc 3 767 0
 3929 0166 FB68     		ldr	r3, [r7, #12]
 3930 0168 1A6A     		ldr	r2, [r3, #32]
 3931 016a 3B6A     		ldr	r3, [r7, #32]
 3932 016c 9A42     		cmp	r2, r3
 3933 016e 02DA     		bge	.L150
 768:STM32F10x_Speex_Lib/STM32/libspeex/nb_celp.c ****       pitch_val = st->max_pitch;
 3934              		.loc 3 768 0
 3935 0170 FB68     		ldr	r3, [r7, #12]
 3936 0172 1B6A     		ldr	r3, [r3, #32]
 3937 0174 3B62     		str	r3, [r7, #32]
 3938              	.L150:
ARM GAS  /var/folders/kh/x4vltyy52lbg7p4pcyglc5080000gp/T//ccuucmVt.s 			page 89


 769:STM32F10x_Speex_Lib/STM32/libspeex/nb_celp.c ****    if (pitch_val < st->min_pitch)
 3939              		.loc 3 769 0
 3940 0176 FB68     		ldr	r3, [r7, #12]
 3941 0178 DA69     		ldr	r2, [r3, #28]
 3942 017a 3B6A     		ldr	r3, [r7, #32]
 3943 017c 9A42     		cmp	r2, r3
 3944 017e 02DD     		ble	.L151
 770:STM32F10x_Speex_Lib/STM32/libspeex/nb_celp.c ****       pitch_val = st->min_pitch;
 3945              		.loc 3 770 0
 3946 0180 FB68     		ldr	r3, [r7, #12]
 3947 0182 DB69     		ldr	r3, [r3, #28]
 3948 0184 3B62     		str	r3, [r7, #32]
 3949              	.L151:
 771:STM32F10x_Speex_Lib/STM32/libspeex/nb_celp.c ****    for (i=0;i<st->frameSize;i++)
 3950              		.loc 3 771 0
 3951 0186 0023     		movs	r3, #0
 3952 0188 7B62     		str	r3, [r7, #36]
 3953 018a 25E0     		b	.L152
 3954              	.L153:
 772:STM32F10x_Speex_Lib/STM32/libspeex/nb_celp.c ****    {
 773:STM32F10x_Speex_Lib/STM32/libspeex/nb_celp.c ****       st->exc[i]= MULT16_16_Q15(pitch_gain, (st->exc[i-pitch_val]+VERY_SMALL)) + 
 3955              		.loc 3 773 0 discriminator 3
 3956 018c FB68     		ldr	r3, [r7, #12]
 3957 018e 5A6B     		ldr	r2, [r3, #52]
 3958 0190 7B6A     		ldr	r3, [r7, #36]
 3959 0192 5B00     		lsls	r3, r3, #1
 3960 0194 D418     		adds	r4, r2, r3
 3961 0196 B7F91E30 		ldrsh	r3, [r7, #30]
 3962 019a FA68     		ldr	r2, [r7, #12]
 3963 019c 516B     		ldr	r1, [r2, #52]
 3964 019e 786A     		ldr	r0, [r7, #36]
 3965 01a0 3A6A     		ldr	r2, [r7, #32]
 3966 01a2 821A     		subs	r2, r0, r2
 3967 01a4 5200     		lsls	r2, r2, #1
 3968 01a6 0A44     		add	r2, r2, r1
 3969 01a8 B2F90020 		ldrsh	r2, [r2]
 3970 01ac 02FB03F3 		mul	r3, r2, r3
 3971 01b0 DB13     		asrs	r3, r3, #15
 3972 01b2 9DB2     		uxth	r5, r3
 774:STM32F10x_Speex_Lib/STM32/libspeex/nb_celp.c ****             speex_rand(noise_gain, &st->seed);
 3973              		.loc 3 774 0 discriminator 3
 3974 01b4 FB68     		ldr	r3, [r7, #12]
 3975 01b6 03F16C02 		add	r2, r3, #108
 3976 01ba B7F91630 		ldrsh	r3, [r7, #22]
 3977 01be 1146     		mov	r1, r2
 3978 01c0 1846     		mov	r0, r3
 3979 01c2 FFF7FEFF 		bl	speex_rand
 3980 01c6 0346     		mov	r3, r0
 773:STM32F10x_Speex_Lib/STM32/libspeex/nb_celp.c ****             speex_rand(noise_gain, &st->seed);
 3981              		.loc 3 773 0 discriminator 3
 3982 01c8 9BB2     		uxth	r3, r3
 3983 01ca 2B44     		add	r3, r3, r5
 3984 01cc 9BB2     		uxth	r3, r3
 3985 01ce 1BB2     		sxth	r3, r3
 3986 01d0 2380     		strh	r3, [r4]	@ movhi
 771:STM32F10x_Speex_Lib/STM32/libspeex/nb_celp.c ****    {
 3987              		.loc 3 771 0 discriminator 3
ARM GAS  /var/folders/kh/x4vltyy52lbg7p4pcyglc5080000gp/T//ccuucmVt.s 			page 90


 3988 01d2 7B6A     		ldr	r3, [r7, #36]
 3989 01d4 0133     		adds	r3, r3, #1
 3990 01d6 7B62     		str	r3, [r7, #36]
 3991              	.L152:
 771:STM32F10x_Speex_Lib/STM32/libspeex/nb_celp.c ****    {
 3992              		.loc 3 771 0 is_stmt 0 discriminator 1
 3993 01d8 FB68     		ldr	r3, [r7, #12]
 3994 01da DA68     		ldr	r2, [r3, #12]
 3995 01dc 7B6A     		ldr	r3, [r7, #36]
 3996 01de 9A42     		cmp	r2, r3
 3997 01e0 D4DC     		bgt	.L153
 775:STM32F10x_Speex_Lib/STM32/libspeex/nb_celp.c ****    }
 776:STM32F10x_Speex_Lib/STM32/libspeex/nb_celp.c **** 
 777:STM32F10x_Speex_Lib/STM32/libspeex/nb_celp.c ****    bw_lpc(QCONST16(.98,15), st->interp_qlpc, st->interp_qlpc, st->lpcSize);
 3998              		.loc 3 777 0 is_stmt 1
 3999 01e2 FB68     		ldr	r3, [r7, #12]
 4000 01e4 D96B     		ldr	r1, [r3, #60]
 4001 01e6 FB68     		ldr	r3, [r7, #12]
 4002 01e8 DA6B     		ldr	r2, [r3, #60]
 4003 01ea FB68     		ldr	r3, [r7, #12]
 4004 01ec 9B69     		ldr	r3, [r3, #24]
 4005 01ee 47F67150 		movw	r0, #32113
 4006 01f2 FFF7FEFF 		bl	bw_lpc
 778:STM32F10x_Speex_Lib/STM32/libspeex/nb_celp.c ****    iir_mem16(&st->exc[-st->subframeSize], st->interp_qlpc, out, st->frameSize,
 4007              		.loc 3 778 0
 4008 01f6 FB68     		ldr	r3, [r7, #12]
 4009 01f8 5A6B     		ldr	r2, [r3, #52]
 4010 01fa FB68     		ldr	r3, [r7, #12]
 4011 01fc 1B69     		ldr	r3, [r3, #16]
 4012 01fe 1946     		mov	r1, r3
 4013 0200 0B46     		mov	r3, r1
 4014 0202 DB07     		lsls	r3, r3, #31
 4015 0204 5B1A     		subs	r3, r3, r1
 4016 0206 5B00     		lsls	r3, r3, #1
 4017 0208 D018     		adds	r0, r2, r3
 4018 020a FB68     		ldr	r3, [r7, #12]
 4019 020c DC6B     		ldr	r4, [r3, #60]
 4020 020e FB68     		ldr	r3, [r7, #12]
 4021 0210 DD68     		ldr	r5, [r3, #12]
 4022 0212 FB68     		ldr	r3, [r7, #12]
 4023 0214 9B69     		ldr	r3, [r3, #24]
 4024 0216 FA68     		ldr	r2, [r7, #12]
 4025 0218 126C     		ldr	r2, [r2, #64]
 4026 021a 7968     		ldr	r1, [r7, #4]
 4027 021c 0291     		str	r1, [sp, #8]
 4028 021e 0192     		str	r2, [sp, #4]
 4029 0220 0093     		str	r3, [sp]
 4030 0222 2B46     		mov	r3, r5
 4031 0224 BA68     		ldr	r2, [r7, #8]
 4032 0226 2146     		mov	r1, r4
 4033 0228 FFF7FEFF 		bl	iir_mem16
 779:STM32F10x_Speex_Lib/STM32/libspeex/nb_celp.c ****              st->lpcSize, st->mem_sp, stack);
 780:STM32F10x_Speex_Lib/STM32/libspeex/nb_celp.c ****    highpass(out, out, st->frameSize, HIGHPASS_NARROWBAND|HIGHPASS_OUTPUT, st->mem_hp);
 4034              		.loc 3 780 0
 4035 022c FB68     		ldr	r3, [r7, #12]
 4036 022e DA68     		ldr	r2, [r3, #12]
 4037 0230 FB68     		ldr	r3, [r7, #12]
ARM GAS  /var/folders/kh/x4vltyy52lbg7p4pcyglc5080000gp/T//ccuucmVt.s 			page 91


 4038 0232 4433     		adds	r3, r3, #68
 4039 0234 0093     		str	r3, [sp]
 4040 0236 0123     		movs	r3, #1
 4041 0238 B968     		ldr	r1, [r7, #8]
 4042 023a B868     		ldr	r0, [r7, #8]
 4043 023c FFF7FEFF 		bl	highpass
 781:STM32F10x_Speex_Lib/STM32/libspeex/nb_celp.c ****    
 782:STM32F10x_Speex_Lib/STM32/libspeex/nb_celp.c ****    st->first = 0;
 4044              		.loc 3 782 0
 4045 0240 FB68     		ldr	r3, [r7, #12]
 4046 0242 0022     		movs	r2, #0
 4047 0244 5A60     		str	r2, [r3, #4]
 783:STM32F10x_Speex_Lib/STM32/libspeex/nb_celp.c ****    st->count_lost++;
 4048              		.loc 3 783 0
 4049 0246 FB68     		ldr	r3, [r7, #12]
 4050 0248 9B68     		ldr	r3, [r3, #8]
 4051 024a 5A1C     		adds	r2, r3, #1
 4052 024c FB68     		ldr	r3, [r7, #12]
 4053 024e 9A60     		str	r2, [r3, #8]
 784:STM32F10x_Speex_Lib/STM32/libspeex/nb_celp.c ****    st->pitch_gain_buf[st->pitch_gain_buf_idx++] = PSHR16(pitch_gain,9);
 4054              		.loc 3 784 0
 4055 0250 FB68     		ldr	r3, [r7, #12]
 4056 0252 9B6E     		ldr	r3, [r3, #104]
 4057 0254 591C     		adds	r1, r3, #1
 4058 0256 FA68     		ldr	r2, [r7, #12]
 4059 0258 9166     		str	r1, [r2, #104]
 4060 025a B7F91E20 		ldrsh	r2, [r7, #30]
 4061 025e 02F58072 		add	r2, r2, #256
 4062 0262 5212     		asrs	r2, r2, #9
 4063 0264 11B2     		sxth	r1, r2
 4064 0266 FA68     		ldr	r2, [r7, #12]
 4065 0268 3033     		adds	r3, r3, #48
 4066 026a 5B00     		lsls	r3, r3, #1
 4067 026c 1344     		add	r3, r3, r2
 4068 026e 0A46     		mov	r2, r1	@ movhi
 4069 0270 5A80     		strh	r2, [r3, #2]	@ movhi
 785:STM32F10x_Speex_Lib/STM32/libspeex/nb_celp.c ****    if (st->pitch_gain_buf_idx > 2) /* rollover */
 4070              		.loc 3 785 0
 4071 0272 FB68     		ldr	r3, [r7, #12]
 4072 0274 9B6E     		ldr	r3, [r3, #104]
 4073 0276 022B     		cmp	r3, #2
 4074 0278 02DD     		ble	.L155
 786:STM32F10x_Speex_Lib/STM32/libspeex/nb_celp.c ****       st->pitch_gain_buf_idx = 0;
 4075              		.loc 3 786 0
 4076 027a FB68     		ldr	r3, [r7, #12]
 4077 027c 0022     		movs	r2, #0
 4078 027e 9A66     		str	r2, [r3, #104]
 4079              	.L155:
 787:STM32F10x_Speex_Lib/STM32/libspeex/nb_celp.c **** }
 4080              		.loc 3 787 0
 4081 0280 00BF     		nop
 4082 0282 2837     		adds	r7, r7, #40
 4083              	.LCFI77:
 4084              		.cfi_def_cfa_offset 16
 4085 0284 BD46     		mov	sp, r7
 4086              	.LCFI78:
 4087              		.cfi_def_cfa_register 13
ARM GAS  /var/folders/kh/x4vltyy52lbg7p4pcyglc5080000gp/T//ccuucmVt.s 			page 92


 4088              		@ sp needed
 4089 0286 B0BD     		pop	{r4, r5, r7, pc}
 4090              	.L157:
 4091              		.align	2
 4092              	.L156:
 4093 0288 00000000 		.word	attenuation
 4094              		.cfi_endproc
 4095              	.LFE26:
 4097              		.section	.rodata.wb_skip_table,"a",%progbits
 4098              		.align	2
 4101              	wb_skip_table:
 4102 0000 00000000 		.word	0
 4103 0004 24000000 		.word	36
 4104 0008 70000000 		.word	112
 4105 000c C0000000 		.word	192
 4106 0010 60010000 		.word	352
 4107 0014 00000000 		.word	0
 4108 0018 00000000 		.word	0
 4109 001c 00000000 		.word	0
 4110              		.section	.rodata
 4111              		.align	2
 4112              	.LC0:
 4113 0000 496E7661 		.ascii	"Invalid mode encountered. The stream is corrupted.\000"
 4113      6C696420 
 4113      6D6F6465 
 4113      20656E63 
 4113      6F756E74 
 4114 0033 00       		.align	2
 4115              	.LC1:
 4116 0034 4D6F7265 		.ascii	"More than two wideband layers found. The stream is "
 4116      20746861 
 4116      6E207477 
 4116      6F207769 
 4116      64656261 
 4117 0067 636F7272 		.ascii	"corrupted.\000"
 4117      75707465 
 4117      642E00
 4118              		.section	.text.nb_decode,"ax",%progbits
 4119              		.align	2
 4120              		.global	nb_decode
 4121              		.thumb
 4122              		.thumb_func
 4124              	nb_decode:
 4125              	.LFB27:
 788:STM32F10x_Speex_Lib/STM32/libspeex/nb_celp.c **** 
 789:STM32F10x_Speex_Lib/STM32/libspeex/nb_celp.c **** /* Just so we don't need to carry the complete wideband mode information */
 790:STM32F10x_Speex_Lib/STM32/libspeex/nb_celp.c **** static const int wb_skip_table[8] = {0, 36, 112, 192, 352, 0, 0, 0};
 791:STM32F10x_Speex_Lib/STM32/libspeex/nb_celp.c **** 
 792:STM32F10x_Speex_Lib/STM32/libspeex/nb_celp.c **** /********************************************************************************************/
 793:STM32F10x_Speex_Lib/STM32/libspeex/nb_celp.c **** /* This function has been modified by STMicroelectronics, MCD Application team, June 2008.  */
 794:STM32F10x_Speex_Lib/STM32/libspeex/nb_celp.c **** /********************************************************************************************/   
 795:STM32F10x_Speex_Lib/STM32/libspeex/nb_celp.c **** int nb_decode(void *state, SpeexBits *bits, void *vout)
 796:STM32F10x_Speex_Lib/STM32/libspeex/nb_celp.c **** {
 4126              		.loc 3 796 0
 4127              		.cfi_startproc
 4128              		@ args = 0, pretend = 0, frame = 216
 4129              		@ frame_needed = 1, uses_anonymous_args = 0
ARM GAS  /var/folders/kh/x4vltyy52lbg7p4pcyglc5080000gp/T//ccuucmVt.s 			page 93


 4130 0000 F0B5     		push	{r4, r5, r6, r7, lr}
 4131              	.LCFI79:
 4132              		.cfi_def_cfa_offset 20
 4133              		.cfi_offset 4, -20
 4134              		.cfi_offset 5, -16
 4135              		.cfi_offset 6, -12
 4136              		.cfi_offset 7, -8
 4137              		.cfi_offset 14, -4
 4138 0002 C3B0     		sub	sp, sp, #268
 4139              	.LCFI80:
 4140              		.cfi_def_cfa_offset 288
 4141 0004 0CAF     		add	r7, sp, #48
 4142              	.LCFI81:
 4143              		.cfi_def_cfa 7, 240
 4144 0006 F860     		str	r0, [r7, #12]
 4145 0008 B960     		str	r1, [r7, #8]
 4146 000a 7A60     		str	r2, [r7, #4]
 797:STM32F10x_Speex_Lib/STM32/libspeex/nb_celp.c ****    DecState *st;
 798:STM32F10x_Speex_Lib/STM32/libspeex/nb_celp.c ****    int i, sub;
 799:STM32F10x_Speex_Lib/STM32/libspeex/nb_celp.c ****    int pitch;
 800:STM32F10x_Speex_Lib/STM32/libspeex/nb_celp.c ****    spx_word16_t pitch_gain[3];
 801:STM32F10x_Speex_Lib/STM32/libspeex/nb_celp.c ****    spx_word32_t ol_gain=0;
 4147              		.loc 3 801 0
 4148 000c 0023     		movs	r3, #0
 4149 000e C7F89C30 		str	r3, [r7, #156]
 802:STM32F10x_Speex_Lib/STM32/libspeex/nb_celp.c ****    int ol_pitch=0;
 4150              		.loc 3 802 0
 4151 0012 0023     		movs	r3, #0
 4152 0014 C7F8CC30 		str	r3, [r7, #204]
 803:STM32F10x_Speex_Lib/STM32/libspeex/nb_celp.c ****    spx_word16_t ol_pitch_coef=0;
 4153              		.loc 3 803 0
 4154 0018 0023     		movs	r3, #0
 4155 001a A7F8CA30 		strh	r3, [r7, #202]	@ movhi
 804:STM32F10x_Speex_Lib/STM32/libspeex/nb_celp.c ****    int best_pitch=40;
 4156              		.loc 3 804 0
 4157 001e 2823     		movs	r3, #40
 4158 0020 C7F8C430 		str	r3, [r7, #196]
 805:STM32F10x_Speex_Lib/STM32/libspeex/nb_celp.c ****    spx_word16_t best_pitch_gain=0;
 4159              		.loc 3 805 0
 4160 0024 0023     		movs	r3, #0
 4161 0026 A7F8C230 		strh	r3, [r7, #194]	@ movhi
 806:STM32F10x_Speex_Lib/STM32/libspeex/nb_celp.c ****    int wideband;
 807:STM32F10x_Speex_Lib/STM32/libspeex/nb_celp.c ****    int m;
 808:STM32F10x_Speex_Lib/STM32/libspeex/nb_celp.c ****    char *stack;
 809:STM32F10x_Speex_Lib/STM32/libspeex/nb_celp.c ****    VARDECL(spx_sig_t *innov);
 810:STM32F10x_Speex_Lib/STM32/libspeex/nb_celp.c ****    VARDECL(spx_word32_t *exc32);
 811:STM32F10x_Speex_Lib/STM32/libspeex/nb_celp.c ****    VARDECL(spx_coef_t *ak);
 812:STM32F10x_Speex_Lib/STM32/libspeex/nb_celp.c ****    VARDECL(spx_lsp_t *qlsp);
 813:STM32F10x_Speex_Lib/STM32/libspeex/nb_celp.c ****    spx_word16_t pitch_average=0;
 4162              		.loc 3 813 0
 4163 002a 0023     		movs	r3, #0
 4164 002c A7F8BA30 		strh	r3, [r7, #186]	@ movhi
 814:STM32F10x_Speex_Lib/STM32/libspeex/nb_celp.c ****    
 815:STM32F10x_Speex_Lib/STM32/libspeex/nb_celp.c ****    spx_word16_t *out = (spx_word16_t*)vout;
 4165              		.loc 3 815 0
 4166 0030 7B68     		ldr	r3, [r7, #4]
 4167 0032 C7F89830 		str	r3, [r7, #152]
ARM GAS  /var/folders/kh/x4vltyy52lbg7p4pcyglc5080000gp/T//ccuucmVt.s 			page 94


 816:STM32F10x_Speex_Lib/STM32/libspeex/nb_celp.c ****    VARDECL(spx_lsp_t *interp_qlsp);
 817:STM32F10x_Speex_Lib/STM32/libspeex/nb_celp.c **** 
 818:STM32F10x_Speex_Lib/STM32/libspeex/nb_celp.c ****    st=(DecState*)state;
 4168              		.loc 3 818 0
 4169 0036 FB68     		ldr	r3, [r7, #12]
 4170 0038 C7F89430 		str	r3, [r7, #148]
 819:STM32F10x_Speex_Lib/STM32/libspeex/nb_celp.c ****    stack=st->stack;
 4171              		.loc 3 819 0
 4172 003c D7F89430 		ldr	r3, [r7, #148]
 4173 0040 DB6A     		ldr	r3, [r3, #44]
 4174 0042 C7F8BC30 		str	r3, [r7, #188]
 820:STM32F10x_Speex_Lib/STM32/libspeex/nb_celp.c **** 
 821:STM32F10x_Speex_Lib/STM32/libspeex/nb_celp.c ****    /* Check if we're in DTX mode*/
 822:STM32F10x_Speex_Lib/STM32/libspeex/nb_celp.c ****    if (!bits && st->dtx_enabled)
 4175              		.loc 3 822 0
 4176 0046 BB68     		ldr	r3, [r7, #8]
 4177 0048 002B     		cmp	r3, #0
 4178 004a 0AD1     		bne	.L159
 4179              		.loc 3 822 0 is_stmt 0 discriminator 1
 4180 004c D7F89430 		ldr	r3, [r7, #148]
 4181 0050 D3F8E431 		ldr	r3, [r3, #484]
 4182 0054 002B     		cmp	r3, #0
 4183 0056 04D0     		beq	.L159
 823:STM32F10x_Speex_Lib/STM32/libspeex/nb_celp.c ****    {
 824:STM32F10x_Speex_Lib/STM32/libspeex/nb_celp.c ****       st->submodeID=0;
 4184              		.loc 3 824 0 is_stmt 1
 4185 0058 D7F89430 		ldr	r3, [r7, #148]
 4186 005c 0022     		movs	r2, #0
 4187 005e 9A67     		str	r2, [r3, #120]
 4188 0060 F7E0     		b	.L160
 4189              	.L159:
 825:STM32F10x_Speex_Lib/STM32/libspeex/nb_celp.c ****    } else 
 826:STM32F10x_Speex_Lib/STM32/libspeex/nb_celp.c ****    {
 827:STM32F10x_Speex_Lib/STM32/libspeex/nb_celp.c ****       /* If bits is NULL, consider the packet to be lost (what could we do anyway) */
 828:STM32F10x_Speex_Lib/STM32/libspeex/nb_celp.c ****       if (!bits)
 4190              		.loc 3 828 0
 4191 0062 BB68     		ldr	r3, [r7, #8]
 4192 0064 002B     		cmp	r3, #0
 4193 0066 0AD1     		bne	.L161
 829:STM32F10x_Speex_Lib/STM32/libspeex/nb_celp.c ****       {
 830:STM32F10x_Speex_Lib/STM32/libspeex/nb_celp.c ****          nb_decode_lost(st, out, stack);
 4194              		.loc 3 830 0
 4195 0068 D7F8BC20 		ldr	r2, [r7, #188]
 4196 006c D7F89810 		ldr	r1, [r7, #152]
 4197 0070 D7F89400 		ldr	r0, [r7, #148]
 4198 0074 FFF7FEFF 		bl	nb_decode_lost
 831:STM32F10x_Speex_Lib/STM32/libspeex/nb_celp.c ****          return 0;
 4199              		.loc 3 831 0
 4200 0078 0023     		movs	r3, #0
 4201 007a 01F010BA 		b	.L254
 4202              	.L161:
 832:STM32F10x_Speex_Lib/STM32/libspeex/nb_celp.c ****       }
 833:STM32F10x_Speex_Lib/STM32/libspeex/nb_celp.c **** 
 834:STM32F10x_Speex_Lib/STM32/libspeex/nb_celp.c ****       if (st->encode_submode)
 4203              		.loc 3 834 0
 4204 007e D7F89430 		ldr	r3, [r7, #148]
 4205 0082 1B6F     		ldr	r3, [r3, #112]
ARM GAS  /var/folders/kh/x4vltyy52lbg7p4pcyglc5080000gp/T//ccuucmVt.s 			page 95


 4206 0084 002B     		cmp	r3, #0
 4207 0086 00F0E480 		beq	.L160
 4208              	.L175:
 835:STM32F10x_Speex_Lib/STM32/libspeex/nb_celp.c ****       {
 836:STM32F10x_Speex_Lib/STM32/libspeex/nb_celp.c **** 
 837:STM32F10x_Speex_Lib/STM32/libspeex/nb_celp.c ****       /* Search for next narrowband block (handle requests, skip wideband blocks) */
 838:STM32F10x_Speex_Lib/STM32/libspeex/nb_celp.c ****       do {
 839:STM32F10x_Speex_Lib/STM32/libspeex/nb_celp.c ****          if (speex_bits_remaining(bits)<5)
 4209              		.loc 3 839 0
 4210 008a B868     		ldr	r0, [r7, #8]
 4211 008c FFF7FEFF 		bl	speex_bits_remaining
 4212 0090 0346     		mov	r3, r0
 4213 0092 042B     		cmp	r3, #4
 4214 0094 03DC     		bgt	.L163
 840:STM32F10x_Speex_Lib/STM32/libspeex/nb_celp.c ****             return -1;
 4215              		.loc 3 840 0
 4216 0096 4FF0FF33 		mov	r3, #-1
 4217 009a 01F000BA 		b	.L254
 4218              	.L163:
 841:STM32F10x_Speex_Lib/STM32/libspeex/nb_celp.c ****          wideband = speex_bits_unpack_unsigned(bits, 1);
 4219              		.loc 3 841 0
 4220 009e 0121     		movs	r1, #1
 4221 00a0 B868     		ldr	r0, [r7, #8]
 4222 00a2 FFF7FEFF 		bl	speex_bits_unpack_unsigned
 4223 00a6 0346     		mov	r3, r0
 4224 00a8 C7F89030 		str	r3, [r7, #144]
 842:STM32F10x_Speex_Lib/STM32/libspeex/nb_celp.c ****          if (wideband) /* Skip wideband block (for compatibility) */
 4225              		.loc 3 842 0
 4226 00ac D7F89030 		ldr	r3, [r7, #144]
 4227 00b0 002B     		cmp	r3, #0
 4228 00b2 74D0     		beq	.L164
 4229              	.LBB12:
 843:STM32F10x_Speex_Lib/STM32/libspeex/nb_celp.c ****          {
 844:STM32F10x_Speex_Lib/STM32/libspeex/nb_celp.c ****             int submode;
 845:STM32F10x_Speex_Lib/STM32/libspeex/nb_celp.c ****             int advance;
 846:STM32F10x_Speex_Lib/STM32/libspeex/nb_celp.c ****             advance = submode = speex_bits_unpack_unsigned(bits, SB_SUBMODE_BITS);
 4230              		.loc 3 846 0
 4231 00b4 0321     		movs	r1, #3
 4232 00b6 B868     		ldr	r0, [r7, #8]
 4233 00b8 FFF7FEFF 		bl	speex_bits_unpack_unsigned
 4234 00bc 0346     		mov	r3, r0
 4235 00be C7F88C30 		str	r3, [r7, #140]
 4236 00c2 D7F88C30 		ldr	r3, [r7, #140]
 4237 00c6 C7F88830 		str	r3, [r7, #136]
 847:STM32F10x_Speex_Lib/STM32/libspeex/nb_celp.c ****             /*speex_mode_query(&speex_wb_mode, SPEEX_SUBMODE_BITS_PER_FRAME, &advance);*/
 848:STM32F10x_Speex_Lib/STM32/libspeex/nb_celp.c ****             advance = wb_skip_table[submode];
 4238              		.loc 3 848 0
 4239 00ca CD4A     		ldr	r2, .L255
 4240 00cc D7F88C30 		ldr	r3, [r7, #140]
 4241 00d0 52F82330 		ldr	r3, [r2, r3, lsl #2]
 4242 00d4 C7F88830 		str	r3, [r7, #136]
 849:STM32F10x_Speex_Lib/STM32/libspeex/nb_celp.c ****             if (advance < 0)
 4243              		.loc 3 849 0
 4244 00d8 D7F88830 		ldr	r3, [r7, #136]
 4245 00dc 002B     		cmp	r3, #0
 4246 00de 06DA     		bge	.L165
 850:STM32F10x_Speex_Lib/STM32/libspeex/nb_celp.c ****             {
ARM GAS  /var/folders/kh/x4vltyy52lbg7p4pcyglc5080000gp/T//ccuucmVt.s 			page 96


 851:STM32F10x_Speex_Lib/STM32/libspeex/nb_celp.c ****                speex_notify("Invalid mode encountered. The stream is corrupted.");
 4247              		.loc 3 851 0
 4248 00e0 C848     		ldr	r0, .L255+4
 4249 00e2 FFF7FEFF 		bl	speex_notify
 852:STM32F10x_Speex_Lib/STM32/libspeex/nb_celp.c ****                return -2;
 4250              		.loc 3 852 0
 4251 00e6 6FF00103 		mvn	r3, #1
 4252 00ea 01F0D8B9 		b	.L254
 4253              	.L165:
 853:STM32F10x_Speex_Lib/STM32/libspeex/nb_celp.c ****             } 
 854:STM32F10x_Speex_Lib/STM32/libspeex/nb_celp.c ****             advance -= (SB_SUBMODE_BITS+1);
 4254              		.loc 3 854 0
 4255 00ee D7F88830 		ldr	r3, [r7, #136]
 4256 00f2 043B     		subs	r3, r3, #4
 4257 00f4 C7F88830 		str	r3, [r7, #136]
 855:STM32F10x_Speex_Lib/STM32/libspeex/nb_celp.c ****             speex_bits_advance(bits, advance);
 4258              		.loc 3 855 0
 4259 00f8 D7F88810 		ldr	r1, [r7, #136]
 4260 00fc B868     		ldr	r0, [r7, #8]
 4261 00fe FFF7FEFF 		bl	speex_bits_advance
 856:STM32F10x_Speex_Lib/STM32/libspeex/nb_celp.c ****             
 857:STM32F10x_Speex_Lib/STM32/libspeex/nb_celp.c ****             if (speex_bits_remaining(bits)<5)
 4262              		.loc 3 857 0
 4263 0102 B868     		ldr	r0, [r7, #8]
 4264 0104 FFF7FEFF 		bl	speex_bits_remaining
 4265 0108 0346     		mov	r3, r0
 4266 010a 042B     		cmp	r3, #4
 4267 010c 03DC     		bgt	.L166
 858:STM32F10x_Speex_Lib/STM32/libspeex/nb_celp.c ****                return -1;
 4268              		.loc 3 858 0
 4269 010e 4FF0FF33 		mov	r3, #-1
 4270 0112 01F0C4B9 		b	.L254
 4271              	.L166:
 859:STM32F10x_Speex_Lib/STM32/libspeex/nb_celp.c ****             wideband = speex_bits_unpack_unsigned(bits, 1);
 4272              		.loc 3 859 0
 4273 0116 0121     		movs	r1, #1
 4274 0118 B868     		ldr	r0, [r7, #8]
 4275 011a FFF7FEFF 		bl	speex_bits_unpack_unsigned
 4276 011e 0346     		mov	r3, r0
 4277 0120 C7F89030 		str	r3, [r7, #144]
 860:STM32F10x_Speex_Lib/STM32/libspeex/nb_celp.c ****             if (wideband)
 4278              		.loc 3 860 0
 4279 0124 D7F89030 		ldr	r3, [r7, #144]
 4280 0128 002B     		cmp	r3, #0
 4281 012a 38D0     		beq	.L164
 861:STM32F10x_Speex_Lib/STM32/libspeex/nb_celp.c ****             {
 862:STM32F10x_Speex_Lib/STM32/libspeex/nb_celp.c ****                advance = submode = speex_bits_unpack_unsigned(bits, SB_SUBMODE_BITS);
 4282              		.loc 3 862 0
 4283 012c 0321     		movs	r1, #3
 4284 012e B868     		ldr	r0, [r7, #8]
 4285 0130 FFF7FEFF 		bl	speex_bits_unpack_unsigned
 4286 0134 0346     		mov	r3, r0
 4287 0136 C7F88C30 		str	r3, [r7, #140]
 4288 013a D7F88C30 		ldr	r3, [r7, #140]
 4289 013e C7F88830 		str	r3, [r7, #136]
 863:STM32F10x_Speex_Lib/STM32/libspeex/nb_celp.c ****                /*speex_mode_query(&speex_wb_mode, SPEEX_SUBMODE_BITS_PER_FRAME, &advance);*/
 864:STM32F10x_Speex_Lib/STM32/libspeex/nb_celp.c ****                advance = wb_skip_table[submode];
ARM GAS  /var/folders/kh/x4vltyy52lbg7p4pcyglc5080000gp/T//ccuucmVt.s 			page 97


 4290              		.loc 3 864 0
 4291 0142 AF4A     		ldr	r2, .L255
 4292 0144 D7F88C30 		ldr	r3, [r7, #140]
 4293 0148 52F82330 		ldr	r3, [r2, r3, lsl #2]
 4294 014c C7F88830 		str	r3, [r7, #136]
 865:STM32F10x_Speex_Lib/STM32/libspeex/nb_celp.c ****                if (advance < 0)
 4295              		.loc 3 865 0
 4296 0150 D7F88830 		ldr	r3, [r7, #136]
 4297 0154 002B     		cmp	r3, #0
 4298 0156 06DA     		bge	.L167
 866:STM32F10x_Speex_Lib/STM32/libspeex/nb_celp.c ****                {
 867:STM32F10x_Speex_Lib/STM32/libspeex/nb_celp.c ****                   speex_notify("Invalid mode encountered. The stream is corrupted.");
 4299              		.loc 3 867 0
 4300 0158 AA48     		ldr	r0, .L255+4
 4301 015a FFF7FEFF 		bl	speex_notify
 868:STM32F10x_Speex_Lib/STM32/libspeex/nb_celp.c ****                   return -2;
 4302              		.loc 3 868 0
 4303 015e 6FF00103 		mvn	r3, #1
 4304 0162 01F09CB9 		b	.L254
 4305              	.L167:
 869:STM32F10x_Speex_Lib/STM32/libspeex/nb_celp.c ****                } 
 870:STM32F10x_Speex_Lib/STM32/libspeex/nb_celp.c ****                advance -= (SB_SUBMODE_BITS+1);
 4306              		.loc 3 870 0
 4307 0166 D7F88830 		ldr	r3, [r7, #136]
 4308 016a 043B     		subs	r3, r3, #4
 4309 016c C7F88830 		str	r3, [r7, #136]
 871:STM32F10x_Speex_Lib/STM32/libspeex/nb_celp.c ****                speex_bits_advance(bits, advance);
 4310              		.loc 3 871 0
 4311 0170 D7F88810 		ldr	r1, [r7, #136]
 4312 0174 B868     		ldr	r0, [r7, #8]
 4313 0176 FFF7FEFF 		bl	speex_bits_advance
 872:STM32F10x_Speex_Lib/STM32/libspeex/nb_celp.c ****                wideband = speex_bits_unpack_unsigned(bits, 1);
 4314              		.loc 3 872 0
 4315 017a 0121     		movs	r1, #1
 4316 017c B868     		ldr	r0, [r7, #8]
 4317 017e FFF7FEFF 		bl	speex_bits_unpack_unsigned
 4318 0182 0346     		mov	r3, r0
 4319 0184 C7F89030 		str	r3, [r7, #144]
 873:STM32F10x_Speex_Lib/STM32/libspeex/nb_celp.c ****                if (wideband)
 4320              		.loc 3 873 0
 4321 0188 D7F89030 		ldr	r3, [r7, #144]
 4322 018c 002B     		cmp	r3, #0
 4323 018e 06D0     		beq	.L164
 874:STM32F10x_Speex_Lib/STM32/libspeex/nb_celp.c ****                {
 875:STM32F10x_Speex_Lib/STM32/libspeex/nb_celp.c ****                   speex_notify("More than two wideband layers found. The stream is corrupted.");
 4324              		.loc 3 875 0
 4325 0190 9D48     		ldr	r0, .L255+8
 4326 0192 FFF7FEFF 		bl	speex_notify
 876:STM32F10x_Speex_Lib/STM32/libspeex/nb_celp.c ****                   return -2;
 4327              		.loc 3 876 0
 4328 0196 6FF00103 		mvn	r3, #1
 4329 019a 01F080B9 		b	.L254
 4330              	.L164:
 4331              	.LBE12:
 877:STM32F10x_Speex_Lib/STM32/libspeex/nb_celp.c ****                }
 878:STM32F10x_Speex_Lib/STM32/libspeex/nb_celp.c **** 
 879:STM32F10x_Speex_Lib/STM32/libspeex/nb_celp.c ****             }
ARM GAS  /var/folders/kh/x4vltyy52lbg7p4pcyglc5080000gp/T//ccuucmVt.s 			page 98


 880:STM32F10x_Speex_Lib/STM32/libspeex/nb_celp.c ****          }
 881:STM32F10x_Speex_Lib/STM32/libspeex/nb_celp.c ****          if (speex_bits_remaining(bits)<4)
 4332              		.loc 3 881 0
 4333 019e B868     		ldr	r0, [r7, #8]
 4334 01a0 FFF7FEFF 		bl	speex_bits_remaining
 4335 01a4 0346     		mov	r3, r0
 4336 01a6 032B     		cmp	r3, #3
 4337 01a8 03DC     		bgt	.L168
 882:STM32F10x_Speex_Lib/STM32/libspeex/nb_celp.c ****             return -1;
 4338              		.loc 3 882 0
 4339 01aa 4FF0FF33 		mov	r3, #-1
 4340 01ae 01F076B9 		b	.L254
 4341              	.L168:
 883:STM32F10x_Speex_Lib/STM32/libspeex/nb_celp.c ****          /* FIXME: Check for overflow */
 884:STM32F10x_Speex_Lib/STM32/libspeex/nb_celp.c ****          m = speex_bits_unpack_unsigned(bits, 4);
 4342              		.loc 3 884 0
 4343 01b2 0421     		movs	r1, #4
 4344 01b4 B868     		ldr	r0, [r7, #8]
 4345 01b6 FFF7FEFF 		bl	speex_bits_unpack_unsigned
 4346 01ba 0346     		mov	r3, r0
 4347 01bc C7F88430 		str	r3, [r7, #132]
 885:STM32F10x_Speex_Lib/STM32/libspeex/nb_celp.c ****          if (m==15) /* We found a terminator */
 4348              		.loc 3 885 0
 4349 01c0 D7F88430 		ldr	r3, [r7, #132]
 4350 01c4 0F2B     		cmp	r3, #15
 4351 01c6 03D1     		bne	.L169
 886:STM32F10x_Speex_Lib/STM32/libspeex/nb_celp.c ****          {
 887:STM32F10x_Speex_Lib/STM32/libspeex/nb_celp.c ****             return -1;
 4352              		.loc 3 887 0
 4353 01c8 4FF0FF33 		mov	r3, #-1
 4354 01cc 01F067B9 		b	.L254
 4355              	.L169:
 888:STM32F10x_Speex_Lib/STM32/libspeex/nb_celp.c ****          } else if (m==14) /* Speex in-band request */
 4356              		.loc 3 888 0
 4357 01d0 D7F88430 		ldr	r3, [r7, #132]
 4358 01d4 0E2B     		cmp	r3, #14
 4359 01d6 11D1     		bne	.L170
 4360              	.LBB13:
 889:STM32F10x_Speex_Lib/STM32/libspeex/nb_celp.c ****          {
 890:STM32F10x_Speex_Lib/STM32/libspeex/nb_celp.c ****             int ret = speex_inband_handler(bits, st->speex_callbacks, state);
 4361              		.loc 3 890 0
 4362 01d8 D7F89430 		ldr	r3, [r7, #148]
 4363 01dc 8033     		adds	r3, r3, #128
 4364 01de FA68     		ldr	r2, [r7, #12]
 4365 01e0 1946     		mov	r1, r3
 4366 01e2 B868     		ldr	r0, [r7, #8]
 4367 01e4 FFF7FEFF 		bl	speex_inband_handler
 4368 01e8 C7F88000 		str	r0, [r7, #128]
 891:STM32F10x_Speex_Lib/STM32/libspeex/nb_celp.c ****             if (ret)
 4369              		.loc 3 891 0
 4370 01ec D7F88030 		ldr	r3, [r7, #128]
 4371 01f0 002B     		cmp	r3, #0
 4372 01f2 24D0     		beq	.L172
 892:STM32F10x_Speex_Lib/STM32/libspeex/nb_celp.c ****                return ret;
 4373              		.loc 3 892 0
 4374 01f4 D7F88030 		ldr	r3, [r7, #128]
 4375 01f8 01F051B9 		b	.L254
ARM GAS  /var/folders/kh/x4vltyy52lbg7p4pcyglc5080000gp/T//ccuucmVt.s 			page 99


 4376              	.L170:
 4377              	.LBE13:
 893:STM32F10x_Speex_Lib/STM32/libspeex/nb_celp.c ****          } else if (m==13) /* User in-band request */
 4378              		.loc 3 893 0
 4379 01fc D7F88430 		ldr	r3, [r7, #132]
 4380 0200 0D2B     		cmp	r3, #13
 4381 0202 11D1     		bne	.L173
 4382              	.LBB14:
 894:STM32F10x_Speex_Lib/STM32/libspeex/nb_celp.c ****          {
 895:STM32F10x_Speex_Lib/STM32/libspeex/nb_celp.c ****             int ret = st->user_callback.func(bits, state, st->user_callback.data);
 4383              		.loc 3 895 0
 4384 0204 D7F89430 		ldr	r3, [r7, #148]
 4385 0208 D3F8C431 		ldr	r3, [r3, #452]
 4386 020c D7F89420 		ldr	r2, [r7, #148]
 4387 0210 D2F8C821 		ldr	r2, [r2, #456]
 4388 0214 F968     		ldr	r1, [r7, #12]
 4389 0216 B868     		ldr	r0, [r7, #8]
 4390 0218 9847     		blx	r3
 4391 021a F867     		str	r0, [r7, #124]
 896:STM32F10x_Speex_Lib/STM32/libspeex/nb_celp.c ****             if (ret)
 4392              		.loc 3 896 0
 4393 021c FB6F     		ldr	r3, [r7, #124]
 4394 021e 002B     		cmp	r3, #0
 4395 0220 0DD0     		beq	.L172
 897:STM32F10x_Speex_Lib/STM32/libspeex/nb_celp.c ****                return ret;
 4396              		.loc 3 897 0
 4397 0222 FB6F     		ldr	r3, [r7, #124]
 4398 0224 01F03BB9 		b	.L254
 4399              	.L173:
 4400              	.LBE14:
 898:STM32F10x_Speex_Lib/STM32/libspeex/nb_celp.c ****          } else if (m>8) /* Invalid mode */
 4401              		.loc 3 898 0
 4402 0228 D7F88430 		ldr	r3, [r7, #132]
 4403 022c 082B     		cmp	r3, #8
 4404 022e 06DD     		ble	.L172
 899:STM32F10x_Speex_Lib/STM32/libspeex/nb_celp.c ****          {
 900:STM32F10x_Speex_Lib/STM32/libspeex/nb_celp.c ****             speex_notify("Invalid mode encountered. The stream is corrupted.");
 4405              		.loc 3 900 0
 4406 0230 7448     		ldr	r0, .L255+4
 4407 0232 FFF7FEFF 		bl	speex_notify
 901:STM32F10x_Speex_Lib/STM32/libspeex/nb_celp.c ****             return -2;
 4408              		.loc 3 901 0
 4409 0236 6FF00103 		mvn	r3, #1
 4410 023a 01F030B9 		b	.L254
 4411              	.L172:
 902:STM32F10x_Speex_Lib/STM32/libspeex/nb_celp.c ****          }
 903:STM32F10x_Speex_Lib/STM32/libspeex/nb_celp.c ****       
 904:STM32F10x_Speex_Lib/STM32/libspeex/nb_celp.c ****       } while (m>8);
 4412              		.loc 3 904 0
 4413 023e D7F88430 		ldr	r3, [r7, #132]
 4414 0242 082B     		cmp	r3, #8
 4415 0244 3FF721AF 		bgt	.L175
 905:STM32F10x_Speex_Lib/STM32/libspeex/nb_celp.c **** 
 906:STM32F10x_Speex_Lib/STM32/libspeex/nb_celp.c ****       /* Get the sub-mode that was used */
 907:STM32F10x_Speex_Lib/STM32/libspeex/nb_celp.c ****       st->submodeID = m;
 4416              		.loc 3 907 0
 4417 0248 D7F89430 		ldr	r3, [r7, #148]
ARM GAS  /var/folders/kh/x4vltyy52lbg7p4pcyglc5080000gp/T//ccuucmVt.s 			page 100


 4418 024c D7F88420 		ldr	r2, [r7, #132]
 4419 0250 9A67     		str	r2, [r3, #120]
 4420              	.L160:
 908:STM32F10x_Speex_Lib/STM32/libspeex/nb_celp.c ****       }
 909:STM32F10x_Speex_Lib/STM32/libspeex/nb_celp.c **** 
 910:STM32F10x_Speex_Lib/STM32/libspeex/nb_celp.c ****    }
 911:STM32F10x_Speex_Lib/STM32/libspeex/nb_celp.c **** 
 912:STM32F10x_Speex_Lib/STM32/libspeex/nb_celp.c ****    /* Shift all buffers by one frame */
 913:STM32F10x_Speex_Lib/STM32/libspeex/nb_celp.c ****    SPEEX_MOVE(st->excBuf, st->excBuf+st->frameSize, 2*st->max_pitch + st->subframeSize + 12);
 4421              		.loc 3 913 0
 4422 0252 D7F89430 		ldr	r3, [r7, #148]
 4423 0256 186B     		ldr	r0, [r3, #48]
 4424 0258 D7F89430 		ldr	r3, [r7, #148]
 4425 025c 1A6B     		ldr	r2, [r3, #48]
 4426 025e D7F89430 		ldr	r3, [r7, #148]
 4427 0262 DB68     		ldr	r3, [r3, #12]
 4428 0264 5B00     		lsls	r3, r3, #1
 4429 0266 D118     		adds	r1, r2, r3
 4430 0268 D7F89430 		ldr	r3, [r7, #148]
 4431 026c 1B6A     		ldr	r3, [r3, #32]
 4432 026e 5A00     		lsls	r2, r3, #1
 4433 0270 D7F89430 		ldr	r3, [r7, #148]
 4434 0274 1B69     		ldr	r3, [r3, #16]
 4435 0276 1344     		add	r3, r3, r2
 4436 0278 0C33     		adds	r3, r3, #12
 4437 027a 5B00     		lsls	r3, r3, #1
 4438 027c 1A46     		mov	r2, r3
 4439 027e FFF7FEFF 		bl	memmove
 914:STM32F10x_Speex_Lib/STM32/libspeex/nb_celp.c **** 
 915:STM32F10x_Speex_Lib/STM32/libspeex/nb_celp.c ****    /* If null mode (no transmission), just set a couple things to zero*/
 916:STM32F10x_Speex_Lib/STM32/libspeex/nb_celp.c ****    if (st->submodes[st->submodeID] == NULL)
 4440              		.loc 3 916 0
 4441 0282 D7F89430 		ldr	r3, [r7, #148]
 4442 0286 5A6F     		ldr	r2, [r3, #116]
 4443 0288 D7F89430 		ldr	r3, [r7, #148]
 4444 028c 9B6F     		ldr	r3, [r3, #120]
 4445 028e 9B00     		lsls	r3, r3, #2
 4446 0290 1344     		add	r3, r3, r2
 4447 0292 1B68     		ldr	r3, [r3]
 4448 0294 002B     		cmp	r3, #0
 4449 0296 7BD1     		bne	.L176
 4450              	.LBB15:
 917:STM32F10x_Speex_Lib/STM32/libspeex/nb_celp.c ****    {
 918:STM32F10x_Speex_Lib/STM32/libspeex/nb_celp.c ****       VARDECL(spx_coef_t *lpc);
 919:STM32F10x_Speex_Lib/STM32/libspeex/nb_celp.c ****       ALLOC(lpc, st->lpcSize, spx_coef_t);
 4451              		.loc 3 919 0
 4452 0298 D7F8BC30 		ldr	r3, [r7, #188]
 4453 029c 5B42     		negs	r3, r3
 4454 029e 03F00103 		and	r3, r3, #1
 4455 02a2 D7F8BC20 		ldr	r2, [r7, #188]
 4456 02a6 1344     		add	r3, r3, r2
 4457 02a8 C7F8BC30 		str	r3, [r7, #188]
 4458 02ac D7F89430 		ldr	r3, [r7, #148]
 4459 02b0 9B69     		ldr	r3, [r3, #24]
 4460 02b2 5B00     		lsls	r3, r3, #1
 4461 02b4 D7F8BC20 		ldr	r2, [r7, #188]
 4462 02b8 1344     		add	r3, r3, r2
ARM GAS  /var/folders/kh/x4vltyy52lbg7p4pcyglc5080000gp/T//ccuucmVt.s 			page 101


 4463 02ba C7F8BC30 		str	r3, [r7, #188]
 4464 02be D7F89430 		ldr	r3, [r7, #148]
 4465 02c2 9B69     		ldr	r3, [r3, #24]
 4466 02c4 5B00     		lsls	r3, r3, #1
 4467 02c6 5B42     		negs	r3, r3
 4468 02c8 D7F8BC20 		ldr	r2, [r7, #188]
 4469 02cc 1344     		add	r3, r3, r2
 4470 02ce BB67     		str	r3, [r7, #120]
 920:STM32F10x_Speex_Lib/STM32/libspeex/nb_celp.c ****       bw_lpc(QCONST16(0.93f,15), st->interp_qlpc, lpc, st->lpcSize);
 4471              		.loc 3 920 0
 4472 02d0 D7F89430 		ldr	r3, [r7, #148]
 4473 02d4 D96B     		ldr	r1, [r3, #60]
 4474 02d6 D7F89430 		ldr	r3, [r7, #148]
 4475 02da 9B69     		ldr	r3, [r3, #24]
 4476 02dc BA6F     		ldr	r2, [r7, #120]
 4477 02de 47F20A70 		movw	r0, #30474
 4478 02e2 FFF7FEFF 		bl	bw_lpc
 4479              	.LBB16:
 921:STM32F10x_Speex_Lib/STM32/libspeex/nb_celp.c ****       {
 922:STM32F10x_Speex_Lib/STM32/libspeex/nb_celp.c ****          spx_word16_t innov_gain=0;
 4480              		.loc 3 922 0
 4481 02e6 0023     		movs	r3, #0
 4482 02e8 A7F87630 		strh	r3, [r7, #118]	@ movhi
 923:STM32F10x_Speex_Lib/STM32/libspeex/nb_celp.c ****          /* FIXME: This was innov, not exc */
 924:STM32F10x_Speex_Lib/STM32/libspeex/nb_celp.c ****          innov_gain = compute_rms16(st->exc, st->frameSize);
 4483              		.loc 3 924 0
 4484 02ec D7F89430 		ldr	r3, [r7, #148]
 4485 02f0 5A6B     		ldr	r2, [r3, #52]
 4486 02f2 D7F89430 		ldr	r3, [r7, #148]
 4487 02f6 DB68     		ldr	r3, [r3, #12]
 4488 02f8 1946     		mov	r1, r3
 4489 02fa 1046     		mov	r0, r2
 4490 02fc FFF7FEFF 		bl	compute_rms16
 4491 0300 0346     		mov	r3, r0
 4492 0302 A7F87630 		strh	r3, [r7, #118]	@ movhi
 925:STM32F10x_Speex_Lib/STM32/libspeex/nb_celp.c ****          for (i=0;i<st->frameSize;i++)
 4493              		.loc 3 925 0
 4494 0306 0023     		movs	r3, #0
 4495 0308 C7F8D430 		str	r3, [r7, #212]
 4496 030c 17E0     		b	.L177
 4497              	.L178:
 926:STM32F10x_Speex_Lib/STM32/libspeex/nb_celp.c ****             st->exc[i]=speex_rand(innov_gain, &st->seed);
 4498              		.loc 3 926 0 discriminator 3
 4499 030e D7F89430 		ldr	r3, [r7, #148]
 4500 0312 5A6B     		ldr	r2, [r3, #52]
 4501 0314 D7F8D430 		ldr	r3, [r7, #212]
 4502 0318 5B00     		lsls	r3, r3, #1
 4503 031a D418     		adds	r4, r2, r3
 4504 031c D7F89430 		ldr	r3, [r7, #148]
 4505 0320 03F16C02 		add	r2, r3, #108
 4506 0324 B7F97630 		ldrsh	r3, [r7, #118]
 4507 0328 1146     		mov	r1, r2
 4508 032a 1846     		mov	r0, r3
 4509 032c FFF7FEFF 		bl	speex_rand
 4510 0330 0346     		mov	r3, r0
 4511 0332 2380     		strh	r3, [r4]	@ movhi
 925:STM32F10x_Speex_Lib/STM32/libspeex/nb_celp.c ****          for (i=0;i<st->frameSize;i++)
ARM GAS  /var/folders/kh/x4vltyy52lbg7p4pcyglc5080000gp/T//ccuucmVt.s 			page 102


 4512              		.loc 3 925 0 discriminator 3
 4513 0334 D7F8D430 		ldr	r3, [r7, #212]
 4514 0338 0133     		adds	r3, r3, #1
 4515 033a C7F8D430 		str	r3, [r7, #212]
 4516              	.L177:
 925:STM32F10x_Speex_Lib/STM32/libspeex/nb_celp.c ****          for (i=0;i<st->frameSize;i++)
 4517              		.loc 3 925 0 is_stmt 0 discriminator 1
 4518 033e D7F89430 		ldr	r3, [r7, #148]
 4519 0342 DA68     		ldr	r2, [r3, #12]
 4520 0344 D7F8D430 		ldr	r3, [r7, #212]
 4521 0348 9A42     		cmp	r2, r3
 4522 034a E0DC     		bgt	.L178
 4523              	.LBE16:
 927:STM32F10x_Speex_Lib/STM32/libspeex/nb_celp.c ****       }
 928:STM32F10x_Speex_Lib/STM32/libspeex/nb_celp.c **** 
 929:STM32F10x_Speex_Lib/STM32/libspeex/nb_celp.c **** 
 930:STM32F10x_Speex_Lib/STM32/libspeex/nb_celp.c ****       st->first=1;
 4524              		.loc 3 930 0 is_stmt 1
 4525 034c D7F89430 		ldr	r3, [r7, #148]
 4526 0350 0122     		movs	r2, #1
 4527 0352 5A60     		str	r2, [r3, #4]
 931:STM32F10x_Speex_Lib/STM32/libspeex/nb_celp.c **** 
 932:STM32F10x_Speex_Lib/STM32/libspeex/nb_celp.c ****       /* Final signal synthesis from excitation */
 933:STM32F10x_Speex_Lib/STM32/libspeex/nb_celp.c ****       iir_mem16(st->exc, lpc, out, st->frameSize, st->lpcSize, st->mem_sp, stack);
 4528              		.loc 3 933 0
 4529 0354 D7F89430 		ldr	r3, [r7, #148]
 4530 0358 586B     		ldr	r0, [r3, #52]
 4531 035a D7F89430 		ldr	r3, [r7, #148]
 4532 035e DC68     		ldr	r4, [r3, #12]
 4533 0360 D7F89430 		ldr	r3, [r7, #148]
 4534 0364 9B69     		ldr	r3, [r3, #24]
 4535 0366 D7F89420 		ldr	r2, [r7, #148]
 4536 036a 126C     		ldr	r2, [r2, #64]
 4537 036c D7F8BC10 		ldr	r1, [r7, #188]
 4538 0370 0291     		str	r1, [sp, #8]
 4539 0372 0192     		str	r2, [sp, #4]
 4540 0374 0093     		str	r3, [sp]
 4541 0376 2346     		mov	r3, r4
 4542 0378 D7F89820 		ldr	r2, [r7, #152]
 4543 037c B96F     		ldr	r1, [r7, #120]
 4544 037e FFF7FEFF 		bl	iir_mem16
 934:STM32F10x_Speex_Lib/STM32/libspeex/nb_celp.c **** 
 935:STM32F10x_Speex_Lib/STM32/libspeex/nb_celp.c ****       st->count_lost=0;
 4545              		.loc 3 935 0
 4546 0382 D7F89430 		ldr	r3, [r7, #148]
 4547 0386 0022     		movs	r2, #0
 4548 0388 9A60     		str	r2, [r3, #8]
 936:STM32F10x_Speex_Lib/STM32/libspeex/nb_celp.c ****       return 0;
 4549              		.loc 3 936 0
 4550 038a 0023     		movs	r3, #0
 4551 038c 01F087B8 		b	.L254
 4552              	.L176:
 4553              	.LBE15:
 937:STM32F10x_Speex_Lib/STM32/libspeex/nb_celp.c ****    }
 938:STM32F10x_Speex_Lib/STM32/libspeex/nb_celp.c **** 
 939:STM32F10x_Speex_Lib/STM32/libspeex/nb_celp.c ****    ALLOC(qlsp, st->lpcSize, spx_lsp_t);
 4554              		.loc 3 939 0
ARM GAS  /var/folders/kh/x4vltyy52lbg7p4pcyglc5080000gp/T//ccuucmVt.s 			page 103


 4555 0390 D7F8BC30 		ldr	r3, [r7, #188]
 4556 0394 5B42     		negs	r3, r3
 4557 0396 03F00103 		and	r3, r3, #1
 4558 039a D7F8BC20 		ldr	r2, [r7, #188]
 4559 039e 1344     		add	r3, r3, r2
 4560 03a0 C7F8BC30 		str	r3, [r7, #188]
 4561 03a4 D7F89430 		ldr	r3, [r7, #148]
 4562 03a8 9B69     		ldr	r3, [r3, #24]
 4563 03aa 5B00     		lsls	r3, r3, #1
 4564 03ac D7F8BC20 		ldr	r2, [r7, #188]
 4565 03b0 1344     		add	r3, r3, r2
 4566 03b2 C7F8BC30 		str	r3, [r7, #188]
 4567 03b6 D7F89430 		ldr	r3, [r7, #148]
 4568 03ba 9B69     		ldr	r3, [r3, #24]
 4569 03bc 5B00     		lsls	r3, r3, #1
 4570 03be 5B42     		negs	r3, r3
 4571 03c0 D7F8BC20 		ldr	r2, [r7, #188]
 4572 03c4 1344     		add	r3, r3, r2
 4573 03c6 3B67     		str	r3, [r7, #112]
 940:STM32F10x_Speex_Lib/STM32/libspeex/nb_celp.c **** 
 941:STM32F10x_Speex_Lib/STM32/libspeex/nb_celp.c ****    /* Unquantize LSPs */
 942:STM32F10x_Speex_Lib/STM32/libspeex/nb_celp.c ****    SUBMODE(lsp_unquant)(qlsp, st->lpcSize, bits);
 4574              		.loc 3 942 0
 4575 03c8 D7F89430 		ldr	r3, [r7, #148]
 4576 03cc 5A6F     		ldr	r2, [r3, #116]
 4577 03ce D7F89430 		ldr	r3, [r7, #148]
 4578 03d2 9B6F     		ldr	r3, [r3, #120]
 4579 03d4 9B00     		lsls	r3, r3, #2
 4580 03d6 1344     		add	r3, r3, r2
 4581 03d8 1B68     		ldr	r3, [r3]
 4582 03da 5B69     		ldr	r3, [r3, #20]
 4583 03dc D7F89420 		ldr	r2, [r7, #148]
 4584 03e0 9169     		ldr	r1, [r2, #24]
 4585 03e2 BA68     		ldr	r2, [r7, #8]
 4586 03e4 386F     		ldr	r0, [r7, #112]
 4587 03e6 9847     		blx	r3
 943:STM32F10x_Speex_Lib/STM32/libspeex/nb_celp.c **** 
 944:STM32F10x_Speex_Lib/STM32/libspeex/nb_celp.c ****    /*Damp memory if a frame was lost and the LSP changed too much*/
 945:STM32F10x_Speex_Lib/STM32/libspeex/nb_celp.c ****    if (st->count_lost)
 4588              		.loc 3 945 0
 4589 03e8 D7F89430 		ldr	r3, [r7, #148]
 4590 03ec 9B68     		ldr	r3, [r3, #8]
 4591 03ee 002B     		cmp	r3, #0
 4592 03f0 71D0     		beq	.L179
 4593              	.LBB17:
 946:STM32F10x_Speex_Lib/STM32/libspeex/nb_celp.c ****    {
 947:STM32F10x_Speex_Lib/STM32/libspeex/nb_celp.c ****       spx_word16_t fact;
 948:STM32F10x_Speex_Lib/STM32/libspeex/nb_celp.c ****       spx_word32_t lsp_dist=0;
 4594              		.loc 3 948 0
 4595 03f2 0023     		movs	r3, #0
 4596 03f4 C7F8B430 		str	r3, [r7, #180]
 949:STM32F10x_Speex_Lib/STM32/libspeex/nb_celp.c ****       for (i=0;i<st->lpcSize;i++)
 4597              		.loc 3 949 0
 4598 03f8 0023     		movs	r3, #0
 4599 03fa C7F8D430 		str	r3, [r7, #212]
 4600 03fe 24E0     		b	.L180
 4601              	.L256:
ARM GAS  /var/folders/kh/x4vltyy52lbg7p4pcyglc5080000gp/T//ccuucmVt.s 			page 104


 4602              		.align	2
 4603              	.L255:
 4604 0400 00000000 		.word	wb_skip_table
 4605 0404 00000000 		.word	.LC0
 4606 0408 34000000 		.word	.LC1
 4607              	.L181:
 950:STM32F10x_Speex_Lib/STM32/libspeex/nb_celp.c ****          lsp_dist = ADD32(lsp_dist, EXTEND32(ABS(st->old_qlsp[i] - qlsp[i])));
 4608              		.loc 3 950 0 discriminator 3
 4609 040c D7F89430 		ldr	r3, [r7, #148]
 4610 0410 9A6B     		ldr	r2, [r3, #56]
 4611 0412 D7F8D430 		ldr	r3, [r7, #212]
 4612 0416 5B00     		lsls	r3, r3, #1
 4613 0418 1344     		add	r3, r3, r2
 4614 041a B3F90030 		ldrsh	r3, [r3]
 4615 041e 1946     		mov	r1, r3
 4616 0420 D7F8D430 		ldr	r3, [r7, #212]
 4617 0424 5B00     		lsls	r3, r3, #1
 4618 0426 3A6F     		ldr	r2, [r7, #112]
 4619 0428 1344     		add	r3, r3, r2
 4620 042a B3F90030 		ldrsh	r3, [r3]
 4621 042e CB1A     		subs	r3, r1, r3
 4622 0430 002B     		cmp	r3, #0
 4623 0432 B8BF     		it	lt
 4624 0434 5B42     		rsblt	r3, r3, #0
 4625 0436 D7F8B420 		ldr	r2, [r7, #180]
 4626 043a 1344     		add	r3, r3, r2
 4627 043c C7F8B430 		str	r3, [r7, #180]
 949:STM32F10x_Speex_Lib/STM32/libspeex/nb_celp.c ****       for (i=0;i<st->lpcSize;i++)
 4628              		.loc 3 949 0 discriminator 3
 4629 0440 D7F8D430 		ldr	r3, [r7, #212]
 4630 0444 0133     		adds	r3, r3, #1
 4631 0446 C7F8D430 		str	r3, [r7, #212]
 4632              	.L180:
 949:STM32F10x_Speex_Lib/STM32/libspeex/nb_celp.c ****       for (i=0;i<st->lpcSize;i++)
 4633              		.loc 3 949 0 is_stmt 0 discriminator 1
 4634 044a D7F89430 		ldr	r3, [r7, #148]
 4635 044e 9A69     		ldr	r2, [r3, #24]
 4636 0450 D7F8D430 		ldr	r3, [r7, #212]
 4637 0454 9A42     		cmp	r2, r3
 4638 0456 D9DC     		bgt	.L181
 951:STM32F10x_Speex_Lib/STM32/libspeex/nb_celp.c **** #ifdef FIXED_POINT
 952:STM32F10x_Speex_Lib/STM32/libspeex/nb_celp.c ****       fact = SHR16(19661,SHR32(lsp_dist,LSP_SHIFT+2));      
 4639              		.loc 3 952 0 is_stmt 1
 4640 0458 D7F8B430 		ldr	r3, [r7, #180]
 4641 045c DB13     		asrs	r3, r3, #15
 4642 045e 44F6CD42 		movw	r2, #19661
 4643 0462 42FA03F3 		asr	r3, r2, r3
 4644 0466 A7F86E30 		strh	r3, [r7, #110]	@ movhi
 953:STM32F10x_Speex_Lib/STM32/libspeex/nb_celp.c **** #else
 954:STM32F10x_Speex_Lib/STM32/libspeex/nb_celp.c ****       fact = .6*exp(-.2*lsp_dist);
 955:STM32F10x_Speex_Lib/STM32/libspeex/nb_celp.c **** #endif
 956:STM32F10x_Speex_Lib/STM32/libspeex/nb_celp.c ****       for (i=0;i<st->lpcSize;i++)
 4645              		.loc 3 956 0
 4646 046a 0023     		movs	r3, #0
 4647 046c C7F8D430 		str	r3, [r7, #212]
 4648 0470 2AE0     		b	.L182
 4649              	.L183:
ARM GAS  /var/folders/kh/x4vltyy52lbg7p4pcyglc5080000gp/T//ccuucmVt.s 			page 105


 957:STM32F10x_Speex_Lib/STM32/libspeex/nb_celp.c ****          st->mem_sp[i] = MULT16_32_Q15(fact,st->mem_sp[i]);
 4650              		.loc 3 957 0 discriminator 3
 4651 0472 D7F89430 		ldr	r3, [r7, #148]
 4652 0476 1A6C     		ldr	r2, [r3, #64]
 4653 0478 D7F8D430 		ldr	r3, [r7, #212]
 4654 047c 9B00     		lsls	r3, r3, #2
 4655 047e 1344     		add	r3, r3, r2
 4656 0480 B7F96E20 		ldrsh	r2, [r7, #110]
 4657 0484 D7F89410 		ldr	r1, [r7, #148]
 4658 0488 086C     		ldr	r0, [r1, #64]
 4659 048a D7F8D410 		ldr	r1, [r7, #212]
 4660 048e 8900     		lsls	r1, r1, #2
 4661 0490 0144     		add	r1, r1, r0
 4662 0492 0968     		ldr	r1, [r1]
 4663 0494 C913     		asrs	r1, r1, #15
 4664 0496 09B2     		sxth	r1, r1
 4665 0498 01FB02F1 		mul	r1, r1, r2
 4666 049c B7F96E20 		ldrsh	r2, [r7, #110]
 4667 04a0 D7F89400 		ldr	r0, [r7, #148]
 4668 04a4 046C     		ldr	r4, [r0, #64]
 4669 04a6 D7F8D400 		ldr	r0, [r7, #212]
 4670 04aa 8000     		lsls	r0, r0, #2
 4671 04ac 2044     		add	r0, r0, r4
 4672 04ae 0068     		ldr	r0, [r0]
 4673 04b0 C0F30E00 		ubfx	r0, r0, #0, #15
 4674 04b4 00FB02F2 		mul	r2, r0, r2
 4675 04b8 D213     		asrs	r2, r2, #15
 4676 04ba 0A44     		add	r2, r2, r1
 4677 04bc 1A60     		str	r2, [r3]
 956:STM32F10x_Speex_Lib/STM32/libspeex/nb_celp.c ****          st->mem_sp[i] = MULT16_32_Q15(fact,st->mem_sp[i]);
 4678              		.loc 3 956 0 discriminator 3
 4679 04be D7F8D430 		ldr	r3, [r7, #212]
 4680 04c2 0133     		adds	r3, r3, #1
 4681 04c4 C7F8D430 		str	r3, [r7, #212]
 4682              	.L182:
 956:STM32F10x_Speex_Lib/STM32/libspeex/nb_celp.c ****          st->mem_sp[i] = MULT16_32_Q15(fact,st->mem_sp[i]);
 4683              		.loc 3 956 0 is_stmt 0 discriminator 1
 4684 04c8 D7F89430 		ldr	r3, [r7, #148]
 4685 04cc 9A69     		ldr	r2, [r3, #24]
 4686 04ce D7F8D430 		ldr	r3, [r7, #212]
 4687 04d2 9A42     		cmp	r2, r3
 4688 04d4 CDDC     		bgt	.L183
 4689              	.L179:
 4690              	.LBE17:
 958:STM32F10x_Speex_Lib/STM32/libspeex/nb_celp.c ****    }
 959:STM32F10x_Speex_Lib/STM32/libspeex/nb_celp.c **** 
 960:STM32F10x_Speex_Lib/STM32/libspeex/nb_celp.c **** 
 961:STM32F10x_Speex_Lib/STM32/libspeex/nb_celp.c ****    /* Handle first frame and lost-packet case */
 962:STM32F10x_Speex_Lib/STM32/libspeex/nb_celp.c ****    if (st->first || st->count_lost)
 4691              		.loc 3 962 0 is_stmt 1
 4692 04d6 D7F89430 		ldr	r3, [r7, #148]
 4693 04da 5B68     		ldr	r3, [r3, #4]
 4694 04dc 002B     		cmp	r3, #0
 4695 04de 04D1     		bne	.L184
 4696              		.loc 3 962 0 is_stmt 0 discriminator 1
 4697 04e0 D7F89430 		ldr	r3, [r7, #148]
 4698 04e4 9B68     		ldr	r3, [r3, #8]
ARM GAS  /var/folders/kh/x4vltyy52lbg7p4pcyglc5080000gp/T//ccuucmVt.s 			page 106


 4699 04e6 002B     		cmp	r3, #0
 4700 04e8 1ED0     		beq	.L185
 4701              	.L184:
 963:STM32F10x_Speex_Lib/STM32/libspeex/nb_celp.c ****    {
 964:STM32F10x_Speex_Lib/STM32/libspeex/nb_celp.c ****       for (i=0;i<st->lpcSize;i++)
 4702              		.loc 3 964 0 is_stmt 1
 4703 04ea 0023     		movs	r3, #0
 4704 04ec C7F8D430 		str	r3, [r7, #212]
 4705 04f0 13E0     		b	.L186
 4706              	.L187:
 965:STM32F10x_Speex_Lib/STM32/libspeex/nb_celp.c ****          st->old_qlsp[i] = qlsp[i];
 4707              		.loc 3 965 0 discriminator 3
 4708 04f2 D7F89430 		ldr	r3, [r7, #148]
 4709 04f6 9A6B     		ldr	r2, [r3, #56]
 4710 04f8 D7F8D430 		ldr	r3, [r7, #212]
 4711 04fc 5B00     		lsls	r3, r3, #1
 4712 04fe 1344     		add	r3, r3, r2
 4713 0500 D7F8D420 		ldr	r2, [r7, #212]
 4714 0504 5200     		lsls	r2, r2, #1
 4715 0506 396F     		ldr	r1, [r7, #112]
 4716 0508 0A44     		add	r2, r2, r1
 4717 050a B2F90020 		ldrsh	r2, [r2]
 4718 050e 1A80     		strh	r2, [r3]	@ movhi
 964:STM32F10x_Speex_Lib/STM32/libspeex/nb_celp.c ****          st->old_qlsp[i] = qlsp[i];
 4719              		.loc 3 964 0 discriminator 3
 4720 0510 D7F8D430 		ldr	r3, [r7, #212]
 4721 0514 0133     		adds	r3, r3, #1
 4722 0516 C7F8D430 		str	r3, [r7, #212]
 4723              	.L186:
 964:STM32F10x_Speex_Lib/STM32/libspeex/nb_celp.c ****          st->old_qlsp[i] = qlsp[i];
 4724              		.loc 3 964 0 is_stmt 0 discriminator 1
 4725 051a D7F89430 		ldr	r3, [r7, #148]
 4726 051e 9A69     		ldr	r2, [r3, #24]
 4727 0520 D7F8D430 		ldr	r3, [r7, #212]
 4728 0524 9A42     		cmp	r2, r3
 4729 0526 E4DC     		bgt	.L187
 4730              	.L185:
 966:STM32F10x_Speex_Lib/STM32/libspeex/nb_celp.c ****    }
 967:STM32F10x_Speex_Lib/STM32/libspeex/nb_celp.c **** 
 968:STM32F10x_Speex_Lib/STM32/libspeex/nb_celp.c ****    /* Get open-loop pitch estimation for low bit-rate pitch coding */
 969:STM32F10x_Speex_Lib/STM32/libspeex/nb_celp.c ****    if (SUBMODE(lbr_pitch)!=-1)
 4731              		.loc 3 969 0 is_stmt 1
 4732 0528 D7F89430 		ldr	r3, [r7, #148]
 4733 052c 5A6F     		ldr	r2, [r3, #116]
 4734 052e D7F89430 		ldr	r3, [r7, #148]
 4735 0532 9B6F     		ldr	r3, [r3, #120]
 4736 0534 9B00     		lsls	r3, r3, #2
 4737 0536 1344     		add	r3, r3, r2
 4738 0538 1B68     		ldr	r3, [r3]
 4739 053a 1B68     		ldr	r3, [r3]
 4740 053c B3F1FF3F 		cmp	r3, #-1
 4741 0540 0BD0     		beq	.L188
 970:STM32F10x_Speex_Lib/STM32/libspeex/nb_celp.c ****    {
 971:STM32F10x_Speex_Lib/STM32/libspeex/nb_celp.c ****       ol_pitch = st->min_pitch+speex_bits_unpack_unsigned(bits, 7);
 4742              		.loc 3 971 0
 4743 0542 D7F89430 		ldr	r3, [r7, #148]
 4744 0546 DB69     		ldr	r3, [r3, #28]
ARM GAS  /var/folders/kh/x4vltyy52lbg7p4pcyglc5080000gp/T//ccuucmVt.s 			page 107


 4745 0548 1C46     		mov	r4, r3
 4746 054a 0721     		movs	r1, #7
 4747 054c B868     		ldr	r0, [r7, #8]
 4748 054e FFF7FEFF 		bl	speex_bits_unpack_unsigned
 4749 0552 0346     		mov	r3, r0
 4750 0554 2344     		add	r3, r3, r4
 4751 0556 C7F8CC30 		str	r3, [r7, #204]
 4752              	.L188:
 972:STM32F10x_Speex_Lib/STM32/libspeex/nb_celp.c ****    } 
 973:STM32F10x_Speex_Lib/STM32/libspeex/nb_celp.c ****    
 974:STM32F10x_Speex_Lib/STM32/libspeex/nb_celp.c ****    if (SUBMODE(forced_pitch_gain))
 4753              		.loc 3 974 0
 4754 055a D7F89430 		ldr	r3, [r7, #148]
 4755 055e 5A6F     		ldr	r2, [r3, #116]
 4756 0560 D7F89430 		ldr	r3, [r7, #148]
 4757 0564 9B6F     		ldr	r3, [r3, #120]
 4758 0566 9B00     		lsls	r3, r3, #2
 4759 0568 1344     		add	r3, r3, r2
 4760 056a 1B68     		ldr	r3, [r3]
 4761 056c 5B68     		ldr	r3, [r3, #4]
 4762 056e 002B     		cmp	r3, #0
 4763 0570 12D0     		beq	.L189
 4764              	.LBB18:
 975:STM32F10x_Speex_Lib/STM32/libspeex/nb_celp.c ****    {
 976:STM32F10x_Speex_Lib/STM32/libspeex/nb_celp.c ****       int quant;
 977:STM32F10x_Speex_Lib/STM32/libspeex/nb_celp.c ****       quant = speex_bits_unpack_unsigned(bits, 4);
 4765              		.loc 3 977 0
 4766 0572 0421     		movs	r1, #4
 4767 0574 B868     		ldr	r0, [r7, #8]
 4768 0576 FFF7FEFF 		bl	speex_bits_unpack_unsigned
 4769 057a 0346     		mov	r3, r0
 4770 057c BB66     		str	r3, [r7, #104]
 978:STM32F10x_Speex_Lib/STM32/libspeex/nb_celp.c ****       ol_pitch_coef=MULT16_16_P15(QCONST16(0.066667,15),SHL16(quant,GAIN_SHIFT));
 4771              		.loc 3 978 0
 4772 057e BB6E     		ldr	r3, [r7, #104]
 4773 0580 9B01     		lsls	r3, r3, #6
 4774 0582 1BB2     		sxth	r3, r3
 4775 0584 1A46     		mov	r2, r3
 4776 0586 40F68903 		movw	r3, #2185
 4777 058a 03FB02F3 		mul	r3, r3, r2
 4778 058e 03F58043 		add	r3, r3, #16384
 4779 0592 DB13     		asrs	r3, r3, #15
 4780 0594 A7F8CA30 		strh	r3, [r7, #202]	@ movhi
 4781              	.L189:
 4782              	.LBE18:
 4783              	.LBB19:
 979:STM32F10x_Speex_Lib/STM32/libspeex/nb_celp.c ****    }
 980:STM32F10x_Speex_Lib/STM32/libspeex/nb_celp.c ****    
 981:STM32F10x_Speex_Lib/STM32/libspeex/nb_celp.c ****    /* Get global excitation gain */
 982:STM32F10x_Speex_Lib/STM32/libspeex/nb_celp.c ****    {
 983:STM32F10x_Speex_Lib/STM32/libspeex/nb_celp.c ****       int qe;
 984:STM32F10x_Speex_Lib/STM32/libspeex/nb_celp.c ****       qe = speex_bits_unpack_unsigned(bits, 5);
 4784              		.loc 3 984 0
 4785 0598 0521     		movs	r1, #5
 4786 059a B868     		ldr	r0, [r7, #8]
 4787 059c FFF7FEFF 		bl	speex_bits_unpack_unsigned
 4788 05a0 0346     		mov	r3, r0
ARM GAS  /var/folders/kh/x4vltyy52lbg7p4pcyglc5080000gp/T//ccuucmVt.s 			page 108


 4789 05a2 7B66     		str	r3, [r7, #100]
 985:STM32F10x_Speex_Lib/STM32/libspeex/nb_celp.c **** #ifdef FIXED_POINT
 986:STM32F10x_Speex_Lib/STM32/libspeex/nb_celp.c ****       /* FIXME: Perhaps we could slightly lower the gain here when the output is going to saturate?
 987:STM32F10x_Speex_Lib/STM32/libspeex/nb_celp.c ****       ol_gain = MULT16_32_Q15(28406,ol_gain_table[qe]);
 4790              		.loc 3 987 0
 4791 05a4 AD4A     		ldr	r2, .L257
 4792 05a6 7B6E     		ldr	r3, [r7, #100]
 4793 05a8 52F82330 		ldr	r3, [r2, r3, lsl #2]
 4794 05ac DB13     		asrs	r3, r3, #15
 4795 05ae 1BB2     		sxth	r3, r3
 4796 05b0 1A46     		mov	r2, r3
 4797 05b2 46F6F663 		movw	r3, #28406
 4798 05b6 03FB02F2 		mul	r2, r3, r2
 4799 05ba A849     		ldr	r1, .L257
 4800 05bc 7B6E     		ldr	r3, [r7, #100]
 4801 05be 51F82330 		ldr	r3, [r1, r3, lsl #2]
 4802 05c2 C3F30E03 		ubfx	r3, r3, #0, #15
 4803 05c6 46F6F661 		movw	r1, #28406
 4804 05ca 01FB03F3 		mul	r3, r1, r3
 4805 05ce DB13     		asrs	r3, r3, #15
 4806 05d0 1344     		add	r3, r3, r2
 4807 05d2 C7F89C30 		str	r3, [r7, #156]
 4808              	.LBE19:
 988:STM32F10x_Speex_Lib/STM32/libspeex/nb_celp.c **** #else
 989:STM32F10x_Speex_Lib/STM32/libspeex/nb_celp.c ****       ol_gain = SIG_SCALING*exp(qe/3.5);
 990:STM32F10x_Speex_Lib/STM32/libspeex/nb_celp.c **** #endif
 991:STM32F10x_Speex_Lib/STM32/libspeex/nb_celp.c ****    }
 992:STM32F10x_Speex_Lib/STM32/libspeex/nb_celp.c **** 
 993:STM32F10x_Speex_Lib/STM32/libspeex/nb_celp.c ****    ALLOC(ak, st->lpcSize, spx_coef_t);
 4809              		.loc 3 993 0
 4810 05d6 D7F8BC30 		ldr	r3, [r7, #188]
 4811 05da 5B42     		negs	r3, r3
 4812 05dc 03F00103 		and	r3, r3, #1
 4813 05e0 D7F8BC20 		ldr	r2, [r7, #188]
 4814 05e4 1344     		add	r3, r3, r2
 4815 05e6 C7F8BC30 		str	r3, [r7, #188]
 4816 05ea D7F89430 		ldr	r3, [r7, #148]
 4817 05ee 9B69     		ldr	r3, [r3, #24]
 4818 05f0 5B00     		lsls	r3, r3, #1
 4819 05f2 D7F8BC20 		ldr	r2, [r7, #188]
 4820 05f6 1344     		add	r3, r3, r2
 4821 05f8 C7F8BC30 		str	r3, [r7, #188]
 4822 05fc D7F89430 		ldr	r3, [r7, #148]
 4823 0600 9B69     		ldr	r3, [r3, #24]
 4824 0602 5B00     		lsls	r3, r3, #1
 4825 0604 5B42     		negs	r3, r3
 4826 0606 D7F8BC20 		ldr	r2, [r7, #188]
 4827 060a 1344     		add	r3, r3, r2
 4828 060c 3B66     		str	r3, [r7, #96]
 994:STM32F10x_Speex_Lib/STM32/libspeex/nb_celp.c ****    ALLOC(innov, st->subframeSize, spx_sig_t);
 4829              		.loc 3 994 0
 4830 060e D7F8BC30 		ldr	r3, [r7, #188]
 4831 0612 5B42     		negs	r3, r3
 4832 0614 03F00303 		and	r3, r3, #3
 4833 0618 D7F8BC20 		ldr	r2, [r7, #188]
 4834 061c 1344     		add	r3, r3, r2
 4835 061e C7F8BC30 		str	r3, [r7, #188]
ARM GAS  /var/folders/kh/x4vltyy52lbg7p4pcyglc5080000gp/T//ccuucmVt.s 			page 109


 4836 0622 D7F89430 		ldr	r3, [r7, #148]
 4837 0626 1B69     		ldr	r3, [r3, #16]
 4838 0628 9B00     		lsls	r3, r3, #2
 4839 062a D7F8BC20 		ldr	r2, [r7, #188]
 4840 062e 1344     		add	r3, r3, r2
 4841 0630 C7F8BC30 		str	r3, [r7, #188]
 4842 0634 D7F89430 		ldr	r3, [r7, #148]
 4843 0638 1B69     		ldr	r3, [r3, #16]
 4844 063a 9B00     		lsls	r3, r3, #2
 4845 063c 5B42     		negs	r3, r3
 4846 063e D7F8BC20 		ldr	r2, [r7, #188]
 4847 0642 1344     		add	r3, r3, r2
 4848 0644 FB65     		str	r3, [r7, #92]
 995:STM32F10x_Speex_Lib/STM32/libspeex/nb_celp.c ****    ALLOC(exc32, st->subframeSize, spx_word32_t);
 4849              		.loc 3 995 0
 4850 0646 D7F8BC30 		ldr	r3, [r7, #188]
 4851 064a 5B42     		negs	r3, r3
 4852 064c 03F00303 		and	r3, r3, #3
 4853 0650 D7F8BC20 		ldr	r2, [r7, #188]
 4854 0654 1344     		add	r3, r3, r2
 4855 0656 C7F8BC30 		str	r3, [r7, #188]
 4856 065a D7F89430 		ldr	r3, [r7, #148]
 4857 065e 1B69     		ldr	r3, [r3, #16]
 4858 0660 9B00     		lsls	r3, r3, #2
 4859 0662 D7F8BC20 		ldr	r2, [r7, #188]
 4860 0666 1344     		add	r3, r3, r2
 4861 0668 C7F8BC30 		str	r3, [r7, #188]
 4862 066c D7F89430 		ldr	r3, [r7, #148]
 4863 0670 1B69     		ldr	r3, [r3, #16]
 4864 0672 9B00     		lsls	r3, r3, #2
 4865 0674 5B42     		negs	r3, r3
 4866 0676 D7F8BC20 		ldr	r2, [r7, #188]
 4867 067a 1344     		add	r3, r3, r2
 4868 067c BB65     		str	r3, [r7, #88]
 996:STM32F10x_Speex_Lib/STM32/libspeex/nb_celp.c **** 
 997:STM32F10x_Speex_Lib/STM32/libspeex/nb_celp.c ****    if (st->submodeID==1)
 4869              		.loc 3 997 0
 4870 067e D7F89430 		ldr	r3, [r7, #148]
 4871 0682 9B6F     		ldr	r3, [r3, #120]
 4872 0684 012B     		cmp	r3, #1
 4873 0686 13D1     		bne	.L190
 4874              	.LBB20:
 998:STM32F10x_Speex_Lib/STM32/libspeex/nb_celp.c ****    {
 999:STM32F10x_Speex_Lib/STM32/libspeex/nb_celp.c ****       int extra;
1000:STM32F10x_Speex_Lib/STM32/libspeex/nb_celp.c ****       extra = speex_bits_unpack_unsigned(bits, 4);
 4875              		.loc 3 1000 0
 4876 0688 0421     		movs	r1, #4
 4877 068a B868     		ldr	r0, [r7, #8]
 4878 068c FFF7FEFF 		bl	speex_bits_unpack_unsigned
 4879 0690 0346     		mov	r3, r0
 4880 0692 7B65     		str	r3, [r7, #84]
1001:STM32F10x_Speex_Lib/STM32/libspeex/nb_celp.c **** 
1002:STM32F10x_Speex_Lib/STM32/libspeex/nb_celp.c ****       if (extra==15)
 4881              		.loc 3 1002 0
 4882 0694 7B6D     		ldr	r3, [r7, #84]
 4883 0696 0F2B     		cmp	r3, #15
 4884 0698 05D1     		bne	.L191
ARM GAS  /var/folders/kh/x4vltyy52lbg7p4pcyglc5080000gp/T//ccuucmVt.s 			page 110


1003:STM32F10x_Speex_Lib/STM32/libspeex/nb_celp.c ****          st->dtx_enabled=1;
 4885              		.loc 3 1003 0
 4886 069a D7F89430 		ldr	r3, [r7, #148]
 4887 069e 0122     		movs	r2, #1
 4888 06a0 C3F8E421 		str	r2, [r3, #484]
 4889 06a4 04E0     		b	.L190
 4890              	.L191:
1004:STM32F10x_Speex_Lib/STM32/libspeex/nb_celp.c ****       else
1005:STM32F10x_Speex_Lib/STM32/libspeex/nb_celp.c ****          st->dtx_enabled=0;
 4891              		.loc 3 1005 0
 4892 06a6 D7F89430 		ldr	r3, [r7, #148]
 4893 06aa 0022     		movs	r2, #0
 4894 06ac C3F8E421 		str	r2, [r3, #484]
 4895              	.L190:
 4896              	.LBE20:
1006:STM32F10x_Speex_Lib/STM32/libspeex/nb_celp.c ****    }
1007:STM32F10x_Speex_Lib/STM32/libspeex/nb_celp.c ****    if (st->submodeID>1)
 4897              		.loc 3 1007 0
 4898 06b0 D7F89430 		ldr	r3, [r7, #148]
 4899 06b4 9B6F     		ldr	r3, [r3, #120]
 4900 06b6 012B     		cmp	r3, #1
 4901 06b8 04DD     		ble	.L192
1008:STM32F10x_Speex_Lib/STM32/libspeex/nb_celp.c ****       st->dtx_enabled=0;
 4902              		.loc 3 1008 0
 4903 06ba D7F89430 		ldr	r3, [r7, #148]
 4904 06be 0022     		movs	r2, #0
 4905 06c0 C3F8E421 		str	r2, [r3, #484]
 4906              	.L192:
1009:STM32F10x_Speex_Lib/STM32/libspeex/nb_celp.c **** 
1010:STM32F10x_Speex_Lib/STM32/libspeex/nb_celp.c ****    /*Loop on subframes */
1011:STM32F10x_Speex_Lib/STM32/libspeex/nb_celp.c ****    for (sub=0;sub<st->nbSubframes;sub++)
 4907              		.loc 3 1011 0
 4908 06c4 0023     		movs	r3, #0
 4909 06c6 C7F8D030 		str	r3, [r7, #208]
 4910 06ca 00F055BC 		b	.L193
 4911              	.L234:
 4912              	.LBB21:
1012:STM32F10x_Speex_Lib/STM32/libspeex/nb_celp.c ****    {
1013:STM32F10x_Speex_Lib/STM32/libspeex/nb_celp.c ****       int offset;
1014:STM32F10x_Speex_Lib/STM32/libspeex/nb_celp.c ****       spx_word16_t *exc;
1015:STM32F10x_Speex_Lib/STM32/libspeex/nb_celp.c ****       spx_word16_t *innov_save = NULL;
 4913              		.loc 3 1015 0
 4914 06ce 0023     		movs	r3, #0
 4915 06d0 C7F8B030 		str	r3, [r7, #176]
1016:STM32F10x_Speex_Lib/STM32/libspeex/nb_celp.c ****       spx_word16_t tmp;
1017:STM32F10x_Speex_Lib/STM32/libspeex/nb_celp.c **** 
1018:STM32F10x_Speex_Lib/STM32/libspeex/nb_celp.c ****       /* Offset relative to start of frame */
1019:STM32F10x_Speex_Lib/STM32/libspeex/nb_celp.c ****       offset = st->subframeSize*sub;
 4916              		.loc 3 1019 0
 4917 06d4 D7F89430 		ldr	r3, [r7, #148]
 4918 06d8 1B69     		ldr	r3, [r3, #16]
 4919 06da D7F8D020 		ldr	r2, [r7, #208]
 4920 06de 02FB03F3 		mul	r3, r2, r3
 4921 06e2 3B65     		str	r3, [r7, #80]
1020:STM32F10x_Speex_Lib/STM32/libspeex/nb_celp.c ****       /* Excitation */
1021:STM32F10x_Speex_Lib/STM32/libspeex/nb_celp.c ****       exc=st->exc+offset;
 4922              		.loc 3 1021 0
ARM GAS  /var/folders/kh/x4vltyy52lbg7p4pcyglc5080000gp/T//ccuucmVt.s 			page 111


 4923 06e4 D7F89430 		ldr	r3, [r7, #148]
 4924 06e8 5A6B     		ldr	r2, [r3, #52]
 4925 06ea 3B6D     		ldr	r3, [r7, #80]
 4926 06ec 5B00     		lsls	r3, r3, #1
 4927 06ee 1344     		add	r3, r3, r2
 4928 06f0 FB64     		str	r3, [r7, #76]
1022:STM32F10x_Speex_Lib/STM32/libspeex/nb_celp.c **** 
1023:STM32F10x_Speex_Lib/STM32/libspeex/nb_celp.c ****       if (st->innov_save)
 4929              		.loc 3 1023 0
 4930 06f2 D7F89430 		ldr	r3, [r7, #148]
 4931 06f6 1B6D     		ldr	r3, [r3, #80]
 4932 06f8 002B     		cmp	r3, #0
 4933 06fa 07D0     		beq	.L194
1024:STM32F10x_Speex_Lib/STM32/libspeex/nb_celp.c ****          innov_save = st->innov_save+offset;
 4934              		.loc 3 1024 0
 4935 06fc D7F89430 		ldr	r3, [r7, #148]
 4936 0700 1A6D     		ldr	r2, [r3, #80]
 4937 0702 3B6D     		ldr	r3, [r7, #80]
 4938 0704 5B00     		lsls	r3, r3, #1
 4939 0706 1344     		add	r3, r3, r2
 4940 0708 C7F8B030 		str	r3, [r7, #176]
 4941              	.L194:
1025:STM32F10x_Speex_Lib/STM32/libspeex/nb_celp.c **** 
1026:STM32F10x_Speex_Lib/STM32/libspeex/nb_celp.c **** 
1027:STM32F10x_Speex_Lib/STM32/libspeex/nb_celp.c ****       /* Reset excitation */
1028:STM32F10x_Speex_Lib/STM32/libspeex/nb_celp.c ****       SPEEX_MEMSET(exc, 0, st->subframeSize);
 4942              		.loc 3 1028 0
 4943 070c D7F89430 		ldr	r3, [r7, #148]
 4944 0710 1B69     		ldr	r3, [r3, #16]
 4945 0712 5B00     		lsls	r3, r3, #1
 4946 0714 1A46     		mov	r2, r3
 4947 0716 0021     		movs	r1, #0
 4948 0718 F86C     		ldr	r0, [r7, #76]
 4949 071a FFF7FEFF 		bl	memset
 4950              	.LBB22:
1029:STM32F10x_Speex_Lib/STM32/libspeex/nb_celp.c **** 
1030:STM32F10x_Speex_Lib/STM32/libspeex/nb_celp.c ****       /*Adaptive codebook contribution*/
1031:STM32F10x_Speex_Lib/STM32/libspeex/nb_celp.c ****       {
1032:STM32F10x_Speex_Lib/STM32/libspeex/nb_celp.c ****          int pit_min, pit_max;
1033:STM32F10x_Speex_Lib/STM32/libspeex/nb_celp.c ****          /* Handle pitch constraints if any */
1034:STM32F10x_Speex_Lib/STM32/libspeex/nb_celp.c ****          {
1035:STM32F10x_Speex_Lib/STM32/libspeex/nb_celp.c ****             pit_min = st->min_pitch;
 4951              		.loc 3 1035 0
 4952 071e D7F89430 		ldr	r3, [r7, #148]
 4953 0722 DB69     		ldr	r3, [r3, #28]
 4954 0724 BB64     		str	r3, [r7, #72]
1036:STM32F10x_Speex_Lib/STM32/libspeex/nb_celp.c ****             pit_max = st->max_pitch;
 4955              		.loc 3 1036 0
 4956 0726 D7F89430 		ldr	r3, [r7, #148]
 4957 072a 1B6A     		ldr	r3, [r3, #32]
 4958 072c 7B64     		str	r3, [r7, #68]
1037:STM32F10x_Speex_Lib/STM32/libspeex/nb_celp.c ****          }
1038:STM32F10x_Speex_Lib/STM32/libspeex/nb_celp.c **** 
1039:STM32F10x_Speex_Lib/STM32/libspeex/nb_celp.c **** 
1040:STM32F10x_Speex_Lib/STM32/libspeex/nb_celp.c **** 
1041:STM32F10x_Speex_Lib/STM32/libspeex/nb_celp.c ****          SUBMODE(ltp_unquant)(exc, exc32, pit_min, pit_max, ol_pitch_coef, SUBMODE(ltp_params), 
 4959              		.loc 3 1041 0
ARM GAS  /var/folders/kh/x4vltyy52lbg7p4pcyglc5080000gp/T//ccuucmVt.s 			page 112


 4960 072e D7F89430 		ldr	r3, [r7, #148]
 4961 0732 5A6F     		ldr	r2, [r3, #116]
 4962 0734 D7F89430 		ldr	r3, [r7, #148]
 4963 0738 9B6F     		ldr	r3, [r3, #120]
 4964 073a 9B00     		lsls	r3, r3, #2
 4965 073c 1344     		add	r3, r3, r2
 4966 073e 1B68     		ldr	r3, [r3]
 4967 0740 DC69     		ldr	r4, [r3, #28]
 4968 0742 D7F89430 		ldr	r3, [r7, #148]
 4969 0746 5A6F     		ldr	r2, [r3, #116]
 4970 0748 D7F89430 		ldr	r3, [r7, #148]
 4971 074c 9B6F     		ldr	r3, [r3, #120]
 4972 074e 9B00     		lsls	r3, r3, #2
 4973 0750 1344     		add	r3, r3, r2
 4974 0752 1B68     		ldr	r3, [r3]
 4975 0754 1B6A     		ldr	r3, [r3, #32]
 4976 0756 D7F89420 		ldr	r2, [r7, #148]
 4977 075a 1269     		ldr	r2, [r2, #16]
 4978 075c D7F89410 		ldr	r1, [r7, #148]
 4979 0760 8968     		ldr	r1, [r1, #8]
 4980 0762 D7F89400 		ldr	r0, [r7, #148]
 4981 0766 B0F96000 		ldrsh	r0, [r0, #96]
 4982 076a 0025     		movs	r5, #0
 4983 076c 0A95     		str	r5, [sp, #40]
 4984 076e 0990     		str	r0, [sp, #36]
 4985 0770 386D     		ldr	r0, [r7, #80]
 4986 0772 0890     		str	r0, [sp, #32]
 4987 0774 0791     		str	r1, [sp, #28]
 4988 0776 D7F8BC10 		ldr	r1, [r7, #188]
 4989 077a 0691     		str	r1, [sp, #24]
 4990 077c B968     		ldr	r1, [r7, #8]
 4991 077e 0591     		str	r1, [sp, #20]
 4992 0780 07F11401 		add	r1, r7, #20
 4993 0784 0491     		str	r1, [sp, #16]
 4994 0786 07F11C01 		add	r1, r7, #28
 4995 078a 0391     		str	r1, [sp, #12]
 4996 078c 0292     		str	r2, [sp, #8]
 4997 078e 0193     		str	r3, [sp, #4]
 4998 0790 B7F9CA30 		ldrsh	r3, [r7, #202]
 4999 0794 0093     		str	r3, [sp]
 5000 0796 7B6C     		ldr	r3, [r7, #68]
 5001 0798 BA6C     		ldr	r2, [r7, #72]
 5002 079a B96D     		ldr	r1, [r7, #88]
 5003 079c F86C     		ldr	r0, [r7, #76]
 5004 079e A047     		blx	r4
1042:STM32F10x_Speex_Lib/STM32/libspeex/nb_celp.c ****                  st->subframeSize, &pitch, &pitch_gain[0], bits, stack, 
1043:STM32F10x_Speex_Lib/STM32/libspeex/nb_celp.c ****                  st->count_lost, offset, st->last_pitch_gain, 0);
1044:STM32F10x_Speex_Lib/STM32/libspeex/nb_celp.c **** 
1045:STM32F10x_Speex_Lib/STM32/libspeex/nb_celp.c ****          /* Ensuring that things aren't blowing up as would happen if e.g. an encoder is 
1046:STM32F10x_Speex_Lib/STM32/libspeex/nb_celp.c ****          crafting packets to make us produce NaNs and slow down the decoder (vague DoS threat).
1047:STM32F10x_Speex_Lib/STM32/libspeex/nb_celp.c ****          We can probably be even more aggressive and limit to 15000 or so. */
1048:STM32F10x_Speex_Lib/STM32/libspeex/nb_celp.c ****          sanitize_values32(exc32, NEG32(QCONST32(32000,SIG_SHIFT-1)), QCONST32(32000,SIG_SHIFT-1), 
 5005              		.loc 3 1048 0
 5006 07a0 D7F89430 		ldr	r3, [r7, #148]
 5007 07a4 1B69     		ldr	r3, [r3, #16]
 5008 07a6 4FF07A62 		mov	r2, #262144000
 5009 07aa 2D49     		ldr	r1, .L257+4
ARM GAS  /var/folders/kh/x4vltyy52lbg7p4pcyglc5080000gp/T//ccuucmVt.s 			page 113


 5010 07ac B86D     		ldr	r0, [r7, #88]
 5011 07ae FFF7FEFF 		bl	sanitize_values32
1049:STM32F10x_Speex_Lib/STM32/libspeex/nb_celp.c ****          
1050:STM32F10x_Speex_Lib/STM32/libspeex/nb_celp.c ****          tmp = gain_3tap_to_1tap(pitch_gain);
 5012              		.loc 3 1050 0
 5013 07b2 B7F91630 		ldrsh	r3, [r7, #22]
 5014 07b6 002B     		cmp	r3, #0
 5015 07b8 B8BF     		it	lt
 5016 07ba 5B42     		rsblt	r3, r3, #0
 5017 07bc 9AB2     		uxth	r2, r3
 5018 07be B7F91430 		ldrsh	r3, [r7, #20]
 5019 07c2 002B     		cmp	r3, #0
 5020 07c4 03DD     		ble	.L195
 5021              		.loc 3 1050 0 is_stmt 0 discriminator 1
 5022 07c6 B7F91430 		ldrsh	r3, [r7, #20]
 5023 07ca 9BB2     		uxth	r3, r3
 5024 07cc 06E0     		b	.L196
 5025              	.L195:
 5026              		.loc 3 1050 0 discriminator 2
 5027 07ce B7F91430 		ldrsh	r3, [r7, #20]
 5028 07d2 5B10     		asrs	r3, r3, #1
 5029 07d4 1BB2     		sxth	r3, r3
 5030 07d6 9BB2     		uxth	r3, r3
 5031 07d8 5B42     		negs	r3, r3
 5032 07da 9BB2     		uxth	r3, r3
 5033              	.L196:
 5034              		.loc 3 1050 0 discriminator 4
 5035 07dc 1344     		add	r3, r3, r2
 5036 07de 9AB2     		uxth	r2, r3
 5037 07e0 B7F91830 		ldrsh	r3, [r7, #24]
 5038 07e4 002B     		cmp	r3, #0
 5039 07e6 03DD     		ble	.L197
 5040              		.loc 3 1050 0 discriminator 5
 5041 07e8 B7F91830 		ldrsh	r3, [r7, #24]
 5042 07ec 9BB2     		uxth	r3, r3
 5043 07ee 06E0     		b	.L198
 5044              	.L197:
 5045              		.loc 3 1050 0 discriminator 6
 5046 07f0 B7F91830 		ldrsh	r3, [r7, #24]
 5047 07f4 5B10     		asrs	r3, r3, #1
 5048 07f6 1BB2     		sxth	r3, r3
 5049 07f8 9BB2     		uxth	r3, r3
 5050 07fa 5B42     		negs	r3, r3
 5051 07fc 9BB2     		uxth	r3, r3
 5052              	.L198:
 5053              		.loc 3 1050 0 discriminator 8
 5054 07fe 1344     		add	r3, r3, r2
 5055 0800 9BB2     		uxth	r3, r3
 5056 0802 A7F84230 		strh	r3, [r7, #66]	@ movhi
1051:STM32F10x_Speex_Lib/STM32/libspeex/nb_celp.c **** 
1052:STM32F10x_Speex_Lib/STM32/libspeex/nb_celp.c ****          pitch_average += tmp;
 5057              		.loc 3 1052 0 is_stmt 1 discriminator 8
 5058 0806 B7F8BA20 		ldrh	r2, [r7, #186]
 5059 080a B7F84230 		ldrh	r3, [r7, #66]
 5060 080e 1344     		add	r3, r3, r2
 5061 0810 9BB2     		uxth	r3, r3
 5062 0812 A7F8BA30 		strh	r3, [r7, #186]	@ movhi
ARM GAS  /var/folders/kh/x4vltyy52lbg7p4pcyglc5080000gp/T//ccuucmVt.s 			page 114


1053:STM32F10x_Speex_Lib/STM32/libspeex/nb_celp.c ****          if ((tmp>best_pitch_gain&&ABS(2*best_pitch-pitch)>=3&&ABS(3*best_pitch-pitch)>=4&&ABS(4*be
 5063              		.loc 3 1053 0 discriminator 8
 5064 0816 B7F94220 		ldrsh	r2, [r7, #66]
 5065 081a B7F9C230 		ldrsh	r3, [r7, #194]
 5066 081e 9A42     		cmp	r2, r3
 5067 0820 34DD     		ble	.L199
 5068              		.loc 3 1053 0 is_stmt 0 discriminator 1
 5069 0822 D7F8C430 		ldr	r3, [r7, #196]
 5070 0826 5A00     		lsls	r2, r3, #1
 5071 0828 FB69     		ldr	r3, [r7, #28]
 5072 082a D31A     		subs	r3, r2, r3
 5073 082c 002B     		cmp	r3, #0
 5074 082e B8BF     		it	lt
 5075 0830 5B42     		rsblt	r3, r3, #0
 5076 0832 022B     		cmp	r3, #2
 5077 0834 2ADD     		ble	.L199
 5078              		.loc 3 1053 0 discriminator 2
 5079 0836 D7F8C420 		ldr	r2, [r7, #196]
 5080 083a 1346     		mov	r3, r2
 5081 083c 5B00     		lsls	r3, r3, #1
 5082 083e 1A44     		add	r2, r2, r3
 5083 0840 FB69     		ldr	r3, [r7, #28]
 5084 0842 D31A     		subs	r3, r2, r3
 5085 0844 002B     		cmp	r3, #0
 5086 0846 0DDA     		bge	.L200
 5087              		.loc 3 1053 0 discriminator 3
 5088 0848 D7F8C430 		ldr	r3, [r7, #196]
 5089 084c 1A46     		mov	r2, r3
 5090 084e 9B00     		lsls	r3, r3, #2
 5091 0850 D21A     		subs	r2, r2, r3
 5092 0852 FB69     		ldr	r3, [r7, #28]
 5093 0854 1344     		add	r3, r3, r2
 5094 0856 032B     		cmp	r3, #3
 5095 0858 0DDC     		bgt	.L201
 5096 085a 17E0     		b	.L199
 5097              	.L258:
 5098              		.align	2
 5099              	.L257:
 5100 085c 00000000 		.word	ol_gain_table
 5101 0860 000060F0 		.word	-262144000
 5102              	.L200:
 5103              		.loc 3 1053 0 discriminator 4
 5104 0864 D7F8C420 		ldr	r2, [r7, #196]
 5105 0868 1346     		mov	r3, r2
 5106 086a 5B00     		lsls	r3, r3, #1
 5107 086c 1A44     		add	r2, r2, r3
 5108 086e FB69     		ldr	r3, [r7, #28]
 5109 0870 D31A     		subs	r3, r2, r3
 5110 0872 032B     		cmp	r3, #3
 5111 0874 0ADD     		ble	.L199
 5112              	.L201:
 5113              		.loc 3 1053 0 discriminator 5
 5114 0876 D7F8C430 		ldr	r3, [r7, #196]
 5115 087a 9A00     		lsls	r2, r3, #2
 5116 087c FB69     		ldr	r3, [r7, #28]
 5117 087e D31A     		subs	r3, r2, r3
 5118 0880 002B     		cmp	r3, #0
ARM GAS  /var/folders/kh/x4vltyy52lbg7p4pcyglc5080000gp/T//ccuucmVt.s 			page 115


 5119 0882 B8BF     		it	lt
 5120 0884 5B42     		rsblt	r3, r3, #0
 5121 0886 042B     		cmp	r3, #4
 5122 0888 00F38A80 		bgt	.L202
 5123              	.L199:
1054:STM32F10x_Speex_Lib/STM32/libspeex/nb_celp.c ****               || (tmp>MULT16_16_Q15(QCONST16(.6,15),best_pitch_gain)&&(ABS(best_pitch-2*pitch)<3||A
 5124              		.loc 3 1054 0 is_stmt 1
 5125 088c B7F94220 		ldrsh	r2, [r7, #66]
 5126 0890 B7F9C230 		ldrsh	r3, [r7, #194]
 5127 0894 44F6CD41 		movw	r1, #19661
 5128 0898 01FB03F3 		mul	r3, r1, r3
 5129 089c DB13     		asrs	r3, r3, #15
 5130 089e 9A42     		cmp	r2, r3
 5131 08a0 39DD     		ble	.L203
 5132              		.loc 3 1054 0 is_stmt 0 discriminator 1
 5133 08a2 FB69     		ldr	r3, [r7, #28]
 5134 08a4 5B00     		lsls	r3, r3, #1
 5135 08a6 D7F8C420 		ldr	r2, [r7, #196]
 5136 08aa D31A     		subs	r3, r2, r3
 5137 08ac 13F1020F 		cmn	r3, #2
 5138 08b0 06DB     		blt	.L204
 5139              		.loc 3 1054 0 discriminator 2
 5140 08b2 FB69     		ldr	r3, [r7, #28]
 5141 08b4 5B00     		lsls	r3, r3, #1
 5142 08b6 D7F8C420 		ldr	r2, [r7, #196]
 5143 08ba D31A     		subs	r3, r2, r3
 5144 08bc 022B     		cmp	r3, #2
 5145 08be 6FDD     		ble	.L202
 5146              	.L204:
 5147              		.loc 3 1054 0 discriminator 4
 5148 08c0 FB69     		ldr	r3, [r7, #28]
 5149 08c2 1A46     		mov	r2, r3
 5150 08c4 9B00     		lsls	r3, r3, #2
 5151 08c6 D21A     		subs	r2, r2, r3
 5152 08c8 D7F8C430 		ldr	r3, [r7, #196]
 5153 08cc 1344     		add	r3, r3, r2
1053:STM32F10x_Speex_Lib/STM32/libspeex/nb_celp.c ****          if ((tmp>best_pitch_gain&&ABS(2*best_pitch-pitch)>=3&&ABS(3*best_pitch-pitch)>=4&&ABS(4*be
 5154              		.loc 3 1053 0 is_stmt 1 discriminator 4
 5155 08ce 002B     		cmp	r3, #0
 5156 08d0 09DA     		bge	.L205
 5157              		.loc 3 1054 0
 5158 08d2 FA69     		ldr	r2, [r7, #28]
 5159 08d4 1346     		mov	r3, r2
 5160 08d6 5B00     		lsls	r3, r3, #1
 5161 08d8 1A44     		add	r2, r2, r3
 5162 08da D7F8C430 		ldr	r3, [r7, #196]
 5163 08de D31A     		subs	r3, r2, r3
 5164 08e0 032B     		cmp	r3, #3
 5165 08e2 5DDD     		ble	.L202
 5166 08e4 08E0     		b	.L206
 5167              	.L205:
 5168 08e6 FB69     		ldr	r3, [r7, #28]
 5169 08e8 1A46     		mov	r2, r3
 5170 08ea 9B00     		lsls	r3, r3, #2
 5171 08ec D21A     		subs	r2, r2, r3
 5172 08ee D7F8C430 		ldr	r3, [r7, #196]
 5173 08f2 1344     		add	r3, r3, r2
ARM GAS  /var/folders/kh/x4vltyy52lbg7p4pcyglc5080000gp/T//ccuucmVt.s 			page 116


 5174 08f4 032B     		cmp	r3, #3
 5175 08f6 53DD     		ble	.L202
 5176              	.L206:
 5177              		.loc 3 1054 0 is_stmt 0 discriminator 5
 5178 08f8 FB69     		ldr	r3, [r7, #28]
 5179 08fa 9B00     		lsls	r3, r3, #2
 5180 08fc D7F8C420 		ldr	r2, [r7, #196]
 5181 0900 D31A     		subs	r3, r2, r3
 5182 0902 13F1040F 		cmn	r3, #4
 5183 0906 06DB     		blt	.L203
 5184              		.loc 3 1054 0 discriminator 6
 5185 0908 FB69     		ldr	r3, [r7, #28]
 5186 090a 9B00     		lsls	r3, r3, #2
 5187 090c D7F8C420 		ldr	r2, [r7, #196]
 5188 0910 D31A     		subs	r3, r2, r3
 5189 0912 042B     		cmp	r3, #4
 5190 0914 44DD     		ble	.L202
 5191              	.L203:
1055:STM32F10x_Speex_Lib/STM32/libspeex/nb_celp.c ****               || (MULT16_16_Q15(QCONST16(.67,15),tmp)>best_pitch_gain&&(ABS(2*best_pitch-pitch)<3||
 5192              		.loc 3 1055 0 is_stmt 1
 5193 0916 B7F94230 		ldrsh	r3, [r7, #66]
 5194 091a 45F2C352 		movw	r2, #21955
 5195 091e 02FB03F3 		mul	r3, r2, r3
 5196 0922 DA13     		asrs	r2, r3, #15
 5197 0924 B7F9C230 		ldrsh	r3, [r7, #194]
 5198 0928 9A42     		cmp	r2, r3
 5199 092a 46DD     		ble	.L207
 5200              		.loc 3 1055 0 is_stmt 0 discriminator 1
 5201 092c D7F8C430 		ldr	r3, [r7, #196]
 5202 0930 5A00     		lsls	r2, r3, #1
 5203 0932 FB69     		ldr	r3, [r7, #28]
 5204 0934 D31A     		subs	r3, r2, r3
 5205 0936 13F1020F 		cmn	r3, #2
 5206 093a 06DB     		blt	.L208
 5207              		.loc 3 1055 0 discriminator 2
 5208 093c D7F8C430 		ldr	r3, [r7, #196]
 5209 0940 5A00     		lsls	r2, r3, #1
 5210 0942 FB69     		ldr	r3, [r7, #28]
 5211 0944 D31A     		subs	r3, r2, r3
 5212 0946 022B     		cmp	r3, #2
 5213 0948 2ADD     		ble	.L202
 5214              	.L208:
 5215              		.loc 3 1055 0 discriminator 4
 5216 094a D7F8C420 		ldr	r2, [r7, #196]
 5217 094e 1346     		mov	r3, r2
 5218 0950 5B00     		lsls	r3, r3, #1
 5219 0952 1A44     		add	r2, r2, r3
 5220 0954 FB69     		ldr	r3, [r7, #28]
 5221 0956 D31A     		subs	r3, r2, r3
1053:STM32F10x_Speex_Lib/STM32/libspeex/nb_celp.c ****          if ((tmp>best_pitch_gain&&ABS(2*best_pitch-pitch)>=3&&ABS(3*best_pitch-pitch)>=4&&ABS(4*be
 5222              		.loc 3 1053 0 is_stmt 1 discriminator 4
 5223 0958 002B     		cmp	r3, #0
 5224 095a 09DA     		bge	.L209
 5225              		.loc 3 1055 0
 5226 095c D7F8C430 		ldr	r3, [r7, #196]
 5227 0960 1A46     		mov	r2, r3
 5228 0962 9B00     		lsls	r3, r3, #2
ARM GAS  /var/folders/kh/x4vltyy52lbg7p4pcyglc5080000gp/T//ccuucmVt.s 			page 117


 5229 0964 D21A     		subs	r2, r2, r3
 5230 0966 FB69     		ldr	r3, [r7, #28]
 5231 0968 1344     		add	r3, r3, r2
 5232 096a 032B     		cmp	r3, #3
 5233 096c 18DD     		ble	.L202
 5234 096e 08E0     		b	.L210
 5235              	.L209:
 5236 0970 D7F8C420 		ldr	r2, [r7, #196]
 5237 0974 1346     		mov	r3, r2
 5238 0976 5B00     		lsls	r3, r3, #1
 5239 0978 1A44     		add	r2, r2, r3
 5240 097a FB69     		ldr	r3, [r7, #28]
 5241 097c D31A     		subs	r3, r2, r3
 5242 097e 032B     		cmp	r3, #3
 5243 0980 0EDD     		ble	.L202
 5244              	.L210:
 5245              		.loc 3 1055 0 is_stmt 0 discriminator 5
 5246 0982 D7F8C430 		ldr	r3, [r7, #196]
 5247 0986 9A00     		lsls	r2, r3, #2
 5248 0988 FB69     		ldr	r3, [r7, #28]
 5249 098a D31A     		subs	r3, r2, r3
 5250 098c 13F1040F 		cmn	r3, #4
 5251 0990 13DB     		blt	.L207
 5252              		.loc 3 1055 0 discriminator 6
 5253 0992 D7F8C430 		ldr	r3, [r7, #196]
 5254 0996 9A00     		lsls	r2, r3, #2
 5255 0998 FB69     		ldr	r3, [r7, #28]
 5256 099a D31A     		subs	r3, r2, r3
 5257 099c 042B     		cmp	r3, #4
 5258 099e 0CDC     		bgt	.L207
 5259              	.L202:
1056:STM32F10x_Speex_Lib/STM32/libspeex/nb_celp.c ****          {
1057:STM32F10x_Speex_Lib/STM32/libspeex/nb_celp.c ****             best_pitch = pitch;
 5260              		.loc 3 1057 0 is_stmt 1
 5261 09a0 FB69     		ldr	r3, [r7, #28]
 5262 09a2 C7F8C430 		str	r3, [r7, #196]
1058:STM32F10x_Speex_Lib/STM32/libspeex/nb_celp.c ****             if (tmp > best_pitch_gain)
 5263              		.loc 3 1058 0
 5264 09a6 B7F94220 		ldrsh	r2, [r7, #66]
 5265 09aa B7F9C230 		ldrsh	r3, [r7, #194]
 5266 09ae 9A42     		cmp	r2, r3
 5267 09b0 03DD     		ble	.L207
1059:STM32F10x_Speex_Lib/STM32/libspeex/nb_celp.c ****                best_pitch_gain = tmp;
 5268              		.loc 3 1059 0
 5269 09b2 B7F84230 		ldrh	r3, [r7, #66]	@ movhi
 5270 09b6 A7F8C230 		strh	r3, [r7, #194]	@ movhi
 5271              	.L207:
 5272              	.LBE22:
 5273              	.LBB23:
1060:STM32F10x_Speex_Lib/STM32/libspeex/nb_celp.c ****          }
1061:STM32F10x_Speex_Lib/STM32/libspeex/nb_celp.c ****       }
1062:STM32F10x_Speex_Lib/STM32/libspeex/nb_celp.c ****       
1063:STM32F10x_Speex_Lib/STM32/libspeex/nb_celp.c ****       /* Unquantize the innovation */
1064:STM32F10x_Speex_Lib/STM32/libspeex/nb_celp.c ****       {
1065:STM32F10x_Speex_Lib/STM32/libspeex/nb_celp.c ****          int q_energy;
1066:STM32F10x_Speex_Lib/STM32/libspeex/nb_celp.c ****          spx_word32_t ener;
1067:STM32F10x_Speex_Lib/STM32/libspeex/nb_celp.c ****          
ARM GAS  /var/folders/kh/x4vltyy52lbg7p4pcyglc5080000gp/T//ccuucmVt.s 			page 118


1068:STM32F10x_Speex_Lib/STM32/libspeex/nb_celp.c ****          SPEEX_MEMSET(innov, 0, st->subframeSize);
 5274              		.loc 3 1068 0
 5275 09ba D7F89430 		ldr	r3, [r7, #148]
 5276 09be 1B69     		ldr	r3, [r3, #16]
 5277 09c0 9B00     		lsls	r3, r3, #2
 5278 09c2 1A46     		mov	r2, r3
 5279 09c4 0021     		movs	r1, #0
 5280 09c6 F86D     		ldr	r0, [r7, #92]
 5281 09c8 FFF7FEFF 		bl	memset
1069:STM32F10x_Speex_Lib/STM32/libspeex/nb_celp.c **** 
1070:STM32F10x_Speex_Lib/STM32/libspeex/nb_celp.c ****          /* Decode sub-frame gain correction */
1071:STM32F10x_Speex_Lib/STM32/libspeex/nb_celp.c ****          if (SUBMODE(have_subframe_gain)==3)
 5282              		.loc 3 1071 0
 5283 09cc D7F89430 		ldr	r3, [r7, #148]
 5284 09d0 5A6F     		ldr	r2, [r3, #116]
 5285 09d2 D7F89430 		ldr	r3, [r7, #148]
 5286 09d6 9B6F     		ldr	r3, [r3, #120]
 5287 09d8 9B00     		lsls	r3, r3, #2
 5288 09da 1344     		add	r3, r3, r2
 5289 09dc 1B68     		ldr	r3, [r3]
 5290 09de 9B68     		ldr	r3, [r3, #8]
 5291 09e0 032B     		cmp	r3, #3
 5292 09e2 20D1     		bne	.L211
1072:STM32F10x_Speex_Lib/STM32/libspeex/nb_celp.c ****          {
1073:STM32F10x_Speex_Lib/STM32/libspeex/nb_celp.c ****             q_energy = speex_bits_unpack_unsigned(bits, 3);
 5293              		.loc 3 1073 0
 5294 09e4 0321     		movs	r1, #3
 5295 09e6 B868     		ldr	r0, [r7, #8]
 5296 09e8 FFF7FEFF 		bl	speex_bits_unpack_unsigned
 5297 09ec 0346     		mov	r3, r0
 5298 09ee FB63     		str	r3, [r7, #60]
1074:STM32F10x_Speex_Lib/STM32/libspeex/nb_celp.c ****             ener = MULT16_32_Q14(exc_gain_quant_scal3[q_energy],ol_gain);
 5299              		.loc 3 1074 0
 5300 09f0 B44A     		ldr	r2, .L259
 5301 09f2 FB6B     		ldr	r3, [r7, #60]
 5302 09f4 32F91330 		ldrsh	r3, [r2, r3, lsl #1]
 5303 09f8 1A46     		mov	r2, r3
 5304 09fa D7F89C30 		ldr	r3, [r7, #156]
 5305 09fe 9B13     		asrs	r3, r3, #14
 5306 0a00 1BB2     		sxth	r3, r3
 5307 0a02 03FB02F2 		mul	r2, r3, r2
 5308 0a06 AF49     		ldr	r1, .L259
 5309 0a08 FB6B     		ldr	r3, [r7, #60]
 5310 0a0a 31F91330 		ldrsh	r3, [r1, r3, lsl #1]
 5311 0a0e 1946     		mov	r1, r3
 5312 0a10 D7F89C30 		ldr	r3, [r7, #156]
 5313 0a14 C3F30D03 		ubfx	r3, r3, #0, #14
 5314 0a18 03FB01F3 		mul	r3, r3, r1
 5315 0a1c 9B13     		asrs	r3, r3, #14
 5316 0a1e 1344     		add	r3, r3, r2
 5317 0a20 C7F8AC30 		str	r3, [r7, #172]
 5318 0a24 30E0     		b	.L212
 5319              	.L211:
1075:STM32F10x_Speex_Lib/STM32/libspeex/nb_celp.c ****          } else if (SUBMODE(have_subframe_gain)==1)
 5320              		.loc 3 1075 0
 5321 0a26 D7F89430 		ldr	r3, [r7, #148]
 5322 0a2a 5A6F     		ldr	r2, [r3, #116]
ARM GAS  /var/folders/kh/x4vltyy52lbg7p4pcyglc5080000gp/T//ccuucmVt.s 			page 119


 5323 0a2c D7F89430 		ldr	r3, [r7, #148]
 5324 0a30 9B6F     		ldr	r3, [r3, #120]
 5325 0a32 9B00     		lsls	r3, r3, #2
 5326 0a34 1344     		add	r3, r3, r2
 5327 0a36 1B68     		ldr	r3, [r3]
 5328 0a38 9B68     		ldr	r3, [r3, #8]
 5329 0a3a 012B     		cmp	r3, #1
 5330 0a3c 20D1     		bne	.L213
1076:STM32F10x_Speex_Lib/STM32/libspeex/nb_celp.c ****          {
1077:STM32F10x_Speex_Lib/STM32/libspeex/nb_celp.c ****             q_energy = speex_bits_unpack_unsigned(bits, 1);
 5331              		.loc 3 1077 0
 5332 0a3e 0121     		movs	r1, #1
 5333 0a40 B868     		ldr	r0, [r7, #8]
 5334 0a42 FFF7FEFF 		bl	speex_bits_unpack_unsigned
 5335 0a46 0346     		mov	r3, r0
 5336 0a48 FB63     		str	r3, [r7, #60]
1078:STM32F10x_Speex_Lib/STM32/libspeex/nb_celp.c ****             ener = MULT16_32_Q14(exc_gain_quant_scal1[q_energy],ol_gain);
 5337              		.loc 3 1078 0
 5338 0a4a 9F4A     		ldr	r2, .L259+4
 5339 0a4c FB6B     		ldr	r3, [r7, #60]
 5340 0a4e 32F91330 		ldrsh	r3, [r2, r3, lsl #1]
 5341 0a52 1A46     		mov	r2, r3
 5342 0a54 D7F89C30 		ldr	r3, [r7, #156]
 5343 0a58 9B13     		asrs	r3, r3, #14
 5344 0a5a 1BB2     		sxth	r3, r3
 5345 0a5c 03FB02F2 		mul	r2, r3, r2
 5346 0a60 9949     		ldr	r1, .L259+4
 5347 0a62 FB6B     		ldr	r3, [r7, #60]
 5348 0a64 31F91330 		ldrsh	r3, [r1, r3, lsl #1]
 5349 0a68 1946     		mov	r1, r3
 5350 0a6a D7F89C30 		ldr	r3, [r7, #156]
 5351 0a6e C3F30D03 		ubfx	r3, r3, #0, #14
 5352 0a72 03FB01F3 		mul	r3, r3, r1
 5353 0a76 9B13     		asrs	r3, r3, #14
 5354 0a78 1344     		add	r3, r3, r2
 5355 0a7a C7F8AC30 		str	r3, [r7, #172]
 5356 0a7e 03E0     		b	.L212
 5357              	.L213:
1079:STM32F10x_Speex_Lib/STM32/libspeex/nb_celp.c ****          } else {
1080:STM32F10x_Speex_Lib/STM32/libspeex/nb_celp.c ****             ener = ol_gain;
 5358              		.loc 3 1080 0
 5359 0a80 D7F89C30 		ldr	r3, [r7, #156]
 5360 0a84 C7F8AC30 		str	r3, [r7, #172]
 5361              	.L212:
1081:STM32F10x_Speex_Lib/STM32/libspeex/nb_celp.c ****          }
1082:STM32F10x_Speex_Lib/STM32/libspeex/nb_celp.c ****                   
1083:STM32F10x_Speex_Lib/STM32/libspeex/nb_celp.c ****          {
1084:STM32F10x_Speex_Lib/STM32/libspeex/nb_celp.c ****             /*Fixed codebook contribution*/
1085:STM32F10x_Speex_Lib/STM32/libspeex/nb_celp.c ****             SUBMODE(innovation_unquant)(innov, SUBMODE(innovation_params), st->subframeSize, bits, 
 5362              		.loc 3 1085 0
 5363 0a88 D7F89430 		ldr	r3, [r7, #148]
 5364 0a8c 5A6F     		ldr	r2, [r3, #116]
 5365 0a8e D7F89430 		ldr	r3, [r7, #148]
 5366 0a92 9B6F     		ldr	r3, [r3, #120]
 5367 0a94 9B00     		lsls	r3, r3, #2
 5368 0a96 1344     		add	r3, r3, r2
 5369 0a98 1B68     		ldr	r3, [r3]
ARM GAS  /var/folders/kh/x4vltyy52lbg7p4pcyglc5080000gp/T//ccuucmVt.s 			page 120


 5370 0a9a 9C6A     		ldr	r4, [r3, #40]
 5371 0a9c D7F89430 		ldr	r3, [r7, #148]
 5372 0aa0 5A6F     		ldr	r2, [r3, #116]
 5373 0aa2 D7F89430 		ldr	r3, [r7, #148]
 5374 0aa6 9B6F     		ldr	r3, [r3, #120]
 5375 0aa8 9B00     		lsls	r3, r3, #2
 5376 0aaa 1344     		add	r3, r3, r2
 5377 0aac 1B68     		ldr	r3, [r3]
 5378 0aae D96A     		ldr	r1, [r3, #44]
 5379 0ab0 D7F89430 		ldr	r3, [r7, #148]
 5380 0ab4 1A69     		ldr	r2, [r3, #16]
 5381 0ab6 D7F89430 		ldr	r3, [r7, #148]
 5382 0aba 6C33     		adds	r3, r3, #108
 5383 0abc 0193     		str	r3, [sp, #4]
 5384 0abe D7F8BC30 		ldr	r3, [r7, #188]
 5385 0ac2 0093     		str	r3, [sp]
 5386 0ac4 BB68     		ldr	r3, [r7, #8]
 5387 0ac6 F86D     		ldr	r0, [r7, #92]
 5388 0ac8 A047     		blx	r4
1086:STM32F10x_Speex_Lib/STM32/libspeex/nb_celp.c ****             /* De-normalize innovation and update excitation */
1087:STM32F10x_Speex_Lib/STM32/libspeex/nb_celp.c **** 
1088:STM32F10x_Speex_Lib/STM32/libspeex/nb_celp.c ****             signal_mul(innov, innov, ener, st->subframeSize);
 5389              		.loc 3 1088 0
 5390 0aca D7F89430 		ldr	r3, [r7, #148]
 5391 0ace 1B69     		ldr	r3, [r3, #16]
 5392 0ad0 D7F8AC20 		ldr	r2, [r7, #172]
 5393 0ad4 F96D     		ldr	r1, [r7, #92]
 5394 0ad6 F86D     		ldr	r0, [r7, #92]
 5395 0ad8 FFF7FEFF 		bl	signal_mul
1089:STM32F10x_Speex_Lib/STM32/libspeex/nb_celp.c **** 
1090:STM32F10x_Speex_Lib/STM32/libspeex/nb_celp.c ****             /* Decode second codebook (only for some modes) */
1091:STM32F10x_Speex_Lib/STM32/libspeex/nb_celp.c ****             if (SUBMODE(double_codebook))
 5396              		.loc 3 1091 0
 5397 0adc D7F89430 		ldr	r3, [r7, #148]
 5398 0ae0 5A6F     		ldr	r2, [r3, #116]
 5399 0ae2 D7F89430 		ldr	r3, [r7, #148]
 5400 0ae6 9B6F     		ldr	r3, [r3, #120]
 5401 0ae8 9B00     		lsls	r3, r3, #2
 5402 0aea 1344     		add	r3, r3, r2
 5403 0aec 1B68     		ldr	r3, [r3]
 5404 0aee DB68     		ldr	r3, [r3, #12]
 5405 0af0 002B     		cmp	r3, #0
 5406 0af2 00F08980 		beq	.L214
 5407              	.LBB24:
1092:STM32F10x_Speex_Lib/STM32/libspeex/nb_celp.c ****             {
1093:STM32F10x_Speex_Lib/STM32/libspeex/nb_celp.c ****                char *tmp_stack=stack;
 5408              		.loc 3 1093 0
 5409 0af6 D7F8BC30 		ldr	r3, [r7, #188]
 5410 0afa BB63     		str	r3, [r7, #56]
1094:STM32F10x_Speex_Lib/STM32/libspeex/nb_celp.c ****                VARDECL(spx_sig_t *innov2);
1095:STM32F10x_Speex_Lib/STM32/libspeex/nb_celp.c ****                ALLOC(innov2, st->subframeSize, spx_sig_t);
 5411              		.loc 3 1095 0
 5412 0afc D7F8BC30 		ldr	r3, [r7, #188]
 5413 0b00 5B42     		negs	r3, r3
 5414 0b02 03F00303 		and	r3, r3, #3
 5415 0b06 D7F8BC20 		ldr	r2, [r7, #188]
 5416 0b0a 1344     		add	r3, r3, r2
ARM GAS  /var/folders/kh/x4vltyy52lbg7p4pcyglc5080000gp/T//ccuucmVt.s 			page 121


 5417 0b0c C7F8BC30 		str	r3, [r7, #188]
 5418 0b10 D7F89430 		ldr	r3, [r7, #148]
 5419 0b14 1B69     		ldr	r3, [r3, #16]
 5420 0b16 9B00     		lsls	r3, r3, #2
 5421 0b18 D7F8BC20 		ldr	r2, [r7, #188]
 5422 0b1c 1344     		add	r3, r3, r2
 5423 0b1e C7F8BC30 		str	r3, [r7, #188]
 5424 0b22 D7F89430 		ldr	r3, [r7, #148]
 5425 0b26 1B69     		ldr	r3, [r3, #16]
 5426 0b28 9B00     		lsls	r3, r3, #2
 5427 0b2a 5B42     		negs	r3, r3
 5428 0b2c D7F8BC20 		ldr	r2, [r7, #188]
 5429 0b30 1344     		add	r3, r3, r2
 5430 0b32 7B63     		str	r3, [r7, #52]
1096:STM32F10x_Speex_Lib/STM32/libspeex/nb_celp.c ****                SPEEX_MEMSET(innov2, 0, st->subframeSize);
 5431              		.loc 3 1096 0
 5432 0b34 D7F89430 		ldr	r3, [r7, #148]
 5433 0b38 1B69     		ldr	r3, [r3, #16]
 5434 0b3a 9B00     		lsls	r3, r3, #2
 5435 0b3c 1A46     		mov	r2, r3
 5436 0b3e 0021     		movs	r1, #0
 5437 0b40 786B     		ldr	r0, [r7, #52]
 5438 0b42 FFF7FEFF 		bl	memset
1097:STM32F10x_Speex_Lib/STM32/libspeex/nb_celp.c ****                SUBMODE(innovation_unquant)(innov2, SUBMODE(innovation_params), st->subframeSize, bi
 5439              		.loc 3 1097 0
 5440 0b46 D7F89430 		ldr	r3, [r7, #148]
 5441 0b4a 5A6F     		ldr	r2, [r3, #116]
 5442 0b4c D7F89430 		ldr	r3, [r7, #148]
 5443 0b50 9B6F     		ldr	r3, [r3, #120]
 5444 0b52 9B00     		lsls	r3, r3, #2
 5445 0b54 1344     		add	r3, r3, r2
 5446 0b56 1B68     		ldr	r3, [r3]
 5447 0b58 9C6A     		ldr	r4, [r3, #40]
 5448 0b5a D7F89430 		ldr	r3, [r7, #148]
 5449 0b5e 5A6F     		ldr	r2, [r3, #116]
 5450 0b60 D7F89430 		ldr	r3, [r7, #148]
 5451 0b64 9B6F     		ldr	r3, [r3, #120]
 5452 0b66 9B00     		lsls	r3, r3, #2
 5453 0b68 1344     		add	r3, r3, r2
 5454 0b6a 1B68     		ldr	r3, [r3]
 5455 0b6c D96A     		ldr	r1, [r3, #44]
 5456 0b6e D7F89430 		ldr	r3, [r7, #148]
 5457 0b72 1A69     		ldr	r2, [r3, #16]
 5458 0b74 D7F89430 		ldr	r3, [r7, #148]
 5459 0b78 6C33     		adds	r3, r3, #108
 5460 0b7a 0193     		str	r3, [sp, #4]
 5461 0b7c D7F8BC30 		ldr	r3, [r7, #188]
 5462 0b80 0093     		str	r3, [sp]
 5463 0b82 BB68     		ldr	r3, [r7, #8]
 5464 0b84 786B     		ldr	r0, [r7, #52]
 5465 0b86 A047     		blx	r4
1098:STM32F10x_Speex_Lib/STM32/libspeex/nb_celp.c ****                signal_mul(innov2, innov2, MULT16_32_Q15(QCONST16(0.454545f,15),ener), st->subframeS
 5466              		.loc 3 1098 0
 5467 0b88 D7F8AC30 		ldr	r3, [r7, #172]
 5468 0b8c DB13     		asrs	r3, r3, #15
 5469 0b8e 1BB2     		sxth	r3, r3
 5470 0b90 1A46     		mov	r2, r3
ARM GAS  /var/folders/kh/x4vltyy52lbg7p4pcyglc5080000gp/T//ccuucmVt.s 			page 122


 5471 0b92 43F62F23 		movw	r3, #14895
 5472 0b96 03FB02F2 		mul	r2, r3, r2
 5473 0b9a D7F8AC30 		ldr	r3, [r7, #172]
 5474 0b9e C3F30E03 		ubfx	r3, r3, #0, #15
 5475 0ba2 43F62F21 		movw	r1, #14895
 5476 0ba6 01FB03F3 		mul	r3, r1, r3
 5477 0baa DB13     		asrs	r3, r3, #15
 5478 0bac 1A44     		add	r2, r2, r3
 5479 0bae D7F89430 		ldr	r3, [r7, #148]
 5480 0bb2 1B69     		ldr	r3, [r3, #16]
 5481 0bb4 796B     		ldr	r1, [r7, #52]
 5482 0bb6 786B     		ldr	r0, [r7, #52]
 5483 0bb8 FFF7FEFF 		bl	signal_mul
1099:STM32F10x_Speex_Lib/STM32/libspeex/nb_celp.c ****                for (i=0;i<st->subframeSize;i++)
 5484              		.loc 3 1099 0
 5485 0bbc 0023     		movs	r3, #0
 5486 0bbe C7F8D430 		str	r3, [r7, #212]
 5487 0bc2 17E0     		b	.L215
 5488              	.L216:
1100:STM32F10x_Speex_Lib/STM32/libspeex/nb_celp.c ****                   innov[i] = ADD32(innov[i], innov2[i]);
 5489              		.loc 3 1100 0 discriminator 3
 5490 0bc4 D7F8D430 		ldr	r3, [r7, #212]
 5491 0bc8 9B00     		lsls	r3, r3, #2
 5492 0bca FA6D     		ldr	r2, [r7, #92]
 5493 0bcc 1344     		add	r3, r3, r2
 5494 0bce D7F8D420 		ldr	r2, [r7, #212]
 5495 0bd2 9200     		lsls	r2, r2, #2
 5496 0bd4 F96D     		ldr	r1, [r7, #92]
 5497 0bd6 0A44     		add	r2, r2, r1
 5498 0bd8 1168     		ldr	r1, [r2]
 5499 0bda D7F8D420 		ldr	r2, [r7, #212]
 5500 0bde 9200     		lsls	r2, r2, #2
 5501 0be0 786B     		ldr	r0, [r7, #52]
 5502 0be2 0244     		add	r2, r2, r0
 5503 0be4 1268     		ldr	r2, [r2]
 5504 0be6 0A44     		add	r2, r2, r1
 5505 0be8 1A60     		str	r2, [r3]
1099:STM32F10x_Speex_Lib/STM32/libspeex/nb_celp.c ****                for (i=0;i<st->subframeSize;i++)
 5506              		.loc 3 1099 0 discriminator 3
 5507 0bea D7F8D430 		ldr	r3, [r7, #212]
 5508 0bee 0133     		adds	r3, r3, #1
 5509 0bf0 C7F8D430 		str	r3, [r7, #212]
 5510              	.L215:
1099:STM32F10x_Speex_Lib/STM32/libspeex/nb_celp.c ****                for (i=0;i<st->subframeSize;i++)
 5511              		.loc 3 1099 0 is_stmt 0 discriminator 1
 5512 0bf4 D7F89430 		ldr	r3, [r7, #148]
 5513 0bf8 1A69     		ldr	r2, [r3, #16]
 5514 0bfa D7F8D430 		ldr	r3, [r7, #212]
 5515 0bfe 9A42     		cmp	r2, r3
 5516 0c00 E0DC     		bgt	.L216
1101:STM32F10x_Speex_Lib/STM32/libspeex/nb_celp.c ****                stack = tmp_stack;
 5517              		.loc 3 1101 0 is_stmt 1
 5518 0c02 BB6B     		ldr	r3, [r7, #56]
 5519 0c04 C7F8BC30 		str	r3, [r7, #188]
 5520              	.L214:
 5521              	.LBE24:
1102:STM32F10x_Speex_Lib/STM32/libspeex/nb_celp.c ****             }
ARM GAS  /var/folders/kh/x4vltyy52lbg7p4pcyglc5080000gp/T//ccuucmVt.s 			page 123


1103:STM32F10x_Speex_Lib/STM32/libspeex/nb_celp.c ****             for (i=0;i<st->subframeSize;i++)
 5522              		.loc 3 1103 0
 5523 0c08 0023     		movs	r3, #0
 5524 0c0a C7F8D430 		str	r3, [r7, #212]
 5525 0c0e 49E0     		b	.L217
 5526              	.L222:
1104:STM32F10x_Speex_Lib/STM32/libspeex/nb_celp.c ****                exc[i]=EXTRACT16(SATURATE32(PSHR32(ADD32(SHL32(exc32[i],1),innov[i]),SIG_SHIFT),3276
 5527              		.loc 3 1104 0
 5528 0c10 D7F8D430 		ldr	r3, [r7, #212]
 5529 0c14 5B00     		lsls	r3, r3, #1
 5530 0c16 FA6C     		ldr	r2, [r7, #76]
 5531 0c18 1A44     		add	r2, r2, r3
 5532 0c1a D7F8D430 		ldr	r3, [r7, #212]
 5533 0c1e 9B00     		lsls	r3, r3, #2
 5534 0c20 B96D     		ldr	r1, [r7, #88]
 5535 0c22 0B44     		add	r3, r3, r1
 5536 0c24 1B68     		ldr	r3, [r3]
 5537 0c26 5900     		lsls	r1, r3, #1
 5538 0c28 D7F8D430 		ldr	r3, [r7, #212]
 5539 0c2c 9B00     		lsls	r3, r3, #2
 5540 0c2e F86D     		ldr	r0, [r7, #92]
 5541 0c30 0344     		add	r3, r3, r0
 5542 0c32 1B68     		ldr	r3, [r3]
 5543 0c34 0B44     		add	r3, r3, r1
 5544 0c36 03F50053 		add	r3, r3, #8192
 5545 0c3a 9B13     		asrs	r3, r3, #14
 5546 0c3c B3F5004F 		cmp	r3, #32768
 5547 0c40 28DA     		bge	.L218
 5548              		.loc 3 1104 0 is_stmt 0 discriminator 1
 5549 0c42 D7F8D430 		ldr	r3, [r7, #212]
 5550 0c46 9B00     		lsls	r3, r3, #2
 5551 0c48 B96D     		ldr	r1, [r7, #88]
 5552 0c4a 0B44     		add	r3, r3, r1
 5553 0c4c 1B68     		ldr	r3, [r3]
 5554 0c4e 5900     		lsls	r1, r3, #1
 5555 0c50 D7F8D430 		ldr	r3, [r7, #212]
 5556 0c54 9B00     		lsls	r3, r3, #2
 5557 0c56 F86D     		ldr	r0, [r7, #92]
 5558 0c58 0344     		add	r3, r3, r0
 5559 0c5a 1B68     		ldr	r3, [r3]
 5560 0c5c 0B44     		add	r3, r3, r1
 5561 0c5e 03F50053 		add	r3, r3, #8192
 5562 0c62 9B13     		asrs	r3, r3, #14
 5563 0c64 13F5004F 		cmn	r3, #32768
 5564 0c68 12DD     		ble	.L219
 5565              		.loc 3 1104 0 discriminator 3
 5566 0c6a D7F8D430 		ldr	r3, [r7, #212]
 5567 0c6e 9B00     		lsls	r3, r3, #2
 5568 0c70 B96D     		ldr	r1, [r7, #88]
 5569 0c72 0B44     		add	r3, r3, r1
 5570 0c74 1B68     		ldr	r3, [r3]
 5571 0c76 5900     		lsls	r1, r3, #1
 5572 0c78 D7F8D430 		ldr	r3, [r7, #212]
 5573 0c7c 9B00     		lsls	r3, r3, #2
 5574 0c7e F86D     		ldr	r0, [r7, #92]
 5575 0c80 0344     		add	r3, r3, r0
 5576 0c82 1B68     		ldr	r3, [r3]
ARM GAS  /var/folders/kh/x4vltyy52lbg7p4pcyglc5080000gp/T//ccuucmVt.s 			page 124


 5577 0c84 0B44     		add	r3, r3, r1
 5578 0c86 03F50053 		add	r3, r3, #8192
 5579 0c8a 9B13     		asrs	r3, r3, #14
 5580 0c8c 1BB2     		sxth	r3, r3
 5581 0c8e 03E0     		b	.L221
 5582              	.L219:
 5583              		.loc 3 1104 0 discriminator 4
 5584 0c90 0E4B     		ldr	r3, .L259+8
 5585 0c92 01E0     		b	.L221
 5586              	.L218:
 5587              		.loc 3 1104 0 discriminator 2
 5588 0c94 47F6FF73 		movw	r3, #32767
 5589              	.L221:
 5590              		.loc 3 1104 0 discriminator 8
 5591 0c98 1380     		strh	r3, [r2]	@ movhi
1103:STM32F10x_Speex_Lib/STM32/libspeex/nb_celp.c ****                exc[i]=EXTRACT16(SATURATE32(PSHR32(ADD32(SHL32(exc32[i],1),innov[i]),SIG_SHIFT),3276
 5592              		.loc 3 1103 0 is_stmt 1 discriminator 8
 5593 0c9a D7F8D430 		ldr	r3, [r7, #212]
 5594 0c9e 0133     		adds	r3, r3, #1
 5595 0ca0 C7F8D430 		str	r3, [r7, #212]
 5596              	.L217:
1103:STM32F10x_Speex_Lib/STM32/libspeex/nb_celp.c ****                exc[i]=EXTRACT16(SATURATE32(PSHR32(ADD32(SHL32(exc32[i],1),innov[i]),SIG_SHIFT),3276
 5597              		.loc 3 1103 0 is_stmt 0 discriminator 2
 5598 0ca4 D7F89430 		ldr	r3, [r7, #148]
 5599 0ca8 1A69     		ldr	r2, [r3, #16]
 5600 0caa D7F8D430 		ldr	r3, [r7, #212]
 5601 0cae 9A42     		cmp	r2, r3
 5602 0cb0 AEDC     		bgt	.L222
1105:STM32F10x_Speex_Lib/STM32/libspeex/nb_celp.c ****             /*print_vec(exc, 40, "innov");*/
1106:STM32F10x_Speex_Lib/STM32/libspeex/nb_celp.c ****             if (innov_save)
 5603              		.loc 3 1106 0 is_stmt 1
 5604 0cb2 D7F8B030 		ldr	r3, [r7, #176]
 5605 0cb6 002B     		cmp	r3, #0
 5606 0cb8 27D0     		beq	.L223
1107:STM32F10x_Speex_Lib/STM32/libspeex/nb_celp.c ****             {
1108:STM32F10x_Speex_Lib/STM32/libspeex/nb_celp.c ****                for (i=0;i<st->subframeSize;i++)
 5607              		.loc 3 1108 0
 5608 0cba 0023     		movs	r3, #0
 5609 0cbc C7F8D430 		str	r3, [r7, #212]
 5610 0cc0 1CE0     		b	.L224
 5611              	.L260:
 5612 0cc2 00BF     		.align	2
 5613              	.L259:
 5614 0cc4 00000000 		.word	exc_gain_quant_scal3
 5615 0cc8 00000000 		.word	exc_gain_quant_scal1
 5616 0ccc 0180FFFF 		.word	-32767
 5617              	.L225:
1109:STM32F10x_Speex_Lib/STM32/libspeex/nb_celp.c ****                   innov_save[i] = EXTRACT16(PSHR32(innov[i], SIG_SHIFT));
 5618              		.loc 3 1109 0 discriminator 3
 5619 0cd0 D7F8D430 		ldr	r3, [r7, #212]
 5620 0cd4 5B00     		lsls	r3, r3, #1
 5621 0cd6 D7F8B020 		ldr	r2, [r7, #176]
 5622 0cda 1344     		add	r3, r3, r2
 5623 0cdc D7F8D420 		ldr	r2, [r7, #212]
 5624 0ce0 9200     		lsls	r2, r2, #2
 5625 0ce2 F96D     		ldr	r1, [r7, #92]
 5626 0ce4 0A44     		add	r2, r2, r1
ARM GAS  /var/folders/kh/x4vltyy52lbg7p4pcyglc5080000gp/T//ccuucmVt.s 			page 125


 5627 0ce6 1268     		ldr	r2, [r2]
 5628 0ce8 02F50052 		add	r2, r2, #8192
 5629 0cec 9213     		asrs	r2, r2, #14
 5630 0cee 12B2     		sxth	r2, r2
 5631 0cf0 1A80     		strh	r2, [r3]	@ movhi
1108:STM32F10x_Speex_Lib/STM32/libspeex/nb_celp.c ****                   innov_save[i] = EXTRACT16(PSHR32(innov[i], SIG_SHIFT));
 5632              		.loc 3 1108 0 discriminator 3
 5633 0cf2 D7F8D430 		ldr	r3, [r7, #212]
 5634 0cf6 0133     		adds	r3, r3, #1
 5635 0cf8 C7F8D430 		str	r3, [r7, #212]
 5636              	.L224:
1108:STM32F10x_Speex_Lib/STM32/libspeex/nb_celp.c ****                   innov_save[i] = EXTRACT16(PSHR32(innov[i], SIG_SHIFT));
 5637              		.loc 3 1108 0 is_stmt 0 discriminator 1
 5638 0cfc D7F89430 		ldr	r3, [r7, #148]
 5639 0d00 1A69     		ldr	r2, [r3, #16]
 5640 0d02 D7F8D430 		ldr	r3, [r7, #212]
 5641 0d06 9A42     		cmp	r2, r3
 5642 0d08 E2DC     		bgt	.L225
 5643              	.L223:
1110:STM32F10x_Speex_Lib/STM32/libspeex/nb_celp.c ****             }
1111:STM32F10x_Speex_Lib/STM32/libspeex/nb_celp.c ****          }
1112:STM32F10x_Speex_Lib/STM32/libspeex/nb_celp.c **** 
1113:STM32F10x_Speex_Lib/STM32/libspeex/nb_celp.c ****          /*Vocoder mode*/
1114:STM32F10x_Speex_Lib/STM32/libspeex/nb_celp.c ****          if (st->submodeID==1) 
 5644              		.loc 3 1114 0 is_stmt 1
 5645 0d0a D7F89430 		ldr	r3, [r7, #148]
 5646 0d0e 9B6F     		ldr	r3, [r3, #120]
 5647 0d10 012B     		cmp	r3, #1
 5648 0d12 40F02C81 		bne	.L226
 5649              	.LBB25:
1115:STM32F10x_Speex_Lib/STM32/libspeex/nb_celp.c ****          {
1116:STM32F10x_Speex_Lib/STM32/libspeex/nb_celp.c ****             spx_word16_t g=ol_pitch_coef;
 5650              		.loc 3 1116 0
 5651 0d16 B7F8CA30 		ldrh	r3, [r7, #202]	@ movhi
 5652 0d1a A7F8AA30 		strh	r3, [r7, #170]	@ movhi
1117:STM32F10x_Speex_Lib/STM32/libspeex/nb_celp.c ****             g=MULT16_16_P14(QCONST16(1.5f,14),(g-QCONST16(.2f,6)));
 5653              		.loc 3 1117 0
 5654 0d1e B7F8AA30 		ldrh	r3, [r7, #170]
 5655 0d22 0D3B     		subs	r3, r3, #13
 5656 0d24 9BB2     		uxth	r3, r3
 5657 0d26 1BB2     		sxth	r3, r3
 5658 0d28 1A46     		mov	r2, r3
 5659 0d2a 1346     		mov	r3, r2
 5660 0d2c 5B00     		lsls	r3, r3, #1
 5661 0d2e 1344     		add	r3, r3, r2
 5662 0d30 5B03     		lsls	r3, r3, #13
 5663 0d32 03F50053 		add	r3, r3, #8192
 5664 0d36 9B13     		asrs	r3, r3, #14
 5665 0d38 A7F8AA30 		strh	r3, [r7, #170]	@ movhi
1118:STM32F10x_Speex_Lib/STM32/libspeex/nb_celp.c ****             if (g<0)
 5666              		.loc 3 1118 0
 5667 0d3c B7F9AA30 		ldrsh	r3, [r7, #170]
 5668 0d40 002B     		cmp	r3, #0
 5669 0d42 02DA     		bge	.L227
1119:STM32F10x_Speex_Lib/STM32/libspeex/nb_celp.c ****                g=0;
 5670              		.loc 3 1119 0
 5671 0d44 0023     		movs	r3, #0
ARM GAS  /var/folders/kh/x4vltyy52lbg7p4pcyglc5080000gp/T//ccuucmVt.s 			page 126


 5672 0d46 A7F8AA30 		strh	r3, [r7, #170]	@ movhi
 5673              	.L227:
1120:STM32F10x_Speex_Lib/STM32/libspeex/nb_celp.c ****             if (g>GAIN_SCALING)
 5674              		.loc 3 1120 0
 5675 0d4a B7F9AA30 		ldrsh	r3, [r7, #170]
 5676 0d4e 402B     		cmp	r3, #64
 5677 0d50 02DD     		ble	.L228
1121:STM32F10x_Speex_Lib/STM32/libspeex/nb_celp.c ****                g=GAIN_SCALING;
 5678              		.loc 3 1121 0
 5679 0d52 4023     		movs	r3, #64
 5680 0d54 A7F8AA30 		strh	r3, [r7, #170]	@ movhi
 5681              	.L228:
1122:STM32F10x_Speex_Lib/STM32/libspeex/nb_celp.c ****             
1123:STM32F10x_Speex_Lib/STM32/libspeex/nb_celp.c ****             SPEEX_MEMSET(exc, 0, st->subframeSize);
 5682              		.loc 3 1123 0
 5683 0d58 D7F89430 		ldr	r3, [r7, #148]
 5684 0d5c 1B69     		ldr	r3, [r3, #16]
 5685 0d5e 5B00     		lsls	r3, r3, #1
 5686 0d60 1A46     		mov	r2, r3
 5687 0d62 0021     		movs	r1, #0
 5688 0d64 F86C     		ldr	r0, [r7, #76]
 5689 0d66 FFF7FEFF 		bl	memset
1124:STM32F10x_Speex_Lib/STM32/libspeex/nb_celp.c ****             while (st->voc_offset<st->subframeSize)
 5690              		.loc 3 1124 0
 5691 0d6a 32E0     		b	.L229
 5692              	.L231:
1125:STM32F10x_Speex_Lib/STM32/libspeex/nb_celp.c ****             {
1126:STM32F10x_Speex_Lib/STM32/libspeex/nb_celp.c ****                /* exc[st->voc_offset]= g*sqrt(2*ol_pitch)*ol_gain;
1127:STM32F10x_Speex_Lib/STM32/libspeex/nb_celp.c ****                   Not quite sure why we need the factor of two in the sqrt */
1128:STM32F10x_Speex_Lib/STM32/libspeex/nb_celp.c ****                if (st->voc_offset>=0)
 5693              		.loc 3 1128 0
 5694 0d6c D7F89430 		ldr	r3, [r7, #148]
 5695 0d70 D3F8E031 		ldr	r3, [r3, #480]
 5696 0d74 002B     		cmp	r3, #0
 5697 0d76 21DB     		blt	.L230
1129:STM32F10x_Speex_Lib/STM32/libspeex/nb_celp.c ****                   exc[st->voc_offset]=MULT16_16(spx_sqrt(MULT16_16_16(2,ol_pitch)),EXTRACT16(PSHR32
 5698              		.loc 3 1129 0
 5699 0d78 D7F89430 		ldr	r3, [r7, #148]
 5700 0d7c D3F8E031 		ldr	r3, [r3, #480]
 5701 0d80 5B00     		lsls	r3, r3, #1
 5702 0d82 FA6C     		ldr	r2, [r7, #76]
 5703 0d84 D418     		adds	r4, r2, r3
 5704 0d86 D7F8CC30 		ldr	r3, [r7, #204]
 5705 0d8a 1BB2     		sxth	r3, r3
 5706 0d8c 5B00     		lsls	r3, r3, #1
 5707 0d8e 1846     		mov	r0, r3
 5708 0d90 FFF7FEFF 		bl	spx_sqrt
 5709 0d94 0346     		mov	r3, r0
 5710 0d96 9BB2     		uxth	r3, r3
 5711 0d98 B7F9AA20 		ldrsh	r2, [r7, #170]
 5712 0d9c D7F89C10 		ldr	r1, [r7, #156]
 5713 0da0 01F50051 		add	r1, r1, #8192
 5714 0da4 8913     		asrs	r1, r1, #14
 5715 0da6 09B2     		sxth	r1, r1
 5716 0da8 01FB02F2 		mul	r2, r1, r2
 5717 0dac 2032     		adds	r2, r2, #32
 5718 0dae 9211     		asrs	r2, r2, #6
ARM GAS  /var/folders/kh/x4vltyy52lbg7p4pcyglc5080000gp/T//ccuucmVt.s 			page 127


 5719 0db0 92B2     		uxth	r2, r2
 5720 0db2 02FB03F3 		mul	r3, r2, r3
 5721 0db6 9BB2     		uxth	r3, r3
 5722 0db8 1BB2     		sxth	r3, r3
 5723 0dba 2380     		strh	r3, [r4]	@ movhi
 5724              	.L230:
1130:STM32F10x_Speex_Lib/STM32/libspeex/nb_celp.c ****                st->voc_offset+=ol_pitch;
 5725              		.loc 3 1130 0
 5726 0dbc D7F89430 		ldr	r3, [r7, #148]
 5727 0dc0 D3F8E021 		ldr	r2, [r3, #480]
 5728 0dc4 D7F8CC30 		ldr	r3, [r7, #204]
 5729 0dc8 1A44     		add	r2, r2, r3
 5730 0dca D7F89430 		ldr	r3, [r7, #148]
 5731 0dce C3F8E021 		str	r2, [r3, #480]
 5732              	.L229:
1124:STM32F10x_Speex_Lib/STM32/libspeex/nb_celp.c ****             {
 5733              		.loc 3 1124 0
 5734 0dd2 D7F89430 		ldr	r3, [r7, #148]
 5735 0dd6 D3F8E021 		ldr	r2, [r3, #480]
 5736 0dda D7F89430 		ldr	r3, [r7, #148]
 5737 0dde 1B69     		ldr	r3, [r3, #16]
 5738 0de0 9A42     		cmp	r2, r3
 5739 0de2 C3DB     		blt	.L231
1131:STM32F10x_Speex_Lib/STM32/libspeex/nb_celp.c ****             }
1132:STM32F10x_Speex_Lib/STM32/libspeex/nb_celp.c ****             st->voc_offset -= st->subframeSize;
 5740              		.loc 3 1132 0
 5741 0de4 D7F89430 		ldr	r3, [r7, #148]
 5742 0de8 D3F8E021 		ldr	r2, [r3, #480]
 5743 0dec D7F89430 		ldr	r3, [r7, #148]
 5744 0df0 1B69     		ldr	r3, [r3, #16]
 5745 0df2 D21A     		subs	r2, r2, r3
 5746 0df4 D7F89430 		ldr	r3, [r7, #148]
 5747 0df8 C3F8E021 		str	r2, [r3, #480]
1133:STM32F10x_Speex_Lib/STM32/libspeex/nb_celp.c ****             
1134:STM32F10x_Speex_Lib/STM32/libspeex/nb_celp.c ****             for (i=0;i<st->subframeSize;i++)
 5748              		.loc 3 1134 0
 5749 0dfc 0023     		movs	r3, #0
 5750 0dfe C7F8D430 		str	r3, [r7, #212]
 5751 0e02 ACE0     		b	.L232
 5752              	.L233:
 5753              	.LBB26:
1135:STM32F10x_Speex_Lib/STM32/libspeex/nb_celp.c ****             {
1136:STM32F10x_Speex_Lib/STM32/libspeex/nb_celp.c ****                spx_word16_t exci=exc[i];
 5754              		.loc 3 1136 0 discriminator 3
 5755 0e04 D7F8D430 		ldr	r3, [r7, #212]
 5756 0e08 5B00     		lsls	r3, r3, #1
 5757 0e0a FA6C     		ldr	r2, [r7, #76]
 5758 0e0c 1344     		add	r3, r3, r2
 5759 0e0e 1B88     		ldrh	r3, [r3]	@ movhi
 5760 0e10 7B86     		strh	r3, [r7, #50]	@ movhi
1137:STM32F10x_Speex_Lib/STM32/libspeex/nb_celp.c ****                exc[i]= ADD16(ADD16(MULT16_16_Q15(QCONST16(.7f,15),exc[i]) , MULT16_16_Q15(QCONST16(
 5761              		.loc 3 1137 0 discriminator 3
 5762 0e12 D7F8D430 		ldr	r3, [r7, #212]
 5763 0e16 5B00     		lsls	r3, r3, #1
 5764 0e18 FA6C     		ldr	r2, [r7, #76]
 5765 0e1a 1A44     		add	r2, r2, r3
 5766 0e1c D7F8D430 		ldr	r3, [r7, #212]
ARM GAS  /var/folders/kh/x4vltyy52lbg7p4pcyglc5080000gp/T//ccuucmVt.s 			page 128


 5767 0e20 5B00     		lsls	r3, r3, #1
 5768 0e22 F96C     		ldr	r1, [r7, #76]
 5769 0e24 0B44     		add	r3, r3, r1
 5770 0e26 B3F90030 		ldrsh	r3, [r3]
 5771 0e2a 1946     		mov	r1, r3
 5772 0e2c 45F69A13 		movw	r3, #22938
 5773 0e30 03FB01F3 		mul	r3, r3, r1
 5774 0e34 DB13     		asrs	r3, r3, #15
 5775 0e36 99B2     		uxth	r1, r3
 5776 0e38 D7F89430 		ldr	r3, [r7, #148]
 5777 0e3c B3F9D431 		ldrsh	r3, [r3, #468]
 5778 0e40 1846     		mov	r0, r3
 5779 0e42 42F26663 		movw	r3, #9830
 5780 0e46 03FB00F3 		mul	r3, r3, r0
 5781 0e4a DB13     		asrs	r3, r3, #15
 5782 0e4c 9BB2     		uxth	r3, r3
 5783 0e4e 0B44     		add	r3, r3, r1
 5784 0e50 99B2     		uxth	r1, r3
 5785 0e52 B7F8AA30 		ldrh	r3, [r7, #170]
 5786 0e56 1846     		mov	r0, r3	@ movhi
 5787 0e58 C000     		lsls	r0, r0, #3
 5788 0e5a C01A     		subs	r0, r0, r3
 5789 0e5c 8000     		lsls	r0, r0, #2
 5790 0e5e 0344     		add	r3, r3, r0
 5791 0e60 1846     		mov	r0, r3	@ movhi
 5792 0e62 0001     		lsls	r0, r0, #4
 5793 0e64 C31A     		subs	r3, r0, r3
 5794 0e66 9BB2     		uxth	r3, r3
 5795 0e68 C3F5FF43 		rsb	r3, r3, #32640
 5796 0e6c 7F33     		adds	r3, r3, #127
 5797 0e6e 9BB2     		uxth	r3, r3
 5798 0e70 1BB2     		sxth	r3, r3
 5799 0e72 1C46     		mov	r4, r3
 5800 0e74 D7F8D430 		ldr	r3, [r7, #212]
 5801 0e78 9B00     		lsls	r3, r3, #2
 5802 0e7a F86D     		ldr	r0, [r7, #92]
 5803 0e7c 0344     		add	r3, r3, r0
 5804 0e7e 1B68     		ldr	r3, [r3]
 5805 0e80 03F50053 		add	r3, r3, #8192
 5806 0e84 9B13     		asrs	r3, r3, #14
 5807 0e86 1BB2     		sxth	r3, r3
 5808 0e88 03FB04F3 		mul	r3, r3, r4
 5809 0e8c DB13     		asrs	r3, r3, #15
 5810 0e8e 98B2     		uxth	r0, r3
 5811 0e90 B7F8AA30 		ldrh	r3, [r7, #170]
 5812 0e94 1C46     		mov	r4, r3	@ movhi
 5813 0e96 A400     		lsls	r4, r4, #2
 5814 0e98 1C44     		add	r4, r4, r3
 5815 0e9a 6400     		lsls	r4, r4, #1
 5816 0e9c 2344     		add	r3, r3, r4
 5817 0e9e 1C46     		mov	r4, r3	@ movhi
 5818 0ea0 E400     		lsls	r4, r4, #3
 5819 0ea2 E31A     		subs	r3, r4, r3
 5820 0ea4 9BB2     		uxth	r3, r3
 5821 0ea6 1BB2     		sxth	r3, r3
 5822 0ea8 1C46     		mov	r4, r3
 5823 0eaa D7F89430 		ldr	r3, [r7, #148]
ARM GAS  /var/folders/kh/x4vltyy52lbg7p4pcyglc5080000gp/T//ccuucmVt.s 			page 129


 5824 0eae D3F8D831 		ldr	r3, [r3, #472]
 5825 0eb2 03F50053 		add	r3, r3, #8192
 5826 0eb6 9B13     		asrs	r3, r3, #14
 5827 0eb8 1BB2     		sxth	r3, r3
 5828 0eba 03FB04F3 		mul	r3, r3, r4
 5829 0ebe DB13     		asrs	r3, r3, #15
 5830 0ec0 9BB2     		uxth	r3, r3
 5831 0ec2 C31A     		subs	r3, r0, r3
 5832 0ec4 9BB2     		uxth	r3, r3
 5833 0ec6 0B44     		add	r3, r3, r1
 5834 0ec8 9BB2     		uxth	r3, r3
 5835 0eca 1BB2     		sxth	r3, r3
 5836 0ecc 1380     		strh	r3, [r2]	@ movhi
1138:STM32F10x_Speex_Lib/STM32/libspeex/nb_celp.c ****                              SUB16(MULT16_16_Q15(Q15_ONE-MULT16_16_16(QCONST16(.85f,9),g),EXTRACT16
1139:STM32F10x_Speex_Lib/STM32/libspeex/nb_celp.c ****                                    MULT16_16_Q15(MULT16_16_16(QCONST16(.15f,9),g),EXTRACT16(PSHR32(
1140:STM32F10x_Speex_Lib/STM32/libspeex/nb_celp.c ****                                   ));
1141:STM32F10x_Speex_Lib/STM32/libspeex/nb_celp.c ****                st->voc_m1 = exci;
 5837              		.loc 3 1141 0 discriminator 3
 5838 0ece D7F89430 		ldr	r3, [r7, #148]
 5839 0ed2 7A8E     		ldrh	r2, [r7, #50]	@ movhi
 5840 0ed4 A3F8D421 		strh	r2, [r3, #468]	@ movhi
1142:STM32F10x_Speex_Lib/STM32/libspeex/nb_celp.c ****                st->voc_m2=innov[i];
 5841              		.loc 3 1142 0 discriminator 3
 5842 0ed8 D7F8D430 		ldr	r3, [r7, #212]
 5843 0edc 9B00     		lsls	r3, r3, #2
 5844 0ede FA6D     		ldr	r2, [r7, #92]
 5845 0ee0 1344     		add	r3, r3, r2
 5846 0ee2 1A68     		ldr	r2, [r3]
 5847 0ee4 D7F89430 		ldr	r3, [r7, #148]
 5848 0ee8 C3F8D821 		str	r2, [r3, #472]
1143:STM32F10x_Speex_Lib/STM32/libspeex/nb_celp.c ****                st->voc_mean = EXTRACT16(PSHR32(ADD32(MULT16_16(QCONST16(.8f,15),st->voc_mean), MULT
 5849              		.loc 3 1143 0 discriminator 3
 5850 0eec D7F89430 		ldr	r3, [r7, #148]
 5851 0ef0 B3F9DC31 		ldrsh	r3, [r3, #476]
 5852 0ef4 1A46     		mov	r2, r3
 5853 0ef6 46F26663 		movw	r3, #26214
 5854 0efa 03FB02F2 		mul	r2, r3, r2
 5855 0efe D7F8D430 		ldr	r3, [r7, #212]
 5856 0f02 5B00     		lsls	r3, r3, #1
 5857 0f04 F96C     		ldr	r1, [r7, #76]
 5858 0f06 0B44     		add	r3, r3, r1
 5859 0f08 B3F90030 		ldrsh	r3, [r3]
 5860 0f0c 1946     		mov	r1, r3
 5861 0f0e 41F69A13 		movw	r3, #6554
 5862 0f12 03FB01F3 		mul	r3, r3, r1
 5863 0f16 1344     		add	r3, r3, r2
 5864 0f18 03F58043 		add	r3, r3, #16384
 5865 0f1c DB13     		asrs	r3, r3, #15
 5866 0f1e 1AB2     		sxth	r2, r3
 5867 0f20 D7F89430 		ldr	r3, [r7, #148]
 5868 0f24 A3F8DC21 		strh	r2, [r3, #476]	@ movhi
1144:STM32F10x_Speex_Lib/STM32/libspeex/nb_celp.c ****                exc[i]-=st->voc_mean;
 5869              		.loc 3 1144 0 discriminator 3
 5870 0f28 D7F8D430 		ldr	r3, [r7, #212]
 5871 0f2c 5B00     		lsls	r3, r3, #1
 5872 0f2e FA6C     		ldr	r2, [r7, #76]
 5873 0f30 1344     		add	r3, r3, r2
ARM GAS  /var/folders/kh/x4vltyy52lbg7p4pcyglc5080000gp/T//ccuucmVt.s 			page 130


 5874 0f32 D7F8D420 		ldr	r2, [r7, #212]
 5875 0f36 5200     		lsls	r2, r2, #1
 5876 0f38 F96C     		ldr	r1, [r7, #76]
 5877 0f3a 0A44     		add	r2, r2, r1
 5878 0f3c B2F90020 		ldrsh	r2, [r2]
 5879 0f40 91B2     		uxth	r1, r2
 5880 0f42 D7F89420 		ldr	r2, [r7, #148]
 5881 0f46 B2F9DC21 		ldrsh	r2, [r2, #476]
 5882 0f4a 92B2     		uxth	r2, r2
 5883 0f4c 8A1A     		subs	r2, r1, r2
 5884 0f4e 92B2     		uxth	r2, r2
 5885 0f50 12B2     		sxth	r2, r2
 5886 0f52 1A80     		strh	r2, [r3]	@ movhi
 5887              	.LBE26:
1134:STM32F10x_Speex_Lib/STM32/libspeex/nb_celp.c ****             {
 5888              		.loc 3 1134 0 discriminator 3
 5889 0f54 D7F8D430 		ldr	r3, [r7, #212]
 5890 0f58 0133     		adds	r3, r3, #1
 5891 0f5a C7F8D430 		str	r3, [r7, #212]
 5892              	.L232:
1134:STM32F10x_Speex_Lib/STM32/libspeex/nb_celp.c ****             {
 5893              		.loc 3 1134 0 is_stmt 0 discriminator 1
 5894 0f5e D7F89430 		ldr	r3, [r7, #148]
 5895 0f62 1A69     		ldr	r2, [r3, #16]
 5896 0f64 D7F8D430 		ldr	r3, [r7, #212]
 5897 0f68 9A42     		cmp	r2, r3
 5898 0f6a 3FF74BAF 		bgt	.L233
 5899              	.L226:
 5900              	.LBE25:
 5901              	.LBE23:
 5902              	.LBE21:
1011:STM32F10x_Speex_Lib/STM32/libspeex/nb_celp.c ****    {
 5903              		.loc 3 1011 0 is_stmt 1 discriminator 2
 5904 0f6e D7F8D030 		ldr	r3, [r7, #208]
 5905 0f72 0133     		adds	r3, r3, #1
 5906 0f74 C7F8D030 		str	r3, [r7, #208]
 5907              	.L193:
1011:STM32F10x_Speex_Lib/STM32/libspeex/nb_celp.c ****    {
 5908              		.loc 3 1011 0 is_stmt 0 discriminator 1
 5909 0f78 D7F89430 		ldr	r3, [r7, #148]
 5910 0f7c 5A69     		ldr	r2, [r3, #20]
 5911 0f7e D7F8D030 		ldr	r3, [r7, #208]
 5912 0f82 9A42     		cmp	r2, r3
 5913 0f84 3FF7A3AB 		bgt	.L234
1145:STM32F10x_Speex_Lib/STM32/libspeex/nb_celp.c ****             }
1146:STM32F10x_Speex_Lib/STM32/libspeex/nb_celp.c ****          }
1147:STM32F10x_Speex_Lib/STM32/libspeex/nb_celp.c **** 
1148:STM32F10x_Speex_Lib/STM32/libspeex/nb_celp.c ****       }
1149:STM32F10x_Speex_Lib/STM32/libspeex/nb_celp.c ****    }
1150:STM32F10x_Speex_Lib/STM32/libspeex/nb_celp.c ****    
1151:STM32F10x_Speex_Lib/STM32/libspeex/nb_celp.c ****    ALLOC(interp_qlsp, st->lpcSize, spx_lsp_t);
 5914              		.loc 3 1151 0 is_stmt 1
 5915 0f88 D7F8BC30 		ldr	r3, [r7, #188]
 5916 0f8c 5B42     		negs	r3, r3
 5917 0f8e 03F00103 		and	r3, r3, #1
 5918 0f92 D7F8BC20 		ldr	r2, [r7, #188]
 5919 0f96 1344     		add	r3, r3, r2
ARM GAS  /var/folders/kh/x4vltyy52lbg7p4pcyglc5080000gp/T//ccuucmVt.s 			page 131


 5920 0f98 C7F8BC30 		str	r3, [r7, #188]
 5921 0f9c D7F89430 		ldr	r3, [r7, #148]
 5922 0fa0 9B69     		ldr	r3, [r3, #24]
 5923 0fa2 5B00     		lsls	r3, r3, #1
 5924 0fa4 D7F8BC20 		ldr	r2, [r7, #188]
 5925 0fa8 1344     		add	r3, r3, r2
 5926 0faa C7F8BC30 		str	r3, [r7, #188]
 5927 0fae D7F89430 		ldr	r3, [r7, #148]
 5928 0fb2 9B69     		ldr	r3, [r3, #24]
 5929 0fb4 5B00     		lsls	r3, r3, #1
 5930 0fb6 5B42     		negs	r3, r3
 5931 0fb8 D7F8BC20 		ldr	r2, [r7, #188]
 5932 0fbc 1344     		add	r3, r3, r2
 5933 0fbe FB62     		str	r3, [r7, #44]
1152:STM32F10x_Speex_Lib/STM32/libspeex/nb_celp.c **** 
1153:STM32F10x_Speex_Lib/STM32/libspeex/nb_celp.c ****    if (st->lpc_enh_enabled && SUBMODE(comb_gain)>0 && !st->count_lost)
 5934              		.loc 3 1153 0
 5935 0fc0 D7F89430 		ldr	r3, [r7, #148]
 5936 0fc4 DB6F     		ldr	r3, [r3, #124]
 5937 0fc6 002B     		cmp	r3, #0
 5938 0fc8 74D0     		beq	.L235
 5939              		.loc 3 1153 0 is_stmt 0 discriminator 1
 5940 0fca D7F89430 		ldr	r3, [r7, #148]
 5941 0fce 5A6F     		ldr	r2, [r3, #116]
 5942 0fd0 D7F89430 		ldr	r3, [r7, #148]
 5943 0fd4 9B6F     		ldr	r3, [r3, #120]
 5944 0fd6 9B00     		lsls	r3, r3, #2
 5945 0fd8 1344     		add	r3, r3, r2
 5946 0fda 1B68     		ldr	r3, [r3]
 5947 0fdc B3F93030 		ldrsh	r3, [r3, #48]
 5948 0fe0 002B     		cmp	r3, #0
 5949 0fe2 67DD     		ble	.L235
 5950              		.loc 3 1153 0 discriminator 2
 5951 0fe4 D7F89430 		ldr	r3, [r7, #148]
 5952 0fe8 9B68     		ldr	r3, [r3, #8]
 5953 0fea 002B     		cmp	r3, #0
 5954 0fec 62D1     		bne	.L235
1154:STM32F10x_Speex_Lib/STM32/libspeex/nb_celp.c ****    {
1155:STM32F10x_Speex_Lib/STM32/libspeex/nb_celp.c ****       multicomb(st->exc-st->subframeSize, out, st->interp_qlpc, st->lpcSize, 2*st->subframeSize, be
 5955              		.loc 3 1155 0 is_stmt 1
 5956 0fee D7F89430 		ldr	r3, [r7, #148]
 5957 0ff2 5A6B     		ldr	r2, [r3, #52]
 5958 0ff4 D7F89430 		ldr	r3, [r7, #148]
 5959 0ff8 1B69     		ldr	r3, [r3, #16]
 5960 0ffa 5B00     		lsls	r3, r3, #1
 5961 0ffc 5B42     		negs	r3, r3
 5962 0ffe D018     		adds	r0, r2, r3
 5963 1000 D7F89430 		ldr	r3, [r7, #148]
 5964 1004 DC6B     		ldr	r4, [r3, #60]
 5965 1006 D7F89430 		ldr	r3, [r7, #148]
 5966 100a 9D69     		ldr	r5, [r3, #24]
 5967 100c D7F89430 		ldr	r3, [r7, #148]
 5968 1010 1B69     		ldr	r3, [r3, #16]
 5969 1012 5B00     		lsls	r3, r3, #1
 5970 1014 D7F89420 		ldr	r2, [r7, #148]
 5971 1018 516F     		ldr	r1, [r2, #116]
 5972 101a D7F89420 		ldr	r2, [r7, #148]
ARM GAS  /var/folders/kh/x4vltyy52lbg7p4pcyglc5080000gp/T//ccuucmVt.s 			page 132


 5973 101e 926F     		ldr	r2, [r2, #120]
 5974 1020 9200     		lsls	r2, r2, #2
 5975 1022 0A44     		add	r2, r2, r1
 5976 1024 1268     		ldr	r2, [r2]
 5977 1026 B2F93020 		ldrsh	r2, [r2, #48]
 5978 102a D7F8BC10 		ldr	r1, [r7, #188]
 5979 102e 0491     		str	r1, [sp, #16]
 5980 1030 0392     		str	r2, [sp, #12]
 5981 1032 2822     		movs	r2, #40
 5982 1034 0292     		str	r2, [sp, #8]
 5983 1036 D7F8C420 		ldr	r2, [r7, #196]
 5984 103a 0192     		str	r2, [sp, #4]
 5985 103c 0093     		str	r3, [sp]
 5986 103e 2B46     		mov	r3, r5
 5987 1040 2246     		mov	r2, r4
 5988 1042 D7F89810 		ldr	r1, [r7, #152]
 5989 1046 FFF7FEFF 		bl	multicomb
1156:STM32F10x_Speex_Lib/STM32/libspeex/nb_celp.c ****       multicomb(st->exc+st->subframeSize, out+2*st->subframeSize, st->interp_qlpc, st->lpcSize, 2*s
 5990              		.loc 3 1156 0
 5991 104a D7F89430 		ldr	r3, [r7, #148]
 5992 104e 5A6B     		ldr	r2, [r3, #52]
 5993 1050 D7F89430 		ldr	r3, [r7, #148]
 5994 1054 1B69     		ldr	r3, [r3, #16]
 5995 1056 5B00     		lsls	r3, r3, #1
 5996 1058 D018     		adds	r0, r2, r3
 5997 105a D7F89430 		ldr	r3, [r7, #148]
 5998 105e 1B69     		ldr	r3, [r3, #16]
 5999 1060 9B00     		lsls	r3, r3, #2
 6000 1062 1A46     		mov	r2, r3
 6001 1064 D7F89830 		ldr	r3, [r7, #152]
 6002 1068 9C18     		adds	r4, r3, r2
 6003 106a D7F89430 		ldr	r3, [r7, #148]
 6004 106e DD6B     		ldr	r5, [r3, #60]
 6005 1070 D7F89430 		ldr	r3, [r7, #148]
 6006 1074 9E69     		ldr	r6, [r3, #24]
 6007 1076 D7F89430 		ldr	r3, [r7, #148]
 6008 107a 1B69     		ldr	r3, [r3, #16]
 6009 107c 5B00     		lsls	r3, r3, #1
 6010 107e D7F89420 		ldr	r2, [r7, #148]
 6011 1082 516F     		ldr	r1, [r2, #116]
 6012 1084 D7F89420 		ldr	r2, [r7, #148]
 6013 1088 926F     		ldr	r2, [r2, #120]
 6014 108a 9200     		lsls	r2, r2, #2
 6015 108c 0A44     		add	r2, r2, r1
 6016 108e 1268     		ldr	r2, [r2]
 6017 1090 B2F93020 		ldrsh	r2, [r2, #48]
 6018 1094 D7F8BC10 		ldr	r1, [r7, #188]
 6019 1098 0491     		str	r1, [sp, #16]
 6020 109a 0392     		str	r2, [sp, #12]
 6021 109c 2822     		movs	r2, #40
 6022 109e 0292     		str	r2, [sp, #8]
 6023 10a0 D7F8C420 		ldr	r2, [r7, #196]
 6024 10a4 0192     		str	r2, [sp, #4]
 6025 10a6 0093     		str	r3, [sp]
 6026 10a8 3346     		mov	r3, r6
 6027 10aa 2A46     		mov	r2, r5
 6028 10ac 2146     		mov	r1, r4
ARM GAS  /var/folders/kh/x4vltyy52lbg7p4pcyglc5080000gp/T//ccuucmVt.s 			page 133


 6029 10ae FFF7FEFF 		bl	multicomb
 6030 10b2 14E0     		b	.L236
 6031              	.L235:
1157:STM32F10x_Speex_Lib/STM32/libspeex/nb_celp.c ****    } else {
1158:STM32F10x_Speex_Lib/STM32/libspeex/nb_celp.c ****       SPEEX_COPY(out, &st->exc[-st->subframeSize], st->frameSize);
 6032              		.loc 3 1158 0
 6033 10b4 D7F89430 		ldr	r3, [r7, #148]
 6034 10b8 5A6B     		ldr	r2, [r3, #52]
 6035 10ba D7F89430 		ldr	r3, [r7, #148]
 6036 10be 1B69     		ldr	r3, [r3, #16]
 6037 10c0 1946     		mov	r1, r3
 6038 10c2 0B46     		mov	r3, r1
 6039 10c4 DB07     		lsls	r3, r3, #31
 6040 10c6 5B1A     		subs	r3, r3, r1
 6041 10c8 5B00     		lsls	r3, r3, #1
 6042 10ca D118     		adds	r1, r2, r3
 6043 10cc D7F89430 		ldr	r3, [r7, #148]
 6044 10d0 DB68     		ldr	r3, [r3, #12]
 6045 10d2 5B00     		lsls	r3, r3, #1
 6046 10d4 1A46     		mov	r2, r3
 6047 10d6 D7F89800 		ldr	r0, [r7, #152]
 6048 10da FFF7FEFF 		bl	memcpy
 6049              	.L236:
1159:STM32F10x_Speex_Lib/STM32/libspeex/nb_celp.c ****    }
1160:STM32F10x_Speex_Lib/STM32/libspeex/nb_celp.c ****    
1161:STM32F10x_Speex_Lib/STM32/libspeex/nb_celp.c ****    /* If the last packet was lost, re-scale the excitation to obtain the same energy as encoded in 
1162:STM32F10x_Speex_Lib/STM32/libspeex/nb_celp.c ****    if (st->count_lost) 
 6050              		.loc 3 1162 0
 6051 10de D7F89430 		ldr	r3, [r7, #148]
 6052 10e2 9B68     		ldr	r3, [r3, #8]
 6053 10e4 002B     		cmp	r3, #0
 6054 10e6 64D0     		beq	.L237
 6055              	.LBB27:
1163:STM32F10x_Speex_Lib/STM32/libspeex/nb_celp.c ****    {
1164:STM32F10x_Speex_Lib/STM32/libspeex/nb_celp.c ****       spx_word16_t exc_ener;
1165:STM32F10x_Speex_Lib/STM32/libspeex/nb_celp.c ****       spx_word32_t gain32;
1166:STM32F10x_Speex_Lib/STM32/libspeex/nb_celp.c ****       spx_word16_t gain;
1167:STM32F10x_Speex_Lib/STM32/libspeex/nb_celp.c ****       exc_ener = compute_rms16 (st->exc, st->frameSize);
 6056              		.loc 3 1167 0
 6057 10e8 D7F89430 		ldr	r3, [r7, #148]
 6058 10ec 5A6B     		ldr	r2, [r3, #52]
 6059 10ee D7F89430 		ldr	r3, [r7, #148]
 6060 10f2 DB68     		ldr	r3, [r3, #12]
 6061 10f4 1946     		mov	r1, r3
 6062 10f6 1046     		mov	r0, r2
 6063 10f8 FFF7FEFF 		bl	compute_rms16
 6064 10fc 0346     		mov	r3, r0
 6065 10fe 7B85     		strh	r3, [r7, #42]	@ movhi
1168:STM32F10x_Speex_Lib/STM32/libspeex/nb_celp.c ****       gain32 = PDIV32(ol_gain, ADD16(exc_ener,1));
 6066              		.loc 3 1168 0
 6067 1100 7B8D     		ldrh	r3, [r7, #42]
 6068 1102 0133     		adds	r3, r3, #1
 6069 1104 9BB2     		uxth	r3, r3
 6070 1106 1BB2     		sxth	r3, r3
 6071 1108 5B10     		asrs	r3, r3, #1
 6072 110a 1BB2     		sxth	r3, r3
 6073 110c 1A46     		mov	r2, r3
ARM GAS  /var/folders/kh/x4vltyy52lbg7p4pcyglc5080000gp/T//ccuucmVt.s 			page 134


 6074 110e D7F89C30 		ldr	r3, [r7, #156]
 6075 1112 1344     		add	r3, r3, r2
 6076 1114 7A8D     		ldrh	r2, [r7, #42]
 6077 1116 0132     		adds	r2, r2, #1
 6078 1118 92B2     		uxth	r2, r2
 6079 111a 12B2     		sxth	r2, r2
 6080 111c 93FBF2F3 		sdiv	r3, r3, r2
 6081 1120 C7F8A430 		str	r3, [r7, #164]
1169:STM32F10x_Speex_Lib/STM32/libspeex/nb_celp.c **** #ifdef FIXED_POINT
1170:STM32F10x_Speex_Lib/STM32/libspeex/nb_celp.c ****       if (gain32 > 32767)
 6082              		.loc 3 1170 0
 6083 1124 D7F8A430 		ldr	r3, [r7, #164]
 6084 1128 B3F5004F 		cmp	r3, #32768
 6085 112c 03DB     		blt	.L238
1171:STM32F10x_Speex_Lib/STM32/libspeex/nb_celp.c ****          gain32 = 32767;
 6086              		.loc 3 1171 0
 6087 112e 47F6FF73 		movw	r3, #32767
 6088 1132 C7F8A430 		str	r3, [r7, #164]
 6089              	.L238:
1172:STM32F10x_Speex_Lib/STM32/libspeex/nb_celp.c ****       gain = EXTRACT16(gain32);
 6090              		.loc 3 1172 0
 6091 1136 D7F8A430 		ldr	r3, [r7, #164]
 6092 113a 3B85     		strh	r3, [r7, #40]	@ movhi
1173:STM32F10x_Speex_Lib/STM32/libspeex/nb_celp.c **** #else
1174:STM32F10x_Speex_Lib/STM32/libspeex/nb_celp.c ****       if (gain32 > 2)
1175:STM32F10x_Speex_Lib/STM32/libspeex/nb_celp.c ****          gain32=2;
1176:STM32F10x_Speex_Lib/STM32/libspeex/nb_celp.c ****       gain = gain32;
1177:STM32F10x_Speex_Lib/STM32/libspeex/nb_celp.c **** #endif
1178:STM32F10x_Speex_Lib/STM32/libspeex/nb_celp.c ****       for (i=0;i<st->frameSize;i++)
 6093              		.loc 3 1178 0
 6094 113c 0023     		movs	r3, #0
 6095 113e C7F8D430 		str	r3, [r7, #212]
 6096 1142 2FE0     		b	.L239
 6097              	.L240:
1179:STM32F10x_Speex_Lib/STM32/libspeex/nb_celp.c ****       {
1180:STM32F10x_Speex_Lib/STM32/libspeex/nb_celp.c ****          st->exc[i] = MULT16_16_Q14(gain, st->exc[i]);
 6098              		.loc 3 1180 0 discriminator 3
 6099 1144 D7F89430 		ldr	r3, [r7, #148]
 6100 1148 5A6B     		ldr	r2, [r3, #52]
 6101 114a D7F8D430 		ldr	r3, [r7, #212]
 6102 114e 5B00     		lsls	r3, r3, #1
 6103 1150 1344     		add	r3, r3, r2
 6104 1152 B7F92820 		ldrsh	r2, [r7, #40]
 6105 1156 D7F89410 		ldr	r1, [r7, #148]
 6106 115a 486B     		ldr	r0, [r1, #52]
 6107 115c D7F8D410 		ldr	r1, [r7, #212]
 6108 1160 4900     		lsls	r1, r1, #1
 6109 1162 0144     		add	r1, r1, r0
 6110 1164 B1F90010 		ldrsh	r1, [r1]
 6111 1168 01FB02F2 		mul	r2, r1, r2
 6112 116c 9213     		asrs	r2, r2, #14
 6113 116e 12B2     		sxth	r2, r2
 6114 1170 1A80     		strh	r2, [r3]	@ movhi
1181:STM32F10x_Speex_Lib/STM32/libspeex/nb_celp.c ****          out[i]=st->exc[i-st->subframeSize];
 6115              		.loc 3 1181 0 discriminator 3
 6116 1172 D7F8D430 		ldr	r3, [r7, #212]
 6117 1176 5B00     		lsls	r3, r3, #1
ARM GAS  /var/folders/kh/x4vltyy52lbg7p4pcyglc5080000gp/T//ccuucmVt.s 			page 135


 6118 1178 D7F89820 		ldr	r2, [r7, #152]
 6119 117c 1344     		add	r3, r3, r2
 6120 117e D7F89420 		ldr	r2, [r7, #148]
 6121 1182 516B     		ldr	r1, [r2, #52]
 6122 1184 D7F89420 		ldr	r2, [r7, #148]
 6123 1188 1269     		ldr	r2, [r2, #16]
 6124 118a D7F8D400 		ldr	r0, [r7, #212]
 6125 118e 821A     		subs	r2, r0, r2
 6126 1190 5200     		lsls	r2, r2, #1
 6127 1192 0A44     		add	r2, r2, r1
 6128 1194 B2F90020 		ldrsh	r2, [r2]
 6129 1198 1A80     		strh	r2, [r3]	@ movhi
1178:STM32F10x_Speex_Lib/STM32/libspeex/nb_celp.c ****       {
 6130              		.loc 3 1178 0 discriminator 3
 6131 119a D7F8D430 		ldr	r3, [r7, #212]
 6132 119e 0133     		adds	r3, r3, #1
 6133 11a0 C7F8D430 		str	r3, [r7, #212]
 6134              	.L239:
1178:STM32F10x_Speex_Lib/STM32/libspeex/nb_celp.c ****       {
 6135              		.loc 3 1178 0 is_stmt 0 discriminator 1
 6136 11a4 D7F89430 		ldr	r3, [r7, #148]
 6137 11a8 DA68     		ldr	r2, [r3, #12]
 6138 11aa D7F8D430 		ldr	r3, [r7, #212]
 6139 11ae 9A42     		cmp	r2, r3
 6140 11b0 C8DC     		bgt	.L240
 6141              	.L237:
 6142              	.LBE27:
1182:STM32F10x_Speex_Lib/STM32/libspeex/nb_celp.c ****       }
1183:STM32F10x_Speex_Lib/STM32/libspeex/nb_celp.c ****    }
1184:STM32F10x_Speex_Lib/STM32/libspeex/nb_celp.c **** 
1185:STM32F10x_Speex_Lib/STM32/libspeex/nb_celp.c ****    /*Loop on subframes */
1186:STM32F10x_Speex_Lib/STM32/libspeex/nb_celp.c ****    for (sub=0;sub<st->nbSubframes;sub++)
 6143              		.loc 3 1186 0 is_stmt 1
 6144 11b2 0023     		movs	r3, #0
 6145 11b4 C7F8D030 		str	r3, [r7, #208]
 6146 11b8 9FE0     		b	.L241
 6147              	.L246:
 6148              	.LBB28:
1187:STM32F10x_Speex_Lib/STM32/libspeex/nb_celp.c ****    {
1188:STM32F10x_Speex_Lib/STM32/libspeex/nb_celp.c ****       int offset;
1189:STM32F10x_Speex_Lib/STM32/libspeex/nb_celp.c ****       spx_word16_t *sp;
1190:STM32F10x_Speex_Lib/STM32/libspeex/nb_celp.c **** 
1191:STM32F10x_Speex_Lib/STM32/libspeex/nb_celp.c ****       /* Offset relative to start of frame */
1192:STM32F10x_Speex_Lib/STM32/libspeex/nb_celp.c ****       offset = st->subframeSize*sub;
 6149              		.loc 3 1192 0
 6150 11ba D7F89430 		ldr	r3, [r7, #148]
 6151 11be 1B69     		ldr	r3, [r3, #16]
 6152 11c0 D7F8D020 		ldr	r2, [r7, #208]
 6153 11c4 02FB03F3 		mul	r3, r2, r3
 6154 11c8 7B62     		str	r3, [r7, #36]
1193:STM32F10x_Speex_Lib/STM32/libspeex/nb_celp.c ****       /* Original signal */
1194:STM32F10x_Speex_Lib/STM32/libspeex/nb_celp.c ****       sp=out+offset;
 6155              		.loc 3 1194 0
 6156 11ca 7B6A     		ldr	r3, [r7, #36]
 6157 11cc 5B00     		lsls	r3, r3, #1
 6158 11ce D7F89820 		ldr	r2, [r7, #152]
 6159 11d2 1344     		add	r3, r3, r2
ARM GAS  /var/folders/kh/x4vltyy52lbg7p4pcyglc5080000gp/T//ccuucmVt.s 			page 136


 6160 11d4 3B62     		str	r3, [r7, #32]
1195:STM32F10x_Speex_Lib/STM32/libspeex/nb_celp.c **** 
1196:STM32F10x_Speex_Lib/STM32/libspeex/nb_celp.c ****       /* LSP interpolation (quantized and unquantized) */
1197:STM32F10x_Speex_Lib/STM32/libspeex/nb_celp.c ****       lsp_interpolate(st->old_qlsp, qlsp, interp_qlsp, st->lpcSize, sub, st->nbSubframes);
 6161              		.loc 3 1197 0
 6162 11d6 D7F89430 		ldr	r3, [r7, #148]
 6163 11da 986B     		ldr	r0, [r3, #56]
 6164 11dc D7F89430 		ldr	r3, [r7, #148]
 6165 11e0 9A69     		ldr	r2, [r3, #24]
 6166 11e2 D7F89430 		ldr	r3, [r7, #148]
 6167 11e6 5B69     		ldr	r3, [r3, #20]
 6168 11e8 0193     		str	r3, [sp, #4]
 6169 11ea D7F8D030 		ldr	r3, [r7, #208]
 6170 11ee 0093     		str	r3, [sp]
 6171 11f0 1346     		mov	r3, r2
 6172 11f2 FA6A     		ldr	r2, [r7, #44]
 6173 11f4 396F     		ldr	r1, [r7, #112]
 6174 11f6 FFF7FEFF 		bl	lsp_interpolate
1198:STM32F10x_Speex_Lib/STM32/libspeex/nb_celp.c **** 
1199:STM32F10x_Speex_Lib/STM32/libspeex/nb_celp.c ****       /* Make sure the LSP's are stable */
1200:STM32F10x_Speex_Lib/STM32/libspeex/nb_celp.c ****       lsp_enforce_margin(interp_qlsp, st->lpcSize, LSP_MARGIN);
 6175              		.loc 3 1200 0
 6176 11fa D7F89430 		ldr	r3, [r7, #148]
 6177 11fe 9B69     		ldr	r3, [r3, #24]
 6178 1200 1022     		movs	r2, #16
 6179 1202 1946     		mov	r1, r3
 6180 1204 F86A     		ldr	r0, [r7, #44]
 6181 1206 FFF7FEFF 		bl	lsp_enforce_margin
1201:STM32F10x_Speex_Lib/STM32/libspeex/nb_celp.c **** 
1202:STM32F10x_Speex_Lib/STM32/libspeex/nb_celp.c ****       /* Compute interpolated LPCs (unquantized) */
1203:STM32F10x_Speex_Lib/STM32/libspeex/nb_celp.c ****       lsp_to_lpc(interp_qlsp, ak, st->lpcSize, stack);
 6182              		.loc 3 1203 0
 6183 120a D7F89430 		ldr	r3, [r7, #148]
 6184 120e 9A69     		ldr	r2, [r3, #24]
 6185 1210 D7F8BC30 		ldr	r3, [r7, #188]
 6186 1214 396E     		ldr	r1, [r7, #96]
 6187 1216 F86A     		ldr	r0, [r7, #44]
 6188 1218 FFF7FEFF 		bl	lsp_to_lpc
 6189              	.LBB29:
1204:STM32F10x_Speex_Lib/STM32/libspeex/nb_celp.c **** 
1205:STM32F10x_Speex_Lib/STM32/libspeex/nb_celp.c ****       /* Compute analysis filter at w=pi */
1206:STM32F10x_Speex_Lib/STM32/libspeex/nb_celp.c ****       {
1207:STM32F10x_Speex_Lib/STM32/libspeex/nb_celp.c ****          spx_word32_t pi_g=LPC_SCALING;
 6190              		.loc 3 1207 0
 6191 121c 4FF40053 		mov	r3, #8192
 6192 1220 C7F8A030 		str	r3, [r7, #160]
1208:STM32F10x_Speex_Lib/STM32/libspeex/nb_celp.c ****          for (i=0;i<st->lpcSize;i+=2)
 6193              		.loc 3 1208 0
 6194 1224 0023     		movs	r3, #0
 6195 1226 C7F8D430 		str	r3, [r7, #212]
 6196 122a 1AE0     		b	.L242
 6197              	.L243:
1209:STM32F10x_Speex_Lib/STM32/libspeex/nb_celp.c ****          {
1210:STM32F10x_Speex_Lib/STM32/libspeex/nb_celp.c ****             /*pi_g += -st->interp_qlpc[i] +  st->interp_qlpc[i+1];*/
1211:STM32F10x_Speex_Lib/STM32/libspeex/nb_celp.c ****             pi_g = ADD32(pi_g, SUB32(EXTEND32(ak[i+1]),EXTEND32(ak[i])));
 6198              		.loc 3 1211 0 discriminator 3
 6199 122c D7F8D430 		ldr	r3, [r7, #212]
ARM GAS  /var/folders/kh/x4vltyy52lbg7p4pcyglc5080000gp/T//ccuucmVt.s 			page 137


 6200 1230 0133     		adds	r3, r3, #1
 6201 1232 5B00     		lsls	r3, r3, #1
 6202 1234 3A6E     		ldr	r2, [r7, #96]
 6203 1236 1344     		add	r3, r3, r2
 6204 1238 B3F90030 		ldrsh	r3, [r3]
 6205 123c 1946     		mov	r1, r3
 6206 123e D7F8D430 		ldr	r3, [r7, #212]
 6207 1242 5B00     		lsls	r3, r3, #1
 6208 1244 3A6E     		ldr	r2, [r7, #96]
 6209 1246 1344     		add	r3, r3, r2
 6210 1248 B3F90030 		ldrsh	r3, [r3]
 6211 124c CB1A     		subs	r3, r1, r3
 6212 124e D7F8A020 		ldr	r2, [r7, #160]
 6213 1252 1344     		add	r3, r3, r2
 6214 1254 C7F8A030 		str	r3, [r7, #160]
1208:STM32F10x_Speex_Lib/STM32/libspeex/nb_celp.c ****          for (i=0;i<st->lpcSize;i+=2)
 6215              		.loc 3 1208 0 discriminator 3
 6216 1258 D7F8D430 		ldr	r3, [r7, #212]
 6217 125c 0233     		adds	r3, r3, #2
 6218 125e C7F8D430 		str	r3, [r7, #212]
 6219              	.L242:
1208:STM32F10x_Speex_Lib/STM32/libspeex/nb_celp.c ****          for (i=0;i<st->lpcSize;i+=2)
 6220              		.loc 3 1208 0 is_stmt 0 discriminator 1
 6221 1262 D7F89430 		ldr	r3, [r7, #148]
 6222 1266 9A69     		ldr	r2, [r3, #24]
 6223 1268 D7F8D430 		ldr	r3, [r7, #212]
 6224 126c 9A42     		cmp	r2, r3
 6225 126e DDDC     		bgt	.L243
1212:STM32F10x_Speex_Lib/STM32/libspeex/nb_celp.c ****          }
1213:STM32F10x_Speex_Lib/STM32/libspeex/nb_celp.c ****          st->pi_gain[sub] = pi_g;
 6226              		.loc 3 1213 0 is_stmt 1
 6227 1270 D7F89430 		ldr	r3, [r7, #148]
 6228 1274 DA6C     		ldr	r2, [r3, #76]
 6229 1276 D7F8D030 		ldr	r3, [r7, #208]
 6230 127a 9B00     		lsls	r3, r3, #2
 6231 127c 1344     		add	r3, r3, r2
 6232 127e D7F8A020 		ldr	r2, [r7, #160]
 6233 1282 1A60     		str	r2, [r3]
 6234              	.LBE29:
1214:STM32F10x_Speex_Lib/STM32/libspeex/nb_celp.c ****       }
1215:STM32F10x_Speex_Lib/STM32/libspeex/nb_celp.c ****       
1216:STM32F10x_Speex_Lib/STM32/libspeex/nb_celp.c ****       iir_mem16(sp, st->interp_qlpc, sp, st->subframeSize, st->lpcSize, 
 6235              		.loc 3 1216 0
 6236 1284 D7F89430 		ldr	r3, [r7, #148]
 6237 1288 D86B     		ldr	r0, [r3, #60]
 6238 128a D7F89430 		ldr	r3, [r7, #148]
 6239 128e 1C69     		ldr	r4, [r3, #16]
 6240 1290 D7F89430 		ldr	r3, [r7, #148]
 6241 1294 9B69     		ldr	r3, [r3, #24]
 6242 1296 D7F89420 		ldr	r2, [r7, #148]
 6243 129a 126C     		ldr	r2, [r2, #64]
 6244 129c D7F8BC10 		ldr	r1, [r7, #188]
 6245 12a0 0291     		str	r1, [sp, #8]
 6246 12a2 0192     		str	r2, [sp, #4]
 6247 12a4 0093     		str	r3, [sp]
 6248 12a6 2346     		mov	r3, r4
 6249 12a8 3A6A     		ldr	r2, [r7, #32]
ARM GAS  /var/folders/kh/x4vltyy52lbg7p4pcyglc5080000gp/T//ccuucmVt.s 			page 138


 6250 12aa 0146     		mov	r1, r0
 6251 12ac 386A     		ldr	r0, [r7, #32]
 6252 12ae FFF7FEFF 		bl	iir_mem16
1217:STM32F10x_Speex_Lib/STM32/libspeex/nb_celp.c ****                 st->mem_sp, stack);
1218:STM32F10x_Speex_Lib/STM32/libspeex/nb_celp.c ****       
1219:STM32F10x_Speex_Lib/STM32/libspeex/nb_celp.c ****       for (i=0;i<st->lpcSize;i++)
 6253              		.loc 3 1219 0
 6254 12b2 0023     		movs	r3, #0
 6255 12b4 C7F8D430 		str	r3, [r7, #212]
 6256 12b8 13E0     		b	.L244
 6257              	.L245:
1220:STM32F10x_Speex_Lib/STM32/libspeex/nb_celp.c ****          st->interp_qlpc[i] = ak[i];
 6258              		.loc 3 1220 0 discriminator 3
 6259 12ba D7F89430 		ldr	r3, [r7, #148]
 6260 12be DA6B     		ldr	r2, [r3, #60]
 6261 12c0 D7F8D430 		ldr	r3, [r7, #212]
 6262 12c4 5B00     		lsls	r3, r3, #1
 6263 12c6 1344     		add	r3, r3, r2
 6264 12c8 D7F8D420 		ldr	r2, [r7, #212]
 6265 12cc 5200     		lsls	r2, r2, #1
 6266 12ce 396E     		ldr	r1, [r7, #96]
 6267 12d0 0A44     		add	r2, r2, r1
 6268 12d2 B2F90020 		ldrsh	r2, [r2]
 6269 12d6 1A80     		strh	r2, [r3]	@ movhi
1219:STM32F10x_Speex_Lib/STM32/libspeex/nb_celp.c ****          st->interp_qlpc[i] = ak[i];
 6270              		.loc 3 1219 0 discriminator 3
 6271 12d8 D7F8D430 		ldr	r3, [r7, #212]
 6272 12dc 0133     		adds	r3, r3, #1
 6273 12de C7F8D430 		str	r3, [r7, #212]
 6274              	.L244:
1219:STM32F10x_Speex_Lib/STM32/libspeex/nb_celp.c ****          st->interp_qlpc[i] = ak[i];
 6275              		.loc 3 1219 0 is_stmt 0 discriminator 1
 6276 12e2 D7F89430 		ldr	r3, [r7, #148]
 6277 12e6 9A69     		ldr	r2, [r3, #24]
 6278 12e8 D7F8D430 		ldr	r3, [r7, #212]
 6279 12ec 9A42     		cmp	r2, r3
 6280 12ee E4DC     		bgt	.L245
 6281              	.LBE28:
1186:STM32F10x_Speex_Lib/STM32/libspeex/nb_celp.c ****    {
 6282              		.loc 3 1186 0 is_stmt 1 discriminator 2
 6283 12f0 D7F8D030 		ldr	r3, [r7, #208]
 6284 12f4 0133     		adds	r3, r3, #1
 6285 12f6 C7F8D030 		str	r3, [r7, #208]
 6286              	.L241:
1186:STM32F10x_Speex_Lib/STM32/libspeex/nb_celp.c ****    {
 6287              		.loc 3 1186 0 is_stmt 0 discriminator 1
 6288 12fa D7F89430 		ldr	r3, [r7, #148]
 6289 12fe 5A69     		ldr	r2, [r3, #20]
 6290 1300 D7F8D030 		ldr	r3, [r7, #208]
 6291 1304 9A42     		cmp	r2, r3
 6292 1306 3FF758AF 		bgt	.L246
1221:STM32F10x_Speex_Lib/STM32/libspeex/nb_celp.c **** 
1222:STM32F10x_Speex_Lib/STM32/libspeex/nb_celp.c ****    }
1223:STM32F10x_Speex_Lib/STM32/libspeex/nb_celp.c **** 
1224:STM32F10x_Speex_Lib/STM32/libspeex/nb_celp.c ****    if (st->highpass_enabled)
 6293              		.loc 3 1224 0 is_stmt 1
 6294 130a D7F89430 		ldr	r3, [r7, #148]
ARM GAS  /var/folders/kh/x4vltyy52lbg7p4pcyglc5080000gp/T//ccuucmVt.s 			page 139


 6295 130e D3F8EC31 		ldr	r3, [r3, #492]
 6296 1312 002B     		cmp	r3, #0
 6297 1314 16D0     		beq	.L247
1225:STM32F10x_Speex_Lib/STM32/libspeex/nb_celp.c ****       highpass(out, out, st->frameSize, (st->isWideband?HIGHPASS_WIDEBAND:HIGHPASS_NARROWBAND)|HIGH
 6298              		.loc 3 1225 0
 6299 1316 D7F89430 		ldr	r3, [r7, #148]
 6300 131a DA68     		ldr	r2, [r3, #12]
 6301 131c D7F89430 		ldr	r3, [r7, #148]
 6302 1320 D3F8E831 		ldr	r3, [r3, #488]
 6303 1324 002B     		cmp	r3, #0
 6304 1326 01D0     		beq	.L248
 6305              		.loc 3 1225 0 is_stmt 0 discriminator 1
 6306 1328 0321     		movs	r1, #3
 6307 132a 00E0     		b	.L249
 6308              	.L248:
 6309              		.loc 3 1225 0 discriminator 2
 6310 132c 0121     		movs	r1, #1
 6311              	.L249:
 6312              		.loc 3 1225 0 discriminator 4
 6313 132e D7F89430 		ldr	r3, [r7, #148]
 6314 1332 4433     		adds	r3, r3, #68
 6315 1334 0093     		str	r3, [sp]
 6316 1336 0B46     		mov	r3, r1
 6317 1338 D7F89810 		ldr	r1, [r7, #152]
 6318 133c D7F89800 		ldr	r0, [r7, #152]
 6319 1340 FFF7FEFF 		bl	highpass
 6320              	.L247:
1226:STM32F10x_Speex_Lib/STM32/libspeex/nb_celp.c ****    /*for (i=0;i<st->frameSize;i++)
1227:STM32F10x_Speex_Lib/STM32/libspeex/nb_celp.c ****      printf ("%d\n", (int)st->frame[i]);*/
1228:STM32F10x_Speex_Lib/STM32/libspeex/nb_celp.c **** 
1229:STM32F10x_Speex_Lib/STM32/libspeex/nb_celp.c ****    /* Tracking output level */
1230:STM32F10x_Speex_Lib/STM32/libspeex/nb_celp.c ****    st->level = 1+PSHR32(ol_gain,SIG_SHIFT);
 6321              		.loc 3 1230 0 is_stmt 1
 6322 1344 D7F89C30 		ldr	r3, [r7, #156]
 6323 1348 03F50053 		add	r3, r3, #8192
 6324 134c 9B13     		asrs	r3, r3, #14
 6325 134e 9BB2     		uxth	r3, r3
 6326 1350 0133     		adds	r3, r3, #1
 6327 1352 9BB2     		uxth	r3, r3
 6328 1354 1AB2     		sxth	r2, r3
 6329 1356 D7F89430 		ldr	r3, [r7, #148]
 6330 135a A3F85420 		strh	r2, [r3, #84]	@ movhi
1231:STM32F10x_Speex_Lib/STM32/libspeex/nb_celp.c ****    st->max_level = MAX16(MULT16_16_Q15(QCONST16(.99f,15), st->max_level), st->level);
 6331              		.loc 3 1231 0
 6332 135e D7F89430 		ldr	r3, [r7, #148]
 6333 1362 B3F95430 		ldrsh	r3, [r3, #84]
 6334 1366 1A46     		mov	r2, r3
 6335 1368 D7F89430 		ldr	r3, [r7, #148]
 6336 136c B3F95630 		ldrsh	r3, [r3, #86]
 6337 1370 1946     		mov	r1, r3
 6338 1372 47F6B863 		movw	r3, #32440
 6339 1376 03FB01F3 		mul	r3, r3, r1
 6340 137a DB13     		asrs	r3, r3, #15
 6341 137c 9342     		cmp	r3, r2
 6342 137e B8BF     		it	lt
 6343 1380 1346     		movlt	r3, r2
 6344 1382 1AB2     		sxth	r2, r3
ARM GAS  /var/folders/kh/x4vltyy52lbg7p4pcyglc5080000gp/T//ccuucmVt.s 			page 140


 6345 1384 D7F89430 		ldr	r3, [r7, #148]
 6346 1388 A3F85620 		strh	r2, [r3, #86]	@ movhi
1232:STM32F10x_Speex_Lib/STM32/libspeex/nb_celp.c ****    st->min_level = MIN16(ADD16(1,MULT16_16_Q14(QCONST16(1.01f,14), st->min_level)), st->level);
 6347              		.loc 3 1232 0
 6348 138c D7F89430 		ldr	r3, [r7, #148]
 6349 1390 B3F95420 		ldrsh	r2, [r3, #84]
 6350 1394 D7F89430 		ldr	r3, [r7, #148]
 6351 1398 B3F95830 		ldrsh	r3, [r3, #88]
 6352 139c 1946     		mov	r1, r3
 6353 139e 44F2A403 		movw	r3, #16548
 6354 13a2 03FB01F3 		mul	r3, r3, r1
 6355 13a6 9B13     		asrs	r3, r3, #14
 6356 13a8 9BB2     		uxth	r3, r3
 6357 13aa 0133     		adds	r3, r3, #1
 6358 13ac 9BB2     		uxth	r3, r3
 6359 13ae 1BB2     		sxth	r3, r3
 6360 13b0 9342     		cmp	r3, r2
 6361 13b2 A8BF     		it	ge
 6362 13b4 1346     		movge	r3, r2
 6363 13b6 1AB2     		sxth	r2, r3
 6364 13b8 D7F89430 		ldr	r3, [r7, #148]
 6365 13bc A3F85820 		strh	r2, [r3, #88]	@ movhi
1233:STM32F10x_Speex_Lib/STM32/libspeex/nb_celp.c ****    if (st->max_level < st->min_level+1)
 6366              		.loc 3 1233 0
 6367 13c0 D7F89430 		ldr	r3, [r7, #148]
 6368 13c4 B3F95630 		ldrsh	r3, [r3, #86]
 6369 13c8 1A46     		mov	r2, r3
 6370 13ca D7F89430 		ldr	r3, [r7, #148]
 6371 13ce B3F95830 		ldrsh	r3, [r3, #88]
 6372 13d2 0133     		adds	r3, r3, #1
 6373 13d4 9A42     		cmp	r2, r3
 6374 13d6 0BDA     		bge	.L250
1234:STM32F10x_Speex_Lib/STM32/libspeex/nb_celp.c ****       st->max_level = st->min_level+1;
 6375              		.loc 3 1234 0
 6376 13d8 D7F89430 		ldr	r3, [r7, #148]
 6377 13dc B3F95830 		ldrsh	r3, [r3, #88]
 6378 13e0 9BB2     		uxth	r3, r3
 6379 13e2 0133     		adds	r3, r3, #1
 6380 13e4 9BB2     		uxth	r3, r3
 6381 13e6 1AB2     		sxth	r2, r3
 6382 13e8 D7F89430 		ldr	r3, [r7, #148]
 6383 13ec A3F85620 		strh	r2, [r3, #86]	@ movhi
 6384              	.L250:
1235:STM32F10x_Speex_Lib/STM32/libspeex/nb_celp.c ****    /*printf ("%f %f %f %d\n", og, st->min_level, st->max_level, update);*/
1236:STM32F10x_Speex_Lib/STM32/libspeex/nb_celp.c ****    
1237:STM32F10x_Speex_Lib/STM32/libspeex/nb_celp.c ****    /* Store the LSPs for interpolation in the next frame */
1238:STM32F10x_Speex_Lib/STM32/libspeex/nb_celp.c ****    for (i=0;i<st->lpcSize;i++)
 6385              		.loc 3 1238 0
 6386 13f0 0023     		movs	r3, #0
 6387 13f2 C7F8D430 		str	r3, [r7, #212]
 6388 13f6 13E0     		b	.L251
 6389              	.L252:
1239:STM32F10x_Speex_Lib/STM32/libspeex/nb_celp.c ****       st->old_qlsp[i] = qlsp[i];
 6390              		.loc 3 1239 0 discriminator 3
 6391 13f8 D7F89430 		ldr	r3, [r7, #148]
 6392 13fc 9A6B     		ldr	r2, [r3, #56]
 6393 13fe D7F8D430 		ldr	r3, [r7, #212]
ARM GAS  /var/folders/kh/x4vltyy52lbg7p4pcyglc5080000gp/T//ccuucmVt.s 			page 141


 6394 1402 5B00     		lsls	r3, r3, #1
 6395 1404 1344     		add	r3, r3, r2
 6396 1406 D7F8D420 		ldr	r2, [r7, #212]
 6397 140a 5200     		lsls	r2, r2, #1
 6398 140c 396F     		ldr	r1, [r7, #112]
 6399 140e 0A44     		add	r2, r2, r1
 6400 1410 B2F90020 		ldrsh	r2, [r2]
 6401 1414 1A80     		strh	r2, [r3]	@ movhi
1238:STM32F10x_Speex_Lib/STM32/libspeex/nb_celp.c ****       st->old_qlsp[i] = qlsp[i];
 6402              		.loc 3 1238 0 discriminator 3
 6403 1416 D7F8D430 		ldr	r3, [r7, #212]
 6404 141a 0133     		adds	r3, r3, #1
 6405 141c C7F8D430 		str	r3, [r7, #212]
 6406              	.L251:
1238:STM32F10x_Speex_Lib/STM32/libspeex/nb_celp.c ****       st->old_qlsp[i] = qlsp[i];
 6407              		.loc 3 1238 0 is_stmt 0 discriminator 1
 6408 1420 D7F89430 		ldr	r3, [r7, #148]
 6409 1424 9A69     		ldr	r2, [r3, #24]
 6410 1426 D7F8D430 		ldr	r3, [r7, #212]
 6411 142a 9A42     		cmp	r2, r3
 6412 142c E4DC     		bgt	.L252
1240:STM32F10x_Speex_Lib/STM32/libspeex/nb_celp.c **** 
1241:STM32F10x_Speex_Lib/STM32/libspeex/nb_celp.c ****    /* The next frame will not be the first (Duh!) */
1242:STM32F10x_Speex_Lib/STM32/libspeex/nb_celp.c ****    st->first = 0;
 6413              		.loc 3 1242 0 is_stmt 1
 6414 142e D7F89430 		ldr	r3, [r7, #148]
 6415 1432 0022     		movs	r2, #0
 6416 1434 5A60     		str	r2, [r3, #4]
1243:STM32F10x_Speex_Lib/STM32/libspeex/nb_celp.c ****    st->count_lost=0;
 6417              		.loc 3 1243 0
 6418 1436 D7F89430 		ldr	r3, [r7, #148]
 6419 143a 0022     		movs	r2, #0
 6420 143c 9A60     		str	r2, [r3, #8]
1244:STM32F10x_Speex_Lib/STM32/libspeex/nb_celp.c ****    st->last_pitch = best_pitch;
 6421              		.loc 3 1244 0
 6422 143e D7F89430 		ldr	r3, [r7, #148]
 6423 1442 D7F8C420 		ldr	r2, [r7, #196]
 6424 1446 DA65     		str	r2, [r3, #92]
1245:STM32F10x_Speex_Lib/STM32/libspeex/nb_celp.c **** #ifdef FIXED_POINT
1246:STM32F10x_Speex_Lib/STM32/libspeex/nb_celp.c ****    st->last_pitch_gain = PSHR16(pitch_average,2);
 6425              		.loc 3 1246 0
 6426 1448 B7F9BA30 		ldrsh	r3, [r7, #186]
 6427 144c 0233     		adds	r3, r3, #2
 6428 144e 9B10     		asrs	r3, r3, #2
 6429 1450 1AB2     		sxth	r2, r3
 6430 1452 D7F89430 		ldr	r3, [r7, #148]
 6431 1456 A3F86020 		strh	r2, [r3, #96]	@ movhi
1247:STM32F10x_Speex_Lib/STM32/libspeex/nb_celp.c **** #else
1248:STM32F10x_Speex_Lib/STM32/libspeex/nb_celp.c ****    st->last_pitch_gain = .25*pitch_average;   
1249:STM32F10x_Speex_Lib/STM32/libspeex/nb_celp.c **** #endif
1250:STM32F10x_Speex_Lib/STM32/libspeex/nb_celp.c ****    st->pitch_gain_buf[st->pitch_gain_buf_idx++] = st->last_pitch_gain;
 6432              		.loc 3 1250 0
 6433 145a D7F89430 		ldr	r3, [r7, #148]
 6434 145e 9B6E     		ldr	r3, [r3, #104]
 6435 1460 591C     		adds	r1, r3, #1
 6436 1462 D7F89420 		ldr	r2, [r7, #148]
 6437 1466 9166     		str	r1, [r2, #104]
ARM GAS  /var/folders/kh/x4vltyy52lbg7p4pcyglc5080000gp/T//ccuucmVt.s 			page 142


 6438 1468 D7F89420 		ldr	r2, [r7, #148]
 6439 146c B2F96010 		ldrsh	r1, [r2, #96]
 6440 1470 D7F89420 		ldr	r2, [r7, #148]
 6441 1474 3033     		adds	r3, r3, #48
 6442 1476 5B00     		lsls	r3, r3, #1
 6443 1478 1344     		add	r3, r3, r2
 6444 147a 0A46     		mov	r2, r1	@ movhi
 6445 147c 5A80     		strh	r2, [r3, #2]	@ movhi
1251:STM32F10x_Speex_Lib/STM32/libspeex/nb_celp.c ****    if (st->pitch_gain_buf_idx > 2) /* rollover */
 6446              		.loc 3 1251 0
 6447 147e D7F89430 		ldr	r3, [r7, #148]
 6448 1482 9B6E     		ldr	r3, [r3, #104]
 6449 1484 022B     		cmp	r3, #2
 6450 1486 03DD     		ble	.L253
1252:STM32F10x_Speex_Lib/STM32/libspeex/nb_celp.c ****       st->pitch_gain_buf_idx = 0;
 6451              		.loc 3 1252 0
 6452 1488 D7F89430 		ldr	r3, [r7, #148]
 6453 148c 0022     		movs	r2, #0
 6454 148e 9A66     		str	r2, [r3, #104]
 6455              	.L253:
1253:STM32F10x_Speex_Lib/STM32/libspeex/nb_celp.c **** 
1254:STM32F10x_Speex_Lib/STM32/libspeex/nb_celp.c ****    st->last_ol_gain = ol_gain;
 6456              		.loc 3 1254 0
 6457 1490 D7F89C30 		ldr	r3, [r7, #156]
 6458 1494 1AB2     		sxth	r2, r3
 6459 1496 D7F89430 		ldr	r3, [r7, #148]
 6460 149a 1A85     		strh	r2, [r3, #40]	@ movhi
1255:STM32F10x_Speex_Lib/STM32/libspeex/nb_celp.c **** 
1256:STM32F10x_Speex_Lib/STM32/libspeex/nb_celp.c ****    return 0;
 6461              		.loc 3 1256 0
 6462 149c 0023     		movs	r3, #0
 6463              	.L254:
1257:STM32F10x_Speex_Lib/STM32/libspeex/nb_celp.c **** }
 6464              		.loc 3 1257 0 discriminator 1
 6465 149e 1846     		mov	r0, r3
 6466 14a0 DC37     		adds	r7, r7, #220
 6467              	.LCFI82:
 6468              		.cfi_def_cfa_offset 20
 6469 14a2 BD46     		mov	sp, r7
 6470              	.LCFI83:
 6471              		.cfi_def_cfa_register 13
 6472              		@ sp needed
 6473 14a4 F0BD     		pop	{r4, r5, r6, r7, pc}
 6474              		.cfi_endproc
 6475              	.LFE27:
 6477 14a6 00BF     		.section	.rodata
 6478 0072 0000     		.align	2
 6479              	.LC2:
 6480 0074 556E6B6E 		.ascii	"Unknown nb_ctl request: \000"
 6480      6F776E20 
 6480      6E625F63 
 6480      746C2072 
 6480      65717565 
 6481              		.section	.text.nb_encoder_ctl,"ax",%progbits
 6482              		.align	2
 6483              		.global	nb_encoder_ctl
 6484              		.thumb
ARM GAS  /var/folders/kh/x4vltyy52lbg7p4pcyglc5080000gp/T//ccuucmVt.s 			page 143


 6485              		.thumb_func
 6487              	nb_encoder_ctl:
 6488              	.LFB28:
1258:STM32F10x_Speex_Lib/STM32/libspeex/nb_celp.c **** 
1259:STM32F10x_Speex_Lib/STM32/libspeex/nb_celp.c **** int nb_encoder_ctl(void *state, int request, void *ptr)
1260:STM32F10x_Speex_Lib/STM32/libspeex/nb_celp.c **** {
 6489              		.loc 3 1260 0
 6490              		.cfi_startproc
 6491              		@ args = 0, pretend = 0, frame = 56
 6492              		@ frame_needed = 1, uses_anonymous_args = 0
 6493 0000 90B5     		push	{r4, r7, lr}
 6494              	.LCFI84:
 6495              		.cfi_def_cfa_offset 12
 6496              		.cfi_offset 4, -12
 6497              		.cfi_offset 7, -8
 6498              		.cfi_offset 14, -4
 6499 0002 8FB0     		sub	sp, sp, #60
 6500              	.LCFI85:
 6501              		.cfi_def_cfa_offset 72
 6502 0004 00AF     		add	r7, sp, #0
 6503              	.LCFI86:
 6504              		.cfi_def_cfa_register 7
 6505 0006 F860     		str	r0, [r7, #12]
 6506 0008 B960     		str	r1, [r7, #8]
 6507 000a 7A60     		str	r2, [r7, #4]
1261:STM32F10x_Speex_Lib/STM32/libspeex/nb_celp.c ****    EncState *st;
1262:STM32F10x_Speex_Lib/STM32/libspeex/nb_celp.c ****    st=(EncState*)state;     
 6508              		.loc 3 1262 0
 6509 000c FB68     		ldr	r3, [r7, #12]
 6510 000e 7B62     		str	r3, [r7, #36]
1263:STM32F10x_Speex_Lib/STM32/libspeex/nb_celp.c ****    switch(request)
 6511              		.loc 3 1263 0
 6512 0010 BB68     		ldr	r3, [r7, #8]
 6513 0012 033B     		subs	r3, r3, #3
 6514 0014 672B     		cmp	r3, #103
 6515 0016 00F27B82 		bhi	.L262
 6516 001a 01A2     		adr	r2, .L264
 6517 001c 52F823F0 		ldr	pc, [r2, r3, lsl #2]
 6518              		.p2align 2
 6519              	.L264:
 6520 0020 C1010000 		.word	.L263+1
 6521 0024 EF010000 		.word	.L265+1
 6522 0028 11050000 		.word	.L262+1
 6523 002c CB010000 		.word	.L266+1
 6524 0030 E3010000 		.word	.L267+1
 6525 0034 CB010000 		.word	.L266+1
 6526 0038 E3010000 		.word	.L267+1
 6527 003c 11050000 		.word	.L262+1
 6528 0040 11050000 		.word	.L262+1
 6529 0044 11050000 		.word	.L262+1
 6530 0048 11050000 		.word	.L262+1
 6531 004c 11050000 		.word	.L262+1
 6532 0050 11050000 		.word	.L262+1
 6533 0054 2B020000 		.word	.L268+1
 6534 0058 4B020000 		.word	.L269+1
 6535 005c 57020000 		.word	.L270+1
 6536 0060 99020000 		.word	.L271+1
ARM GAS  /var/folders/kh/x4vltyy52lbg7p4pcyglc5080000gp/T//ccuucmVt.s 			page 144


 6537 0064 11050000 		.word	.L262+1
 6538 0068 11050000 		.word	.L262+1
 6539 006c 11050000 		.word	.L262+1
 6540 0070 11050000 		.word	.L262+1
 6541 0074 F5020000 		.word	.L272+1
 6542 0078 01030000 		.word	.L273+1
 6543 007c 0D030000 		.word	.L274+1
 6544 0080 11050000 		.word	.L262+1
 6545 0084 11050000 		.word	.L262+1
 6546 0088 11050000 		.word	.L262+1
 6547 008c 11050000 		.word	.L262+1
 6548 0090 11050000 		.word	.L262+1
 6549 0094 11050000 		.word	.L262+1
 6550 0098 11050000 		.word	.L262+1
 6551 009c 11050000 		.word	.L262+1
 6552 00a0 11050000 		.word	.L262+1
 6553 00a4 11040000 		.word	.L275+1
 6554 00a8 1D040000 		.word	.L276+1
 6555 00ac 11050000 		.word	.L262+1
 6556 00b0 29040000 		.word	.L277+1
 6557 00b4 39040000 		.word	.L278+1
 6558 00b8 57040000 		.word	.L279+1
 6559 00bc 11050000 		.word	.L262+1
 6560 00c0 11050000 		.word	.L262+1
 6561 00c4 63040000 		.word	.L280+1
 6562 00c8 6F040000 		.word	.L281+1
 6563 00cc 11050000 		.word	.L262+1
 6564 00d0 11050000 		.word	.L262+1
 6565 00d4 11050000 		.word	.L262+1
 6566 00d8 11050000 		.word	.L262+1
 6567 00dc 11050000 		.word	.L262+1
 6568 00e0 11050000 		.word	.L262+1
 6569 00e4 11050000 		.word	.L262+1
 6570 00e8 11050000 		.word	.L262+1
 6571 00ec 11050000 		.word	.L262+1
 6572 00f0 11050000 		.word	.L262+1
 6573 00f4 11050000 		.word	.L262+1
 6574 00f8 11050000 		.word	.L262+1
 6575 00fc 11050000 		.word	.L262+1
 6576 0100 11050000 		.word	.L262+1
 6577 0104 11050000 		.word	.L262+1
 6578 0108 11050000 		.word	.L262+1
 6579 010c 11050000 		.word	.L262+1
 6580 0110 11050000 		.word	.L262+1
 6581 0114 11050000 		.word	.L262+1
 6582 0118 11050000 		.word	.L262+1
 6583 011c 11050000 		.word	.L262+1
 6584 0120 11050000 		.word	.L262+1
 6585 0124 11050000 		.word	.L262+1
 6586 0128 11050000 		.word	.L262+1
 6587 012c 11050000 		.word	.L262+1
 6588 0130 11050000 		.word	.L262+1
 6589 0134 11050000 		.word	.L262+1
 6590 0138 11050000 		.word	.L262+1
 6591 013c 11050000 		.word	.L262+1
 6592 0140 11050000 		.word	.L262+1
 6593 0144 11050000 		.word	.L262+1
ARM GAS  /var/folders/kh/x4vltyy52lbg7p4pcyglc5080000gp/T//ccuucmVt.s 			page 145


 6594 0148 11050000 		.word	.L262+1
 6595 014c 11050000 		.word	.L262+1
 6596 0150 11050000 		.word	.L262+1
 6597 0154 11050000 		.word	.L262+1
 6598 0158 11050000 		.word	.L262+1
 6599 015c 11050000 		.word	.L262+1
 6600 0160 11050000 		.word	.L262+1
 6601 0164 11050000 		.word	.L262+1
 6602 0168 11050000 		.word	.L262+1
 6603 016c 11050000 		.word	.L262+1
 6604 0170 11050000 		.word	.L262+1
 6605 0174 11050000 		.word	.L262+1
 6606 0178 11050000 		.word	.L262+1
 6607 017c 11050000 		.word	.L262+1
 6608 0180 11050000 		.word	.L262+1
 6609 0184 11050000 		.word	.L262+1
 6610 0188 11050000 		.word	.L262+1
 6611 018c 11050000 		.word	.L262+1
 6612 0190 11050000 		.word	.L262+1
 6613 0194 11050000 		.word	.L262+1
 6614 0198 11050000 		.word	.L262+1
 6615 019c 11050000 		.word	.L262+1
 6616 01a0 11050000 		.word	.L262+1
 6617 01a4 7B040000 		.word	.L282+1
 6618 01a8 AF040000 		.word	.L283+1
 6619 01ac 11050000 		.word	.L262+1
 6620 01b0 11050000 		.word	.L262+1
 6621 01b4 F1040000 		.word	.L284+1
 6622 01b8 FB040000 		.word	.L285+1
 6623 01bc 07050000 		.word	.L286+1
 6624              		.p2align 1
 6625              	.L263:
1264:STM32F10x_Speex_Lib/STM32/libspeex/nb_celp.c ****    {
1265:STM32F10x_Speex_Lib/STM32/libspeex/nb_celp.c ****    case SPEEX_GET_FRAME_SIZE:
1266:STM32F10x_Speex_Lib/STM32/libspeex/nb_celp.c ****       (*(spx_int32_t*)ptr) = st->frameSize;
 6626              		.loc 3 1266 0
 6627 01c0 7B6A     		ldr	r3, [r7, #36]
 6628 01c2 9A68     		ldr	r2, [r3, #8]
 6629 01c4 7B68     		ldr	r3, [r7, #4]
 6630 01c6 1A60     		str	r2, [r3]
1267:STM32F10x_Speex_Lib/STM32/libspeex/nb_celp.c ****       break;
 6631              		.loc 3 1267 0
 6632 01c8 ACE1     		b	.L287
 6633              	.L266:
1268:STM32F10x_Speex_Lib/STM32/libspeex/nb_celp.c ****    case SPEEX_SET_LOW_MODE:
1269:STM32F10x_Speex_Lib/STM32/libspeex/nb_celp.c ****    case SPEEX_SET_MODE:
1270:STM32F10x_Speex_Lib/STM32/libspeex/nb_celp.c ****       st->submodeSelect = st->submodeID = (*(spx_int32_t*)ptr);
 6634              		.loc 3 1270 0
 6635 01ca 7B68     		ldr	r3, [r7, #4]
 6636 01cc 1A68     		ldr	r2, [r3]
 6637 01ce 7B6A     		ldr	r3, [r7, #36]
 6638 01d0 C3F8A020 		str	r2, [r3, #160]
 6639 01d4 7B6A     		ldr	r3, [r7, #36]
 6640 01d6 D3F8A020 		ldr	r2, [r3, #160]
 6641 01da 7B6A     		ldr	r3, [r7, #36]
 6642 01dc C3F8A420 		str	r2, [r3, #164]
1271:STM32F10x_Speex_Lib/STM32/libspeex/nb_celp.c ****       break;
ARM GAS  /var/folders/kh/x4vltyy52lbg7p4pcyglc5080000gp/T//ccuucmVt.s 			page 146


 6643              		.loc 3 1271 0
 6644 01e0 A0E1     		b	.L287
 6645              	.L267:
1272:STM32F10x_Speex_Lib/STM32/libspeex/nb_celp.c ****    case SPEEX_GET_LOW_MODE:
1273:STM32F10x_Speex_Lib/STM32/libspeex/nb_celp.c ****    case SPEEX_GET_MODE:
1274:STM32F10x_Speex_Lib/STM32/libspeex/nb_celp.c ****       (*(spx_int32_t*)ptr) = st->submodeID;
 6646              		.loc 3 1274 0
 6647 01e2 7B6A     		ldr	r3, [r7, #36]
 6648 01e4 D3F8A020 		ldr	r2, [r3, #160]
 6649 01e8 7B68     		ldr	r3, [r7, #4]
 6650 01ea 1A60     		str	r2, [r3]
1275:STM32F10x_Speex_Lib/STM32/libspeex/nb_celp.c ****       break;
 6651              		.loc 3 1275 0
 6652 01ec 9AE1     		b	.L287
 6653              	.L265:
 6654              	.LBB30:
1276:STM32F10x_Speex_Lib/STM32/libspeex/nb_celp.c **** #ifndef DISABLE_VBR
1277:STM32F10x_Speex_Lib/STM32/libspeex/nb_celp.c ****       case SPEEX_SET_VBR:
1278:STM32F10x_Speex_Lib/STM32/libspeex/nb_celp.c ****       st->vbr_enabled = (*(spx_int32_t*)ptr);
1279:STM32F10x_Speex_Lib/STM32/libspeex/nb_celp.c ****       break;
1280:STM32F10x_Speex_Lib/STM32/libspeex/nb_celp.c ****    case SPEEX_GET_VBR:
1281:STM32F10x_Speex_Lib/STM32/libspeex/nb_celp.c ****       (*(spx_int32_t*)ptr) = st->vbr_enabled;
1282:STM32F10x_Speex_Lib/STM32/libspeex/nb_celp.c ****       break;
1283:STM32F10x_Speex_Lib/STM32/libspeex/nb_celp.c ****    case SPEEX_SET_VAD:
1284:STM32F10x_Speex_Lib/STM32/libspeex/nb_celp.c ****       st->vad_enabled = (*(spx_int32_t*)ptr);
1285:STM32F10x_Speex_Lib/STM32/libspeex/nb_celp.c ****       break;
1286:STM32F10x_Speex_Lib/STM32/libspeex/nb_celp.c ****    case SPEEX_GET_VAD:
1287:STM32F10x_Speex_Lib/STM32/libspeex/nb_celp.c ****       (*(spx_int32_t*)ptr) = st->vad_enabled;
1288:STM32F10x_Speex_Lib/STM32/libspeex/nb_celp.c ****       break;
1289:STM32F10x_Speex_Lib/STM32/libspeex/nb_celp.c ****    case SPEEX_SET_DTX:
1290:STM32F10x_Speex_Lib/STM32/libspeex/nb_celp.c ****       st->dtx_enabled = (*(spx_int32_t*)ptr);
1291:STM32F10x_Speex_Lib/STM32/libspeex/nb_celp.c ****       break;
1292:STM32F10x_Speex_Lib/STM32/libspeex/nb_celp.c ****    case SPEEX_GET_DTX:
1293:STM32F10x_Speex_Lib/STM32/libspeex/nb_celp.c ****       (*(spx_int32_t*)ptr) = st->dtx_enabled;
1294:STM32F10x_Speex_Lib/STM32/libspeex/nb_celp.c ****       break;
1295:STM32F10x_Speex_Lib/STM32/libspeex/nb_celp.c ****    case SPEEX_SET_ABR:
1296:STM32F10x_Speex_Lib/STM32/libspeex/nb_celp.c ****       st->abr_enabled = (*(spx_int32_t*)ptr);
1297:STM32F10x_Speex_Lib/STM32/libspeex/nb_celp.c ****       st->vbr_enabled = st->abr_enabled!=0;
1298:STM32F10x_Speex_Lib/STM32/libspeex/nb_celp.c ****       if (st->vbr_enabled) 
1299:STM32F10x_Speex_Lib/STM32/libspeex/nb_celp.c ****       {
1300:STM32F10x_Speex_Lib/STM32/libspeex/nb_celp.c ****          spx_int32_t i=10;
1301:STM32F10x_Speex_Lib/STM32/libspeex/nb_celp.c ****          spx_int32_t rate, target;
1302:STM32F10x_Speex_Lib/STM32/libspeex/nb_celp.c ****          float vbr_qual;
1303:STM32F10x_Speex_Lib/STM32/libspeex/nb_celp.c ****          target = (*(spx_int32_t*)ptr);
1304:STM32F10x_Speex_Lib/STM32/libspeex/nb_celp.c ****          while (i>=0)
1305:STM32F10x_Speex_Lib/STM32/libspeex/nb_celp.c ****          {
1306:STM32F10x_Speex_Lib/STM32/libspeex/nb_celp.c ****             speex_encoder_ctl(st, SPEEX_SET_QUALITY, &i);
1307:STM32F10x_Speex_Lib/STM32/libspeex/nb_celp.c ****             speex_encoder_ctl(st, SPEEX_GET_BITRATE, &rate);
1308:STM32F10x_Speex_Lib/STM32/libspeex/nb_celp.c ****             if (rate <= target)
1309:STM32F10x_Speex_Lib/STM32/libspeex/nb_celp.c ****                break;
1310:STM32F10x_Speex_Lib/STM32/libspeex/nb_celp.c ****             i--;
1311:STM32F10x_Speex_Lib/STM32/libspeex/nb_celp.c ****          }
1312:STM32F10x_Speex_Lib/STM32/libspeex/nb_celp.c ****          vbr_qual=i;
1313:STM32F10x_Speex_Lib/STM32/libspeex/nb_celp.c ****          if (vbr_qual<0)
1314:STM32F10x_Speex_Lib/STM32/libspeex/nb_celp.c ****             vbr_qual=0;
1315:STM32F10x_Speex_Lib/STM32/libspeex/nb_celp.c ****          speex_encoder_ctl(st, SPEEX_SET_VBR_QUALITY, &vbr_qual);
1316:STM32F10x_Speex_Lib/STM32/libspeex/nb_celp.c ****          st->abr_count=0;
ARM GAS  /var/folders/kh/x4vltyy52lbg7p4pcyglc5080000gp/T//ccuucmVt.s 			page 147


1317:STM32F10x_Speex_Lib/STM32/libspeex/nb_celp.c ****          st->abr_drift=0;
1318:STM32F10x_Speex_Lib/STM32/libspeex/nb_celp.c ****          st->abr_drift2=0;
1319:STM32F10x_Speex_Lib/STM32/libspeex/nb_celp.c ****       }
1320:STM32F10x_Speex_Lib/STM32/libspeex/nb_celp.c ****       
1321:STM32F10x_Speex_Lib/STM32/libspeex/nb_celp.c ****       break;
1322:STM32F10x_Speex_Lib/STM32/libspeex/nb_celp.c ****    case SPEEX_GET_ABR:
1323:STM32F10x_Speex_Lib/STM32/libspeex/nb_celp.c ****       (*(spx_int32_t*)ptr) = st->abr_enabled;
1324:STM32F10x_Speex_Lib/STM32/libspeex/nb_celp.c ****       break;
1325:STM32F10x_Speex_Lib/STM32/libspeex/nb_celp.c **** #endif /* #ifndef DISABLE_VBR */
1326:STM32F10x_Speex_Lib/STM32/libspeex/nb_celp.c **** #if !defined(DISABLE_VBR) && !defined(DISABLE_FLOAT_API)
1327:STM32F10x_Speex_Lib/STM32/libspeex/nb_celp.c ****    case SPEEX_SET_VBR_QUALITY:
1328:STM32F10x_Speex_Lib/STM32/libspeex/nb_celp.c ****       st->vbr_quality = (*(float*)ptr);
1329:STM32F10x_Speex_Lib/STM32/libspeex/nb_celp.c ****       break;
1330:STM32F10x_Speex_Lib/STM32/libspeex/nb_celp.c ****    case SPEEX_GET_VBR_QUALITY:
1331:STM32F10x_Speex_Lib/STM32/libspeex/nb_celp.c ****       (*(float*)ptr) = st->vbr_quality;
1332:STM32F10x_Speex_Lib/STM32/libspeex/nb_celp.c ****       break;
1333:STM32F10x_Speex_Lib/STM32/libspeex/nb_celp.c **** #endif /* !defined(DISABLE_VBR) && !defined(DISABLE_FLOAT_API) */
1334:STM32F10x_Speex_Lib/STM32/libspeex/nb_celp.c ****    case SPEEX_SET_QUALITY:
1335:STM32F10x_Speex_Lib/STM32/libspeex/nb_celp.c ****       {
1336:STM32F10x_Speex_Lib/STM32/libspeex/nb_celp.c ****          int quality = (*(spx_int32_t*)ptr);
 6655              		.loc 3 1336 0
 6656 01ee 7B68     		ldr	r3, [r7, #4]
 6657 01f0 1B68     		ldr	r3, [r3]
 6658 01f2 7B63     		str	r3, [r7, #52]
1337:STM32F10x_Speex_Lib/STM32/libspeex/nb_celp.c ****          if (quality < 0)
 6659              		.loc 3 1337 0
 6660 01f4 7B6B     		ldr	r3, [r7, #52]
 6661 01f6 002B     		cmp	r3, #0
 6662 01f8 01DA     		bge	.L288
1338:STM32F10x_Speex_Lib/STM32/libspeex/nb_celp.c ****             quality = 0;
 6663              		.loc 3 1338 0
 6664 01fa 0023     		movs	r3, #0
 6665 01fc 7B63     		str	r3, [r7, #52]
 6666              	.L288:
1339:STM32F10x_Speex_Lib/STM32/libspeex/nb_celp.c ****          if (quality > 10)
 6667              		.loc 3 1339 0
 6668 01fe 7B6B     		ldr	r3, [r7, #52]
 6669 0200 0A2B     		cmp	r3, #10
 6670 0202 01DD     		ble	.L289
1340:STM32F10x_Speex_Lib/STM32/libspeex/nb_celp.c ****             quality = 10;
 6671              		.loc 3 1340 0
 6672 0204 0A23     		movs	r3, #10
 6673 0206 7B63     		str	r3, [r7, #52]
 6674              	.L289:
1341:STM32F10x_Speex_Lib/STM32/libspeex/nb_celp.c ****          st->submodeSelect = st->submodeID = ((const SpeexNBMode*)(st->mode->mode))->quality_map[qu
 6675              		.loc 3 1341 0
 6676 0208 7B6A     		ldr	r3, [r7, #36]
 6677 020a 1B68     		ldr	r3, [r3]
 6678 020c 1B68     		ldr	r3, [r3]
 6679 020e 7A6B     		ldr	r2, [r7, #52]
 6680 0210 1832     		adds	r2, r2, #24
 6681 0212 53F82220 		ldr	r2, [r3, r2, lsl #2]
 6682 0216 7B6A     		ldr	r3, [r7, #36]
 6683 0218 C3F8A020 		str	r2, [r3, #160]
 6684 021c 7B6A     		ldr	r3, [r7, #36]
 6685 021e D3F8A020 		ldr	r2, [r3, #160]
 6686 0222 7B6A     		ldr	r3, [r7, #36]
ARM GAS  /var/folders/kh/x4vltyy52lbg7p4pcyglc5080000gp/T//ccuucmVt.s 			page 148


 6687 0224 C3F8A420 		str	r2, [r3, #164]
 6688              	.LBE30:
1342:STM32F10x_Speex_Lib/STM32/libspeex/nb_celp.c ****       }
1343:STM32F10x_Speex_Lib/STM32/libspeex/nb_celp.c ****       break;
 6689              		.loc 3 1343 0
 6690 0228 7CE1     		b	.L287
 6691              	.L268:
1344:STM32F10x_Speex_Lib/STM32/libspeex/nb_celp.c ****    case SPEEX_SET_COMPLEXITY:
1345:STM32F10x_Speex_Lib/STM32/libspeex/nb_celp.c ****       st->complexity = (*(spx_int32_t*)ptr);
 6692              		.loc 3 1345 0
 6693 022a 7B68     		ldr	r3, [r7, #4]
 6694 022c 1A68     		ldr	r2, [r3]
 6695 022e 7B6A     		ldr	r3, [r7, #36]
 6696 0230 C3F88C20 		str	r2, [r3, #140]
1346:STM32F10x_Speex_Lib/STM32/libspeex/nb_celp.c ****       if (st->complexity<0)
 6697              		.loc 3 1346 0
 6698 0234 7B6A     		ldr	r3, [r7, #36]
 6699 0236 D3F88C30 		ldr	r3, [r3, #140]
 6700 023a 002B     		cmp	r3, #0
 6701 023c 80F26F81 		bge	.L312
1347:STM32F10x_Speex_Lib/STM32/libspeex/nb_celp.c ****          st->complexity=0;
 6702              		.loc 3 1347 0
 6703 0240 7B6A     		ldr	r3, [r7, #36]
 6704 0242 0022     		movs	r2, #0
 6705 0244 C3F88C20 		str	r2, [r3, #140]
1348:STM32F10x_Speex_Lib/STM32/libspeex/nb_celp.c ****       break;
 6706              		.loc 3 1348 0
 6707 0248 69E1     		b	.L312
 6708              	.L269:
1349:STM32F10x_Speex_Lib/STM32/libspeex/nb_celp.c ****    case SPEEX_GET_COMPLEXITY:
1350:STM32F10x_Speex_Lib/STM32/libspeex/nb_celp.c ****       (*(spx_int32_t*)ptr) = st->complexity;
 6709              		.loc 3 1350 0
 6710 024a 7B6A     		ldr	r3, [r7, #36]
 6711 024c D3F88C20 		ldr	r2, [r3, #140]
 6712 0250 7B68     		ldr	r3, [r7, #4]
 6713 0252 1A60     		str	r2, [r3]
1351:STM32F10x_Speex_Lib/STM32/libspeex/nb_celp.c ****       break;
 6714              		.loc 3 1351 0
 6715 0254 66E1     		b	.L287
 6716              	.L270:
 6717              	.LBB31:
1352:STM32F10x_Speex_Lib/STM32/libspeex/nb_celp.c ****    case SPEEX_SET_BITRATE:
1353:STM32F10x_Speex_Lib/STM32/libspeex/nb_celp.c ****       {
1354:STM32F10x_Speex_Lib/STM32/libspeex/nb_celp.c ****          spx_int32_t i=10;
 6718              		.loc 3 1354 0
 6719 0256 0A23     		movs	r3, #10
 6720 0258 BB61     		str	r3, [r7, #24]
1355:STM32F10x_Speex_Lib/STM32/libspeex/nb_celp.c ****          spx_int32_t rate, target;
1356:STM32F10x_Speex_Lib/STM32/libspeex/nb_celp.c ****          target = (*(spx_int32_t*)ptr);
 6721              		.loc 3 1356 0
 6722 025a 7B68     		ldr	r3, [r7, #4]
 6723 025c 1B68     		ldr	r3, [r3]
 6724 025e 3B62     		str	r3, [r7, #32]
1357:STM32F10x_Speex_Lib/STM32/libspeex/nb_celp.c ****          while (i>=0)
 6725              		.loc 3 1357 0
 6726 0260 14E0     		b	.L291
 6727              	.L294:
ARM GAS  /var/folders/kh/x4vltyy52lbg7p4pcyglc5080000gp/T//ccuucmVt.s 			page 149


1358:STM32F10x_Speex_Lib/STM32/libspeex/nb_celp.c ****          {
1359:STM32F10x_Speex_Lib/STM32/libspeex/nb_celp.c ****             speex_encoder_ctl(st, SPEEX_SET_QUALITY, &i);
 6728              		.loc 3 1359 0
 6729 0262 07F11803 		add	r3, r7, #24
 6730 0266 1A46     		mov	r2, r3
 6731 0268 0421     		movs	r1, #4
 6732 026a 786A     		ldr	r0, [r7, #36]
 6733 026c FFF7FEFF 		bl	speex_encoder_ctl
1360:STM32F10x_Speex_Lib/STM32/libspeex/nb_celp.c ****             speex_encoder_ctl(st, SPEEX_GET_BITRATE, &rate);
 6734              		.loc 3 1360 0
 6735 0270 07F11403 		add	r3, r7, #20
 6736 0274 1A46     		mov	r2, r3
 6737 0276 1321     		movs	r1, #19
 6738 0278 786A     		ldr	r0, [r7, #36]
 6739 027a FFF7FEFF 		bl	speex_encoder_ctl
1361:STM32F10x_Speex_Lib/STM32/libspeex/nb_celp.c ****             if (rate <= target)
 6740              		.loc 3 1361 0
 6741 027e 7A69     		ldr	r2, [r7, #20]
 6742 0280 3B6A     		ldr	r3, [r7, #32]
 6743 0282 9A42     		cmp	r2, r3
 6744 0284 06DD     		ble	.L313
1362:STM32F10x_Speex_Lib/STM32/libspeex/nb_celp.c ****                break;
1363:STM32F10x_Speex_Lib/STM32/libspeex/nb_celp.c ****             i--;
 6745              		.loc 3 1363 0
 6746 0286 BB69     		ldr	r3, [r7, #24]
 6747 0288 013B     		subs	r3, r3, #1
 6748 028a BB61     		str	r3, [r7, #24]
 6749              	.L291:
1357:STM32F10x_Speex_Lib/STM32/libspeex/nb_celp.c ****          {
 6750              		.loc 3 1357 0
 6751 028c BB69     		ldr	r3, [r7, #24]
 6752 028e 002B     		cmp	r3, #0
 6753 0290 E7DA     		bge	.L294
 6754              	.LBE31:
1364:STM32F10x_Speex_Lib/STM32/libspeex/nb_celp.c ****          }
1365:STM32F10x_Speex_Lib/STM32/libspeex/nb_celp.c ****       }
1366:STM32F10x_Speex_Lib/STM32/libspeex/nb_celp.c ****       break;
 6755              		.loc 3 1366 0
 6756 0292 47E1     		b	.L287
 6757              	.L313:
 6758              	.LBB32:
1362:STM32F10x_Speex_Lib/STM32/libspeex/nb_celp.c ****             i--;
 6759              		.loc 3 1362 0
 6760 0294 00BF     		nop
 6761              	.LBE32:
 6762              		.loc 3 1366 0
 6763 0296 45E1     		b	.L287
 6764              	.L271:
1367:STM32F10x_Speex_Lib/STM32/libspeex/nb_celp.c ****    case SPEEX_GET_BITRATE:
1368:STM32F10x_Speex_Lib/STM32/libspeex/nb_celp.c ****       if (st->submodes[st->submodeID])
 6765              		.loc 3 1368 0
 6766 0298 7B6A     		ldr	r3, [r7, #36]
 6767 029a D3F89C20 		ldr	r2, [r3, #156]
 6768 029e 7B6A     		ldr	r3, [r7, #36]
 6769 02a0 D3F8A030 		ldr	r3, [r3, #160]
 6770 02a4 9B00     		lsls	r3, r3, #2
 6771 02a6 1344     		add	r3, r3, r2
ARM GAS  /var/folders/kh/x4vltyy52lbg7p4pcyglc5080000gp/T//ccuucmVt.s 			page 150


 6772 02a8 1B68     		ldr	r3, [r3]
 6773 02aa 002B     		cmp	r3, #0
 6774 02ac 15D0     		beq	.L295
1369:STM32F10x_Speex_Lib/STM32/libspeex/nb_celp.c ****          (*(spx_int32_t*)ptr) = st->sampling_rate*SUBMODE(bits_per_frame)/st->frameSize;
 6775              		.loc 3 1369 0
 6776 02ae 7B6A     		ldr	r3, [r7, #36]
 6777 02b0 D3F89030 		ldr	r3, [r3, #144]
 6778 02b4 7A6A     		ldr	r2, [r7, #36]
 6779 02b6 D2F89C10 		ldr	r1, [r2, #156]
 6780 02ba 7A6A     		ldr	r2, [r7, #36]
 6781 02bc D2F8A020 		ldr	r2, [r2, #160]
 6782 02c0 9200     		lsls	r2, r2, #2
 6783 02c2 0A44     		add	r2, r2, r1
 6784 02c4 1268     		ldr	r2, [r2]
 6785 02c6 526B     		ldr	r2, [r2, #52]
 6786 02c8 02FB03F2 		mul	r2, r2, r3
 6787 02cc 7B6A     		ldr	r3, [r7, #36]
 6788 02ce 9B68     		ldr	r3, [r3, #8]
 6789 02d0 92FBF3F2 		sdiv	r2, r2, r3
 6790 02d4 7B68     		ldr	r3, [r7, #4]
 6791 02d6 1A60     		str	r2, [r3]
1370:STM32F10x_Speex_Lib/STM32/libspeex/nb_celp.c ****       else
1371:STM32F10x_Speex_Lib/STM32/libspeex/nb_celp.c ****          (*(spx_int32_t*)ptr) = st->sampling_rate*(NB_SUBMODE_BITS+1)/st->frameSize;
1372:STM32F10x_Speex_Lib/STM32/libspeex/nb_celp.c ****       break;
 6792              		.loc 3 1372 0
 6793 02d8 24E1     		b	.L287
 6794              	.L295:
1371:STM32F10x_Speex_Lib/STM32/libspeex/nb_celp.c ****       break;
 6795              		.loc 3 1371 0
 6796 02da 7B6A     		ldr	r3, [r7, #36]
 6797 02dc D3F89020 		ldr	r2, [r3, #144]
 6798 02e0 1346     		mov	r3, r2
 6799 02e2 9B00     		lsls	r3, r3, #2
 6800 02e4 1A44     		add	r2, r2, r3
 6801 02e6 7B6A     		ldr	r3, [r7, #36]
 6802 02e8 9B68     		ldr	r3, [r3, #8]
 6803 02ea 92FBF3F2 		sdiv	r2, r2, r3
 6804 02ee 7B68     		ldr	r3, [r7, #4]
 6805 02f0 1A60     		str	r2, [r3]
 6806              		.loc 3 1372 0
 6807 02f2 17E1     		b	.L287
 6808              	.L272:
1373:STM32F10x_Speex_Lib/STM32/libspeex/nb_celp.c ****    case SPEEX_SET_SAMPLING_RATE:
1374:STM32F10x_Speex_Lib/STM32/libspeex/nb_celp.c ****       st->sampling_rate = (*(spx_int32_t*)ptr);
 6809              		.loc 3 1374 0
 6810 02f4 7B68     		ldr	r3, [r7, #4]
 6811 02f6 1A68     		ldr	r2, [r3]
 6812 02f8 7B6A     		ldr	r3, [r7, #36]
 6813 02fa C3F89020 		str	r2, [r3, #144]
1375:STM32F10x_Speex_Lib/STM32/libspeex/nb_celp.c ****       break;
 6814              		.loc 3 1375 0
 6815 02fe 11E1     		b	.L287
 6816              	.L273:
1376:STM32F10x_Speex_Lib/STM32/libspeex/nb_celp.c ****    case SPEEX_GET_SAMPLING_RATE:
1377:STM32F10x_Speex_Lib/STM32/libspeex/nb_celp.c ****       (*(spx_int32_t*)ptr)=st->sampling_rate;
 6817              		.loc 3 1377 0
 6818 0300 7B6A     		ldr	r3, [r7, #36]
ARM GAS  /var/folders/kh/x4vltyy52lbg7p4pcyglc5080000gp/T//ccuucmVt.s 			page 151


 6819 0302 D3F89020 		ldr	r2, [r3, #144]
 6820 0306 7B68     		ldr	r3, [r7, #4]
 6821 0308 1A60     		str	r2, [r3]
1378:STM32F10x_Speex_Lib/STM32/libspeex/nb_celp.c ****       break;
 6822              		.loc 3 1378 0
 6823 030a 0BE1     		b	.L287
 6824              	.L274:
 6825              	.LBB33:
1379:STM32F10x_Speex_Lib/STM32/libspeex/nb_celp.c ****    case SPEEX_RESET_STATE:
1380:STM32F10x_Speex_Lib/STM32/libspeex/nb_celp.c ****       {
1381:STM32F10x_Speex_Lib/STM32/libspeex/nb_celp.c ****          int i;
1382:STM32F10x_Speex_Lib/STM32/libspeex/nb_celp.c ****          st->bounded_pitch = 1;
 6826              		.loc 3 1382 0
 6827 030c 7B6A     		ldr	r3, [r7, #36]
 6828 030e 0122     		movs	r2, #1
 6829 0310 9A62     		str	r2, [r3, #40]
1383:STM32F10x_Speex_Lib/STM32/libspeex/nb_celp.c ****          st->first = 1;
 6830              		.loc 3 1383 0
 6831 0312 7B6A     		ldr	r3, [r7, #36]
 6832 0314 0122     		movs	r2, #1
 6833 0316 5A60     		str	r2, [r3, #4]
1384:STM32F10x_Speex_Lib/STM32/libspeex/nb_celp.c ****          for (i=0;i<st->lpcSize;i++)
 6834              		.loc 3 1384 0
 6835 0318 0023     		movs	r3, #0
 6836 031a 3B63     		str	r3, [r7, #48]
 6837 031c 18E0     		b	.L297
 6838              	.L298:
1385:STM32F10x_Speex_Lib/STM32/libspeex/nb_celp.c ****             st->old_lsp[i]= DIV32(MULT16_16(QCONST16(3.1415927f, LSP_SHIFT), i+1), st->lpcSize+1);
 6839              		.loc 3 1385 0 discriminator 3
 6840 031e 7B6A     		ldr	r3, [r7, #36]
 6841 0320 1A6E     		ldr	r2, [r3, #96]
 6842 0322 3B6B     		ldr	r3, [r7, #48]
 6843 0324 5B00     		lsls	r3, r3, #1
 6844 0326 1344     		add	r3, r3, r2
 6845 0328 3A6B     		ldr	r2, [r7, #48]
 6846 032a 92B2     		uxth	r2, r2
 6847 032c 0132     		adds	r2, r2, #1
 6848 032e 92B2     		uxth	r2, r2
 6849 0330 12B2     		sxth	r2, r2
 6850 0332 1146     		mov	r1, r2
 6851 0334 46F28842 		movw	r2, #25736
 6852 0338 02FB01F1 		mul	r1, r2, r1
 6853 033c 7A6A     		ldr	r2, [r7, #36]
 6854 033e 9269     		ldr	r2, [r2, #24]
 6855 0340 0132     		adds	r2, r2, #1
 6856 0342 91FBF2F2 		sdiv	r2, r1, r2
 6857 0346 12B2     		sxth	r2, r2
 6858 0348 1A80     		strh	r2, [r3]	@ movhi
1384:STM32F10x_Speex_Lib/STM32/libspeex/nb_celp.c ****          for (i=0;i<st->lpcSize;i++)
 6859              		.loc 3 1384 0 discriminator 3
 6860 034a 3B6B     		ldr	r3, [r7, #48]
 6861 034c 0133     		adds	r3, r3, #1
 6862 034e 3B63     		str	r3, [r7, #48]
 6863              	.L297:
1384:STM32F10x_Speex_Lib/STM32/libspeex/nb_celp.c ****          for (i=0;i<st->lpcSize;i++)
 6864              		.loc 3 1384 0 is_stmt 0 discriminator 1
 6865 0350 7B6A     		ldr	r3, [r7, #36]
ARM GAS  /var/folders/kh/x4vltyy52lbg7p4pcyglc5080000gp/T//ccuucmVt.s 			page 152


 6866 0352 9A69     		ldr	r2, [r3, #24]
 6867 0354 3B6B     		ldr	r3, [r7, #48]
 6868 0356 9A42     		cmp	r2, r3
 6869 0358 E1DC     		bgt	.L298
1386:STM32F10x_Speex_Lib/STM32/libspeex/nb_celp.c ****          for (i=0;i<st->lpcSize;i++)
 6870              		.loc 3 1386 0 is_stmt 1
 6871 035a 0023     		movs	r3, #0
 6872 035c 3B63     		str	r3, [r7, #48]
 6873 035e 1EE0     		b	.L299
 6874              	.L300:
1387:STM32F10x_Speex_Lib/STM32/libspeex/nb_celp.c ****             st->mem_sw[i]=st->mem_sw_whole[i]=st->mem_sp[i]=st->mem_exc[i]=0;
 6875              		.loc 3 1387 0 discriminator 3
 6876 0360 7B6A     		ldr	r3, [r7, #36]
 6877 0362 DA6E     		ldr	r2, [r3, #108]
 6878 0364 3B6B     		ldr	r3, [r7, #48]
 6879 0366 9B00     		lsls	r3, r3, #2
 6880 0368 D018     		adds	r0, r2, r3
 6881 036a 7B6A     		ldr	r3, [r7, #36]
 6882 036c 1A6F     		ldr	r2, [r3, #112]
 6883 036e 3B6B     		ldr	r3, [r7, #48]
 6884 0370 9B00     		lsls	r3, r3, #2
 6885 0372 1344     		add	r3, r3, r2
 6886 0374 7A6A     		ldr	r2, [r7, #36]
 6887 0376 916E     		ldr	r1, [r2, #104]
 6888 0378 3A6B     		ldr	r2, [r7, #48]
 6889 037a 9200     		lsls	r2, r2, #2
 6890 037c 0A44     		add	r2, r2, r1
 6891 037e 796A     		ldr	r1, [r7, #36]
 6892 0380 4C6F     		ldr	r4, [r1, #116]
 6893 0382 396B     		ldr	r1, [r7, #48]
 6894 0384 8900     		lsls	r1, r1, #2
 6895 0386 2144     		add	r1, r1, r4
 6896 0388 0024     		movs	r4, #0
 6897 038a 0C60     		str	r4, [r1]
 6898 038c 0968     		ldr	r1, [r1]
 6899 038e 1160     		str	r1, [r2]
 6900 0390 1268     		ldr	r2, [r2]
 6901 0392 1A60     		str	r2, [r3]
 6902 0394 1B68     		ldr	r3, [r3]
 6903 0396 0360     		str	r3, [r0]
1386:STM32F10x_Speex_Lib/STM32/libspeex/nb_celp.c ****          for (i=0;i<st->lpcSize;i++)
 6904              		.loc 3 1386 0 discriminator 3
 6905 0398 3B6B     		ldr	r3, [r7, #48]
 6906 039a 0133     		adds	r3, r3, #1
 6907 039c 3B63     		str	r3, [r7, #48]
 6908              	.L299:
1386:STM32F10x_Speex_Lib/STM32/libspeex/nb_celp.c ****          for (i=0;i<st->lpcSize;i++)
 6909              		.loc 3 1386 0 is_stmt 0 discriminator 1
 6910 039e 7B6A     		ldr	r3, [r7, #36]
 6911 03a0 9A69     		ldr	r2, [r3, #24]
 6912 03a2 3B6B     		ldr	r3, [r7, #48]
 6913 03a4 9A42     		cmp	r2, r3
 6914 03a6 DBDC     		bgt	.L300
1388:STM32F10x_Speex_Lib/STM32/libspeex/nb_celp.c ****          for (i=0;i<st->frameSize+st->max_pitch+1;i++)
 6915              		.loc 3 1388 0 is_stmt 1
 6916 03a8 0023     		movs	r3, #0
 6917 03aa 3B63     		str	r3, [r7, #48]
ARM GAS  /var/folders/kh/x4vltyy52lbg7p4pcyglc5080000gp/T//ccuucmVt.s 			page 153


 6918 03ac 11E0     		b	.L301
 6919              	.L302:
1389:STM32F10x_Speex_Lib/STM32/libspeex/nb_celp.c ****             st->excBuf[i]=st->swBuf[i]=0;
 6920              		.loc 3 1389 0 discriminator 3
 6921 03ae 7B6A     		ldr	r3, [r7, #36]
 6922 03b0 9A6C     		ldr	r2, [r3, #72]
 6923 03b2 3B6B     		ldr	r3, [r7, #48]
 6924 03b4 5B00     		lsls	r3, r3, #1
 6925 03b6 1A44     		add	r2, r2, r3
 6926 03b8 7B6A     		ldr	r3, [r7, #36]
 6927 03ba 196D     		ldr	r1, [r3, #80]
 6928 03bc 3B6B     		ldr	r3, [r7, #48]
 6929 03be 5B00     		lsls	r3, r3, #1
 6930 03c0 0B44     		add	r3, r3, r1
 6931 03c2 0021     		movs	r1, #0
 6932 03c4 1980     		strh	r1, [r3]	@ movhi
 6933 03c6 B3F90030 		ldrsh	r3, [r3]
 6934 03ca 1380     		strh	r3, [r2]	@ movhi
1388:STM32F10x_Speex_Lib/STM32/libspeex/nb_celp.c ****          for (i=0;i<st->frameSize+st->max_pitch+1;i++)
 6935              		.loc 3 1388 0 discriminator 3
 6936 03cc 3B6B     		ldr	r3, [r7, #48]
 6937 03ce 0133     		adds	r3, r3, #1
 6938 03d0 3B63     		str	r3, [r7, #48]
 6939              	.L301:
1388:STM32F10x_Speex_Lib/STM32/libspeex/nb_celp.c ****          for (i=0;i<st->frameSize+st->max_pitch+1;i++)
 6940              		.loc 3 1388 0 is_stmt 0 discriminator 1
 6941 03d2 7B6A     		ldr	r3, [r7, #36]
 6942 03d4 9A68     		ldr	r2, [r3, #8]
 6943 03d6 7B6A     		ldr	r3, [r7, #36]
 6944 03d8 1B6A     		ldr	r3, [r3, #32]
 6945 03da 1344     		add	r3, r3, r2
 6946 03dc 5A1C     		adds	r2, r3, #1
 6947 03de 3B6B     		ldr	r3, [r7, #48]
 6948 03e0 9A42     		cmp	r2, r3
 6949 03e2 E4DC     		bgt	.L302
1390:STM32F10x_Speex_Lib/STM32/libspeex/nb_celp.c ****          for (i=0;i<st->windowSize-st->frameSize;i++)
 6950              		.loc 3 1390 0 is_stmt 1
 6951 03e4 0023     		movs	r3, #0
 6952 03e6 3B63     		str	r3, [r7, #48]
 6953 03e8 09E0     		b	.L303
 6954              	.L304:
1391:STM32F10x_Speex_Lib/STM32/libspeex/nb_celp.c ****             st->winBuf[i]=0;
 6955              		.loc 3 1391 0 discriminator 3
 6956 03ea 7B6A     		ldr	r3, [r7, #36]
 6957 03ec 5A6C     		ldr	r2, [r3, #68]
 6958 03ee 3B6B     		ldr	r3, [r7, #48]
 6959 03f0 5B00     		lsls	r3, r3, #1
 6960 03f2 1344     		add	r3, r3, r2
 6961 03f4 0022     		movs	r2, #0
 6962 03f6 1A80     		strh	r2, [r3]	@ movhi
1390:STM32F10x_Speex_Lib/STM32/libspeex/nb_celp.c ****          for (i=0;i<st->windowSize-st->frameSize;i++)
 6963              		.loc 3 1390 0 discriminator 3
 6964 03f8 3B6B     		ldr	r3, [r7, #48]
 6965 03fa 0133     		adds	r3, r3, #1
 6966 03fc 3B63     		str	r3, [r7, #48]
 6967              	.L303:
1390:STM32F10x_Speex_Lib/STM32/libspeex/nb_celp.c ****          for (i=0;i<st->windowSize-st->frameSize;i++)
ARM GAS  /var/folders/kh/x4vltyy52lbg7p4pcyglc5080000gp/T//ccuucmVt.s 			page 154


 6968              		.loc 3 1390 0 is_stmt 0 discriminator 1
 6969 03fe 7B6A     		ldr	r3, [r7, #36]
 6970 0400 5A69     		ldr	r2, [r3, #20]
 6971 0402 7B6A     		ldr	r3, [r7, #36]
 6972 0404 9B68     		ldr	r3, [r3, #8]
 6973 0406 D21A     		subs	r2, r2, r3
 6974 0408 3B6B     		ldr	r3, [r7, #48]
 6975 040a 9A42     		cmp	r2, r3
 6976 040c EDDC     		bgt	.L304
 6977              	.LBE33:
1392:STM32F10x_Speex_Lib/STM32/libspeex/nb_celp.c ****       }
1393:STM32F10x_Speex_Lib/STM32/libspeex/nb_celp.c ****       break;
 6978              		.loc 3 1393 0 is_stmt 1
 6979 040e 89E0     		b	.L287
 6980              	.L275:
1394:STM32F10x_Speex_Lib/STM32/libspeex/nb_celp.c ****    case SPEEX_SET_SUBMODE_ENCODING:
1395:STM32F10x_Speex_Lib/STM32/libspeex/nb_celp.c ****       st->encode_submode = (*(spx_int32_t*)ptr);
 6981              		.loc 3 1395 0
 6982 0410 7B68     		ldr	r3, [r7, #4]
 6983 0412 1A68     		ldr	r2, [r3]
 6984 0414 7B6A     		ldr	r3, [r7, #36]
 6985 0416 C3F89820 		str	r2, [r3, #152]
1396:STM32F10x_Speex_Lib/STM32/libspeex/nb_celp.c ****       break;
 6986              		.loc 3 1396 0
 6987 041a 83E0     		b	.L287
 6988              	.L276:
1397:STM32F10x_Speex_Lib/STM32/libspeex/nb_celp.c ****    case SPEEX_GET_SUBMODE_ENCODING:
1398:STM32F10x_Speex_Lib/STM32/libspeex/nb_celp.c ****       (*(spx_int32_t*)ptr) = st->encode_submode;
 6989              		.loc 3 1398 0
 6990 041c 7B6A     		ldr	r3, [r7, #36]
 6991 041e D3F89820 		ldr	r2, [r3, #152]
 6992 0422 7B68     		ldr	r3, [r7, #4]
 6993 0424 1A60     		str	r2, [r3]
1399:STM32F10x_Speex_Lib/STM32/libspeex/nb_celp.c ****       break;
 6994              		.loc 3 1399 0
 6995 0426 7DE0     		b	.L287
 6996              	.L277:
1400:STM32F10x_Speex_Lib/STM32/libspeex/nb_celp.c ****    case SPEEX_GET_LOOKAHEAD:
1401:STM32F10x_Speex_Lib/STM32/libspeex/nb_celp.c ****       (*(spx_int32_t*)ptr)=(st->windowSize-st->frameSize);
 6997              		.loc 3 1401 0
 6998 0428 7B6A     		ldr	r3, [r7, #36]
 6999 042a 5A69     		ldr	r2, [r3, #20]
 7000 042c 7B6A     		ldr	r3, [r7, #36]
 7001 042e 9B68     		ldr	r3, [r3, #8]
 7002 0430 D21A     		subs	r2, r2, r3
 7003 0432 7B68     		ldr	r3, [r7, #4]
 7004 0434 1A60     		str	r2, [r3]
1402:STM32F10x_Speex_Lib/STM32/libspeex/nb_celp.c ****       break;
 7005              		.loc 3 1402 0
 7006 0436 75E0     		b	.L287
 7007              	.L278:
1403:STM32F10x_Speex_Lib/STM32/libspeex/nb_celp.c ****    case SPEEX_SET_PLC_TUNING:
1404:STM32F10x_Speex_Lib/STM32/libspeex/nb_celp.c ****       st->plc_tuning = (*(spx_int32_t*)ptr);
 7008              		.loc 3 1404 0
 7009 0438 7B68     		ldr	r3, [r7, #4]
 7010 043a 1A68     		ldr	r2, [r3]
 7011 043c 7B6A     		ldr	r3, [r7, #36]
ARM GAS  /var/folders/kh/x4vltyy52lbg7p4pcyglc5080000gp/T//ccuucmVt.s 			page 155


 7012 043e C3F89420 		str	r2, [r3, #148]
1405:STM32F10x_Speex_Lib/STM32/libspeex/nb_celp.c ****       if (st->plc_tuning>100)
 7013              		.loc 3 1405 0
 7014 0442 7B6A     		ldr	r3, [r7, #36]
 7015 0444 D3F89430 		ldr	r3, [r3, #148]
 7016 0448 642B     		cmp	r3, #100
 7017 044a 6ADD     		ble	.L314
1406:STM32F10x_Speex_Lib/STM32/libspeex/nb_celp.c ****          st->plc_tuning=100;
 7018              		.loc 3 1406 0
 7019 044c 7B6A     		ldr	r3, [r7, #36]
 7020 044e 6422     		movs	r2, #100
 7021 0450 C3F89420 		str	r2, [r3, #148]
1407:STM32F10x_Speex_Lib/STM32/libspeex/nb_celp.c ****       break;
 7022              		.loc 3 1407 0
 7023 0454 65E0     		b	.L314
 7024              	.L279:
1408:STM32F10x_Speex_Lib/STM32/libspeex/nb_celp.c ****    case SPEEX_GET_PLC_TUNING:
1409:STM32F10x_Speex_Lib/STM32/libspeex/nb_celp.c ****       (*(spx_int32_t*)ptr)=(st->plc_tuning);
 7025              		.loc 3 1409 0
 7026 0456 7B6A     		ldr	r3, [r7, #36]
 7027 0458 D3F89420 		ldr	r2, [r3, #148]
 7028 045c 7B68     		ldr	r3, [r7, #4]
 7029 045e 1A60     		str	r2, [r3]
1410:STM32F10x_Speex_Lib/STM32/libspeex/nb_celp.c ****       break;
 7030              		.loc 3 1410 0
 7031 0460 60E0     		b	.L287
 7032              	.L280:
1411:STM32F10x_Speex_Lib/STM32/libspeex/nb_celp.c **** #ifndef DISABLE_VBR
1412:STM32F10x_Speex_Lib/STM32/libspeex/nb_celp.c ****    case SPEEX_SET_VBR_MAX_BITRATE:
1413:STM32F10x_Speex_Lib/STM32/libspeex/nb_celp.c ****       st->vbr_max = (*(spx_int32_t*)ptr);
1414:STM32F10x_Speex_Lib/STM32/libspeex/nb_celp.c ****       break;
1415:STM32F10x_Speex_Lib/STM32/libspeex/nb_celp.c ****    case SPEEX_GET_VBR_MAX_BITRATE:
1416:STM32F10x_Speex_Lib/STM32/libspeex/nb_celp.c ****       (*(spx_int32_t*)ptr) = st->vbr_max;
1417:STM32F10x_Speex_Lib/STM32/libspeex/nb_celp.c ****       break;
1418:STM32F10x_Speex_Lib/STM32/libspeex/nb_celp.c **** #endif /* #ifndef DISABLE_VBR */
1419:STM32F10x_Speex_Lib/STM32/libspeex/nb_celp.c ****    case SPEEX_SET_HIGHPASS:
1420:STM32F10x_Speex_Lib/STM32/libspeex/nb_celp.c ****       st->highpass_enabled = (*(spx_int32_t*)ptr);
 7033              		.loc 3 1420 0
 7034 0462 7B68     		ldr	r3, [r7, #4]
 7035 0464 1A68     		ldr	r2, [r3]
 7036 0466 7B6A     		ldr	r3, [r7, #36]
 7037 0468 C3F8AC20 		str	r2, [r3, #172]
1421:STM32F10x_Speex_Lib/STM32/libspeex/nb_celp.c ****       break;
 7038              		.loc 3 1421 0
 7039 046c 5AE0     		b	.L287
 7040              	.L281:
1422:STM32F10x_Speex_Lib/STM32/libspeex/nb_celp.c ****    case SPEEX_GET_HIGHPASS:
1423:STM32F10x_Speex_Lib/STM32/libspeex/nb_celp.c ****       (*(spx_int32_t*)ptr) = st->highpass_enabled;
 7041              		.loc 3 1423 0
 7042 046e 7B6A     		ldr	r3, [r7, #36]
 7043 0470 D3F8AC20 		ldr	r2, [r3, #172]
 7044 0474 7B68     		ldr	r3, [r7, #4]
 7045 0476 1A60     		str	r2, [r3]
1424:STM32F10x_Speex_Lib/STM32/libspeex/nb_celp.c ****       break;
 7046              		.loc 3 1424 0
 7047 0478 54E0     		b	.L287
 7048              	.L282:
ARM GAS  /var/folders/kh/x4vltyy52lbg7p4pcyglc5080000gp/T//ccuucmVt.s 			page 156


 7049              	.LBB34:
1425:STM32F10x_Speex_Lib/STM32/libspeex/nb_celp.c **** 
1426:STM32F10x_Speex_Lib/STM32/libspeex/nb_celp.c ****    /* This is all internal stuff past this point */
1427:STM32F10x_Speex_Lib/STM32/libspeex/nb_celp.c ****    case SPEEX_GET_PI_GAIN:
1428:STM32F10x_Speex_Lib/STM32/libspeex/nb_celp.c ****       {
1429:STM32F10x_Speex_Lib/STM32/libspeex/nb_celp.c ****          int i;
1430:STM32F10x_Speex_Lib/STM32/libspeex/nb_celp.c ****          spx_word32_t *g = (spx_word32_t*)ptr;
 7050              		.loc 3 1430 0
 7051 047a 7B68     		ldr	r3, [r7, #4]
 7052 047c FB61     		str	r3, [r7, #28]
1431:STM32F10x_Speex_Lib/STM32/libspeex/nb_celp.c ****          for (i=0;i<st->nbSubframes;i++)
 7053              		.loc 3 1431 0
 7054 047e 0023     		movs	r3, #0
 7055 0480 FB62     		str	r3, [r7, #44]
 7056 0482 0EE0     		b	.L306
 7057              	.L307:
1432:STM32F10x_Speex_Lib/STM32/libspeex/nb_celp.c ****             g[i]=st->pi_gain[i];
 7058              		.loc 3 1432 0 discriminator 3
 7059 0484 FB6A     		ldr	r3, [r7, #44]
 7060 0486 9B00     		lsls	r3, r3, #2
 7061 0488 FA69     		ldr	r2, [r7, #28]
 7062 048a 1344     		add	r3, r3, r2
 7063 048c 7A6A     		ldr	r2, [r7, #36]
 7064 048e D2F88410 		ldr	r1, [r2, #132]
 7065 0492 FA6A     		ldr	r2, [r7, #44]
 7066 0494 9200     		lsls	r2, r2, #2
 7067 0496 0A44     		add	r2, r2, r1
 7068 0498 1268     		ldr	r2, [r2]
 7069 049a 1A60     		str	r2, [r3]
1431:STM32F10x_Speex_Lib/STM32/libspeex/nb_celp.c ****          for (i=0;i<st->nbSubframes;i++)
 7070              		.loc 3 1431 0 discriminator 3
 7071 049c FB6A     		ldr	r3, [r7, #44]
 7072 049e 0133     		adds	r3, r3, #1
 7073 04a0 FB62     		str	r3, [r7, #44]
 7074              	.L306:
1431:STM32F10x_Speex_Lib/STM32/libspeex/nb_celp.c ****          for (i=0;i<st->nbSubframes;i++)
 7075              		.loc 3 1431 0 is_stmt 0 discriminator 1
 7076 04a2 7B6A     		ldr	r3, [r7, #36]
 7077 04a4 1A69     		ldr	r2, [r3, #16]
 7078 04a6 FB6A     		ldr	r3, [r7, #44]
 7079 04a8 9A42     		cmp	r2, r3
 7080 04aa EBDC     		bgt	.L307
 7081              	.LBE34:
1433:STM32F10x_Speex_Lib/STM32/libspeex/nb_celp.c ****       }
1434:STM32F10x_Speex_Lib/STM32/libspeex/nb_celp.c ****       break;
 7082              		.loc 3 1434 0 is_stmt 1
 7083 04ac 3AE0     		b	.L287
 7084              	.L283:
 7085              	.LBB35:
1435:STM32F10x_Speex_Lib/STM32/libspeex/nb_celp.c ****    case SPEEX_GET_EXC:
1436:STM32F10x_Speex_Lib/STM32/libspeex/nb_celp.c ****       {
1437:STM32F10x_Speex_Lib/STM32/libspeex/nb_celp.c ****          int i;
1438:STM32F10x_Speex_Lib/STM32/libspeex/nb_celp.c ****          for (i=0;i<st->nbSubframes;i++)
 7086              		.loc 3 1438 0
 7087 04ae 0023     		movs	r3, #0
 7088 04b0 BB62     		str	r3, [r7, #40]
 7089 04b2 17E0     		b	.L308
ARM GAS  /var/folders/kh/x4vltyy52lbg7p4pcyglc5080000gp/T//ccuucmVt.s 			page 157


 7090              	.L309:
1439:STM32F10x_Speex_Lib/STM32/libspeex/nb_celp.c ****             ((spx_word16_t*)ptr)[i] = compute_rms16(st->exc+i*st->subframeSize, st->subframeSize);
 7091              		.loc 3 1439 0 discriminator 3
 7092 04b4 BB6A     		ldr	r3, [r7, #40]
 7093 04b6 5B00     		lsls	r3, r3, #1
 7094 04b8 7A68     		ldr	r2, [r7, #4]
 7095 04ba D418     		adds	r4, r2, r3
 7096 04bc 7B6A     		ldr	r3, [r7, #36]
 7097 04be DA6C     		ldr	r2, [r3, #76]
 7098 04c0 7B6A     		ldr	r3, [r7, #36]
 7099 04c2 DB68     		ldr	r3, [r3, #12]
 7100 04c4 B96A     		ldr	r1, [r7, #40]
 7101 04c6 01FB03F3 		mul	r3, r1, r3
 7102 04ca 5B00     		lsls	r3, r3, #1
 7103 04cc 1A44     		add	r2, r2, r3
 7104 04ce 7B6A     		ldr	r3, [r7, #36]
 7105 04d0 DB68     		ldr	r3, [r3, #12]
 7106 04d2 1946     		mov	r1, r3
 7107 04d4 1046     		mov	r0, r2
 7108 04d6 FFF7FEFF 		bl	compute_rms16
 7109 04da 0346     		mov	r3, r0
 7110 04dc 2380     		strh	r3, [r4]	@ movhi
1438:STM32F10x_Speex_Lib/STM32/libspeex/nb_celp.c ****             ((spx_word16_t*)ptr)[i] = compute_rms16(st->exc+i*st->subframeSize, st->subframeSize);
 7111              		.loc 3 1438 0 discriminator 3
 7112 04de BB6A     		ldr	r3, [r7, #40]
 7113 04e0 0133     		adds	r3, r3, #1
 7114 04e2 BB62     		str	r3, [r7, #40]
 7115              	.L308:
1438:STM32F10x_Speex_Lib/STM32/libspeex/nb_celp.c ****             ((spx_word16_t*)ptr)[i] = compute_rms16(st->exc+i*st->subframeSize, st->subframeSize);
 7116              		.loc 3 1438 0 is_stmt 0 discriminator 1
 7117 04e4 7B6A     		ldr	r3, [r7, #36]
 7118 04e6 1A69     		ldr	r2, [r3, #16]
 7119 04e8 BB6A     		ldr	r3, [r7, #40]
 7120 04ea 9A42     		cmp	r2, r3
 7121 04ec E2DC     		bgt	.L309
 7122              	.LBE35:
1440:STM32F10x_Speex_Lib/STM32/libspeex/nb_celp.c ****       }
1441:STM32F10x_Speex_Lib/STM32/libspeex/nb_celp.c ****       break;
 7123              		.loc 3 1441 0 is_stmt 1
 7124 04ee 19E0     		b	.L287
 7125              	.L284:
1442:STM32F10x_Speex_Lib/STM32/libspeex/nb_celp.c **** #ifndef DISABLE_VBR
1443:STM32F10x_Speex_Lib/STM32/libspeex/nb_celp.c ****    case SPEEX_GET_RELATIVE_QUALITY:
1444:STM32F10x_Speex_Lib/STM32/libspeex/nb_celp.c ****       (*(float*)ptr)=st->relative_quality;
1445:STM32F10x_Speex_Lib/STM32/libspeex/nb_celp.c ****       break;
1446:STM32F10x_Speex_Lib/STM32/libspeex/nb_celp.c **** #endif /* #ifndef DISABLE_VBR */
1447:STM32F10x_Speex_Lib/STM32/libspeex/nb_celp.c ****    case SPEEX_SET_INNOVATION_SAVE:
1448:STM32F10x_Speex_Lib/STM32/libspeex/nb_celp.c ****       st->innov_rms_save = (spx_word16_t*)ptr;
 7126              		.loc 3 1448 0
 7127 04f0 7B6A     		ldr	r3, [r7, #36]
 7128 04f2 7A68     		ldr	r2, [r7, #4]
 7129 04f4 C3F88820 		str	r2, [r3, #136]
1449:STM32F10x_Speex_Lib/STM32/libspeex/nb_celp.c ****       break;
 7130              		.loc 3 1449 0
 7131 04f8 14E0     		b	.L287
 7132              	.L285:
1450:STM32F10x_Speex_Lib/STM32/libspeex/nb_celp.c ****    case SPEEX_SET_WIDEBAND:
ARM GAS  /var/folders/kh/x4vltyy52lbg7p4pcyglc5080000gp/T//ccuucmVt.s 			page 158


1451:STM32F10x_Speex_Lib/STM32/libspeex/nb_celp.c ****       st->isWideband = *((spx_int32_t*)ptr);
 7133              		.loc 3 1451 0
 7134 04fa 7B68     		ldr	r3, [r7, #4]
 7135 04fc 1A68     		ldr	r2, [r3]
 7136 04fe 7B6A     		ldr	r3, [r7, #36]
 7137 0500 C3F8A820 		str	r2, [r3, #168]
1452:STM32F10x_Speex_Lib/STM32/libspeex/nb_celp.c ****       break;
 7138              		.loc 3 1452 0
 7139 0504 0EE0     		b	.L287
 7140              	.L286:
1453:STM32F10x_Speex_Lib/STM32/libspeex/nb_celp.c ****    case SPEEX_GET_STACK:
1454:STM32F10x_Speex_Lib/STM32/libspeex/nb_celp.c ****       *((char**)ptr) = st->stack;
 7141              		.loc 3 1454 0
 7142 0506 7B6A     		ldr	r3, [r7, #36]
 7143 0508 1A6C     		ldr	r2, [r3, #64]
 7144 050a 7B68     		ldr	r3, [r7, #4]
 7145 050c 1A60     		str	r2, [r3]
1455:STM32F10x_Speex_Lib/STM32/libspeex/nb_celp.c ****       break;
 7146              		.loc 3 1455 0
 7147 050e 09E0     		b	.L287
 7148              	.L262:
1456:STM32F10x_Speex_Lib/STM32/libspeex/nb_celp.c ****    default:
1457:STM32F10x_Speex_Lib/STM32/libspeex/nb_celp.c ****       speex_warning_int("Unknown nb_ctl request: ", request);
 7149              		.loc 3 1457 0
 7150 0510 B968     		ldr	r1, [r7, #8]
 7151 0512 0748     		ldr	r0, .L315
 7152 0514 FFF7FEFF 		bl	speex_warning_int
1458:STM32F10x_Speex_Lib/STM32/libspeex/nb_celp.c ****       return -1;
 7153              		.loc 3 1458 0
 7154 0518 4FF0FF33 		mov	r3, #-1
 7155 051c 03E0     		b	.L310
 7156              	.L312:
1348:STM32F10x_Speex_Lib/STM32/libspeex/nb_celp.c ****    case SPEEX_GET_COMPLEXITY:
 7157              		.loc 3 1348 0
 7158 051e 00BF     		nop
 7159 0520 00E0     		b	.L287
 7160              	.L314:
1407:STM32F10x_Speex_Lib/STM32/libspeex/nb_celp.c ****    case SPEEX_GET_PLC_TUNING:
 7161              		.loc 3 1407 0
 7162 0522 00BF     		nop
 7163              	.L287:
1459:STM32F10x_Speex_Lib/STM32/libspeex/nb_celp.c ****    }
1460:STM32F10x_Speex_Lib/STM32/libspeex/nb_celp.c ****    return 0;
 7164              		.loc 3 1460 0
 7165 0524 0023     		movs	r3, #0
 7166              	.L310:
1461:STM32F10x_Speex_Lib/STM32/libspeex/nb_celp.c **** }
 7167              		.loc 3 1461 0
 7168 0526 1846     		mov	r0, r3
 7169 0528 3C37     		adds	r7, r7, #60
 7170              	.LCFI87:
 7171              		.cfi_def_cfa_offset 12
 7172 052a BD46     		mov	sp, r7
 7173              	.LCFI88:
 7174              		.cfi_def_cfa_register 13
 7175              		@ sp needed
 7176 052c 90BD     		pop	{r4, r7, pc}
ARM GAS  /var/folders/kh/x4vltyy52lbg7p4pcyglc5080000gp/T//ccuucmVt.s 			page 159


 7177              	.L316:
 7178 052e 00BF     		.align	2
 7179              	.L315:
 7180 0530 74000000 		.word	.LC2
 7181              		.cfi_endproc
 7182              	.LFE28:
 7184              		.section	.text.nb_decoder_ctl,"ax",%progbits
 7185              		.align	2
 7186              		.global	nb_decoder_ctl
 7187              		.thumb
 7188              		.thumb_func
 7190              	nb_decoder_ctl:
 7191              	.LFB29:
1462:STM32F10x_Speex_Lib/STM32/libspeex/nb_celp.c **** 
1463:STM32F10x_Speex_Lib/STM32/libspeex/nb_celp.c **** int nb_decoder_ctl(void *state, int request, void *ptr)
1464:STM32F10x_Speex_Lib/STM32/libspeex/nb_celp.c **** {
 7192              		.loc 3 1464 0
 7193              		.cfi_startproc
 7194              		@ args = 0, pretend = 0, frame = 48
 7195              		@ frame_needed = 1, uses_anonymous_args = 0
 7196 0000 90B5     		push	{r4, r7, lr}
 7197              	.LCFI89:
 7198              		.cfi_def_cfa_offset 12
 7199              		.cfi_offset 4, -12
 7200              		.cfi_offset 7, -8
 7201              		.cfi_offset 14, -4
 7202 0002 8DB0     		sub	sp, sp, #52
 7203              	.LCFI90:
 7204              		.cfi_def_cfa_offset 64
 7205 0004 00AF     		add	r7, sp, #0
 7206              	.LCFI91:
 7207              		.cfi_def_cfa_register 7
 7208 0006 F860     		str	r0, [r7, #12]
 7209 0008 B960     		str	r1, [r7, #8]
 7210 000a 7A60     		str	r2, [r7, #4]
1465:STM32F10x_Speex_Lib/STM32/libspeex/nb_celp.c ****    DecState *st;
1466:STM32F10x_Speex_Lib/STM32/libspeex/nb_celp.c ****    st=(DecState*)state;
 7211              		.loc 3 1466 0
 7212 000c FB68     		ldr	r3, [r7, #12]
 7213 000e 3B62     		str	r3, [r7, #32]
1467:STM32F10x_Speex_Lib/STM32/libspeex/nb_celp.c ****    switch(request)
 7214              		.loc 3 1467 0
 7215 0010 BB68     		ldr	r3, [r7, #8]
 7216 0012 6A2B     		cmp	r3, #106
 7217 0014 00F2F181 		bhi	.L318
 7218 0018 01A2     		adr	r2, .L320
 7219 001a 52F823F0 		ldr	pc, [r2, r3, lsl #2]
 7220 001e 00BF     		.p2align 2
 7221              	.L320:
 7222 0020 E1010000 		.word	.L319+1
 7223 0024 EB010000 		.word	.L321+1
 7224 0028 FB030000 		.word	.L318+1
 7225 002c F5010000 		.word	.L322+1
 7226 0030 FB030000 		.word	.L318+1
 7227 0034 FB030000 		.word	.L318+1
 7228 0038 CD010000 		.word	.L323+1
 7229 003c D7010000 		.word	.L324+1
ARM GAS  /var/folders/kh/x4vltyy52lbg7p4pcyglc5080000gp/T//ccuucmVt.s 			page 160


 7230 0040 CD010000 		.word	.L323+1
 7231 0044 D7010000 		.word	.L324+1
 7232 0048 FB030000 		.word	.L318+1
 7233 004c FB030000 		.word	.L318+1
 7234 0050 FB030000 		.word	.L318+1
 7235 0054 FB030000 		.word	.L318+1
 7236 0058 FB030000 		.word	.L318+1
 7237 005c FB030000 		.word	.L318+1
 7238 0060 FB030000 		.word	.L318+1
 7239 0064 FB030000 		.word	.L318+1
 7240 0068 FB030000 		.word	.L318+1
 7241 006c FF010000 		.word	.L325+1
 7242 0070 63020000 		.word	.L326+1
 7243 0074 FB030000 		.word	.L318+1
 7244 0078 B1020000 		.word	.L327+1
 7245 007c FB030000 		.word	.L318+1
 7246 0080 4F020000 		.word	.L328+1
 7247 0084 59020000 		.word	.L329+1
 7248 0088 D5020000 		.word	.L330+1
 7249 008c FB030000 		.word	.L318+1
 7250 0090 FB030000 		.word	.L318+1
 7251 0094 FB030000 		.word	.L318+1
 7252 0098 FB030000 		.word	.L318+1
 7253 009c FB030000 		.word	.L318+1
 7254 00a0 FB030000 		.word	.L318+1
 7255 00a4 FB030000 		.word	.L318+1
 7256 00a8 FB030000 		.word	.L318+1
 7257 00ac FB030000 		.word	.L318+1
 7258 00b0 27030000 		.word	.L331+1
 7259 00b4 31030000 		.word	.L332+1
 7260 00b8 FB030000 		.word	.L318+1
 7261 00bc 3B030000 		.word	.L333+1
 7262 00c0 FB030000 		.word	.L318+1
 7263 00c4 FB030000 		.word	.L318+1
 7264 00c8 FB030000 		.word	.L318+1
 7265 00cc FB030000 		.word	.L318+1
 7266 00d0 45030000 		.word	.L334+1
 7267 00d4 51030000 		.word	.L335+1
 7268 00d8 FB030000 		.word	.L318+1
 7269 00dc FB030000 		.word	.L318+1
 7270 00e0 FB030000 		.word	.L318+1
 7271 00e4 FB030000 		.word	.L318+1
 7272 00e8 FB030000 		.word	.L318+1
 7273 00ec FB030000 		.word	.L318+1
 7274 00f0 FB030000 		.word	.L318+1
 7275 00f4 FB030000 		.word	.L318+1
 7276 00f8 FB030000 		.word	.L318+1
 7277 00fc FB030000 		.word	.L318+1
 7278 0100 FB030000 		.word	.L318+1
 7279 0104 FB030000 		.word	.L318+1
 7280 0108 FB030000 		.word	.L318+1
 7281 010c FB030000 		.word	.L318+1
 7282 0110 FB030000 		.word	.L318+1
 7283 0114 FB030000 		.word	.L318+1
 7284 0118 FB030000 		.word	.L318+1
 7285 011c FB030000 		.word	.L318+1
 7286 0120 FB030000 		.word	.L318+1
ARM GAS  /var/folders/kh/x4vltyy52lbg7p4pcyglc5080000gp/T//ccuucmVt.s 			page 161


 7287 0124 FB030000 		.word	.L318+1
 7288 0128 FB030000 		.word	.L318+1
 7289 012c FB030000 		.word	.L318+1
 7290 0130 FB030000 		.word	.L318+1
 7291 0134 FB030000 		.word	.L318+1
 7292 0138 FB030000 		.word	.L318+1
 7293 013c FB030000 		.word	.L318+1
 7294 0140 FB030000 		.word	.L318+1
 7295 0144 FB030000 		.word	.L318+1
 7296 0148 FB030000 		.word	.L318+1
 7297 014c FB030000 		.word	.L318+1
 7298 0150 FB030000 		.word	.L318+1
 7299 0154 FB030000 		.word	.L318+1
 7300 0158 FB030000 		.word	.L318+1
 7301 015c FB030000 		.word	.L318+1
 7302 0160 FB030000 		.word	.L318+1
 7303 0164 FB030000 		.word	.L318+1
 7304 0168 FB030000 		.word	.L318+1
 7305 016c FB030000 		.word	.L318+1
 7306 0170 FB030000 		.word	.L318+1
 7307 0174 FB030000 		.word	.L318+1
 7308 0178 FB030000 		.word	.L318+1
 7309 017c FB030000 		.word	.L318+1
 7310 0180 FB030000 		.word	.L318+1
 7311 0184 FB030000 		.word	.L318+1
 7312 0188 FB030000 		.word	.L318+1
 7313 018c FB030000 		.word	.L318+1
 7314 0190 FB030000 		.word	.L318+1
 7315 0194 FB030000 		.word	.L318+1
 7316 0198 FB030000 		.word	.L318+1
 7317 019c FB030000 		.word	.L318+1
 7318 01a0 FB030000 		.word	.L318+1
 7319 01a4 FB030000 		.word	.L318+1
 7320 01a8 FB030000 		.word	.L318+1
 7321 01ac FB030000 		.word	.L318+1
 7322 01b0 5D030000 		.word	.L336+1
 7323 01b4 8F030000 		.word	.L337+1
 7324 01b8 FB030000 		.word	.L318+1
 7325 01bc D1030000 		.word	.L338+1
 7326 01c0 DD030000 		.word	.L339+1
 7327 01c4 E5030000 		.word	.L340+1
 7328 01c8 F1030000 		.word	.L341+1
 7329              		.p2align 1
 7330              	.L323:
1468:STM32F10x_Speex_Lib/STM32/libspeex/nb_celp.c ****    {
1469:STM32F10x_Speex_Lib/STM32/libspeex/nb_celp.c ****    case SPEEX_SET_LOW_MODE:
1470:STM32F10x_Speex_Lib/STM32/libspeex/nb_celp.c ****    case SPEEX_SET_MODE:
1471:STM32F10x_Speex_Lib/STM32/libspeex/nb_celp.c ****       st->submodeID = (*(spx_int32_t*)ptr);
 7331              		.loc 3 1471 0
 7332 01cc 7B68     		ldr	r3, [r7, #4]
 7333 01ce 1A68     		ldr	r2, [r3]
 7334 01d0 3B6A     		ldr	r3, [r7, #32]
 7335 01d2 9A67     		str	r2, [r3, #120]
1472:STM32F10x_Speex_Lib/STM32/libspeex/nb_celp.c ****       break;
 7336              		.loc 3 1472 0
 7337 01d4 18E1     		b	.L342
 7338              	.L324:
ARM GAS  /var/folders/kh/x4vltyy52lbg7p4pcyglc5080000gp/T//ccuucmVt.s 			page 162


1473:STM32F10x_Speex_Lib/STM32/libspeex/nb_celp.c ****    case SPEEX_GET_LOW_MODE:
1474:STM32F10x_Speex_Lib/STM32/libspeex/nb_celp.c ****    case SPEEX_GET_MODE:
1475:STM32F10x_Speex_Lib/STM32/libspeex/nb_celp.c ****       (*(spx_int32_t*)ptr) = st->submodeID;
 7339              		.loc 3 1475 0
 7340 01d6 3B6A     		ldr	r3, [r7, #32]
 7341 01d8 9A6F     		ldr	r2, [r3, #120]
 7342 01da 7B68     		ldr	r3, [r7, #4]
 7343 01dc 1A60     		str	r2, [r3]
1476:STM32F10x_Speex_Lib/STM32/libspeex/nb_celp.c ****       break;
 7344              		.loc 3 1476 0
 7345 01de 13E1     		b	.L342
 7346              	.L319:
1477:STM32F10x_Speex_Lib/STM32/libspeex/nb_celp.c ****    case SPEEX_SET_ENH:
1478:STM32F10x_Speex_Lib/STM32/libspeex/nb_celp.c ****       st->lpc_enh_enabled = *((spx_int32_t*)ptr);
 7347              		.loc 3 1478 0
 7348 01e0 7B68     		ldr	r3, [r7, #4]
 7349 01e2 1A68     		ldr	r2, [r3]
 7350 01e4 3B6A     		ldr	r3, [r7, #32]
 7351 01e6 DA67     		str	r2, [r3, #124]
1479:STM32F10x_Speex_Lib/STM32/libspeex/nb_celp.c ****       break;
 7352              		.loc 3 1479 0
 7353 01e8 0EE1     		b	.L342
 7354              	.L321:
1480:STM32F10x_Speex_Lib/STM32/libspeex/nb_celp.c ****    case SPEEX_GET_ENH:
1481:STM32F10x_Speex_Lib/STM32/libspeex/nb_celp.c ****       *((spx_int32_t*)ptr) = st->lpc_enh_enabled;
 7355              		.loc 3 1481 0
 7356 01ea 3B6A     		ldr	r3, [r7, #32]
 7357 01ec DA6F     		ldr	r2, [r3, #124]
 7358 01ee 7B68     		ldr	r3, [r7, #4]
 7359 01f0 1A60     		str	r2, [r3]
1482:STM32F10x_Speex_Lib/STM32/libspeex/nb_celp.c ****       break;
 7360              		.loc 3 1482 0
 7361 01f2 09E1     		b	.L342
 7362              	.L322:
1483:STM32F10x_Speex_Lib/STM32/libspeex/nb_celp.c ****    case SPEEX_GET_FRAME_SIZE:
1484:STM32F10x_Speex_Lib/STM32/libspeex/nb_celp.c ****       (*(spx_int32_t*)ptr) = st->frameSize;
 7363              		.loc 3 1484 0
 7364 01f4 3B6A     		ldr	r3, [r7, #32]
 7365 01f6 DA68     		ldr	r2, [r3, #12]
 7366 01f8 7B68     		ldr	r3, [r7, #4]
 7367 01fa 1A60     		str	r2, [r3]
1485:STM32F10x_Speex_Lib/STM32/libspeex/nb_celp.c ****       break;
 7368              		.loc 3 1485 0
 7369 01fc 04E1     		b	.L342
 7370              	.L325:
1486:STM32F10x_Speex_Lib/STM32/libspeex/nb_celp.c ****    case SPEEX_GET_BITRATE:
1487:STM32F10x_Speex_Lib/STM32/libspeex/nb_celp.c ****       if (st->submodes[st->submodeID])
 7371              		.loc 3 1487 0
 7372 01fe 3B6A     		ldr	r3, [r7, #32]
 7373 0200 5A6F     		ldr	r2, [r3, #116]
 7374 0202 3B6A     		ldr	r3, [r7, #32]
 7375 0204 9B6F     		ldr	r3, [r3, #120]
 7376 0206 9B00     		lsls	r3, r3, #2
 7377 0208 1344     		add	r3, r3, r2
 7378 020a 1B68     		ldr	r3, [r3]
 7379 020c 002B     		cmp	r3, #0
 7380 020e 12D0     		beq	.L343
ARM GAS  /var/folders/kh/x4vltyy52lbg7p4pcyglc5080000gp/T//ccuucmVt.s 			page 163


1488:STM32F10x_Speex_Lib/STM32/libspeex/nb_celp.c ****          (*(spx_int32_t*)ptr) = st->sampling_rate*SUBMODE(bits_per_frame)/st->frameSize;
 7381              		.loc 3 1488 0
 7382 0210 3B6A     		ldr	r3, [r7, #32]
 7383 0212 5B6A     		ldr	r3, [r3, #36]
 7384 0214 3A6A     		ldr	r2, [r7, #32]
 7385 0216 516F     		ldr	r1, [r2, #116]
 7386 0218 3A6A     		ldr	r2, [r7, #32]
 7387 021a 926F     		ldr	r2, [r2, #120]
 7388 021c 9200     		lsls	r2, r2, #2
 7389 021e 0A44     		add	r2, r2, r1
 7390 0220 1268     		ldr	r2, [r2]
 7391 0222 526B     		ldr	r2, [r2, #52]
 7392 0224 02FB03F2 		mul	r2, r2, r3
 7393 0228 3B6A     		ldr	r3, [r7, #32]
 7394 022a DB68     		ldr	r3, [r3, #12]
 7395 022c 92FBF3F2 		sdiv	r2, r2, r3
 7396 0230 7B68     		ldr	r3, [r7, #4]
 7397 0232 1A60     		str	r2, [r3]
1489:STM32F10x_Speex_Lib/STM32/libspeex/nb_celp.c ****       else
1490:STM32F10x_Speex_Lib/STM32/libspeex/nb_celp.c ****          (*(spx_int32_t*)ptr) = st->sampling_rate*(NB_SUBMODE_BITS+1)/st->frameSize;
1491:STM32F10x_Speex_Lib/STM32/libspeex/nb_celp.c ****       break;
 7398              		.loc 3 1491 0
 7399 0234 E8E0     		b	.L342
 7400              	.L343:
1490:STM32F10x_Speex_Lib/STM32/libspeex/nb_celp.c ****       break;
 7401              		.loc 3 1490 0
 7402 0236 3B6A     		ldr	r3, [r7, #32]
 7403 0238 5A6A     		ldr	r2, [r3, #36]
 7404 023a 1346     		mov	r3, r2
 7405 023c 9B00     		lsls	r3, r3, #2
 7406 023e 1A44     		add	r2, r2, r3
 7407 0240 3B6A     		ldr	r3, [r7, #32]
 7408 0242 DB68     		ldr	r3, [r3, #12]
 7409 0244 92FBF3F2 		sdiv	r2, r2, r3
 7410 0248 7B68     		ldr	r3, [r7, #4]
 7411 024a 1A60     		str	r2, [r3]
 7412              		.loc 3 1491 0
 7413 024c DCE0     		b	.L342
 7414              	.L328:
1492:STM32F10x_Speex_Lib/STM32/libspeex/nb_celp.c ****    case SPEEX_SET_SAMPLING_RATE:
1493:STM32F10x_Speex_Lib/STM32/libspeex/nb_celp.c ****       st->sampling_rate = (*(spx_int32_t*)ptr);
 7415              		.loc 3 1493 0
 7416 024e 7B68     		ldr	r3, [r7, #4]
 7417 0250 1A68     		ldr	r2, [r3]
 7418 0252 3B6A     		ldr	r3, [r7, #32]
 7419 0254 5A62     		str	r2, [r3, #36]
1494:STM32F10x_Speex_Lib/STM32/libspeex/nb_celp.c ****       break;
 7420              		.loc 3 1494 0
 7421 0256 D7E0     		b	.L342
 7422              	.L329:
1495:STM32F10x_Speex_Lib/STM32/libspeex/nb_celp.c ****    case SPEEX_GET_SAMPLING_RATE:
1496:STM32F10x_Speex_Lib/STM32/libspeex/nb_celp.c ****       (*(spx_int32_t*)ptr)=st->sampling_rate;
 7423              		.loc 3 1496 0
 7424 0258 3B6A     		ldr	r3, [r7, #32]
 7425 025a 5A6A     		ldr	r2, [r3, #36]
 7426 025c 7B68     		ldr	r3, [r7, #4]
 7427 025e 1A60     		str	r2, [r3]
ARM GAS  /var/folders/kh/x4vltyy52lbg7p4pcyglc5080000gp/T//ccuucmVt.s 			page 164


1497:STM32F10x_Speex_Lib/STM32/libspeex/nb_celp.c ****       break;
 7428              		.loc 3 1497 0
 7429 0260 D2E0     		b	.L342
 7430              	.L326:
 7431              	.LBB36:
1498:STM32F10x_Speex_Lib/STM32/libspeex/nb_celp.c ****    case SPEEX_SET_HANDLER:
1499:STM32F10x_Speex_Lib/STM32/libspeex/nb_celp.c ****       {
1500:STM32F10x_Speex_Lib/STM32/libspeex/nb_celp.c ****          SpeexCallback *c = (SpeexCallback*)ptr;
 7432              		.loc 3 1500 0
 7433 0262 7B68     		ldr	r3, [r7, #4]
 7434 0264 FB61     		str	r3, [r7, #28]
1501:STM32F10x_Speex_Lib/STM32/libspeex/nb_celp.c ****          st->speex_callbacks[c->callback_id].func=c->func;
 7435              		.loc 3 1501 0
 7436 0266 FB69     		ldr	r3, [r7, #28]
 7437 0268 1A68     		ldr	r2, [r3]
 7438 026a FB69     		ldr	r3, [r7, #28]
 7439 026c 5968     		ldr	r1, [r3, #4]
 7440 026e 386A     		ldr	r0, [r7, #32]
 7441 0270 1346     		mov	r3, r2
 7442 0272 9B00     		lsls	r3, r3, #2
 7443 0274 1344     		add	r3, r3, r2
 7444 0276 9B00     		lsls	r3, r3, #2
 7445 0278 0344     		add	r3, r3, r0
 7446 027a 8433     		adds	r3, r3, #132
 7447 027c 1960     		str	r1, [r3]
1502:STM32F10x_Speex_Lib/STM32/libspeex/nb_celp.c ****          st->speex_callbacks[c->callback_id].data=c->data;
 7448              		.loc 3 1502 0
 7449 027e FB69     		ldr	r3, [r7, #28]
 7450 0280 1A68     		ldr	r2, [r3]
 7451 0282 FB69     		ldr	r3, [r7, #28]
 7452 0284 9968     		ldr	r1, [r3, #8]
 7453 0286 386A     		ldr	r0, [r7, #32]
 7454 0288 1346     		mov	r3, r2
 7455 028a 9B00     		lsls	r3, r3, #2
 7456 028c 1344     		add	r3, r3, r2
 7457 028e 9B00     		lsls	r3, r3, #2
 7458 0290 0344     		add	r3, r3, r0
 7459 0292 8833     		adds	r3, r3, #136
 7460 0294 1960     		str	r1, [r3]
1503:STM32F10x_Speex_Lib/STM32/libspeex/nb_celp.c ****          st->speex_callbacks[c->callback_id].callback_id=c->callback_id;
 7461              		.loc 3 1503 0
 7462 0296 FB69     		ldr	r3, [r7, #28]
 7463 0298 1A68     		ldr	r2, [r3]
 7464 029a FB69     		ldr	r3, [r7, #28]
 7465 029c 1968     		ldr	r1, [r3]
 7466 029e 386A     		ldr	r0, [r7, #32]
 7467 02a0 1346     		mov	r3, r2
 7468 02a2 9B00     		lsls	r3, r3, #2
 7469 02a4 1344     		add	r3, r3, r2
 7470 02a6 9B00     		lsls	r3, r3, #2
 7471 02a8 0344     		add	r3, r3, r0
 7472 02aa 8033     		adds	r3, r3, #128
 7473 02ac 1960     		str	r1, [r3]
 7474              	.LBE36:
1504:STM32F10x_Speex_Lib/STM32/libspeex/nb_celp.c ****       }
1505:STM32F10x_Speex_Lib/STM32/libspeex/nb_celp.c ****       break;
 7475              		.loc 3 1505 0
ARM GAS  /var/folders/kh/x4vltyy52lbg7p4pcyglc5080000gp/T//ccuucmVt.s 			page 165


 7476 02ae ABE0     		b	.L342
 7477              	.L327:
 7478              	.LBB37:
1506:STM32F10x_Speex_Lib/STM32/libspeex/nb_celp.c ****    case SPEEX_SET_USER_HANDLER:
1507:STM32F10x_Speex_Lib/STM32/libspeex/nb_celp.c ****       {
1508:STM32F10x_Speex_Lib/STM32/libspeex/nb_celp.c ****          SpeexCallback *c = (SpeexCallback*)ptr;
 7479              		.loc 3 1508 0
 7480 02b0 7B68     		ldr	r3, [r7, #4]
 7481 02b2 BB61     		str	r3, [r7, #24]
1509:STM32F10x_Speex_Lib/STM32/libspeex/nb_celp.c ****          st->user_callback.func=c->func;
 7482              		.loc 3 1509 0
 7483 02b4 BB69     		ldr	r3, [r7, #24]
 7484 02b6 5A68     		ldr	r2, [r3, #4]
 7485 02b8 3B6A     		ldr	r3, [r7, #32]
 7486 02ba C3F8C421 		str	r2, [r3, #452]
1510:STM32F10x_Speex_Lib/STM32/libspeex/nb_celp.c ****          st->user_callback.data=c->data;
 7487              		.loc 3 1510 0
 7488 02be BB69     		ldr	r3, [r7, #24]
 7489 02c0 9A68     		ldr	r2, [r3, #8]
 7490 02c2 3B6A     		ldr	r3, [r7, #32]
 7491 02c4 C3F8C821 		str	r2, [r3, #456]
1511:STM32F10x_Speex_Lib/STM32/libspeex/nb_celp.c ****          st->user_callback.callback_id=c->callback_id;
 7492              		.loc 3 1511 0
 7493 02c8 BB69     		ldr	r3, [r7, #24]
 7494 02ca 1A68     		ldr	r2, [r3]
 7495 02cc 3B6A     		ldr	r3, [r7, #32]
 7496 02ce C3F8C021 		str	r2, [r3, #448]
 7497              	.LBE37:
1512:STM32F10x_Speex_Lib/STM32/libspeex/nb_celp.c ****       }
1513:STM32F10x_Speex_Lib/STM32/libspeex/nb_celp.c ****       break;
 7498              		.loc 3 1513 0
 7499 02d2 99E0     		b	.L342
 7500              	.L330:
 7501              	.LBB38:
1514:STM32F10x_Speex_Lib/STM32/libspeex/nb_celp.c ****    case SPEEX_RESET_STATE:
1515:STM32F10x_Speex_Lib/STM32/libspeex/nb_celp.c ****       {
1516:STM32F10x_Speex_Lib/STM32/libspeex/nb_celp.c ****          int i;
1517:STM32F10x_Speex_Lib/STM32/libspeex/nb_celp.c ****          for (i=0;i<st->lpcSize;i++)
 7502              		.loc 3 1517 0
 7503 02d4 0023     		movs	r3, #0
 7504 02d6 FB62     		str	r3, [r7, #44]
 7505 02d8 09E0     		b	.L345
 7506              	.L346:
1518:STM32F10x_Speex_Lib/STM32/libspeex/nb_celp.c ****             st->mem_sp[i]=0;
 7507              		.loc 3 1518 0 discriminator 3
 7508 02da 3B6A     		ldr	r3, [r7, #32]
 7509 02dc 1A6C     		ldr	r2, [r3, #64]
 7510 02de FB6A     		ldr	r3, [r7, #44]
 7511 02e0 9B00     		lsls	r3, r3, #2
 7512 02e2 1344     		add	r3, r3, r2
 7513 02e4 0022     		movs	r2, #0
 7514 02e6 1A60     		str	r2, [r3]
1517:STM32F10x_Speex_Lib/STM32/libspeex/nb_celp.c ****             st->mem_sp[i]=0;
 7515              		.loc 3 1517 0 discriminator 3
 7516 02e8 FB6A     		ldr	r3, [r7, #44]
 7517 02ea 0133     		adds	r3, r3, #1
 7518 02ec FB62     		str	r3, [r7, #44]
ARM GAS  /var/folders/kh/x4vltyy52lbg7p4pcyglc5080000gp/T//ccuucmVt.s 			page 166


 7519              	.L345:
1517:STM32F10x_Speex_Lib/STM32/libspeex/nb_celp.c ****             st->mem_sp[i]=0;
 7520              		.loc 3 1517 0 is_stmt 0 discriminator 1
 7521 02ee 3B6A     		ldr	r3, [r7, #32]
 7522 02f0 9A69     		ldr	r2, [r3, #24]
 7523 02f2 FB6A     		ldr	r3, [r7, #44]
 7524 02f4 9A42     		cmp	r2, r3
 7525 02f6 F0DC     		bgt	.L346
1519:STM32F10x_Speex_Lib/STM32/libspeex/nb_celp.c ****          for (i=0;i<st->frameSize + st->max_pitch + 1;i++)
 7526              		.loc 3 1519 0 is_stmt 1
 7527 02f8 0023     		movs	r3, #0
 7528 02fa FB62     		str	r3, [r7, #44]
 7529 02fc 09E0     		b	.L347
 7530              	.L348:
1520:STM32F10x_Speex_Lib/STM32/libspeex/nb_celp.c ****             st->excBuf[i]=0;
 7531              		.loc 3 1520 0 discriminator 3
 7532 02fe 3B6A     		ldr	r3, [r7, #32]
 7533 0300 1A6B     		ldr	r2, [r3, #48]
 7534 0302 FB6A     		ldr	r3, [r7, #44]
 7535 0304 5B00     		lsls	r3, r3, #1
 7536 0306 1344     		add	r3, r3, r2
 7537 0308 0022     		movs	r2, #0
 7538 030a 1A80     		strh	r2, [r3]	@ movhi
1519:STM32F10x_Speex_Lib/STM32/libspeex/nb_celp.c ****          for (i=0;i<st->frameSize + st->max_pitch + 1;i++)
 7539              		.loc 3 1519 0 discriminator 3
 7540 030c FB6A     		ldr	r3, [r7, #44]
 7541 030e 0133     		adds	r3, r3, #1
 7542 0310 FB62     		str	r3, [r7, #44]
 7543              	.L347:
1519:STM32F10x_Speex_Lib/STM32/libspeex/nb_celp.c ****          for (i=0;i<st->frameSize + st->max_pitch + 1;i++)
 7544              		.loc 3 1519 0 is_stmt 0 discriminator 1
 7545 0312 3B6A     		ldr	r3, [r7, #32]
 7546 0314 DA68     		ldr	r2, [r3, #12]
 7547 0316 3B6A     		ldr	r3, [r7, #32]
 7548 0318 1B6A     		ldr	r3, [r3, #32]
 7549 031a 1344     		add	r3, r3, r2
 7550 031c 5A1C     		adds	r2, r3, #1
 7551 031e FB6A     		ldr	r3, [r7, #44]
 7552 0320 9A42     		cmp	r2, r3
 7553 0322 ECDC     		bgt	.L348
 7554              	.LBE38:
1521:STM32F10x_Speex_Lib/STM32/libspeex/nb_celp.c ****       }
1522:STM32F10x_Speex_Lib/STM32/libspeex/nb_celp.c ****       break;
 7555              		.loc 3 1522 0 is_stmt 1
 7556 0324 70E0     		b	.L342
 7557              	.L331:
1523:STM32F10x_Speex_Lib/STM32/libspeex/nb_celp.c ****    case SPEEX_SET_SUBMODE_ENCODING:
1524:STM32F10x_Speex_Lib/STM32/libspeex/nb_celp.c ****       st->encode_submode = (*(spx_int32_t*)ptr);
 7558              		.loc 3 1524 0
 7559 0326 7B68     		ldr	r3, [r7, #4]
 7560 0328 1A68     		ldr	r2, [r3]
 7561 032a 3B6A     		ldr	r3, [r7, #32]
 7562 032c 1A67     		str	r2, [r3, #112]
1525:STM32F10x_Speex_Lib/STM32/libspeex/nb_celp.c ****       break;
 7563              		.loc 3 1525 0
 7564 032e 6BE0     		b	.L342
 7565              	.L332:
ARM GAS  /var/folders/kh/x4vltyy52lbg7p4pcyglc5080000gp/T//ccuucmVt.s 			page 167


1526:STM32F10x_Speex_Lib/STM32/libspeex/nb_celp.c ****    case SPEEX_GET_SUBMODE_ENCODING:
1527:STM32F10x_Speex_Lib/STM32/libspeex/nb_celp.c ****       (*(spx_int32_t*)ptr) = st->encode_submode;
 7566              		.loc 3 1527 0
 7567 0330 3B6A     		ldr	r3, [r7, #32]
 7568 0332 1A6F     		ldr	r2, [r3, #112]
 7569 0334 7B68     		ldr	r3, [r7, #4]
 7570 0336 1A60     		str	r2, [r3]
1528:STM32F10x_Speex_Lib/STM32/libspeex/nb_celp.c ****       break;
 7571              		.loc 3 1528 0
 7572 0338 66E0     		b	.L342
 7573              	.L333:
1529:STM32F10x_Speex_Lib/STM32/libspeex/nb_celp.c ****    case SPEEX_GET_LOOKAHEAD:
1530:STM32F10x_Speex_Lib/STM32/libspeex/nb_celp.c ****       (*(spx_int32_t*)ptr)=st->subframeSize;
 7574              		.loc 3 1530 0
 7575 033a 3B6A     		ldr	r3, [r7, #32]
 7576 033c 1A69     		ldr	r2, [r3, #16]
 7577 033e 7B68     		ldr	r3, [r7, #4]
 7578 0340 1A60     		str	r2, [r3]
1531:STM32F10x_Speex_Lib/STM32/libspeex/nb_celp.c ****       break;
 7579              		.loc 3 1531 0
 7580 0342 61E0     		b	.L342
 7581              	.L334:
1532:STM32F10x_Speex_Lib/STM32/libspeex/nb_celp.c ****    case SPEEX_SET_HIGHPASS:
1533:STM32F10x_Speex_Lib/STM32/libspeex/nb_celp.c ****       st->highpass_enabled = (*(spx_int32_t*)ptr);
 7582              		.loc 3 1533 0
 7583 0344 7B68     		ldr	r3, [r7, #4]
 7584 0346 1A68     		ldr	r2, [r3]
 7585 0348 3B6A     		ldr	r3, [r7, #32]
 7586 034a C3F8EC21 		str	r2, [r3, #492]
1534:STM32F10x_Speex_Lib/STM32/libspeex/nb_celp.c ****       break;
 7587              		.loc 3 1534 0
 7588 034e 5BE0     		b	.L342
 7589              	.L335:
1535:STM32F10x_Speex_Lib/STM32/libspeex/nb_celp.c ****    case SPEEX_GET_HIGHPASS:
1536:STM32F10x_Speex_Lib/STM32/libspeex/nb_celp.c ****       (*(spx_int32_t*)ptr) = st->highpass_enabled;
 7590              		.loc 3 1536 0
 7591 0350 3B6A     		ldr	r3, [r7, #32]
 7592 0352 D3F8EC21 		ldr	r2, [r3, #492]
 7593 0356 7B68     		ldr	r3, [r7, #4]
 7594 0358 1A60     		str	r2, [r3]
1537:STM32F10x_Speex_Lib/STM32/libspeex/nb_celp.c ****       break;
 7595              		.loc 3 1537 0
 7596 035a 55E0     		b	.L342
 7597              	.L336:
 7598              	.LBB39:
1538:STM32F10x_Speex_Lib/STM32/libspeex/nb_celp.c ****       /* FIXME: Convert to fixed-point and re-enable even when float API is disabled */
1539:STM32F10x_Speex_Lib/STM32/libspeex/nb_celp.c **** #ifndef DISABLE_FLOAT_API
1540:STM32F10x_Speex_Lib/STM32/libspeex/nb_celp.c ****    case SPEEX_GET_ACTIVITY:
1541:STM32F10x_Speex_Lib/STM32/libspeex/nb_celp.c ****    {
1542:STM32F10x_Speex_Lib/STM32/libspeex/nb_celp.c ****       float ret;
1543:STM32F10x_Speex_Lib/STM32/libspeex/nb_celp.c ****       ret = log(st->level/st->min_level)/log(st->max_level/st->min_level);
1544:STM32F10x_Speex_Lib/STM32/libspeex/nb_celp.c ****       if (ret>1)
1545:STM32F10x_Speex_Lib/STM32/libspeex/nb_celp.c ****          ret = 1;
1546:STM32F10x_Speex_Lib/STM32/libspeex/nb_celp.c ****       /* Done in a strange way to catch NaNs as well */
1547:STM32F10x_Speex_Lib/STM32/libspeex/nb_celp.c ****       if (!(ret > 0))
1548:STM32F10x_Speex_Lib/STM32/libspeex/nb_celp.c ****          ret = 0;
1549:STM32F10x_Speex_Lib/STM32/libspeex/nb_celp.c ****       /*printf ("%f %f %f %f\n", st->level, st->min_level, st->max_level, ret);*/
ARM GAS  /var/folders/kh/x4vltyy52lbg7p4pcyglc5080000gp/T//ccuucmVt.s 			page 168


1550:STM32F10x_Speex_Lib/STM32/libspeex/nb_celp.c ****       (*(spx_int32_t*)ptr) = (int)(100*ret);
1551:STM32F10x_Speex_Lib/STM32/libspeex/nb_celp.c ****    }
1552:STM32F10x_Speex_Lib/STM32/libspeex/nb_celp.c ****    break;
1553:STM32F10x_Speex_Lib/STM32/libspeex/nb_celp.c **** #endif
1554:STM32F10x_Speex_Lib/STM32/libspeex/nb_celp.c ****    case SPEEX_GET_PI_GAIN:
1555:STM32F10x_Speex_Lib/STM32/libspeex/nb_celp.c ****       {
1556:STM32F10x_Speex_Lib/STM32/libspeex/nb_celp.c ****          int i;
1557:STM32F10x_Speex_Lib/STM32/libspeex/nb_celp.c ****          spx_word32_t *g = (spx_word32_t*)ptr;
 7599              		.loc 3 1557 0
 7600 035c 7B68     		ldr	r3, [r7, #4]
 7601 035e 7B61     		str	r3, [r7, #20]
1558:STM32F10x_Speex_Lib/STM32/libspeex/nb_celp.c ****          for (i=0;i<st->nbSubframes;i++)
 7602              		.loc 3 1558 0
 7603 0360 0023     		movs	r3, #0
 7604 0362 BB62     		str	r3, [r7, #40]
 7605 0364 0DE0     		b	.L349
 7606              	.L350:
1559:STM32F10x_Speex_Lib/STM32/libspeex/nb_celp.c ****             g[i]=st->pi_gain[i];
 7607              		.loc 3 1559 0 discriminator 3
 7608 0366 BB6A     		ldr	r3, [r7, #40]
 7609 0368 9B00     		lsls	r3, r3, #2
 7610 036a 7A69     		ldr	r2, [r7, #20]
 7611 036c 1344     		add	r3, r3, r2
 7612 036e 3A6A     		ldr	r2, [r7, #32]
 7613 0370 D16C     		ldr	r1, [r2, #76]
 7614 0372 BA6A     		ldr	r2, [r7, #40]
 7615 0374 9200     		lsls	r2, r2, #2
 7616 0376 0A44     		add	r2, r2, r1
 7617 0378 1268     		ldr	r2, [r2]
 7618 037a 1A60     		str	r2, [r3]
1558:STM32F10x_Speex_Lib/STM32/libspeex/nb_celp.c ****          for (i=0;i<st->nbSubframes;i++)
 7619              		.loc 3 1558 0 discriminator 3
 7620 037c BB6A     		ldr	r3, [r7, #40]
 7621 037e 0133     		adds	r3, r3, #1
 7622 0380 BB62     		str	r3, [r7, #40]
 7623              	.L349:
1558:STM32F10x_Speex_Lib/STM32/libspeex/nb_celp.c ****          for (i=0;i<st->nbSubframes;i++)
 7624              		.loc 3 1558 0 is_stmt 0 discriminator 1
 7625 0382 3B6A     		ldr	r3, [r7, #32]
 7626 0384 5A69     		ldr	r2, [r3, #20]
 7627 0386 BB6A     		ldr	r3, [r7, #40]
 7628 0388 9A42     		cmp	r2, r3
 7629 038a ECDC     		bgt	.L350
 7630              	.LBE39:
1560:STM32F10x_Speex_Lib/STM32/libspeex/nb_celp.c ****       }
1561:STM32F10x_Speex_Lib/STM32/libspeex/nb_celp.c ****       break;
 7631              		.loc 3 1561 0 is_stmt 1
 7632 038c 3CE0     		b	.L342
 7633              	.L337:
 7634              	.LBB40:
1562:STM32F10x_Speex_Lib/STM32/libspeex/nb_celp.c ****    case SPEEX_GET_EXC:
1563:STM32F10x_Speex_Lib/STM32/libspeex/nb_celp.c ****       {
1564:STM32F10x_Speex_Lib/STM32/libspeex/nb_celp.c ****          int i;
1565:STM32F10x_Speex_Lib/STM32/libspeex/nb_celp.c ****          for (i=0;i<st->nbSubframes;i++)
 7635              		.loc 3 1565 0
 7636 038e 0023     		movs	r3, #0
 7637 0390 7B62     		str	r3, [r7, #36]
ARM GAS  /var/folders/kh/x4vltyy52lbg7p4pcyglc5080000gp/T//ccuucmVt.s 			page 169


 7638 0392 17E0     		b	.L351
 7639              	.L352:
1566:STM32F10x_Speex_Lib/STM32/libspeex/nb_celp.c ****             ((spx_word16_t*)ptr)[i] = compute_rms16(st->exc+i*st->subframeSize, st->subframeSize);
 7640              		.loc 3 1566 0 discriminator 3
 7641 0394 7B6A     		ldr	r3, [r7, #36]
 7642 0396 5B00     		lsls	r3, r3, #1
 7643 0398 7A68     		ldr	r2, [r7, #4]
 7644 039a D418     		adds	r4, r2, r3
 7645 039c 3B6A     		ldr	r3, [r7, #32]
 7646 039e 5A6B     		ldr	r2, [r3, #52]
 7647 03a0 3B6A     		ldr	r3, [r7, #32]
 7648 03a2 1B69     		ldr	r3, [r3, #16]
 7649 03a4 796A     		ldr	r1, [r7, #36]
 7650 03a6 01FB03F3 		mul	r3, r1, r3
 7651 03aa 5B00     		lsls	r3, r3, #1
 7652 03ac 1A44     		add	r2, r2, r3
 7653 03ae 3B6A     		ldr	r3, [r7, #32]
 7654 03b0 1B69     		ldr	r3, [r3, #16]
 7655 03b2 1946     		mov	r1, r3
 7656 03b4 1046     		mov	r0, r2
 7657 03b6 FFF7FEFF 		bl	compute_rms16
 7658 03ba 0346     		mov	r3, r0
 7659 03bc 2380     		strh	r3, [r4]	@ movhi
1565:STM32F10x_Speex_Lib/STM32/libspeex/nb_celp.c ****             ((spx_word16_t*)ptr)[i] = compute_rms16(st->exc+i*st->subframeSize, st->subframeSize);
 7660              		.loc 3 1565 0 discriminator 3
 7661 03be 7B6A     		ldr	r3, [r7, #36]
 7662 03c0 0133     		adds	r3, r3, #1
 7663 03c2 7B62     		str	r3, [r7, #36]
 7664              	.L351:
1565:STM32F10x_Speex_Lib/STM32/libspeex/nb_celp.c ****             ((spx_word16_t*)ptr)[i] = compute_rms16(st->exc+i*st->subframeSize, st->subframeSize);
 7665              		.loc 3 1565 0 is_stmt 0 discriminator 1
 7666 03c4 3B6A     		ldr	r3, [r7, #32]
 7667 03c6 5A69     		ldr	r2, [r3, #20]
 7668 03c8 7B6A     		ldr	r3, [r7, #36]
 7669 03ca 9A42     		cmp	r2, r3
 7670 03cc E2DC     		bgt	.L352
 7671              	.LBE40:
1567:STM32F10x_Speex_Lib/STM32/libspeex/nb_celp.c ****       }
1568:STM32F10x_Speex_Lib/STM32/libspeex/nb_celp.c ****       break;
 7672              		.loc 3 1568 0 is_stmt 1
 7673 03ce 1BE0     		b	.L342
 7674              	.L338:
1569:STM32F10x_Speex_Lib/STM32/libspeex/nb_celp.c ****    case SPEEX_GET_DTX_STATUS:
1570:STM32F10x_Speex_Lib/STM32/libspeex/nb_celp.c ****       *((spx_int32_t*)ptr) = st->dtx_enabled;
 7675              		.loc 3 1570 0
 7676 03d0 3B6A     		ldr	r3, [r7, #32]
 7677 03d2 D3F8E421 		ldr	r2, [r3, #484]
 7678 03d6 7B68     		ldr	r3, [r7, #4]
 7679 03d8 1A60     		str	r2, [r3]
1571:STM32F10x_Speex_Lib/STM32/libspeex/nb_celp.c ****       break;
 7680              		.loc 3 1571 0
 7681 03da 15E0     		b	.L342
 7682              	.L339:
1572:STM32F10x_Speex_Lib/STM32/libspeex/nb_celp.c ****    case SPEEX_SET_INNOVATION_SAVE:
1573:STM32F10x_Speex_Lib/STM32/libspeex/nb_celp.c ****       st->innov_save = (spx_word16_t*)ptr;
 7683              		.loc 3 1573 0
 7684 03dc 3B6A     		ldr	r3, [r7, #32]
ARM GAS  /var/folders/kh/x4vltyy52lbg7p4pcyglc5080000gp/T//ccuucmVt.s 			page 170


 7685 03de 7A68     		ldr	r2, [r7, #4]
 7686 03e0 1A65     		str	r2, [r3, #80]
1574:STM32F10x_Speex_Lib/STM32/libspeex/nb_celp.c ****       break;
 7687              		.loc 3 1574 0
 7688 03e2 11E0     		b	.L342
 7689              	.L340:
1575:STM32F10x_Speex_Lib/STM32/libspeex/nb_celp.c ****    case SPEEX_SET_WIDEBAND:
1576:STM32F10x_Speex_Lib/STM32/libspeex/nb_celp.c ****       st->isWideband = *((spx_int32_t*)ptr);
 7690              		.loc 3 1576 0
 7691 03e4 7B68     		ldr	r3, [r7, #4]
 7692 03e6 1A68     		ldr	r2, [r3]
 7693 03e8 3B6A     		ldr	r3, [r7, #32]
 7694 03ea C3F8E821 		str	r2, [r3, #488]
1577:STM32F10x_Speex_Lib/STM32/libspeex/nb_celp.c ****       break;
 7695              		.loc 3 1577 0
 7696 03ee 0BE0     		b	.L342
 7697              	.L341:
1578:STM32F10x_Speex_Lib/STM32/libspeex/nb_celp.c ****    case SPEEX_GET_STACK:
1579:STM32F10x_Speex_Lib/STM32/libspeex/nb_celp.c ****       *((char**)ptr) = st->stack;
 7698              		.loc 3 1579 0
 7699 03f0 3B6A     		ldr	r3, [r7, #32]
 7700 03f2 DA6A     		ldr	r2, [r3, #44]
 7701 03f4 7B68     		ldr	r3, [r7, #4]
 7702 03f6 1A60     		str	r2, [r3]
1580:STM32F10x_Speex_Lib/STM32/libspeex/nb_celp.c ****       break;
 7703              		.loc 3 1580 0
 7704 03f8 06E0     		b	.L342
 7705              	.L318:
1581:STM32F10x_Speex_Lib/STM32/libspeex/nb_celp.c ****    default:
1582:STM32F10x_Speex_Lib/STM32/libspeex/nb_celp.c ****       speex_warning_int("Unknown nb_ctl request: ", request);
 7706              		.loc 3 1582 0
 7707 03fa B968     		ldr	r1, [r7, #8]
 7708 03fc 0548     		ldr	r0, .L354
 7709 03fe FFF7FEFF 		bl	speex_warning_int
1583:STM32F10x_Speex_Lib/STM32/libspeex/nb_celp.c ****       return -1;
 7710              		.loc 3 1583 0
 7711 0402 4FF0FF33 		mov	r3, #-1
 7712 0406 00E0     		b	.L353
 7713              	.L342:
1584:STM32F10x_Speex_Lib/STM32/libspeex/nb_celp.c ****    }
1585:STM32F10x_Speex_Lib/STM32/libspeex/nb_celp.c ****    return 0;
 7714              		.loc 3 1585 0
 7715 0408 0023     		movs	r3, #0
 7716              	.L353:
1586:STM32F10x_Speex_Lib/STM32/libspeex/nb_celp.c **** }
 7717              		.loc 3 1586 0
 7718 040a 1846     		mov	r0, r3
 7719 040c 3437     		adds	r7, r7, #52
 7720              	.LCFI92:
 7721              		.cfi_def_cfa_offset 12
 7722 040e BD46     		mov	sp, r7
 7723              	.LCFI93:
 7724              		.cfi_def_cfa_register 13
 7725              		@ sp needed
 7726 0410 90BD     		pop	{r4, r7, pc}
 7727              	.L355:
 7728 0412 00BF     		.align	2
ARM GAS  /var/folders/kh/x4vltyy52lbg7p4pcyglc5080000gp/T//ccuucmVt.s 			page 171


 7729              	.L354:
 7730 0414 74000000 		.word	.LC2
 7731              		.cfi_endproc
 7732              	.LFE29:
 7734              		.text
 7735              	.Letext0:
 7736              		.file 4 "Inc/speex/speex_bits.h"
 7737              		.file 5 "Inc/speex/speex_config_types.h"
 7738              		.file 6 "Inc/speex/speex.h"
 7739              		.file 7 "STM32F10x_Speex_Lib/libspeex/arch.h"
 7740              		.file 8 "STM32F10x_Speex_Lib/libspeex/modes.h"
 7741              		.file 9 "Inc/speex/speex_callbacks.h"
 7742              		.file 10 "STM32F10x_Speex_Lib/libspeex/nb_celp.h"
ARM GAS  /var/folders/kh/x4vltyy52lbg7p4pcyglc5080000gp/T//ccuucmVt.s 			page 172


DEFINED SYMBOLS
                            *ABS*:0000000000000000 nb_celp.c
/var/folders/kh/x4vltyy52lbg7p4pcyglc5080000gp/T//ccuucmVt.s:20     .text.spx_ilog4:0000000000000000 $t
/var/folders/kh/x4vltyy52lbg7p4pcyglc5080000gp/T//ccuucmVt.s:24     .text.spx_ilog4:0000000000000000 spx_ilog4
/var/folders/kh/x4vltyy52lbg7p4pcyglc5080000gp/T//ccuucmVt.s:115    .text.speex_rand:0000000000000000 $t
/var/folders/kh/x4vltyy52lbg7p4pcyglc5080000gp/T//ccuucmVt.s:119    .text.speex_rand:0000000000000000 speex_rand
/var/folders/kh/x4vltyy52lbg7p4pcyglc5080000gp/T//ccuucmVt.s:182    .text.speex_rand:000000000000004c $d
/var/folders/kh/x4vltyy52lbg7p4pcyglc5080000gp/T//ccuucmVt.s:188    .text.spx_sqrt:0000000000000000 $t
/var/folders/kh/x4vltyy52lbg7p4pcyglc5080000gp/T//ccuucmVt.s:192    .text.spx_sqrt:0000000000000000 spx_sqrt
/var/folders/kh/x4vltyy52lbg7p4pcyglc5080000gp/T//ccuucmVt.s:307    .text.speex_alloc:0000000000000000 $t
/var/folders/kh/x4vltyy52lbg7p4pcyglc5080000gp/T//ccuucmVt.s:311    .text.speex_alloc:0000000000000000 speex_alloc
/var/folders/kh/x4vltyy52lbg7p4pcyglc5080000gp/T//ccuucmVt.s:350    .text.speex_alloc_scratch:0000000000000000 $t
/var/folders/kh/x4vltyy52lbg7p4pcyglc5080000gp/T//ccuucmVt.s:354    .text.speex_alloc_scratch:0000000000000000 speex_alloc_scratch
/var/folders/kh/x4vltyy52lbg7p4pcyglc5080000gp/T//ccuucmVt.s:392    .text.speex_free:0000000000000000 $t
/var/folders/kh/x4vltyy52lbg7p4pcyglc5080000gp/T//ccuucmVt.s:396    .text.speex_free:0000000000000000 speex_free
/var/folders/kh/x4vltyy52lbg7p4pcyglc5080000gp/T//ccuucmVt.s:431    .text.speex_free_scratch:0000000000000000 $t
/var/folders/kh/x4vltyy52lbg7p4pcyglc5080000gp/T//ccuucmVt.s:435    .text.speex_free_scratch:0000000000000000 speex_free_scratch
/var/folders/kh/x4vltyy52lbg7p4pcyglc5080000gp/T//ccuucmVt.s:470    .text.speex_warning_int:0000000000000000 $t
/var/folders/kh/x4vltyy52lbg7p4pcyglc5080000gp/T//ccuucmVt.s:474    .text.speex_warning_int:0000000000000000 speex_warning_int
/var/folders/kh/x4vltyy52lbg7p4pcyglc5080000gp/T//ccuucmVt.s:511    .text.speex_notify:0000000000000000 $t
/var/folders/kh/x4vltyy52lbg7p4pcyglc5080000gp/T//ccuucmVt.s:515    .text.speex_notify:0000000000000000 speex_notify
/var/folders/kh/x4vltyy52lbg7p4pcyglc5080000gp/T//ccuucmVt.s:555    .rodata.ol_gain_table:0000000000000000 ol_gain_table
/var/folders/kh/x4vltyy52lbg7p4pcyglc5080000gp/T//ccuucmVt.s:552    .rodata.ol_gain_table:0000000000000000 $d
/var/folders/kh/x4vltyy52lbg7p4pcyglc5080000gp/T//ccuucmVt.s:593    .rodata.exc_gain_quant_scal3_bound:0000000000000000 exc_gain_quant_scal3_bound
/var/folders/kh/x4vltyy52lbg7p4pcyglc5080000gp/T//ccuucmVt.s:590    .rodata.exc_gain_quant_scal3_bound:0000000000000000 $d
/var/folders/kh/x4vltyy52lbg7p4pcyglc5080000gp/T//ccuucmVt.s:606    .rodata.exc_gain_quant_scal3:0000000000000000 exc_gain_quant_scal3
/var/folders/kh/x4vltyy52lbg7p4pcyglc5080000gp/T//ccuucmVt.s:603    .rodata.exc_gain_quant_scal3:0000000000000000 $d
/var/folders/kh/x4vltyy52lbg7p4pcyglc5080000gp/T//ccuucmVt.s:620    .rodata.exc_gain_quant_scal1_bound:0000000000000000 exc_gain_quant_scal1_bound
/var/folders/kh/x4vltyy52lbg7p4pcyglc5080000gp/T//ccuucmVt.s:617    .rodata.exc_gain_quant_scal1_bound:0000000000000000 $d
/var/folders/kh/x4vltyy52lbg7p4pcyglc5080000gp/T//ccuucmVt.s:627    .rodata.exc_gain_quant_scal1:0000000000000000 exc_gain_quant_scal1
/var/folders/kh/x4vltyy52lbg7p4pcyglc5080000gp/T//ccuucmVt.s:624    .rodata.exc_gain_quant_scal1:0000000000000000 $d
/var/folders/kh/x4vltyy52lbg7p4pcyglc5080000gp/T//ccuucmVt.s:631    .text.nb_encoder_init:0000000000000000 $t
/var/folders/kh/x4vltyy52lbg7p4pcyglc5080000gp/T//ccuucmVt.s:636    .text.nb_encoder_init:0000000000000000 nb_encoder_init
/var/folders/kh/x4vltyy52lbg7p4pcyglc5080000gp/T//ccuucmVt.s:990    .text.nb_encoder_init:0000000000000274 $d
/var/folders/kh/x4vltyy52lbg7p4pcyglc5080000gp/T//ccuucmVt.s:996    .text.nb_encoder_destroy:0000000000000000 $t
/var/folders/kh/x4vltyy52lbg7p4pcyglc5080000gp/T//ccuucmVt.s:1001   .text.nb_encoder_destroy:0000000000000000 nb_encoder_destroy
/var/folders/kh/x4vltyy52lbg7p4pcyglc5080000gp/T//ccuucmVt.s:1104   .text.nb_encode:0000000000000000 $t
/var/folders/kh/x4vltyy52lbg7p4pcyglc5080000gp/T//ccuucmVt.s:1109   .text.nb_encode:0000000000000000 nb_encode
/var/folders/kh/x4vltyy52lbg7p4pcyglc5080000gp/T//ccuucmVt.s:2201   .text.nb_encode:0000000000000a9c $d
/var/folders/kh/x4vltyy52lbg7p4pcyglc5080000gp/T//ccuucmVt.s:2206   .text.nb_encode:0000000000000aa4 $t
/var/folders/kh/x4vltyy52lbg7p4pcyglc5080000gp/T//ccuucmVt.s:3077   .text.nb_encode:0000000000001318 $d
/var/folders/kh/x4vltyy52lbg7p4pcyglc5080000gp/T//ccuucmVt.s:3082   .text.nb_encode:0000000000001324 $t
/var/folders/kh/x4vltyy52lbg7p4pcyglc5080000gp/T//ccuucmVt.s:3335   .text.nb_encode:000000000000156c $d
/var/folders/kh/x4vltyy52lbg7p4pcyglc5080000gp/T//ccuucmVt.s:3341   .text.nb_decoder_init:0000000000000000 $t
/var/folders/kh/x4vltyy52lbg7p4pcyglc5080000gp/T//ccuucmVt.s:3346   .text.nb_decoder_init:0000000000000000 nb_decoder_init
/var/folders/kh/x4vltyy52lbg7p4pcyglc5080000gp/T//ccuucmVt.s:3638   .text.nb_decoder_init:00000000000001f8 $d
/var/folders/kh/x4vltyy52lbg7p4pcyglc5080000gp/T//ccuucmVt.s:3643   .text.nb_decoder_destroy:0000000000000000 $t
/var/folders/kh/x4vltyy52lbg7p4pcyglc5080000gp/T//ccuucmVt.s:3648   .text.nb_decoder_destroy:0000000000000000 nb_decoder_destroy
/var/folders/kh/x4vltyy52lbg7p4pcyglc5080000gp/T//ccuucmVt.s:3720   .rodata.attenuation:0000000000000000 attenuation
/var/folders/kh/x4vltyy52lbg7p4pcyglc5080000gp/T//ccuucmVt.s:3717   .rodata.attenuation:0000000000000000 $d
/var/folders/kh/x4vltyy52lbg7p4pcyglc5080000gp/T//ccuucmVt.s:3732   .text.nb_decode_lost:0000000000000000 $t
/var/folders/kh/x4vltyy52lbg7p4pcyglc5080000gp/T//ccuucmVt.s:3736   .text.nb_decode_lost:0000000000000000 nb_decode_lost
/var/folders/kh/x4vltyy52lbg7p4pcyglc5080000gp/T//ccuucmVt.s:4093   .text.nb_decode_lost:0000000000000288 $d
/var/folders/kh/x4vltyy52lbg7p4pcyglc5080000gp/T//ccuucmVt.s:4098   .rodata.wb_skip_table:0000000000000000 $d
/var/folders/kh/x4vltyy52lbg7p4pcyglc5080000gp/T//ccuucmVt.s:4101   .rodata.wb_skip_table:0000000000000000 wb_skip_table
/var/folders/kh/x4vltyy52lbg7p4pcyglc5080000gp/T//ccuucmVt.s:4111   .rodata:0000000000000000 $d
/var/folders/kh/x4vltyy52lbg7p4pcyglc5080000gp/T//ccuucmVt.s:4119   .text.nb_decode:0000000000000000 $t
ARM GAS  /var/folders/kh/x4vltyy52lbg7p4pcyglc5080000gp/T//ccuucmVt.s 			page 173


/var/folders/kh/x4vltyy52lbg7p4pcyglc5080000gp/T//ccuucmVt.s:4124   .text.nb_decode:0000000000000000 nb_decode
/var/folders/kh/x4vltyy52lbg7p4pcyglc5080000gp/T//ccuucmVt.s:4604   .text.nb_decode:0000000000000400 $d
/var/folders/kh/x4vltyy52lbg7p4pcyglc5080000gp/T//ccuucmVt.s:4609   .text.nb_decode:000000000000040c $t
/var/folders/kh/x4vltyy52lbg7p4pcyglc5080000gp/T//ccuucmVt.s:5100   .text.nb_decode:000000000000085c $d
/var/folders/kh/x4vltyy52lbg7p4pcyglc5080000gp/T//ccuucmVt.s:5104   .text.nb_decode:0000000000000864 $t
/var/folders/kh/x4vltyy52lbg7p4pcyglc5080000gp/T//ccuucmVt.s:5614   .text.nb_decode:0000000000000cc4 $d
/var/folders/kh/x4vltyy52lbg7p4pcyglc5080000gp/T//ccuucmVt.s:5619   .text.nb_decode:0000000000000cd0 $t
/var/folders/kh/x4vltyy52lbg7p4pcyglc5080000gp/T//ccuucmVt.s:6482   .text.nb_encoder_ctl:0000000000000000 $t
/var/folders/kh/x4vltyy52lbg7p4pcyglc5080000gp/T//ccuucmVt.s:6487   .text.nb_encoder_ctl:0000000000000000 nb_encoder_ctl
/var/folders/kh/x4vltyy52lbg7p4pcyglc5080000gp/T//ccuucmVt.s:6520   .text.nb_encoder_ctl:0000000000000020 $d
/var/folders/kh/x4vltyy52lbg7p4pcyglc5080000gp/T//ccuucmVt.s:6624   .text.nb_encoder_ctl:00000000000001c0 $t
/var/folders/kh/x4vltyy52lbg7p4pcyglc5080000gp/T//ccuucmVt.s:7180   .text.nb_encoder_ctl:0000000000000530 $d
/var/folders/kh/x4vltyy52lbg7p4pcyglc5080000gp/T//ccuucmVt.s:7185   .text.nb_decoder_ctl:0000000000000000 $t
/var/folders/kh/x4vltyy52lbg7p4pcyglc5080000gp/T//ccuucmVt.s:7190   .text.nb_decoder_ctl:0000000000000000 nb_decoder_ctl
/var/folders/kh/x4vltyy52lbg7p4pcyglc5080000gp/T//ccuucmVt.s:7222   .text.nb_decoder_ctl:0000000000000020 $d
/var/folders/kh/x4vltyy52lbg7p4pcyglc5080000gp/T//ccuucmVt.s:7329   .text.nb_decoder_ctl:00000000000001cc $t
/var/folders/kh/x4vltyy52lbg7p4pcyglc5080000gp/T//ccuucmVt.s:7730   .text.nb_decoder_ctl:0000000000000414 $d
                     .debug_frame:0000000000000010 $d

UNDEFINED SYMBOLS
calloc
free
lpc_window
lag_window
memmove
highpass
_spx_autocorr
_spx_lpc
lpc_to_lsp
lsp_interpolate
lsp_enforce_margin
lsp_to_lpc
bw_lpc
memcpy
filter_mem16
open_loop_nbest_pitch
fir_mem16
compute_rms16
speex_bits_pack
scal_quant32
compute_impulse_response
iir_mem16
memset
pitch_search_3tap
scal_quant
signal_div
split_cb_search_shape_sign
signal_mul
compute_rms
noise_codebook_quant
speex_default_user_handler
speex_bits_remaining
speex_bits_unpack_unsigned
speex_bits_advance
speex_inband_handler
sanitize_values32
multicomb
ARM GAS  /var/folders/kh/x4vltyy52lbg7p4pcyglc5080000gp/T//ccuucmVt.s 			page 174


speex_encoder_ctl
