ARM GAS  /var/folders/kh/x4vltyy52lbg7p4pcyglc5080000gp/T//ccuucmVt.s 			page 1


   1              		.syntax unified
   2              		.cpu cortex-m3
   3              		.fpu softvfp
   4              		.eabi_attribute 20, 1
   5              		.eabi_attribute 21, 1
   6              		.eabi_attribute 23, 3
   7              		.eabi_attribute 24, 1
   8              		.eabi_attribute 25, 1
   9              		.eabi_attribute 26, 1
  10              		.eabi_attribute 30, 6
  11              		.eabi_attribute 34, 1
  12              		.eabi_attribute 18, 4
  13              		.thumb
  14              		.syntax unified
  15              		.file	"nb_celp.c"
  16              		.text
  17              	.Ltext0:
  18              		.cfi_sections	.debug_frame
  19              		.section	.text.spx_ilog4,"ax",%progbits
  20              		.align	2
  21              		.thumb
  22              		.thumb_func
  24              	spx_ilog4:
  25              	.LFB1:
  26              		.file 1 "STM32F10x_Speex_Lib/libspeex/math_approx.h"
   1:STM32F10x_Speex_Lib/libspeex/math_approx.h **** /* Copyright (C) 2002 Jean-Marc Valin */
   2:STM32F10x_Speex_Lib/libspeex/math_approx.h **** /**
   3:STM32F10x_Speex_Lib/libspeex/math_approx.h ****    @file math_approx.h
   4:STM32F10x_Speex_Lib/libspeex/math_approx.h ****    @brief Various math approximation functions for Speex
   5:STM32F10x_Speex_Lib/libspeex/math_approx.h **** */
   6:STM32F10x_Speex_Lib/libspeex/math_approx.h **** /*
   7:STM32F10x_Speex_Lib/libspeex/math_approx.h ****    Redistribution and use in source and binary forms, with or without
   8:STM32F10x_Speex_Lib/libspeex/math_approx.h ****    modification, are permitted provided that the following conditions
   9:STM32F10x_Speex_Lib/libspeex/math_approx.h ****    are met:
  10:STM32F10x_Speex_Lib/libspeex/math_approx.h ****    
  11:STM32F10x_Speex_Lib/libspeex/math_approx.h ****    - Redistributions of source code must retain the above copyright
  12:STM32F10x_Speex_Lib/libspeex/math_approx.h ****    notice, this list of conditions and the following disclaimer.
  13:STM32F10x_Speex_Lib/libspeex/math_approx.h ****    
  14:STM32F10x_Speex_Lib/libspeex/math_approx.h ****    - Redistributions in binary form must reproduce the above copyright
  15:STM32F10x_Speex_Lib/libspeex/math_approx.h ****    notice, this list of conditions and the following disclaimer in the
  16:STM32F10x_Speex_Lib/libspeex/math_approx.h ****    documentation and/or other materials provided with the distribution.
  17:STM32F10x_Speex_Lib/libspeex/math_approx.h ****    
  18:STM32F10x_Speex_Lib/libspeex/math_approx.h ****    - Neither the name of the Xiph.org Foundation nor the names of its
  19:STM32F10x_Speex_Lib/libspeex/math_approx.h ****    contributors may be used to endorse or promote products derived from
  20:STM32F10x_Speex_Lib/libspeex/math_approx.h ****    this software without specific prior written permission.
  21:STM32F10x_Speex_Lib/libspeex/math_approx.h ****    
  22:STM32F10x_Speex_Lib/libspeex/math_approx.h ****    THIS SOFTWARE IS PROVIDED BY THE COPYRIGHT HOLDERS AND CONTRIBUTORS
  23:STM32F10x_Speex_Lib/libspeex/math_approx.h ****    ``AS IS'' AND ANY EXPRESS OR IMPLIED WARRANTIES, INCLUDING, BUT NOT
  24:STM32F10x_Speex_Lib/libspeex/math_approx.h ****    LIMITED TO, THE IMPLIED WARRANTIES OF MERCHANTABILITY AND FITNESS FOR
  25:STM32F10x_Speex_Lib/libspeex/math_approx.h ****    A PARTICULAR PURPOSE ARE DISCLAIMED.  IN NO EVENT SHALL THE FOUNDATION OR
  26:STM32F10x_Speex_Lib/libspeex/math_approx.h ****    CONTRIBUTORS BE LIABLE FOR ANY DIRECT, INDIRECT, INCIDENTAL, SPECIAL,
  27:STM32F10x_Speex_Lib/libspeex/math_approx.h ****    EXEMPLARY, OR CONSEQUENTIAL DAMAGES (INCLUDING, BUT NOT LIMITED TO,
  28:STM32F10x_Speex_Lib/libspeex/math_approx.h ****    PROCUREMENT OF SUBSTITUTE GOODS OR SERVICES; LOSS OF USE, DATA, OR
  29:STM32F10x_Speex_Lib/libspeex/math_approx.h ****    PROFITS; OR BUSINESS INTERRUPTION) HOWEVER CAUSED AND ON ANY THEORY OF
  30:STM32F10x_Speex_Lib/libspeex/math_approx.h ****    LIABILITY, WHETHER IN CONTRACT, STRICT LIABILITY, OR TORT (INCLUDING
  31:STM32F10x_Speex_Lib/libspeex/math_approx.h ****    NEGLIGENCE OR OTHERWISE) ARISING IN ANY WAY OUT OF THE USE OF THIS
  32:STM32F10x_Speex_Lib/libspeex/math_approx.h ****    SOFTWARE, EVEN IF ADVISED OF THE POSSIBILITY OF SUCH DAMAGE.
ARM GAS  /var/folders/kh/x4vltyy52lbg7p4pcyglc5080000gp/T//ccuucmVt.s 			page 2


  33:STM32F10x_Speex_Lib/libspeex/math_approx.h **** */
  34:STM32F10x_Speex_Lib/libspeex/math_approx.h **** 
  35:STM32F10x_Speex_Lib/libspeex/math_approx.h **** #ifndef MATH_APPROX_H
  36:STM32F10x_Speex_Lib/libspeex/math_approx.h **** #define MATH_APPROX_H
  37:STM32F10x_Speex_Lib/libspeex/math_approx.h **** 
  38:STM32F10x_Speex_Lib/libspeex/math_approx.h **** #include "arch.h"
  39:STM32F10x_Speex_Lib/libspeex/math_approx.h **** 
  40:STM32F10x_Speex_Lib/libspeex/math_approx.h **** #ifndef FIXED_POINT
  41:STM32F10x_Speex_Lib/libspeex/math_approx.h **** 
  42:STM32F10x_Speex_Lib/libspeex/math_approx.h **** #define spx_sqrt sqrt
  43:STM32F10x_Speex_Lib/libspeex/math_approx.h **** #define spx_acos acos
  44:STM32F10x_Speex_Lib/libspeex/math_approx.h **** #define spx_exp exp
  45:STM32F10x_Speex_Lib/libspeex/math_approx.h **** #define spx_cos_norm(x) (cos((.5f*M_PI)*(x)))
  46:STM32F10x_Speex_Lib/libspeex/math_approx.h **** #define spx_atan atan
  47:STM32F10x_Speex_Lib/libspeex/math_approx.h **** 
  48:STM32F10x_Speex_Lib/libspeex/math_approx.h **** /** Generate a pseudo-random number */
  49:STM32F10x_Speex_Lib/libspeex/math_approx.h **** static inline spx_word16_t speex_rand(spx_word16_t std, spx_int32_t *seed)
  50:STM32F10x_Speex_Lib/libspeex/math_approx.h **** {
  51:STM32F10x_Speex_Lib/libspeex/math_approx.h ****    const unsigned int jflone = 0x3f800000;
  52:STM32F10x_Speex_Lib/libspeex/math_approx.h ****    const unsigned int jflmsk = 0x007fffff;
  53:STM32F10x_Speex_Lib/libspeex/math_approx.h ****    union {int i; float f;} ran;
  54:STM32F10x_Speex_Lib/libspeex/math_approx.h ****    *seed = 1664525 * *seed + 1013904223;
  55:STM32F10x_Speex_Lib/libspeex/math_approx.h ****    ran.i = jflone | (jflmsk & *seed);
  56:STM32F10x_Speex_Lib/libspeex/math_approx.h ****    ran.f -= 1.5;
  57:STM32F10x_Speex_Lib/libspeex/math_approx.h ****    return 3.4642*std*ran.f;
  58:STM32F10x_Speex_Lib/libspeex/math_approx.h **** }
  59:STM32F10x_Speex_Lib/libspeex/math_approx.h **** 
  60:STM32F10x_Speex_Lib/libspeex/math_approx.h **** 
  61:STM32F10x_Speex_Lib/libspeex/math_approx.h **** #endif
  62:STM32F10x_Speex_Lib/libspeex/math_approx.h **** 
  63:STM32F10x_Speex_Lib/libspeex/math_approx.h **** 
  64:STM32F10x_Speex_Lib/libspeex/math_approx.h **** static inline spx_int16_t spx_ilog2(spx_uint32_t x)
  65:STM32F10x_Speex_Lib/libspeex/math_approx.h **** {
  66:STM32F10x_Speex_Lib/libspeex/math_approx.h ****    int r=0;
  67:STM32F10x_Speex_Lib/libspeex/math_approx.h ****    if (x>=(spx_int32_t)65536)
  68:STM32F10x_Speex_Lib/libspeex/math_approx.h ****    {
  69:STM32F10x_Speex_Lib/libspeex/math_approx.h ****       x >>= 16;
  70:STM32F10x_Speex_Lib/libspeex/math_approx.h ****       r += 16;
  71:STM32F10x_Speex_Lib/libspeex/math_approx.h ****    }
  72:STM32F10x_Speex_Lib/libspeex/math_approx.h ****    if (x>=256)
  73:STM32F10x_Speex_Lib/libspeex/math_approx.h ****    {
  74:STM32F10x_Speex_Lib/libspeex/math_approx.h ****       x >>= 8;
  75:STM32F10x_Speex_Lib/libspeex/math_approx.h ****       r += 8;
  76:STM32F10x_Speex_Lib/libspeex/math_approx.h ****    }
  77:STM32F10x_Speex_Lib/libspeex/math_approx.h ****    if (x>=16)
  78:STM32F10x_Speex_Lib/libspeex/math_approx.h ****    {
  79:STM32F10x_Speex_Lib/libspeex/math_approx.h ****       x >>= 4;
  80:STM32F10x_Speex_Lib/libspeex/math_approx.h ****       r += 4;
  81:STM32F10x_Speex_Lib/libspeex/math_approx.h ****    }
  82:STM32F10x_Speex_Lib/libspeex/math_approx.h ****    if (x>=4)
  83:STM32F10x_Speex_Lib/libspeex/math_approx.h ****    {
  84:STM32F10x_Speex_Lib/libspeex/math_approx.h ****       x >>= 2;
  85:STM32F10x_Speex_Lib/libspeex/math_approx.h ****       r += 2;
  86:STM32F10x_Speex_Lib/libspeex/math_approx.h ****    }
  87:STM32F10x_Speex_Lib/libspeex/math_approx.h ****    if (x>=2)
  88:STM32F10x_Speex_Lib/libspeex/math_approx.h ****    {
  89:STM32F10x_Speex_Lib/libspeex/math_approx.h ****       r += 1;
ARM GAS  /var/folders/kh/x4vltyy52lbg7p4pcyglc5080000gp/T//ccuucmVt.s 			page 3


  90:STM32F10x_Speex_Lib/libspeex/math_approx.h ****    }
  91:STM32F10x_Speex_Lib/libspeex/math_approx.h ****    return r;
  92:STM32F10x_Speex_Lib/libspeex/math_approx.h **** }
  93:STM32F10x_Speex_Lib/libspeex/math_approx.h **** 
  94:STM32F10x_Speex_Lib/libspeex/math_approx.h **** static inline spx_int16_t spx_ilog4(spx_uint32_t x)
  95:STM32F10x_Speex_Lib/libspeex/math_approx.h **** {
  27              		.loc 1 95 0
  28              		.cfi_startproc
  29              		@ args = 0, pretend = 0, frame = 16
  30              		@ frame_needed = 1, uses_anonymous_args = 0
  31              		@ link register save eliminated.
  32 0000 80B4     		push	{r7}
  33              	.LCFI0:
  34              		.cfi_def_cfa_offset 4
  35              		.cfi_offset 7, -4
  36 0002 85B0     		sub	sp, sp, #20
  37              	.LCFI1:
  38              		.cfi_def_cfa_offset 24
  39 0004 00AF     		add	r7, sp, #0
  40              	.LCFI2:
  41              		.cfi_def_cfa_register 7
  42 0006 7860     		str	r0, [r7, #4]
  96:STM32F10x_Speex_Lib/libspeex/math_approx.h ****    int r=0;
  43              		.loc 1 96 0
  44 0008 0023     		movs	r3, #0
  45 000a FB60     		str	r3, [r7, #12]
  97:STM32F10x_Speex_Lib/libspeex/math_approx.h ****    if (x>=(spx_int32_t)65536)
  46              		.loc 1 97 0
  47 000c 7B68     		ldr	r3, [r7, #4]
  48 000e B3F5803F 		cmp	r3, #65536
  49 0012 05D3     		bcc	.L2
  98:STM32F10x_Speex_Lib/libspeex/math_approx.h ****    {
  99:STM32F10x_Speex_Lib/libspeex/math_approx.h ****       x >>= 16;
  50              		.loc 1 99 0
  51 0014 7B68     		ldr	r3, [r7, #4]
  52 0016 1B0C     		lsrs	r3, r3, #16
  53 0018 7B60     		str	r3, [r7, #4]
 100:STM32F10x_Speex_Lib/libspeex/math_approx.h ****       r += 8;
  54              		.loc 1 100 0
  55 001a FB68     		ldr	r3, [r7, #12]
  56 001c 0833     		adds	r3, r3, #8
  57 001e FB60     		str	r3, [r7, #12]
  58              	.L2:
 101:STM32F10x_Speex_Lib/libspeex/math_approx.h ****    }
 102:STM32F10x_Speex_Lib/libspeex/math_approx.h ****    if (x>=256)
  59              		.loc 1 102 0
  60 0020 7B68     		ldr	r3, [r7, #4]
  61 0022 FF2B     		cmp	r3, #255
  62 0024 05D9     		bls	.L3
 103:STM32F10x_Speex_Lib/libspeex/math_approx.h ****    {
 104:STM32F10x_Speex_Lib/libspeex/math_approx.h ****       x >>= 8;
  63              		.loc 1 104 0
  64 0026 7B68     		ldr	r3, [r7, #4]
  65 0028 1B0A     		lsrs	r3, r3, #8
  66 002a 7B60     		str	r3, [r7, #4]
 105:STM32F10x_Speex_Lib/libspeex/math_approx.h ****       r += 4;
  67              		.loc 1 105 0
ARM GAS  /var/folders/kh/x4vltyy52lbg7p4pcyglc5080000gp/T//ccuucmVt.s 			page 4


  68 002c FB68     		ldr	r3, [r7, #12]
  69 002e 0433     		adds	r3, r3, #4
  70 0030 FB60     		str	r3, [r7, #12]
  71              	.L3:
 106:STM32F10x_Speex_Lib/libspeex/math_approx.h ****    }
 107:STM32F10x_Speex_Lib/libspeex/math_approx.h ****    if (x>=16)
  72              		.loc 1 107 0
  73 0032 7B68     		ldr	r3, [r7, #4]
  74 0034 0F2B     		cmp	r3, #15
  75 0036 05D9     		bls	.L4
 108:STM32F10x_Speex_Lib/libspeex/math_approx.h ****    {
 109:STM32F10x_Speex_Lib/libspeex/math_approx.h ****       x >>= 4;
  76              		.loc 1 109 0
  77 0038 7B68     		ldr	r3, [r7, #4]
  78 003a 1B09     		lsrs	r3, r3, #4
  79 003c 7B60     		str	r3, [r7, #4]
 110:STM32F10x_Speex_Lib/libspeex/math_approx.h ****       r += 2;
  80              		.loc 1 110 0
  81 003e FB68     		ldr	r3, [r7, #12]
  82 0040 0233     		adds	r3, r3, #2
  83 0042 FB60     		str	r3, [r7, #12]
  84              	.L4:
 111:STM32F10x_Speex_Lib/libspeex/math_approx.h ****    }
 112:STM32F10x_Speex_Lib/libspeex/math_approx.h ****    if (x>=4)
  85              		.loc 1 112 0
  86 0044 7B68     		ldr	r3, [r7, #4]
  87 0046 032B     		cmp	r3, #3
  88 0048 02D9     		bls	.L5
 113:STM32F10x_Speex_Lib/libspeex/math_approx.h ****    {
 114:STM32F10x_Speex_Lib/libspeex/math_approx.h ****       r += 1;
  89              		.loc 1 114 0
  90 004a FB68     		ldr	r3, [r7, #12]
  91 004c 0133     		adds	r3, r3, #1
  92 004e FB60     		str	r3, [r7, #12]
  93              	.L5:
 115:STM32F10x_Speex_Lib/libspeex/math_approx.h ****    }
 116:STM32F10x_Speex_Lib/libspeex/math_approx.h ****    return r;
  94              		.loc 1 116 0
  95 0050 FB68     		ldr	r3, [r7, #12]
  96 0052 1BB2     		sxth	r3, r3
 117:STM32F10x_Speex_Lib/libspeex/math_approx.h **** }
  97              		.loc 1 117 0
  98 0054 1846     		mov	r0, r3
  99 0056 1437     		adds	r7, r7, #20
 100              	.LCFI3:
 101              		.cfi_def_cfa_offset 4
 102 0058 BD46     		mov	sp, r7
 103              	.LCFI4:
 104              		.cfi_def_cfa_register 13
 105              		@ sp needed
 106 005a 80BC     		pop	{r7}
 107              	.LCFI5:
 108              		.cfi_restore 7
 109              		.cfi_def_cfa_offset 0
 110 005c 7047     		bx	lr
 111              		.cfi_endproc
 112              	.LFE1:
ARM GAS  /var/folders/kh/x4vltyy52lbg7p4pcyglc5080000gp/T//ccuucmVt.s 			page 5


 114 005e 00BF     		.section	.text.speex_rand,"ax",%progbits
 115              		.align	2
 116              		.thumb
 117              		.thumb_func
 119              	speex_rand:
 120              	.LFB2:
 118:STM32F10x_Speex_Lib/libspeex/math_approx.h **** 
 119:STM32F10x_Speex_Lib/libspeex/math_approx.h **** #ifdef FIXED_POINT
 120:STM32F10x_Speex_Lib/libspeex/math_approx.h **** 
 121:STM32F10x_Speex_Lib/libspeex/math_approx.h **** /** Generate a pseudo-random number */
 122:STM32F10x_Speex_Lib/libspeex/math_approx.h **** static inline spx_word16_t speex_rand(spx_word16_t std, spx_int32_t *seed)
 123:STM32F10x_Speex_Lib/libspeex/math_approx.h **** {
 121              		.loc 1 123 0
 122              		.cfi_startproc
 123              		@ args = 0, pretend = 0, frame = 16
 124              		@ frame_needed = 1, uses_anonymous_args = 0
 125              		@ link register save eliminated.
 126 0000 80B4     		push	{r7}
 127              	.LCFI6:
 128              		.cfi_def_cfa_offset 4
 129              		.cfi_offset 7, -4
 130 0002 85B0     		sub	sp, sp, #20
 131              	.LCFI7:
 132              		.cfi_def_cfa_offset 24
 133 0004 00AF     		add	r7, sp, #0
 134              	.LCFI8:
 135              		.cfi_def_cfa_register 7
 136 0006 0346     		mov	r3, r0
 137 0008 3960     		str	r1, [r7]
 138 000a FB80     		strh	r3, [r7, #6]	@ movhi
 124:STM32F10x_Speex_Lib/libspeex/math_approx.h ****    spx_word32_t res;
 125:STM32F10x_Speex_Lib/libspeex/math_approx.h ****    *seed = 1664525 * *seed + 1013904223;
 139              		.loc 1 125 0
 140 000c 3B68     		ldr	r3, [r7]
 141 000e 1B68     		ldr	r3, [r3]
 142 0010 0E4A     		ldr	r2, .L9
 143 0012 02FB03F2 		mul	r2, r2, r3
 144 0016 0E4B     		ldr	r3, .L9+4
 145 0018 1344     		add	r3, r3, r2
 146 001a 3A68     		ldr	r2, [r7]
 147 001c 1360     		str	r3, [r2]
 126:STM32F10x_Speex_Lib/libspeex/math_approx.h ****    res = MULT16_16(EXTRACT16(SHR32(*seed,16)),std);
 148              		.loc 1 126 0
 149 001e 3B68     		ldr	r3, [r7]
 150 0020 1B68     		ldr	r3, [r3]
 151 0022 1B14     		asrs	r3, r3, #16
 152 0024 1BB2     		sxth	r3, r3
 153 0026 1A46     		mov	r2, r3
 154 0028 B7F90630 		ldrsh	r3, [r7, #6]
 155 002c 03FB02F3 		mul	r3, r3, r2
 156 0030 FB60     		str	r3, [r7, #12]
 127:STM32F10x_Speex_Lib/libspeex/math_approx.h ****    return EXTRACT16(PSHR32(SUB32(res, SHR32(res, 3)),14));
 157              		.loc 1 127 0
 158 0032 FB68     		ldr	r3, [r7, #12]
 159 0034 DB10     		asrs	r3, r3, #3
 160 0036 FA68     		ldr	r2, [r7, #12]
 161 0038 D31A     		subs	r3, r2, r3
ARM GAS  /var/folders/kh/x4vltyy52lbg7p4pcyglc5080000gp/T//ccuucmVt.s 			page 6


 162 003a 03F50053 		add	r3, r3, #8192
 163 003e 9B13     		asrs	r3, r3, #14
 164 0040 1BB2     		sxth	r3, r3
 128:STM32F10x_Speex_Lib/libspeex/math_approx.h **** }
 165              		.loc 1 128 0
 166 0042 1846     		mov	r0, r3
 167 0044 1437     		adds	r7, r7, #20
 168              	.LCFI9:
 169              		.cfi_def_cfa_offset 4
 170 0046 BD46     		mov	sp, r7
 171              	.LCFI10:
 172              		.cfi_def_cfa_register 13
 173              		@ sp needed
 174 0048 80BC     		pop	{r7}
 175              	.LCFI11:
 176              		.cfi_restore 7
 177              		.cfi_def_cfa_offset 0
 178 004a 7047     		bx	lr
 179              	.L10:
 180              		.align	2
 181              	.L9:
 182 004c 0D661900 		.word	1664525
 183 0050 5FF36E3C 		.word	1013904223
 184              		.cfi_endproc
 185              	.LFE2:
 187              		.section	.text.spx_sqrt,"ax",%progbits
 188              		.align	2
 189              		.thumb
 190              		.thumb_func
 192              	spx_sqrt:
 193              	.LFB3:
 129:STM32F10x_Speex_Lib/libspeex/math_approx.h **** 
 130:STM32F10x_Speex_Lib/libspeex/math_approx.h **** /* sqrt(x) ~= 0.22178 + 1.29227*x - 0.77070*x^2 + 0.25723*x^3 (for .25 < x < 1) */
 131:STM32F10x_Speex_Lib/libspeex/math_approx.h **** /*#define C0 3634
 132:STM32F10x_Speex_Lib/libspeex/math_approx.h **** #define C1 21173
 133:STM32F10x_Speex_Lib/libspeex/math_approx.h **** #define C2 -12627
 134:STM32F10x_Speex_Lib/libspeex/math_approx.h **** #define C3 4215*/
 135:STM32F10x_Speex_Lib/libspeex/math_approx.h **** 
 136:STM32F10x_Speex_Lib/libspeex/math_approx.h **** /* sqrt(x) ~= 0.22178 + 1.29227*x - 0.77070*x^2 + 0.25659*x^3 (for .25 < x < 1) */
 137:STM32F10x_Speex_Lib/libspeex/math_approx.h **** #define C0 3634
 138:STM32F10x_Speex_Lib/libspeex/math_approx.h **** #define C1 21173
 139:STM32F10x_Speex_Lib/libspeex/math_approx.h **** #define C2 -12627
 140:STM32F10x_Speex_Lib/libspeex/math_approx.h **** #define C3 4204
 141:STM32F10x_Speex_Lib/libspeex/math_approx.h **** 
 142:STM32F10x_Speex_Lib/libspeex/math_approx.h **** static inline spx_word16_t spx_sqrt(spx_word32_t x)
 143:STM32F10x_Speex_Lib/libspeex/math_approx.h **** {
 194              		.loc 1 143 0
 195              		.cfi_startproc
 196              		@ args = 0, pretend = 0, frame = 16
 197              		@ frame_needed = 1, uses_anonymous_args = 0
 198 0000 80B5     		push	{r7, lr}
 199              	.LCFI12:
 200              		.cfi_def_cfa_offset 8
 201              		.cfi_offset 7, -8
 202              		.cfi_offset 14, -4
 203 0002 84B0     		sub	sp, sp, #16
 204              	.LCFI13:
ARM GAS  /var/folders/kh/x4vltyy52lbg7p4pcyglc5080000gp/T//ccuucmVt.s 			page 7


 205              		.cfi_def_cfa_offset 24
 206 0004 00AF     		add	r7, sp, #0
 207              	.LCFI14:
 208              		.cfi_def_cfa_register 7
 209 0006 7860     		str	r0, [r7, #4]
 144:STM32F10x_Speex_Lib/libspeex/math_approx.h ****    int k;
 145:STM32F10x_Speex_Lib/libspeex/math_approx.h ****    spx_word32_t rt;
 146:STM32F10x_Speex_Lib/libspeex/math_approx.h ****    k = spx_ilog4(x)-6;
 210              		.loc 1 146 0
 211 0008 7B68     		ldr	r3, [r7, #4]
 212 000a 1846     		mov	r0, r3
 213 000c FFF7FEFF 		bl	spx_ilog4
 214 0010 0346     		mov	r3, r0
 215 0012 063B     		subs	r3, r3, #6
 216 0014 FB60     		str	r3, [r7, #12]
 147:STM32F10x_Speex_Lib/libspeex/math_approx.h ****    x = VSHR32(x, (k<<1));
 217              		.loc 1 147 0
 218 0016 FB68     		ldr	r3, [r7, #12]
 219 0018 5B00     		lsls	r3, r3, #1
 220 001a 002B     		cmp	r3, #0
 221 001c 05DD     		ble	.L12
 222              		.loc 1 147 0 is_stmt 0 discriminator 1
 223 001e FB68     		ldr	r3, [r7, #12]
 224 0020 5B00     		lsls	r3, r3, #1
 225 0022 7A68     		ldr	r2, [r7, #4]
 226 0024 42FA03F3 		asr	r3, r2, r3
 227 0028 05E0     		b	.L13
 228              	.L12:
 229              		.loc 1 147 0 discriminator 2
 230 002a FB68     		ldr	r3, [r7, #12]
 231 002c 5B00     		lsls	r3, r3, #1
 232 002e 5B42     		negs	r3, r3
 233 0030 7A68     		ldr	r2, [r7, #4]
 234 0032 02FA03F3 		lsl	r3, r2, r3
 235              	.L13:
 236              		.loc 1 147 0 discriminator 4
 237 0036 7B60     		str	r3, [r7, #4]
 148:STM32F10x_Speex_Lib/libspeex/math_approx.h ****    rt = ADD16(C0, MULT16_16_Q14(x, ADD16(C1, MULT16_16_Q14(x, ADD16(C2, MULT16_16_Q14(x, (C3)))))))
 238              		.loc 1 148 0 is_stmt 1 discriminator 4
 239 0038 7B68     		ldr	r3, [r7, #4]
 240 003a 1BB2     		sxth	r3, r3
 241 003c 1A46     		mov	r2, r3
 242 003e 7B68     		ldr	r3, [r7, #4]
 243 0040 1BB2     		sxth	r3, r3
 244 0042 1946     		mov	r1, r3
 245 0044 7B68     		ldr	r3, [r7, #4]
 246 0046 1BB2     		sxth	r3, r3
 247 0048 1846     		mov	r0, r3
 248 004a 41F26C03 		movw	r3, #4204
 249 004e 03FB00F3 		mul	r3, r3, r0
 250 0052 9B13     		asrs	r3, r3, #14
 251 0054 9BB2     		uxth	r3, r3
 252 0056 A3F54553 		sub	r3, r3, #12608
 253 005a 133B     		subs	r3, r3, #19
 254 005c 9BB2     		uxth	r3, r3
 255 005e 1BB2     		sxth	r3, r3
 256 0060 03FB01F3 		mul	r3, r3, r1
ARM GAS  /var/folders/kh/x4vltyy52lbg7p4pcyglc5080000gp/T//ccuucmVt.s 			page 8


 257 0064 9B13     		asrs	r3, r3, #14
 258 0066 9BB2     		uxth	r3, r3
 259 0068 03F5A543 		add	r3, r3, #21120
 260 006c 3533     		adds	r3, r3, #53
 261 006e 9BB2     		uxth	r3, r3
 262 0070 1BB2     		sxth	r3, r3
 263 0072 03FB02F3 		mul	r3, r3, r2
 264 0076 9B13     		asrs	r3, r3, #14
 265 0078 9BB2     		uxth	r3, r3
 266 007a 03F63263 		addw	r3, r3, #3634
 267 007e 9BB2     		uxth	r3, r3
 268 0080 1BB2     		sxth	r3, r3
 269 0082 BB60     		str	r3, [r7, #8]
 149:STM32F10x_Speex_Lib/libspeex/math_approx.h ****    rt = VSHR32(rt,7-k);
 270              		.loc 1 149 0 discriminator 4
 271 0084 FB68     		ldr	r3, [r7, #12]
 272 0086 C3F10703 		rsb	r3, r3, #7
 273 008a 002B     		cmp	r3, #0
 274 008c 06DD     		ble	.L14
 275              		.loc 1 149 0 is_stmt 0 discriminator 1
 276 008e FB68     		ldr	r3, [r7, #12]
 277 0090 C3F10703 		rsb	r3, r3, #7
 278 0094 BA68     		ldr	r2, [r7, #8]
 279 0096 42FA03F3 		asr	r3, r2, r3
 280 009a 04E0     		b	.L15
 281              	.L14:
 282              		.loc 1 149 0 discriminator 2
 283 009c FB68     		ldr	r3, [r7, #12]
 284 009e 073B     		subs	r3, r3, #7
 285 00a0 BA68     		ldr	r2, [r7, #8]
 286 00a2 02FA03F3 		lsl	r3, r2, r3
 287              	.L15:
 288              		.loc 1 149 0 discriminator 4
 289 00a6 BB60     		str	r3, [r7, #8]
 150:STM32F10x_Speex_Lib/libspeex/math_approx.h ****    return rt;
 290              		.loc 1 150 0 is_stmt 1 discriminator 4
 291 00a8 BB68     		ldr	r3, [r7, #8]
 292 00aa 1BB2     		sxth	r3, r3
 151:STM32F10x_Speex_Lib/libspeex/math_approx.h **** }
 293              		.loc 1 151 0 discriminator 4
 294 00ac 1846     		mov	r0, r3
 295 00ae 1037     		adds	r7, r7, #16
 296              	.LCFI15:
 297              		.cfi_def_cfa_offset 8
 298 00b0 BD46     		mov	sp, r7
 299              	.LCFI16:
 300              		.cfi_def_cfa_register 13
 301              		@ sp needed
 302 00b2 80BD     		pop	{r7, pc}
 303              		.cfi_endproc
 304              	.LFE3:
 306              		.section	.text.speex_alloc,"ax",%progbits
 307              		.align	2
 308              		.thumb
 309              		.thumb_func
 311              	speex_alloc:
 312              	.LFB13:
ARM GAS  /var/folders/kh/x4vltyy52lbg7p4pcyglc5080000gp/T//ccuucmVt.s 			page 9


 313              		.file 2 "STM32F10x_Speex_Lib/libspeex/os_support.h"
   1:STM32F10x_Speex_Lib/libspeex/os_support.h **** /* Copyright (C) 2007 Jean-Marc Valin
   2:STM32F10x_Speex_Lib/libspeex/os_support.h ****       
   3:STM32F10x_Speex_Lib/libspeex/os_support.h ****    File: os_support.h
   4:STM32F10x_Speex_Lib/libspeex/os_support.h ****    This is the (tiny) OS abstraction layer. Aside from math.h, this is the
   5:STM32F10x_Speex_Lib/libspeex/os_support.h ****    only place where system headers are allowed.
   6:STM32F10x_Speex_Lib/libspeex/os_support.h **** 
   7:STM32F10x_Speex_Lib/libspeex/os_support.h ****    Redistribution and use in source and binary forms, with or without
   8:STM32F10x_Speex_Lib/libspeex/os_support.h ****    modification, are permitted provided that the following conditions are
   9:STM32F10x_Speex_Lib/libspeex/os_support.h ****    met:
  10:STM32F10x_Speex_Lib/libspeex/os_support.h **** 
  11:STM32F10x_Speex_Lib/libspeex/os_support.h ****    1. Redistributions of source code must retain the above copyright notice,
  12:STM32F10x_Speex_Lib/libspeex/os_support.h ****    this list of conditions and the following disclaimer.
  13:STM32F10x_Speex_Lib/libspeex/os_support.h **** 
  14:STM32F10x_Speex_Lib/libspeex/os_support.h ****    2. Redistributions in binary form must reproduce the above copyright
  15:STM32F10x_Speex_Lib/libspeex/os_support.h ****    notice, this list of conditions and the following disclaimer in the
  16:STM32F10x_Speex_Lib/libspeex/os_support.h ****    documentation and/or other materials provided with the distribution.
  17:STM32F10x_Speex_Lib/libspeex/os_support.h **** 
  18:STM32F10x_Speex_Lib/libspeex/os_support.h ****    3. The name of the author may not be used to endorse or promote products
  19:STM32F10x_Speex_Lib/libspeex/os_support.h ****    derived from this software without specific prior written permission.
  20:STM32F10x_Speex_Lib/libspeex/os_support.h **** 
  21:STM32F10x_Speex_Lib/libspeex/os_support.h ****    THIS SOFTWARE IS PROVIDED BY THE AUTHOR ``AS IS'' AND ANY EXPRESS OR
  22:STM32F10x_Speex_Lib/libspeex/os_support.h ****    IMPLIED WARRANTIES, INCLUDING, BUT NOT LIMITED TO, THE IMPLIED WARRANTIES
  23:STM32F10x_Speex_Lib/libspeex/os_support.h ****    OF MERCHANTABILITY AND FITNESS FOR A PARTICULAR PURPOSE ARE
  24:STM32F10x_Speex_Lib/libspeex/os_support.h ****    DISCLAIMED. IN NO EVENT SHALL THE AUTHOR BE LIABLE FOR ANY DIRECT,
  25:STM32F10x_Speex_Lib/libspeex/os_support.h ****    INDIRECT, INCIDENTAL, SPECIAL, EXEMPLARY, OR CONSEQUENTIAL DAMAGES
  26:STM32F10x_Speex_Lib/libspeex/os_support.h ****    (INCLUDING, BUT NOT LIMITED TO, PROCUREMENT OF SUBSTITUTE GOODS OR
  27:STM32F10x_Speex_Lib/libspeex/os_support.h ****    SERVICES; LOSS OF USE, DATA, OR PROFITS; OR BUSINESS INTERRUPTION)
  28:STM32F10x_Speex_Lib/libspeex/os_support.h ****    HOWEVER CAUSED AND ON ANY THEORY OF LIABILITY, WHETHER IN CONTRACT,
  29:STM32F10x_Speex_Lib/libspeex/os_support.h ****    STRICT LIABILITY, OR TORT (INCLUDING NEGLIGENCE OR OTHERWISE) ARISING IN
  30:STM32F10x_Speex_Lib/libspeex/os_support.h ****    ANY WAY OUT OF THE USE OF THIS SOFTWARE, EVEN IF ADVISED OF THE
  31:STM32F10x_Speex_Lib/libspeex/os_support.h ****    POSSIBILITY OF SUCH DAMAGE.
  32:STM32F10x_Speex_Lib/libspeex/os_support.h **** */
  33:STM32F10x_Speex_Lib/libspeex/os_support.h **** 
  34:STM32F10x_Speex_Lib/libspeex/os_support.h **** #ifndef OS_SUPPORT_H
  35:STM32F10x_Speex_Lib/libspeex/os_support.h **** #define OS_SUPPORT_H
  36:STM32F10x_Speex_Lib/libspeex/os_support.h **** 
  37:STM32F10x_Speex_Lib/libspeex/os_support.h **** #include <string.h>
  38:STM32F10x_Speex_Lib/libspeex/os_support.h **** #include <stdio.h>
  39:STM32F10x_Speex_Lib/libspeex/os_support.h **** #include <stdlib.h>
  40:STM32F10x_Speex_Lib/libspeex/os_support.h **** 
  41:STM32F10x_Speex_Lib/libspeex/os_support.h **** // #ifdef HAVE_CONFIG_H
  42:STM32F10x_Speex_Lib/libspeex/os_support.h **** #include "config.h"
  43:STM32F10x_Speex_Lib/libspeex/os_support.h **** // #endif
  44:STM32F10x_Speex_Lib/libspeex/os_support.h **** #ifdef OS_SUPPORT_CUSTOM
  45:STM32F10x_Speex_Lib/libspeex/os_support.h **** #include "os_support_custom.h"
  46:STM32F10x_Speex_Lib/libspeex/os_support.h **** #endif
  47:STM32F10x_Speex_Lib/libspeex/os_support.h **** 
  48:STM32F10x_Speex_Lib/libspeex/os_support.h **** /** Speex wrapper for calloc. To do your own dynamic allocation, all you need to do is replace this
  49:STM32F10x_Speex_Lib/libspeex/os_support.h ****     NOTE: speex_alloc needs to CLEAR THE MEMORY */
  50:STM32F10x_Speex_Lib/libspeex/os_support.h **** #ifndef OVERRIDE_SPEEX_ALLOC
  51:STM32F10x_Speex_Lib/libspeex/os_support.h **** static inline void *speex_alloc (int size)
  52:STM32F10x_Speex_Lib/libspeex/os_support.h **** {
 314              		.loc 2 52 0
 315              		.cfi_startproc
 316              		@ args = 0, pretend = 0, frame = 8
 317              		@ frame_needed = 1, uses_anonymous_args = 0
ARM GAS  /var/folders/kh/x4vltyy52lbg7p4pcyglc5080000gp/T//ccuucmVt.s 			page 10


 318 0000 80B5     		push	{r7, lr}
 319              	.LCFI17:
 320              		.cfi_def_cfa_offset 8
 321              		.cfi_offset 7, -8
 322              		.cfi_offset 14, -4
 323 0002 82B0     		sub	sp, sp, #8
 324              	.LCFI18:
 325              		.cfi_def_cfa_offset 16
 326 0004 00AF     		add	r7, sp, #0
 327              	.LCFI19:
 328              		.cfi_def_cfa_register 7
 329 0006 7860     		str	r0, [r7, #4]
  53:STM32F10x_Speex_Lib/libspeex/os_support.h ****    /* WARNING: this is not equivalent to malloc(). If you want to use malloc() 
  54:STM32F10x_Speex_Lib/libspeex/os_support.h ****       or your own allocator, YOU NEED TO CLEAR THE MEMORY ALLOCATED. Otherwise
  55:STM32F10x_Speex_Lib/libspeex/os_support.h ****       you will experience strange bugs */
  56:STM32F10x_Speex_Lib/libspeex/os_support.h ****    return calloc(size,1);
 330              		.loc 2 56 0
 331 0008 7B68     		ldr	r3, [r7, #4]
 332 000a 0121     		movs	r1, #1
 333 000c 1846     		mov	r0, r3
 334 000e FFF7FEFF 		bl	calloc
 335 0012 0346     		mov	r3, r0
  57:STM32F10x_Speex_Lib/libspeex/os_support.h **** }
 336              		.loc 2 57 0
 337 0014 1846     		mov	r0, r3
 338 0016 0837     		adds	r7, r7, #8
 339              	.LCFI20:
 340              		.cfi_def_cfa_offset 8
 341 0018 BD46     		mov	sp, r7
 342              	.LCFI21:
 343              		.cfi_def_cfa_register 13
 344              		@ sp needed
 345 001a 80BD     		pop	{r7, pc}
 346              		.cfi_endproc
 347              	.LFE13:
 349              		.section	.text.speex_alloc_scratch,"ax",%progbits
 350              		.align	2
 351              		.thumb
 352              		.thumb_func
 354              	speex_alloc_scratch:
 355              	.LFB14:
  58:STM32F10x_Speex_Lib/libspeex/os_support.h **** #endif
  59:STM32F10x_Speex_Lib/libspeex/os_support.h **** 
  60:STM32F10x_Speex_Lib/libspeex/os_support.h **** /** Same as speex_alloc, except that the area is only needed inside a Speex call (might cause probl
  61:STM32F10x_Speex_Lib/libspeex/os_support.h **** #ifndef OVERRIDE_SPEEX_ALLOC_SCRATCH
  62:STM32F10x_Speex_Lib/libspeex/os_support.h **** static inline void *speex_alloc_scratch (int size)
  63:STM32F10x_Speex_Lib/libspeex/os_support.h **** {
 356              		.loc 2 63 0
 357              		.cfi_startproc
 358              		@ args = 0, pretend = 0, frame = 8
 359              		@ frame_needed = 1, uses_anonymous_args = 0
 360 0000 80B5     		push	{r7, lr}
 361              	.LCFI22:
 362              		.cfi_def_cfa_offset 8
 363              		.cfi_offset 7, -8
 364              		.cfi_offset 14, -4
 365 0002 82B0     		sub	sp, sp, #8
ARM GAS  /var/folders/kh/x4vltyy52lbg7p4pcyglc5080000gp/T//ccuucmVt.s 			page 11


 366              	.LCFI23:
 367              		.cfi_def_cfa_offset 16
 368 0004 00AF     		add	r7, sp, #0
 369              	.LCFI24:
 370              		.cfi_def_cfa_register 7
 371 0006 7860     		str	r0, [r7, #4]
  64:STM32F10x_Speex_Lib/libspeex/os_support.h ****    /* Scratch space doesn't need to be cleared */
  65:STM32F10x_Speex_Lib/libspeex/os_support.h ****    return calloc(size,1);
 372              		.loc 2 65 0
 373 0008 7B68     		ldr	r3, [r7, #4]
 374 000a 0121     		movs	r1, #1
 375 000c 1846     		mov	r0, r3
 376 000e FFF7FEFF 		bl	calloc
 377 0012 0346     		mov	r3, r0
  66:STM32F10x_Speex_Lib/libspeex/os_support.h **** }
 378              		.loc 2 66 0
 379 0014 1846     		mov	r0, r3
 380 0016 0837     		adds	r7, r7, #8
 381              	.LCFI25:
 382              		.cfi_def_cfa_offset 8
 383 0018 BD46     		mov	sp, r7
 384              	.LCFI26:
 385              		.cfi_def_cfa_register 13
 386              		@ sp needed
 387 001a 80BD     		pop	{r7, pc}
 388              		.cfi_endproc
 389              	.LFE14:
 391              		.section	.text.speex_free,"ax",%progbits
 392              		.align	2
 393              		.thumb
 394              		.thumb_func
 396              	speex_free:
 397              	.LFB16:
  67:STM32F10x_Speex_Lib/libspeex/os_support.h **** #endif
  68:STM32F10x_Speex_Lib/libspeex/os_support.h **** 
  69:STM32F10x_Speex_Lib/libspeex/os_support.h **** /** Speex wrapper for realloc. To do your own dynamic allocation, all you need to do is replace thi
  70:STM32F10x_Speex_Lib/libspeex/os_support.h **** #ifndef OVERRIDE_SPEEX_REALLOC
  71:STM32F10x_Speex_Lib/libspeex/os_support.h **** static inline void *speex_realloc (void *ptr, int size)
  72:STM32F10x_Speex_Lib/libspeex/os_support.h **** {
  73:STM32F10x_Speex_Lib/libspeex/os_support.h ****    return realloc(ptr, size);
  74:STM32F10x_Speex_Lib/libspeex/os_support.h **** }
  75:STM32F10x_Speex_Lib/libspeex/os_support.h **** #endif
  76:STM32F10x_Speex_Lib/libspeex/os_support.h **** 
  77:STM32F10x_Speex_Lib/libspeex/os_support.h **** /** Speex wrapper for calloc. To do your own dynamic allocation, all you need to do is replace this
  78:STM32F10x_Speex_Lib/libspeex/os_support.h **** #ifndef OVERRIDE_SPEEX_FREE
  79:STM32F10x_Speex_Lib/libspeex/os_support.h **** static inline void speex_free (void *ptr)
  80:STM32F10x_Speex_Lib/libspeex/os_support.h **** {
 398              		.loc 2 80 0
 399              		.cfi_startproc
 400              		@ args = 0, pretend = 0, frame = 8
 401              		@ frame_needed = 1, uses_anonymous_args = 0
 402 0000 80B5     		push	{r7, lr}
 403              	.LCFI27:
 404              		.cfi_def_cfa_offset 8
 405              		.cfi_offset 7, -8
 406              		.cfi_offset 14, -4
 407 0002 82B0     		sub	sp, sp, #8
ARM GAS  /var/folders/kh/x4vltyy52lbg7p4pcyglc5080000gp/T//ccuucmVt.s 			page 12


 408              	.LCFI28:
 409              		.cfi_def_cfa_offset 16
 410 0004 00AF     		add	r7, sp, #0
 411              	.LCFI29:
 412              		.cfi_def_cfa_register 7
 413 0006 7860     		str	r0, [r7, #4]
  81:STM32F10x_Speex_Lib/libspeex/os_support.h ****    free(ptr);
 414              		.loc 2 81 0
 415 0008 7868     		ldr	r0, [r7, #4]
 416 000a FFF7FEFF 		bl	free
  82:STM32F10x_Speex_Lib/libspeex/os_support.h **** }
 417              		.loc 2 82 0
 418 000e 00BF     		nop
 419 0010 0837     		adds	r7, r7, #8
 420              	.LCFI30:
 421              		.cfi_def_cfa_offset 8
 422 0012 BD46     		mov	sp, r7
 423              	.LCFI31:
 424              		.cfi_def_cfa_register 13
 425              		@ sp needed
 426 0014 80BD     		pop	{r7, pc}
 427              		.cfi_endproc
 428              	.LFE16:
 430 0016 00BF     		.section	.text.speex_free_scratch,"ax",%progbits
 431              		.align	2
 432              		.thumb
 433              		.thumb_func
 435              	speex_free_scratch:
 436              	.LFB17:
  83:STM32F10x_Speex_Lib/libspeex/os_support.h **** #endif
  84:STM32F10x_Speex_Lib/libspeex/os_support.h **** 
  85:STM32F10x_Speex_Lib/libspeex/os_support.h **** /** Same as speex_free, except that the area is only needed inside a Speex call (might cause proble
  86:STM32F10x_Speex_Lib/libspeex/os_support.h **** #ifndef OVERRIDE_SPEEX_FREE_SCRATCH
  87:STM32F10x_Speex_Lib/libspeex/os_support.h **** static inline void speex_free_scratch (void *ptr)
  88:STM32F10x_Speex_Lib/libspeex/os_support.h **** {
 437              		.loc 2 88 0
 438              		.cfi_startproc
 439              		@ args = 0, pretend = 0, frame = 8
 440              		@ frame_needed = 1, uses_anonymous_args = 0
 441 0000 80B5     		push	{r7, lr}
 442              	.LCFI32:
 443              		.cfi_def_cfa_offset 8
 444              		.cfi_offset 7, -8
 445              		.cfi_offset 14, -4
 446 0002 82B0     		sub	sp, sp, #8
 447              	.LCFI33:
 448              		.cfi_def_cfa_offset 16
 449 0004 00AF     		add	r7, sp, #0
 450              	.LCFI34:
 451              		.cfi_def_cfa_register 7
 452 0006 7860     		str	r0, [r7, #4]
  89:STM32F10x_Speex_Lib/libspeex/os_support.h ****    free(ptr);
 453              		.loc 2 89 0
 454 0008 7868     		ldr	r0, [r7, #4]
 455 000a FFF7FEFF 		bl	free
  90:STM32F10x_Speex_Lib/libspeex/os_support.h **** }
 456              		.loc 2 90 0
ARM GAS  /var/folders/kh/x4vltyy52lbg7p4pcyglc5080000gp/T//ccuucmVt.s 			page 13


 457 000e 00BF     		nop
 458 0010 0837     		adds	r7, r7, #8
 459              	.LCFI35:
 460              		.cfi_def_cfa_offset 8
 461 0012 BD46     		mov	sp, r7
 462              	.LCFI36:
 463              		.cfi_def_cfa_register 13
 464              		@ sp needed
 465 0014 80BD     		pop	{r7, pc}
 466              		.cfi_endproc
 467              	.LFE17:
 469 0016 00BF     		.section	.text.speex_warning_int,"ax",%progbits
 470              		.align	2
 471              		.thumb
 472              		.thumb_func
 474              	speex_warning_int:
 475              	.LFB19:
  91:STM32F10x_Speex_Lib/libspeex/os_support.h **** #endif
  92:STM32F10x_Speex_Lib/libspeex/os_support.h **** 
  93:STM32F10x_Speex_Lib/libspeex/os_support.h **** /** Copy n bytes of memory from src to dst. The 0* term provides compile-time type checking  */
  94:STM32F10x_Speex_Lib/libspeex/os_support.h **** #ifndef OVERRIDE_SPEEX_COPY
  95:STM32F10x_Speex_Lib/libspeex/os_support.h **** #define SPEEX_COPY(dst, src, n) (memcpy((dst), (src), (n)*sizeof(*(dst)) + 0*((dst)-(src)) ))
  96:STM32F10x_Speex_Lib/libspeex/os_support.h **** #endif
  97:STM32F10x_Speex_Lib/libspeex/os_support.h **** 
  98:STM32F10x_Speex_Lib/libspeex/os_support.h **** /** Copy n bytes of memory from src to dst, allowing overlapping regions. The 0* term 
  99:STM32F10x_Speex_Lib/libspeex/os_support.h ****     provides compile-time type checking */
 100:STM32F10x_Speex_Lib/libspeex/os_support.h **** #ifndef OVERRIDE_SPEEX_MOVE
 101:STM32F10x_Speex_Lib/libspeex/os_support.h **** #define SPEEX_MOVE(dst, src, n) (memmove((dst), (src), (n)*sizeof(*(dst)) + 0*((dst)-(src)) ))
 102:STM32F10x_Speex_Lib/libspeex/os_support.h **** #endif
 103:STM32F10x_Speex_Lib/libspeex/os_support.h **** 
 104:STM32F10x_Speex_Lib/libspeex/os_support.h **** /** Set n bytes of memory to value of c, starting at address s */
 105:STM32F10x_Speex_Lib/libspeex/os_support.h **** #ifndef OVERRIDE_SPEEX_MEMSET
 106:STM32F10x_Speex_Lib/libspeex/os_support.h **** #define SPEEX_MEMSET(dst, c, n) (memset((dst), (c), (n)*sizeof(*(dst))))
 107:STM32F10x_Speex_Lib/libspeex/os_support.h **** #endif
 108:STM32F10x_Speex_Lib/libspeex/os_support.h **** 
 109:STM32F10x_Speex_Lib/libspeex/os_support.h **** 
 110:STM32F10x_Speex_Lib/libspeex/os_support.h **** #ifndef OVERRIDE_SPEEX_FATAL
 111:STM32F10x_Speex_Lib/libspeex/os_support.h **** static inline void _speex_fatal(const char *str, const char *file, int line)
 112:STM32F10x_Speex_Lib/libspeex/os_support.h **** {
 113:STM32F10x_Speex_Lib/libspeex/os_support.h ****    fprintf (stderr, "Fatal (internal) error in %s, line %d: %s\n", file, line, str);
 114:STM32F10x_Speex_Lib/libspeex/os_support.h ****    exit(1);
 115:STM32F10x_Speex_Lib/libspeex/os_support.h **** }
 116:STM32F10x_Speex_Lib/libspeex/os_support.h **** #endif
 117:STM32F10x_Speex_Lib/libspeex/os_support.h **** 
 118:STM32F10x_Speex_Lib/libspeex/os_support.h **** #ifndef OVERRIDE_SPEEX_WARNING
 119:STM32F10x_Speex_Lib/libspeex/os_support.h **** static inline void speex_warning(const char *str)
 120:STM32F10x_Speex_Lib/libspeex/os_support.h **** {
 121:STM32F10x_Speex_Lib/libspeex/os_support.h **** #ifndef DISABLE_WARNINGS
 122:STM32F10x_Speex_Lib/libspeex/os_support.h ****    fprintf (stderr, "warning: %s\n", str);
 123:STM32F10x_Speex_Lib/libspeex/os_support.h **** #endif
 124:STM32F10x_Speex_Lib/libspeex/os_support.h **** }
 125:STM32F10x_Speex_Lib/libspeex/os_support.h **** #endif
 126:STM32F10x_Speex_Lib/libspeex/os_support.h **** 
 127:STM32F10x_Speex_Lib/libspeex/os_support.h **** #ifndef OVERRIDE_SPEEX_WARNING_INT
 128:STM32F10x_Speex_Lib/libspeex/os_support.h **** static inline void speex_warning_int(const char *str, int val)
 129:STM32F10x_Speex_Lib/libspeex/os_support.h **** {
 476              		.loc 2 129 0
ARM GAS  /var/folders/kh/x4vltyy52lbg7p4pcyglc5080000gp/T//ccuucmVt.s 			page 14


 477              		.cfi_startproc
 478              		@ args = 0, pretend = 0, frame = 8
 479              		@ frame_needed = 1, uses_anonymous_args = 0
 480              		@ link register save eliminated.
 481 0000 80B4     		push	{r7}
 482              	.LCFI37:
 483              		.cfi_def_cfa_offset 4
 484              		.cfi_offset 7, -4
 485 0002 83B0     		sub	sp, sp, #12
 486              	.LCFI38:
 487              		.cfi_def_cfa_offset 16
 488 0004 00AF     		add	r7, sp, #0
 489              	.LCFI39:
 490              		.cfi_def_cfa_register 7
 491 0006 7860     		str	r0, [r7, #4]
 492 0008 3960     		str	r1, [r7]
 130:STM32F10x_Speex_Lib/libspeex/os_support.h **** #ifndef DISABLE_WARNINGS
 131:STM32F10x_Speex_Lib/libspeex/os_support.h ****    fprintf (stderr, "warning: %s %d\n", str, val);
 132:STM32F10x_Speex_Lib/libspeex/os_support.h **** #endif
 133:STM32F10x_Speex_Lib/libspeex/os_support.h **** }
 493              		.loc 2 133 0
 494 000a 00BF     		nop
 495 000c 0C37     		adds	r7, r7, #12
 496              	.LCFI40:
 497              		.cfi_def_cfa_offset 4
 498 000e BD46     		mov	sp, r7
 499              	.LCFI41:
 500              		.cfi_def_cfa_register 13
 501              		@ sp needed
 502 0010 80BC     		pop	{r7}
 503              	.LCFI42:
 504              		.cfi_restore 7
 505              		.cfi_def_cfa_offset 0
 506 0012 7047     		bx	lr
 507              		.cfi_endproc
 508              	.LFE19:
 510              		.section	.text.speex_notify,"ax",%progbits
 511              		.align	2
 512              		.thumb
 513              		.thumb_func
 515              	speex_notify:
 516              	.LFB20:
 134:STM32F10x_Speex_Lib/libspeex/os_support.h **** #endif
 135:STM32F10x_Speex_Lib/libspeex/os_support.h **** 
 136:STM32F10x_Speex_Lib/libspeex/os_support.h **** #ifndef OVERRIDE_SPEEX_NOTIFY
 137:STM32F10x_Speex_Lib/libspeex/os_support.h **** static inline void speex_notify(const char *str)
 138:STM32F10x_Speex_Lib/libspeex/os_support.h **** {
 517              		.loc 2 138 0
 518              		.cfi_startproc
 519              		@ args = 0, pretend = 0, frame = 8
 520              		@ frame_needed = 1, uses_anonymous_args = 0
 521              		@ link register save eliminated.
 522 0000 80B4     		push	{r7}
 523              	.LCFI43:
 524              		.cfi_def_cfa_offset 4
 525              		.cfi_offset 7, -4
 526 0002 83B0     		sub	sp, sp, #12
ARM GAS  /var/folders/kh/x4vltyy52lbg7p4pcyglc5080000gp/T//ccuucmVt.s 			page 15


 527              	.LCFI44:
 528              		.cfi_def_cfa_offset 16
 529 0004 00AF     		add	r7, sp, #0
 530              	.LCFI45:
 531              		.cfi_def_cfa_register 7
 532 0006 7860     		str	r0, [r7, #4]
 139:STM32F10x_Speex_Lib/libspeex/os_support.h **** #ifndef DISABLE_NOTIFICATIONS
 140:STM32F10x_Speex_Lib/libspeex/os_support.h ****    fprintf (stderr, "notification: %s\n", str);
 141:STM32F10x_Speex_Lib/libspeex/os_support.h **** #endif
 142:STM32F10x_Speex_Lib/libspeex/os_support.h **** }
 533              		.loc 2 142 0
 534 0008 00BF     		nop
 535 000a 0C37     		adds	r7, r7, #12
 536              	.LCFI46:
 537              		.cfi_def_cfa_offset 4
 538 000c BD46     		mov	sp, r7
 539              	.LCFI47:
 540              		.cfi_def_cfa_register 13
 541              		@ sp needed
 542 000e 80BC     		pop	{r7}
 543              	.LCFI48:
 544              		.cfi_restore 7
 545              		.cfi_def_cfa_offset 0
 546 0010 7047     		bx	lr
 547              		.cfi_endproc
 548              	.LFE20:
 550              		.global	ol_gain_table
 551 0012 00BF     		.section	.rodata.ol_gain_table,"a",%progbits
 552              		.align	2
 555              	ol_gain_table:
 556 0000 D4490000 		.word	18900
 557 0004 3E620000 		.word	25150
 558 0008 BC820000 		.word	33468
 559 000c F8AD0000 		.word	44536
 560 0010 81E70000 		.word	59265
 561 0014 11340100 		.word	78865
 562 0018 F2990100 		.word	104946
 563 001c 85210200 		.word	139653
 564 0020 EED50200 		.word	185838
 565 0024 01C60300 		.word	247297
 566 0028 79050500 		.word	329081
 567 002c 99AE0600 		.word	437913
 568 0030 50E40800 		.word	582736
 569 0034 1ED50B00 		.word	775454
 570 0038 E2BE0F00 		.word	1031906
 571 003c F1F31400 		.word	1373169
 572 0040 DDE11B00 		.word	1827293
 573 0044 711A2500 		.word	2431601
 574 0048 B15F3100 		.word	3235761
 575 004c CBB34100 		.word	4305867
 576 0050 4E6E5700 		.word	5729870
 577 0054 68587400 		.word	7624808
 578 0058 79D29A00 		.word	10146425
 579 005c 1306CE00 		.word	13501971
 580 0060 86281201 		.word	17967238
 581 0064 66D36C01 		.word	23909222
 582 0068 667AE501 		.word	31816294
ARM GAS  /var/folders/kh/x4vltyy52lbg7p4pcyglc5080000gp/T//ccuucmVt.s 			page 16


 583 006c 1A088602 		.word	42338330
 584 0070 A4AE5B03 		.word	56340132
 585 0074 55FD7704 		.word	74972501
 586 0078 2652F205 		.word	99766822
 587 007c 5FC5E907 		.word	132760927
 588              		.global	exc_gain_quant_scal3_bound
 589              		.section	.rodata.exc_gain_quant_scal3_bound,"a",%progbits
 590              		.align	2
 593              	exc_gain_quant_scal3_bound:
 594 0000 3107     		.short	1841
 595 0002 2B0F     		.short	3883
 596 0004 A317     		.short	6051
 597 0006 7E1F     		.short	8062
 598 0008 CC28     		.short	10444
 599 000a 0C35     		.short	13580
 600 000c 8048     		.short	18560
 601              		.global	exc_gain_quant_scal3
 602              		.section	.rodata.exc_gain_quant_scal3,"a",%progbits
 603              		.align	2
 606              	exc_gain_quant_scal3:
 607 0000 EA03     		.short	1002
 608 0002 780A     		.short	2680
 609 0004 DE13     		.short	5086
 610 0006 681B     		.short	7016
 611 0008 9423     		.short	9108
 612 000a 052E     		.short	11781
 613 000c 143C     		.short	15380
 614 000e EC54     		.short	21740
 615              		.global	exc_gain_quant_scal1_bound
 616              		.section	.rodata.exc_gain_quant_scal1_bound,"a",%progbits
 617              		.align	2
 620              	exc_gain_quant_scal1_bound:
 621 0000 3138     		.short	14385
 622              		.global	exc_gain_quant_scal1
 623              		.section	.rodata.exc_gain_quant_scal1,"a",%progbits
 624              		.align	2
 627              	exc_gain_quant_scal1:
 628 0000 1A2D     		.short	11546
 629 0002 4843     		.short	17224
 630              		.section	.text.nb_encoder_init,"ax",%progbits
 631              		.align	2
 632              		.global	nb_encoder_init
 633              		.thumb
 634              		.thumb_func
 636              	nb_encoder_init:
 637              	.LFB21:
 638              		.file 3 "STM32F10x_Speex_Lib/STM32/libspeex/nb_celp.c"
   1:STM32F10x_Speex_Lib/STM32/libspeex/nb_celp.c **** /* Copyright (C) 2002-2006 Jean-Marc Valin 
   2:STM32F10x_Speex_Lib/STM32/libspeex/nb_celp.c ****    File: nb_celp.c
   3:STM32F10x_Speex_Lib/STM32/libspeex/nb_celp.c **** 
   4:STM32F10x_Speex_Lib/STM32/libspeex/nb_celp.c ****    Redistribution and use in source and binary forms, with or without
   5:STM32F10x_Speex_Lib/STM32/libspeex/nb_celp.c ****    modification, are permitted provided that the following conditions
   6:STM32F10x_Speex_Lib/STM32/libspeex/nb_celp.c ****    are met:
   7:STM32F10x_Speex_Lib/STM32/libspeex/nb_celp.c ****    
   8:STM32F10x_Speex_Lib/STM32/libspeex/nb_celp.c ****    - Redistributions of source code must retain the above copyright
   9:STM32F10x_Speex_Lib/STM32/libspeex/nb_celp.c ****    notice, this list of conditions and the following disclaimer.
  10:STM32F10x_Speex_Lib/STM32/libspeex/nb_celp.c ****    
ARM GAS  /var/folders/kh/x4vltyy52lbg7p4pcyglc5080000gp/T//ccuucmVt.s 			page 17


  11:STM32F10x_Speex_Lib/STM32/libspeex/nb_celp.c ****    - Redistributions in binary form must reproduce the above copyright
  12:STM32F10x_Speex_Lib/STM32/libspeex/nb_celp.c ****    notice, this list of conditions and the following disclaimer in the
  13:STM32F10x_Speex_Lib/STM32/libspeex/nb_celp.c ****    documentation and/or other materials provided with the distribution.
  14:STM32F10x_Speex_Lib/STM32/libspeex/nb_celp.c ****    
  15:STM32F10x_Speex_Lib/STM32/libspeex/nb_celp.c ****    - Neither the name of the Xiph.org Foundation nor the names of its
  16:STM32F10x_Speex_Lib/STM32/libspeex/nb_celp.c ****    contributors may be used to endorse or promote products derived from
  17:STM32F10x_Speex_Lib/STM32/libspeex/nb_celp.c ****    this software without specific prior written permission.
  18:STM32F10x_Speex_Lib/STM32/libspeex/nb_celp.c ****    
  19:STM32F10x_Speex_Lib/STM32/libspeex/nb_celp.c ****    THIS SOFTWARE IS PROVIDED BY THE COPYRIGHT HOLDERS AND CONTRIBUTORS
  20:STM32F10x_Speex_Lib/STM32/libspeex/nb_celp.c ****    ``AS IS'' AND ANY EXPRESS OR IMPLIED WARRANTIES, INCLUDING, BUT NOT
  21:STM32F10x_Speex_Lib/STM32/libspeex/nb_celp.c ****    LIMITED TO, THE IMPLIED WARRANTIES OF MERCHANTABILITY AND FITNESS FOR
  22:STM32F10x_Speex_Lib/STM32/libspeex/nb_celp.c ****    A PARTICULAR PURPOSE ARE DISCLAIMED.  IN NO EVENT SHALL THE FOUNDATION OR
  23:STM32F10x_Speex_Lib/STM32/libspeex/nb_celp.c ****    CONTRIBUTORS BE LIABLE FOR ANY DIRECT, INDIRECT, INCIDENTAL, SPECIAL,
  24:STM32F10x_Speex_Lib/STM32/libspeex/nb_celp.c ****    EXEMPLARY, OR CONSEQUENTIAL DAMAGES (INCLUDING, BUT NOT LIMITED TO,
  25:STM32F10x_Speex_Lib/STM32/libspeex/nb_celp.c ****    PROCUREMENT OF SUBSTITUTE GOODS OR SERVICES; LOSS OF USE, DATA, OR
  26:STM32F10x_Speex_Lib/STM32/libspeex/nb_celp.c ****    PROFITS; OR BUSINESS INTERRUPTION) HOWEVER CAUSED AND ON ANY THEORY OF
  27:STM32F10x_Speex_Lib/STM32/libspeex/nb_celp.c ****    LIABILITY, WHETHER IN CONTRACT, STRICT LIABILITY, OR TORT (INCLUDING
  28:STM32F10x_Speex_Lib/STM32/libspeex/nb_celp.c ****    NEGLIGENCE OR OTHERWISE) ARISING IN ANY WAY OUT OF THE USE OF THIS
  29:STM32F10x_Speex_Lib/STM32/libspeex/nb_celp.c ****    SOFTWARE, EVEN IF ADVISED OF THE POSSIBILITY OF SUCH DAMAGE.
  30:STM32F10x_Speex_Lib/STM32/libspeex/nb_celp.c **** */
  31:STM32F10x_Speex_Lib/STM32/libspeex/nb_celp.c **** 
  32:STM32F10x_Speex_Lib/STM32/libspeex/nb_celp.c **** // #ifdef HAVE_CONFIG_H
  33:STM32F10x_Speex_Lib/STM32/libspeex/nb_celp.c **** #include "config.h"
  34:STM32F10x_Speex_Lib/STM32/libspeex/nb_celp.c **** // #endif
  35:STM32F10x_Speex_Lib/STM32/libspeex/nb_celp.c **** 
  36:STM32F10x_Speex_Lib/STM32/libspeex/nb_celp.c **** #include <math.h>
  37:STM32F10x_Speex_Lib/STM32/libspeex/nb_celp.c **** #include "nb_celp.h"
  38:STM32F10x_Speex_Lib/STM32/libspeex/nb_celp.c **** #include "lpc.h"
  39:STM32F10x_Speex_Lib/STM32/libspeex/nb_celp.c **** #include "lsp.h"
  40:STM32F10x_Speex_Lib/STM32/libspeex/nb_celp.c **** #include "ltp.h"
  41:STM32F10x_Speex_Lib/STM32/libspeex/nb_celp.c **** #include "quant_lsp.h"
  42:STM32F10x_Speex_Lib/STM32/libspeex/nb_celp.c **** #include "cb_search.h"
  43:STM32F10x_Speex_Lib/STM32/libspeex/nb_celp.c **** #include "filters.h"
  44:STM32F10x_Speex_Lib/STM32/libspeex/nb_celp.c **** #include "stack_alloc.h"
  45:STM32F10x_Speex_Lib/STM32/libspeex/nb_celp.c **** #include "vq.h"
  46:STM32F10x_Speex_Lib/STM32/libspeex/nb_celp.c **** #include <speex/speex_bits.h>
  47:STM32F10x_Speex_Lib/STM32/libspeex/nb_celp.c **** #include "vbr.h"
  48:STM32F10x_Speex_Lib/STM32/libspeex/nb_celp.c **** #include "arch.h"
  49:STM32F10x_Speex_Lib/STM32/libspeex/nb_celp.c **** #include "math_approx.h"
  50:STM32F10x_Speex_Lib/STM32/libspeex/nb_celp.c **** #include "os_support.h"
  51:STM32F10x_Speex_Lib/STM32/libspeex/nb_celp.c **** #include <speex/speex_callbacks.h>
  52:STM32F10x_Speex_Lib/STM32/libspeex/nb_celp.c **** 
  53:STM32F10x_Speex_Lib/STM32/libspeex/nb_celp.c **** #ifdef VORBIS_PSYCHO
  54:STM32F10x_Speex_Lib/STM32/libspeex/nb_celp.c **** #include "vorbis_psy.h"
  55:STM32F10x_Speex_Lib/STM32/libspeex/nb_celp.c **** #endif
  56:STM32F10x_Speex_Lib/STM32/libspeex/nb_celp.c **** 
  57:STM32F10x_Speex_Lib/STM32/libspeex/nb_celp.c **** #ifndef M_PI
  58:STM32F10x_Speex_Lib/STM32/libspeex/nb_celp.c **** #define M_PI           3.14159265358979323846  /* pi */
  59:STM32F10x_Speex_Lib/STM32/libspeex/nb_celp.c **** #endif
  60:STM32F10x_Speex_Lib/STM32/libspeex/nb_celp.c **** 
  61:STM32F10x_Speex_Lib/STM32/libspeex/nb_celp.c **** #ifndef NULL
  62:STM32F10x_Speex_Lib/STM32/libspeex/nb_celp.c **** #define NULL 0
  63:STM32F10x_Speex_Lib/STM32/libspeex/nb_celp.c **** #endif
  64:STM32F10x_Speex_Lib/STM32/libspeex/nb_celp.c **** 
  65:STM32F10x_Speex_Lib/STM32/libspeex/nb_celp.c **** #define SUBMODE(x) st->submodes[st->submodeID]->x
  66:STM32F10x_Speex_Lib/STM32/libspeex/nb_celp.c **** 
  67:STM32F10x_Speex_Lib/STM32/libspeex/nb_celp.c **** /* Default size for the encoder and decoder stack (can be changed at compile time).
ARM GAS  /var/folders/kh/x4vltyy52lbg7p4pcyglc5080000gp/T//ccuucmVt.s 			page 18


  68:STM32F10x_Speex_Lib/STM32/libspeex/nb_celp.c ****    This does not apply when using variable-size arrays or alloca. */
  69:STM32F10x_Speex_Lib/STM32/libspeex/nb_celp.c **** #ifndef NB_ENC_STACK
  70:STM32F10x_Speex_Lib/STM32/libspeex/nb_celp.c **** #define NB_ENC_STACK (8000*sizeof(spx_sig_t))
  71:STM32F10x_Speex_Lib/STM32/libspeex/nb_celp.c **** #endif
  72:STM32F10x_Speex_Lib/STM32/libspeex/nb_celp.c **** 
  73:STM32F10x_Speex_Lib/STM32/libspeex/nb_celp.c **** #ifndef NB_DEC_STACK
  74:STM32F10x_Speex_Lib/STM32/libspeex/nb_celp.c **** #define NB_DEC_STACK (4000*sizeof(spx_sig_t))
  75:STM32F10x_Speex_Lib/STM32/libspeex/nb_celp.c **** #endif
  76:STM32F10x_Speex_Lib/STM32/libspeex/nb_celp.c **** 
  77:STM32F10x_Speex_Lib/STM32/libspeex/nb_celp.c **** 
  78:STM32F10x_Speex_Lib/STM32/libspeex/nb_celp.c **** #ifdef FIXED_POINT
  79:STM32F10x_Speex_Lib/STM32/libspeex/nb_celp.c **** const spx_word32_t ol_gain_table[32]={18900, 25150, 33468, 44536, 59265, 78865, 104946, 139653, 185
  80:STM32F10x_Speex_Lib/STM32/libspeex/nb_celp.c **** const spx_word16_t exc_gain_quant_scal3_bound[7]={1841, 3883, 6051, 8062, 10444, 13580, 18560};
  81:STM32F10x_Speex_Lib/STM32/libspeex/nb_celp.c **** const spx_word16_t exc_gain_quant_scal3[8]={1002, 2680, 5086, 7016, 9108, 11781, 15380, 21740};
  82:STM32F10x_Speex_Lib/STM32/libspeex/nb_celp.c **** const spx_word16_t exc_gain_quant_scal1_bound[1]={14385};
  83:STM32F10x_Speex_Lib/STM32/libspeex/nb_celp.c **** const spx_word16_t exc_gain_quant_scal1[2]={11546, 17224};
  84:STM32F10x_Speex_Lib/STM32/libspeex/nb_celp.c **** 
  85:STM32F10x_Speex_Lib/STM32/libspeex/nb_celp.c **** #define LSP_MARGIN 16
  86:STM32F10x_Speex_Lib/STM32/libspeex/nb_celp.c **** #define LSP_DELTA1 6553
  87:STM32F10x_Speex_Lib/STM32/libspeex/nb_celp.c **** #define LSP_DELTA2 1638
  88:STM32F10x_Speex_Lib/STM32/libspeex/nb_celp.c **** 
  89:STM32F10x_Speex_Lib/STM32/libspeex/nb_celp.c **** #else
  90:STM32F10x_Speex_Lib/STM32/libspeex/nb_celp.c **** 
  91:STM32F10x_Speex_Lib/STM32/libspeex/nb_celp.c **** const float exc_gain_quant_scal3_bound[7]={0.112338f, 0.236980f, 0.369316f, 0.492054f, 0.637471f, 0
  92:STM32F10x_Speex_Lib/STM32/libspeex/nb_celp.c **** const float exc_gain_quant_scal3[8]={0.061130f, 0.163546f, 0.310413f, 0.428220f, 0.555887f, 0.71905
  93:STM32F10x_Speex_Lib/STM32/libspeex/nb_celp.c **** const float exc_gain_quant_scal1_bound[1]={0.87798f};
  94:STM32F10x_Speex_Lib/STM32/libspeex/nb_celp.c **** const float exc_gain_quant_scal1[2]={0.70469f, 1.05127f};
  95:STM32F10x_Speex_Lib/STM32/libspeex/nb_celp.c **** 
  96:STM32F10x_Speex_Lib/STM32/libspeex/nb_celp.c **** #define LSP_MARGIN .002f
  97:STM32F10x_Speex_Lib/STM32/libspeex/nb_celp.c **** #define LSP_DELTA1 .2f
  98:STM32F10x_Speex_Lib/STM32/libspeex/nb_celp.c **** #define LSP_DELTA2 .05f
  99:STM32F10x_Speex_Lib/STM32/libspeex/nb_celp.c **** 
 100:STM32F10x_Speex_Lib/STM32/libspeex/nb_celp.c **** #endif
 101:STM32F10x_Speex_Lib/STM32/libspeex/nb_celp.c **** 
 102:STM32F10x_Speex_Lib/STM32/libspeex/nb_celp.c **** #ifdef VORBIS_PSYCHO
 103:STM32F10x_Speex_Lib/STM32/libspeex/nb_celp.c **** #define EXTRA_BUFFER 100
 104:STM32F10x_Speex_Lib/STM32/libspeex/nb_celp.c **** #else
 105:STM32F10x_Speex_Lib/STM32/libspeex/nb_celp.c **** #define EXTRA_BUFFER 0
 106:STM32F10x_Speex_Lib/STM32/libspeex/nb_celp.c **** #endif
 107:STM32F10x_Speex_Lib/STM32/libspeex/nb_celp.c **** 
 108:STM32F10x_Speex_Lib/STM32/libspeex/nb_celp.c **** 
 109:STM32F10x_Speex_Lib/STM32/libspeex/nb_celp.c **** #define sqr(x) ((x)*(x))
 110:STM32F10x_Speex_Lib/STM32/libspeex/nb_celp.c **** 
 111:STM32F10x_Speex_Lib/STM32/libspeex/nb_celp.c **** extern const spx_word16_t lag_window[];
 112:STM32F10x_Speex_Lib/STM32/libspeex/nb_celp.c **** extern const spx_word16_t lpc_window[];
 113:STM32F10x_Speex_Lib/STM32/libspeex/nb_celp.c **** 
 114:STM32F10x_Speex_Lib/STM32/libspeex/nb_celp.c **** void *nb_encoder_init(const SpeexMode *m)
 115:STM32F10x_Speex_Lib/STM32/libspeex/nb_celp.c **** {
 639              		.loc 3 115 0
 640              		.cfi_startproc
 641              		@ args = 0, pretend = 0, frame = 24
 642              		@ frame_needed = 1, uses_anonymous_args = 0
 643 0000 80B5     		push	{r7, lr}
 644              	.LCFI49:
 645              		.cfi_def_cfa_offset 8
 646              		.cfi_offset 7, -8
 647              		.cfi_offset 14, -4
ARM GAS  /var/folders/kh/x4vltyy52lbg7p4pcyglc5080000gp/T//ccuucmVt.s 			page 19


 648 0002 86B0     		sub	sp, sp, #24
 649              	.LCFI50:
 650              		.cfi_def_cfa_offset 32
 651 0004 00AF     		add	r7, sp, #0
 652              	.LCFI51:
 653              		.cfi_def_cfa_register 7
 654 0006 7860     		str	r0, [r7, #4]
 116:STM32F10x_Speex_Lib/STM32/libspeex/nb_celp.c ****    EncState *st;
 117:STM32F10x_Speex_Lib/STM32/libspeex/nb_celp.c ****    const SpeexNBMode *mode;
 118:STM32F10x_Speex_Lib/STM32/libspeex/nb_celp.c ****    int i;
 119:STM32F10x_Speex_Lib/STM32/libspeex/nb_celp.c **** 
 120:STM32F10x_Speex_Lib/STM32/libspeex/nb_celp.c ****    mode=(const SpeexNBMode *)m->mode;
 655              		.loc 3 120 0
 656 0008 7B68     		ldr	r3, [r7, #4]
 657 000a 1B68     		ldr	r3, [r3]
 658 000c 3B61     		str	r3, [r7, #16]
 121:STM32F10x_Speex_Lib/STM32/libspeex/nb_celp.c ****    st = (EncState*)speex_alloc(sizeof(EncState));
 659              		.loc 3 121 0
 660 000e B020     		movs	r0, #176
 661 0010 FFF7FEFF 		bl	speex_alloc
 662 0014 F860     		str	r0, [r7, #12]
 122:STM32F10x_Speex_Lib/STM32/libspeex/nb_celp.c ****    if (!st)
 663              		.loc 3 122 0
 664 0016 FB68     		ldr	r3, [r7, #12]
 665 0018 002B     		cmp	r3, #0
 666 001a 01D1     		bne	.L26
 123:STM32F10x_Speex_Lib/STM32/libspeex/nb_celp.c ****       return NULL;
 667              		.loc 3 123 0
 668 001c 0023     		movs	r3, #0
 669 001e 25E1     		b	.L27
 670              	.L26:
 124:STM32F10x_Speex_Lib/STM32/libspeex/nb_celp.c **** #if defined(VAR_ARRAYS) || defined (USE_ALLOCA)
 125:STM32F10x_Speex_Lib/STM32/libspeex/nb_celp.c ****    st->stack = NULL;
 126:STM32F10x_Speex_Lib/STM32/libspeex/nb_celp.c **** #else
 127:STM32F10x_Speex_Lib/STM32/libspeex/nb_celp.c ****    st->stack = (char*)speex_alloc_scratch(NB_ENC_STACK);
 671              		.loc 3 127 0
 672 0020 40F6B830 		movw	r0, #3000
 673 0024 FFF7FEFF 		bl	speex_alloc_scratch
 674 0028 0246     		mov	r2, r0
 675 002a FB68     		ldr	r3, [r7, #12]
 676 002c 1A64     		str	r2, [r3, #64]
 128:STM32F10x_Speex_Lib/STM32/libspeex/nb_celp.c **** #endif
 129:STM32F10x_Speex_Lib/STM32/libspeex/nb_celp.c ****    
 130:STM32F10x_Speex_Lib/STM32/libspeex/nb_celp.c ****    st->mode=m;
 677              		.loc 3 130 0
 678 002e FB68     		ldr	r3, [r7, #12]
 679 0030 7A68     		ldr	r2, [r7, #4]
 680 0032 1A60     		str	r2, [r3]
 131:STM32F10x_Speex_Lib/STM32/libspeex/nb_celp.c **** 
 132:STM32F10x_Speex_Lib/STM32/libspeex/nb_celp.c ****    st->frameSize = mode->frameSize;
 681              		.loc 3 132 0
 682 0034 3B69     		ldr	r3, [r7, #16]
 683 0036 1A68     		ldr	r2, [r3]
 684 0038 FB68     		ldr	r3, [r7, #12]
 685 003a 9A60     		str	r2, [r3, #8]
 133:STM32F10x_Speex_Lib/STM32/libspeex/nb_celp.c ****    st->nbSubframes=mode->frameSize/mode->subframeSize;
 686              		.loc 3 133 0
ARM GAS  /var/folders/kh/x4vltyy52lbg7p4pcyglc5080000gp/T//ccuucmVt.s 			page 20


 687 003c 3B69     		ldr	r3, [r7, #16]
 688 003e 1A68     		ldr	r2, [r3]
 689 0040 3B69     		ldr	r3, [r7, #16]
 690 0042 5B68     		ldr	r3, [r3, #4]
 691 0044 92FBF3F2 		sdiv	r2, r2, r3
 692 0048 FB68     		ldr	r3, [r7, #12]
 693 004a 1A61     		str	r2, [r3, #16]
 134:STM32F10x_Speex_Lib/STM32/libspeex/nb_celp.c ****    st->subframeSize=mode->subframeSize;
 694              		.loc 3 134 0
 695 004c 3B69     		ldr	r3, [r7, #16]
 696 004e 5A68     		ldr	r2, [r3, #4]
 697 0050 FB68     		ldr	r3, [r7, #12]
 698 0052 DA60     		str	r2, [r3, #12]
 135:STM32F10x_Speex_Lib/STM32/libspeex/nb_celp.c ****    st->windowSize = st->frameSize+st->subframeSize;
 699              		.loc 3 135 0
 700 0054 FB68     		ldr	r3, [r7, #12]
 701 0056 9A68     		ldr	r2, [r3, #8]
 702 0058 FB68     		ldr	r3, [r7, #12]
 703 005a DB68     		ldr	r3, [r3, #12]
 704 005c 1A44     		add	r2, r2, r3
 705 005e FB68     		ldr	r3, [r7, #12]
 706 0060 5A61     		str	r2, [r3, #20]
 136:STM32F10x_Speex_Lib/STM32/libspeex/nb_celp.c ****    st->lpcSize = mode->lpcSize;
 707              		.loc 3 136 0
 708 0062 3B69     		ldr	r3, [r7, #16]
 709 0064 9A68     		ldr	r2, [r3, #8]
 710 0066 FB68     		ldr	r3, [r7, #12]
 711 0068 9A61     		str	r2, [r3, #24]
 137:STM32F10x_Speex_Lib/STM32/libspeex/nb_celp.c ****    st->gamma1=mode->gamma1;
 712              		.loc 3 137 0
 713 006a 3B69     		ldr	r3, [r7, #16]
 714 006c B3F91420 		ldrsh	r2, [r3, #20]
 715 0070 FB68     		ldr	r3, [r7, #12]
 716 0072 1A87     		strh	r2, [r3, #56]	@ movhi
 138:STM32F10x_Speex_Lib/STM32/libspeex/nb_celp.c ****    st->gamma2=mode->gamma2;
 717              		.loc 3 138 0
 718 0074 3B69     		ldr	r3, [r7, #16]
 719 0076 B3F91620 		ldrsh	r2, [r3, #22]
 720 007a FB68     		ldr	r3, [r7, #12]
 721 007c 5A87     		strh	r2, [r3, #58]	@ movhi
 139:STM32F10x_Speex_Lib/STM32/libspeex/nb_celp.c ****    st->min_pitch=mode->pitchStart;
 722              		.loc 3 139 0
 723 007e 3B69     		ldr	r3, [r7, #16]
 724 0080 DA68     		ldr	r2, [r3, #12]
 725 0082 FB68     		ldr	r3, [r7, #12]
 726 0084 DA61     		str	r2, [r3, #28]
 140:STM32F10x_Speex_Lib/STM32/libspeex/nb_celp.c ****    st->max_pitch=mode->pitchEnd;
 727              		.loc 3 140 0
 728 0086 3B69     		ldr	r3, [r7, #16]
 729 0088 1A69     		ldr	r2, [r3, #16]
 730 008a FB68     		ldr	r3, [r7, #12]
 731 008c 1A62     		str	r2, [r3, #32]
 141:STM32F10x_Speex_Lib/STM32/libspeex/nb_celp.c ****    st->lpc_floor = mode->lpc_floor;
 732              		.loc 3 141 0
 733 008e 3B69     		ldr	r3, [r7, #16]
 734 0090 B3F91820 		ldrsh	r2, [r3, #24]
 735 0094 FB68     		ldr	r3, [r7, #12]
ARM GAS  /var/folders/kh/x4vltyy52lbg7p4pcyglc5080000gp/T//ccuucmVt.s 			page 21


 736 0096 9A87     		strh	r2, [r3, #60]	@ movhi
 142:STM32F10x_Speex_Lib/STM32/libspeex/nb_celp.c ****   
 143:STM32F10x_Speex_Lib/STM32/libspeex/nb_celp.c ****    st->submodes=mode->submodes;
 737              		.loc 3 143 0
 738 0098 3B69     		ldr	r3, [r7, #16]
 739 009a 03F11C02 		add	r2, r3, #28
 740 009e FB68     		ldr	r3, [r7, #12]
 741 00a0 C3F89C20 		str	r2, [r3, #156]
 144:STM32F10x_Speex_Lib/STM32/libspeex/nb_celp.c ****    st->submodeID=st->submodeSelect=mode->defaultSubmode;
 742              		.loc 3 144 0
 743 00a4 3B69     		ldr	r3, [r7, #16]
 744 00a6 DA6D     		ldr	r2, [r3, #92]
 745 00a8 FB68     		ldr	r3, [r7, #12]
 746 00aa C3F8A420 		str	r2, [r3, #164]
 747 00ae FB68     		ldr	r3, [r7, #12]
 748 00b0 D3F8A420 		ldr	r2, [r3, #164]
 749 00b4 FB68     		ldr	r3, [r7, #12]
 750 00b6 C3F8A020 		str	r2, [r3, #160]
 145:STM32F10x_Speex_Lib/STM32/libspeex/nb_celp.c ****    st->bounded_pitch = 1;
 751              		.loc 3 145 0
 752 00ba FB68     		ldr	r3, [r7, #12]
 753 00bc 0122     		movs	r2, #1
 754 00be 9A62     		str	r2, [r3, #40]
 146:STM32F10x_Speex_Lib/STM32/libspeex/nb_celp.c **** 
 147:STM32F10x_Speex_Lib/STM32/libspeex/nb_celp.c ****    st->encode_submode = 1;
 755              		.loc 3 147 0
 756 00c0 FB68     		ldr	r3, [r7, #12]
 757 00c2 0122     		movs	r2, #1
 758 00c4 C3F89820 		str	r2, [r3, #152]
 148:STM32F10x_Speex_Lib/STM32/libspeex/nb_celp.c **** 
 149:STM32F10x_Speex_Lib/STM32/libspeex/nb_celp.c **** #ifdef VORBIS_PSYCHO
 150:STM32F10x_Speex_Lib/STM32/libspeex/nb_celp.c ****    st->psy = vorbis_psy_init(8000, 256);
 151:STM32F10x_Speex_Lib/STM32/libspeex/nb_celp.c ****    st->curve = (float*)speex_alloc(128*sizeof(float));
 152:STM32F10x_Speex_Lib/STM32/libspeex/nb_celp.c ****    st->old_curve = (float*)speex_alloc(128*sizeof(float));
 153:STM32F10x_Speex_Lib/STM32/libspeex/nb_celp.c ****    st->psy_window = (float*)speex_alloc(256*sizeof(float));
 154:STM32F10x_Speex_Lib/STM32/libspeex/nb_celp.c **** #endif
 155:STM32F10x_Speex_Lib/STM32/libspeex/nb_celp.c **** 
 156:STM32F10x_Speex_Lib/STM32/libspeex/nb_celp.c ****    st->cumul_gain = 1024;
 759              		.loc 3 156 0
 760 00c8 FB68     		ldr	r3, [r7, #12]
 761 00ca 4FF48062 		mov	r2, #1024
 762 00ce 5A62     		str	r2, [r3, #36]
 157:STM32F10x_Speex_Lib/STM32/libspeex/nb_celp.c **** 
 158:STM32F10x_Speex_Lib/STM32/libspeex/nb_celp.c ****    /* Allocating input buffer */
 159:STM32F10x_Speex_Lib/STM32/libspeex/nb_celp.c ****    st->winBuf = (spx_word16_t*)speex_alloc((st->windowSize-st->frameSize)*sizeof(spx_word16_t));
 763              		.loc 3 159 0
 764 00d0 FB68     		ldr	r3, [r7, #12]
 765 00d2 5A69     		ldr	r2, [r3, #20]
 766 00d4 FB68     		ldr	r3, [r7, #12]
 767 00d6 9B68     		ldr	r3, [r3, #8]
 768 00d8 D31A     		subs	r3, r2, r3
 769 00da 5B00     		lsls	r3, r3, #1
 770 00dc 1846     		mov	r0, r3
 771 00de FFF7FEFF 		bl	speex_alloc
 772 00e2 0246     		mov	r2, r0
 773 00e4 FB68     		ldr	r3, [r7, #12]
 774 00e6 5A64     		str	r2, [r3, #68]
ARM GAS  /var/folders/kh/x4vltyy52lbg7p4pcyglc5080000gp/T//ccuucmVt.s 			page 22


 160:STM32F10x_Speex_Lib/STM32/libspeex/nb_celp.c ****    /* Allocating excitation buffer */
 161:STM32F10x_Speex_Lib/STM32/libspeex/nb_celp.c ****    st->excBuf = (spx_word16_t*)speex_alloc((mode->frameSize+mode->pitchEnd+2)*sizeof(spx_word16_t))
 775              		.loc 3 161 0
 776 00e8 3B69     		ldr	r3, [r7, #16]
 777 00ea 1A68     		ldr	r2, [r3]
 778 00ec 3B69     		ldr	r3, [r7, #16]
 779 00ee 1B69     		ldr	r3, [r3, #16]
 780 00f0 1344     		add	r3, r3, r2
 781 00f2 0233     		adds	r3, r3, #2
 782 00f4 5B00     		lsls	r3, r3, #1
 783 00f6 1846     		mov	r0, r3
 784 00f8 FFF7FEFF 		bl	speex_alloc
 785 00fc 0246     		mov	r2, r0
 786 00fe FB68     		ldr	r3, [r7, #12]
 787 0100 9A64     		str	r2, [r3, #72]
 162:STM32F10x_Speex_Lib/STM32/libspeex/nb_celp.c ****    st->exc = st->excBuf + mode->pitchEnd + 2;
 788              		.loc 3 162 0
 789 0102 FB68     		ldr	r3, [r7, #12]
 790 0104 9A6C     		ldr	r2, [r3, #72]
 791 0106 3B69     		ldr	r3, [r7, #16]
 792 0108 1B69     		ldr	r3, [r3, #16]
 793 010a 0233     		adds	r3, r3, #2
 794 010c 5B00     		lsls	r3, r3, #1
 795 010e 1A44     		add	r2, r2, r3
 796 0110 FB68     		ldr	r3, [r7, #12]
 797 0112 DA64     		str	r2, [r3, #76]
 163:STM32F10x_Speex_Lib/STM32/libspeex/nb_celp.c ****    st->swBuf = (spx_word16_t*)speex_alloc((mode->frameSize+mode->pitchEnd+2)*sizeof(spx_word16_t));
 798              		.loc 3 163 0
 799 0114 3B69     		ldr	r3, [r7, #16]
 800 0116 1A68     		ldr	r2, [r3]
 801 0118 3B69     		ldr	r3, [r7, #16]
 802 011a 1B69     		ldr	r3, [r3, #16]
 803 011c 1344     		add	r3, r3, r2
 804 011e 0233     		adds	r3, r3, #2
 805 0120 5B00     		lsls	r3, r3, #1
 806 0122 1846     		mov	r0, r3
 807 0124 FFF7FEFF 		bl	speex_alloc
 808 0128 0246     		mov	r2, r0
 809 012a FB68     		ldr	r3, [r7, #12]
 810 012c 1A65     		str	r2, [r3, #80]
 164:STM32F10x_Speex_Lib/STM32/libspeex/nb_celp.c ****    st->sw = st->swBuf + mode->pitchEnd + 2;
 811              		.loc 3 164 0
 812 012e FB68     		ldr	r3, [r7, #12]
 813 0130 1A6D     		ldr	r2, [r3, #80]
 814 0132 3B69     		ldr	r3, [r7, #16]
 815 0134 1B69     		ldr	r3, [r3, #16]
 816 0136 0233     		adds	r3, r3, #2
 817 0138 5B00     		lsls	r3, r3, #1
 818 013a 1A44     		add	r2, r2, r3
 819 013c FB68     		ldr	r3, [r7, #12]
 820 013e 5A65     		str	r2, [r3, #84]
 165:STM32F10x_Speex_Lib/STM32/libspeex/nb_celp.c **** 
 166:STM32F10x_Speex_Lib/STM32/libspeex/nb_celp.c ****    st->window= lpc_window;
 821              		.loc 3 166 0
 822 0140 FB68     		ldr	r3, [r7, #12]
 823 0142 4C4A     		ldr	r2, .L30
 824 0144 9A65     		str	r2, [r3, #88]
ARM GAS  /var/folders/kh/x4vltyy52lbg7p4pcyglc5080000gp/T//ccuucmVt.s 			page 23


 167:STM32F10x_Speex_Lib/STM32/libspeex/nb_celp.c ****    
 168:STM32F10x_Speex_Lib/STM32/libspeex/nb_celp.c ****    /* Create the window for autocorrelation (lag-windowing) */
 169:STM32F10x_Speex_Lib/STM32/libspeex/nb_celp.c ****    st->lagWindow = lag_window;
 825              		.loc 3 169 0
 826 0146 FB68     		ldr	r3, [r7, #12]
 827 0148 4B4A     		ldr	r2, .L30+4
 828 014a DA65     		str	r2, [r3, #92]
 170:STM32F10x_Speex_Lib/STM32/libspeex/nb_celp.c **** 
 171:STM32F10x_Speex_Lib/STM32/libspeex/nb_celp.c ****    st->old_lsp = (spx_lsp_t*)speex_alloc((st->lpcSize)*sizeof(spx_lsp_t));
 829              		.loc 3 171 0
 830 014c FB68     		ldr	r3, [r7, #12]
 831 014e 9B69     		ldr	r3, [r3, #24]
 832 0150 5B00     		lsls	r3, r3, #1
 833 0152 1846     		mov	r0, r3
 834 0154 FFF7FEFF 		bl	speex_alloc
 835 0158 0246     		mov	r2, r0
 836 015a FB68     		ldr	r3, [r7, #12]
 837 015c 1A66     		str	r2, [r3, #96]
 172:STM32F10x_Speex_Lib/STM32/libspeex/nb_celp.c ****    st->old_qlsp = (spx_lsp_t*)speex_alloc((st->lpcSize)*sizeof(spx_lsp_t));
 838              		.loc 3 172 0
 839 015e FB68     		ldr	r3, [r7, #12]
 840 0160 9B69     		ldr	r3, [r3, #24]
 841 0162 5B00     		lsls	r3, r3, #1
 842 0164 1846     		mov	r0, r3
 843 0166 FFF7FEFF 		bl	speex_alloc
 844 016a 0246     		mov	r2, r0
 845 016c FB68     		ldr	r3, [r7, #12]
 846 016e 5A66     		str	r2, [r3, #100]
 173:STM32F10x_Speex_Lib/STM32/libspeex/nb_celp.c ****    st->first = 1;
 847              		.loc 3 173 0
 848 0170 FB68     		ldr	r3, [r7, #12]
 849 0172 0122     		movs	r2, #1
 850 0174 5A60     		str	r2, [r3, #4]
 174:STM32F10x_Speex_Lib/STM32/libspeex/nb_celp.c ****    for (i=0;i<st->lpcSize;i++)
 851              		.loc 3 174 0
 852 0176 0023     		movs	r3, #0
 853 0178 7B61     		str	r3, [r7, #20]
 854 017a 18E0     		b	.L28
 855              	.L29:
 175:STM32F10x_Speex_Lib/STM32/libspeex/nb_celp.c ****       st->old_lsp[i]= DIV32(MULT16_16(QCONST16(3.1415927f, LSP_SHIFT), i+1), st->lpcSize+1);
 856              		.loc 3 175 0 discriminator 3
 857 017c FB68     		ldr	r3, [r7, #12]
 858 017e 1A6E     		ldr	r2, [r3, #96]
 859 0180 7B69     		ldr	r3, [r7, #20]
 860 0182 5B00     		lsls	r3, r3, #1
 861 0184 1344     		add	r3, r3, r2
 862 0186 7A69     		ldr	r2, [r7, #20]
 863 0188 92B2     		uxth	r2, r2
 864 018a 0132     		adds	r2, r2, #1
 865 018c 92B2     		uxth	r2, r2
 866 018e 12B2     		sxth	r2, r2
 867 0190 1146     		mov	r1, r2
 868 0192 46F28842 		movw	r2, #25736
 869 0196 02FB01F1 		mul	r1, r2, r1
 870 019a FA68     		ldr	r2, [r7, #12]
 871 019c 9269     		ldr	r2, [r2, #24]
 872 019e 0132     		adds	r2, r2, #1
ARM GAS  /var/folders/kh/x4vltyy52lbg7p4pcyglc5080000gp/T//ccuucmVt.s 			page 24


 873 01a0 91FBF2F2 		sdiv	r2, r1, r2
 874 01a4 12B2     		sxth	r2, r2
 875 01a6 1A80     		strh	r2, [r3]	@ movhi
 174:STM32F10x_Speex_Lib/STM32/libspeex/nb_celp.c ****    for (i=0;i<st->lpcSize;i++)
 876              		.loc 3 174 0 discriminator 3
 877 01a8 7B69     		ldr	r3, [r7, #20]
 878 01aa 0133     		adds	r3, r3, #1
 879 01ac 7B61     		str	r3, [r7, #20]
 880              	.L28:
 174:STM32F10x_Speex_Lib/STM32/libspeex/nb_celp.c ****    for (i=0;i<st->lpcSize;i++)
 881              		.loc 3 174 0 is_stmt 0 discriminator 1
 882 01ae FB68     		ldr	r3, [r7, #12]
 883 01b0 9A69     		ldr	r2, [r3, #24]
 884 01b2 7B69     		ldr	r3, [r7, #20]
 885 01b4 9A42     		cmp	r2, r3
 886 01b6 E1DC     		bgt	.L29
 176:STM32F10x_Speex_Lib/STM32/libspeex/nb_celp.c **** 
 177:STM32F10x_Speex_Lib/STM32/libspeex/nb_celp.c ****    st->mem_sp = (spx_mem_t*)speex_alloc((st->lpcSize)*sizeof(spx_mem_t));
 887              		.loc 3 177 0 is_stmt 1
 888 01b8 FB68     		ldr	r3, [r7, #12]
 889 01ba 9B69     		ldr	r3, [r3, #24]
 890 01bc 9B00     		lsls	r3, r3, #2
 891 01be 1846     		mov	r0, r3
 892 01c0 FFF7FEFF 		bl	speex_alloc
 893 01c4 0246     		mov	r2, r0
 894 01c6 FB68     		ldr	r3, [r7, #12]
 895 01c8 9A66     		str	r2, [r3, #104]
 178:STM32F10x_Speex_Lib/STM32/libspeex/nb_celp.c ****    st->mem_sw = (spx_mem_t*)speex_alloc((st->lpcSize)*sizeof(spx_mem_t));
 896              		.loc 3 178 0
 897 01ca FB68     		ldr	r3, [r7, #12]
 898 01cc 9B69     		ldr	r3, [r3, #24]
 899 01ce 9B00     		lsls	r3, r3, #2
 900 01d0 1846     		mov	r0, r3
 901 01d2 FFF7FEFF 		bl	speex_alloc
 902 01d6 0246     		mov	r2, r0
 903 01d8 FB68     		ldr	r3, [r7, #12]
 904 01da DA66     		str	r2, [r3, #108]
 179:STM32F10x_Speex_Lib/STM32/libspeex/nb_celp.c ****    st->mem_sw_whole = (spx_mem_t*)speex_alloc((st->lpcSize)*sizeof(spx_mem_t));
 905              		.loc 3 179 0
 906 01dc FB68     		ldr	r3, [r7, #12]
 907 01de 9B69     		ldr	r3, [r3, #24]
 908 01e0 9B00     		lsls	r3, r3, #2
 909 01e2 1846     		mov	r0, r3
 910 01e4 FFF7FEFF 		bl	speex_alloc
 911 01e8 0246     		mov	r2, r0
 912 01ea FB68     		ldr	r3, [r7, #12]
 913 01ec 1A67     		str	r2, [r3, #112]
 180:STM32F10x_Speex_Lib/STM32/libspeex/nb_celp.c ****    st->mem_exc = (spx_mem_t*)speex_alloc((st->lpcSize)*sizeof(spx_mem_t));
 914              		.loc 3 180 0
 915 01ee FB68     		ldr	r3, [r7, #12]
 916 01f0 9B69     		ldr	r3, [r3, #24]
 917 01f2 9B00     		lsls	r3, r3, #2
 918 01f4 1846     		mov	r0, r3
 919 01f6 FFF7FEFF 		bl	speex_alloc
 920 01fa 0246     		mov	r2, r0
 921 01fc FB68     		ldr	r3, [r7, #12]
 922 01fe 5A67     		str	r2, [r3, #116]
ARM GAS  /var/folders/kh/x4vltyy52lbg7p4pcyglc5080000gp/T//ccuucmVt.s 			page 25


 181:STM32F10x_Speex_Lib/STM32/libspeex/nb_celp.c ****    st->mem_exc2 = (spx_mem_t*)speex_alloc((st->lpcSize)*sizeof(spx_mem_t));
 923              		.loc 3 181 0
 924 0200 FB68     		ldr	r3, [r7, #12]
 925 0202 9B69     		ldr	r3, [r3, #24]
 926 0204 9B00     		lsls	r3, r3, #2
 927 0206 1846     		mov	r0, r3
 928 0208 FFF7FEFF 		bl	speex_alloc
 929 020c 0246     		mov	r2, r0
 930 020e FB68     		ldr	r3, [r7, #12]
 931 0210 9A67     		str	r2, [r3, #120]
 182:STM32F10x_Speex_Lib/STM32/libspeex/nb_celp.c **** 
 183:STM32F10x_Speex_Lib/STM32/libspeex/nb_celp.c ****    st->pi_gain = (spx_word32_t*)speex_alloc((st->nbSubframes)*sizeof(spx_word32_t));
 932              		.loc 3 183 0
 933 0212 FB68     		ldr	r3, [r7, #12]
 934 0214 1B69     		ldr	r3, [r3, #16]
 935 0216 9B00     		lsls	r3, r3, #2
 936 0218 1846     		mov	r0, r3
 937 021a FFF7FEFF 		bl	speex_alloc
 938 021e 0246     		mov	r2, r0
 939 0220 FB68     		ldr	r3, [r7, #12]
 940 0222 C3F88420 		str	r2, [r3, #132]
 184:STM32F10x_Speex_Lib/STM32/libspeex/nb_celp.c ****    st->innov_rms_save = NULL;
 941              		.loc 3 184 0
 942 0226 FB68     		ldr	r3, [r7, #12]
 943 0228 0022     		movs	r2, #0
 944 022a C3F88820 		str	r2, [r3, #136]
 185:STM32F10x_Speex_Lib/STM32/libspeex/nb_celp.c ****    
 186:STM32F10x_Speex_Lib/STM32/libspeex/nb_celp.c ****    st->pitch = (int*)speex_alloc((st->nbSubframes)*sizeof(int));
 945              		.loc 3 186 0
 946 022e FB68     		ldr	r3, [r7, #12]
 947 0230 1B69     		ldr	r3, [r3, #16]
 948 0232 9B00     		lsls	r3, r3, #2
 949 0234 1846     		mov	r0, r3
 950 0236 FFF7FEFF 		bl	speex_alloc
 951 023a 0246     		mov	r2, r0
 952 023c FB68     		ldr	r3, [r7, #12]
 953 023e 5A63     		str	r2, [r3, #52]
 187:STM32F10x_Speex_Lib/STM32/libspeex/nb_celp.c **** 
 188:STM32F10x_Speex_Lib/STM32/libspeex/nb_celp.c **** #ifndef DISABLE_VBR
 189:STM32F10x_Speex_Lib/STM32/libspeex/nb_celp.c ****    st->vbr = (VBRState*)speex_alloc(sizeof(VBRState));
 190:STM32F10x_Speex_Lib/STM32/libspeex/nb_celp.c ****    vbr_init(st->vbr);
 191:STM32F10x_Speex_Lib/STM32/libspeex/nb_celp.c ****    st->vbr_quality = 8;
 192:STM32F10x_Speex_Lib/STM32/libspeex/nb_celp.c ****    st->vbr_enabled = 0;
 193:STM32F10x_Speex_Lib/STM32/libspeex/nb_celp.c ****    st->vbr_max = 0;
 194:STM32F10x_Speex_Lib/STM32/libspeex/nb_celp.c ****    st->vad_enabled = 0;
 195:STM32F10x_Speex_Lib/STM32/libspeex/nb_celp.c ****    st->dtx_enabled = 0;
 196:STM32F10x_Speex_Lib/STM32/libspeex/nb_celp.c ****    st->dtx_count=0;
 197:STM32F10x_Speex_Lib/STM32/libspeex/nb_celp.c ****    st->abr_enabled = 0;
 198:STM32F10x_Speex_Lib/STM32/libspeex/nb_celp.c ****    st->abr_drift = 0;
 199:STM32F10x_Speex_Lib/STM32/libspeex/nb_celp.c ****    st->abr_drift2 = 0;
 200:STM32F10x_Speex_Lib/STM32/libspeex/nb_celp.c **** #endif /* #ifndef DISABLE_VBR */
 201:STM32F10x_Speex_Lib/STM32/libspeex/nb_celp.c **** 
 202:STM32F10x_Speex_Lib/STM32/libspeex/nb_celp.c ****    st->plc_tuning = 2;
 954              		.loc 3 202 0
 955 0240 FB68     		ldr	r3, [r7, #12]
 956 0242 0222     		movs	r2, #2
 957 0244 C3F89420 		str	r2, [r3, #148]
ARM GAS  /var/folders/kh/x4vltyy52lbg7p4pcyglc5080000gp/T//ccuucmVt.s 			page 26


 203:STM32F10x_Speex_Lib/STM32/libspeex/nb_celp.c ****    st->complexity=2;
 958              		.loc 3 203 0
 959 0248 FB68     		ldr	r3, [r7, #12]
 960 024a 0222     		movs	r2, #2
 961 024c C3F88C20 		str	r2, [r3, #140]
 204:STM32F10x_Speex_Lib/STM32/libspeex/nb_celp.c ****    st->sampling_rate=8000;
 962              		.loc 3 204 0
 963 0250 FB68     		ldr	r3, [r7, #12]
 964 0252 4FF4FA52 		mov	r2, #8000
 965 0256 C3F89020 		str	r2, [r3, #144]
 205:STM32F10x_Speex_Lib/STM32/libspeex/nb_celp.c ****    st->isWideband = 0;
 966              		.loc 3 205 0
 967 025a FB68     		ldr	r3, [r7, #12]
 968 025c 0022     		movs	r2, #0
 969 025e C3F8A820 		str	r2, [r3, #168]
 206:STM32F10x_Speex_Lib/STM32/libspeex/nb_celp.c ****    st->highpass_enabled = 1;
 970              		.loc 3 206 0
 971 0262 FB68     		ldr	r3, [r7, #12]
 972 0264 0122     		movs	r2, #1
 973 0266 C3F8AC20 		str	r2, [r3, #172]
 207:STM32F10x_Speex_Lib/STM32/libspeex/nb_celp.c ****    
 208:STM32F10x_Speex_Lib/STM32/libspeex/nb_celp.c **** #ifdef ENABLE_VALGRIND
 209:STM32F10x_Speex_Lib/STM32/libspeex/nb_celp.c ****    VALGRIND_MAKE_READABLE(st, NB_ENC_STACK);
 210:STM32F10x_Speex_Lib/STM32/libspeex/nb_celp.c **** #endif
 211:STM32F10x_Speex_Lib/STM32/libspeex/nb_celp.c ****    return st;
 974              		.loc 3 211 0
 975 026a FB68     		ldr	r3, [r7, #12]
 976              	.L27:
 212:STM32F10x_Speex_Lib/STM32/libspeex/nb_celp.c **** }
 977              		.loc 3 212 0
 978 026c 1846     		mov	r0, r3
 979 026e 1837     		adds	r7, r7, #24
 980              	.LCFI52:
 981              		.cfi_def_cfa_offset 8
 982 0270 BD46     		mov	sp, r7
 983              	.LCFI53:
 984              		.cfi_def_cfa_register 13
 985              		@ sp needed
 986 0272 80BD     		pop	{r7, pc}
 987              	.L31:
 988              		.align	2
 989              	.L30:
 990 0274 00000000 		.word	lpc_window
 991 0278 00000000 		.word	lag_window
 992              		.cfi_endproc
 993              	.LFE21:
 995              		.section	.text.nb_encoder_destroy,"ax",%progbits
 996              		.align	2
 997              		.global	nb_encoder_destroy
 998              		.thumb
 999              		.thumb_func
 1001              	nb_encoder_destroy:
 1002              	.LFB22:
 213:STM32F10x_Speex_Lib/STM32/libspeex/nb_celp.c **** 
 214:STM32F10x_Speex_Lib/STM32/libspeex/nb_celp.c **** void nb_encoder_destroy(void *state)
 215:STM32F10x_Speex_Lib/STM32/libspeex/nb_celp.c **** {
 1003              		.loc 3 215 0
ARM GAS  /var/folders/kh/x4vltyy52lbg7p4pcyglc5080000gp/T//ccuucmVt.s 			page 27


 1004              		.cfi_startproc
 1005              		@ args = 0, pretend = 0, frame = 16
 1006              		@ frame_needed = 1, uses_anonymous_args = 0
 1007 0000 80B5     		push	{r7, lr}
 1008              	.LCFI54:
 1009              		.cfi_def_cfa_offset 8
 1010              		.cfi_offset 7, -8
 1011              		.cfi_offset 14, -4
 1012 0002 84B0     		sub	sp, sp, #16
 1013              	.LCFI55:
 1014              		.cfi_def_cfa_offset 24
 1015 0004 00AF     		add	r7, sp, #0
 1016              	.LCFI56:
 1017              		.cfi_def_cfa_register 7
 1018 0006 7860     		str	r0, [r7, #4]
 216:STM32F10x_Speex_Lib/STM32/libspeex/nb_celp.c ****    EncState *st=(EncState *)state;
 1019              		.loc 3 216 0
 1020 0008 7B68     		ldr	r3, [r7, #4]
 1021 000a FB60     		str	r3, [r7, #12]
 217:STM32F10x_Speex_Lib/STM32/libspeex/nb_celp.c ****    /* Free all allocated memory */
 218:STM32F10x_Speex_Lib/STM32/libspeex/nb_celp.c **** #if !(defined(VAR_ARRAYS) || defined (USE_ALLOCA))
 219:STM32F10x_Speex_Lib/STM32/libspeex/nb_celp.c ****    speex_free_scratch(st->stack);
 1022              		.loc 3 219 0
 1023 000c FB68     		ldr	r3, [r7, #12]
 1024 000e 1B6C     		ldr	r3, [r3, #64]
 1025 0010 1846     		mov	r0, r3
 1026 0012 FFF7FEFF 		bl	speex_free_scratch
 220:STM32F10x_Speex_Lib/STM32/libspeex/nb_celp.c **** #endif
 221:STM32F10x_Speex_Lib/STM32/libspeex/nb_celp.c **** 
 222:STM32F10x_Speex_Lib/STM32/libspeex/nb_celp.c ****    speex_free (st->winBuf);
 1027              		.loc 3 222 0
 1028 0016 FB68     		ldr	r3, [r7, #12]
 1029 0018 5B6C     		ldr	r3, [r3, #68]
 1030 001a 1846     		mov	r0, r3
 1031 001c FFF7FEFF 		bl	speex_free
 223:STM32F10x_Speex_Lib/STM32/libspeex/nb_celp.c ****    speex_free (st->excBuf);
 1032              		.loc 3 223 0
 1033 0020 FB68     		ldr	r3, [r7, #12]
 1034 0022 9B6C     		ldr	r3, [r3, #72]
 1035 0024 1846     		mov	r0, r3
 1036 0026 FFF7FEFF 		bl	speex_free
 224:STM32F10x_Speex_Lib/STM32/libspeex/nb_celp.c ****    speex_free (st->old_qlsp);
 1037              		.loc 3 224 0
 1038 002a FB68     		ldr	r3, [r7, #12]
 1039 002c 5B6E     		ldr	r3, [r3, #100]
 1040 002e 1846     		mov	r0, r3
 1041 0030 FFF7FEFF 		bl	speex_free
 225:STM32F10x_Speex_Lib/STM32/libspeex/nb_celp.c ****    speex_free (st->swBuf);
 1042              		.loc 3 225 0
 1043 0034 FB68     		ldr	r3, [r7, #12]
 1044 0036 1B6D     		ldr	r3, [r3, #80]
 1045 0038 1846     		mov	r0, r3
 1046 003a FFF7FEFF 		bl	speex_free
 226:STM32F10x_Speex_Lib/STM32/libspeex/nb_celp.c **** 
 227:STM32F10x_Speex_Lib/STM32/libspeex/nb_celp.c ****    speex_free (st->old_lsp);
 1047              		.loc 3 227 0
 1048 003e FB68     		ldr	r3, [r7, #12]
ARM GAS  /var/folders/kh/x4vltyy52lbg7p4pcyglc5080000gp/T//ccuucmVt.s 			page 28


 1049 0040 1B6E     		ldr	r3, [r3, #96]
 1050 0042 1846     		mov	r0, r3
 1051 0044 FFF7FEFF 		bl	speex_free
 228:STM32F10x_Speex_Lib/STM32/libspeex/nb_celp.c ****    speex_free (st->mem_sp);
 1052              		.loc 3 228 0
 1053 0048 FB68     		ldr	r3, [r7, #12]
 1054 004a 9B6E     		ldr	r3, [r3, #104]
 1055 004c 1846     		mov	r0, r3
 1056 004e FFF7FEFF 		bl	speex_free
 229:STM32F10x_Speex_Lib/STM32/libspeex/nb_celp.c ****    speex_free (st->mem_sw);
 1057              		.loc 3 229 0
 1058 0052 FB68     		ldr	r3, [r7, #12]
 1059 0054 DB6E     		ldr	r3, [r3, #108]
 1060 0056 1846     		mov	r0, r3
 1061 0058 FFF7FEFF 		bl	speex_free
 230:STM32F10x_Speex_Lib/STM32/libspeex/nb_celp.c ****    speex_free (st->mem_sw_whole);
 1062              		.loc 3 230 0
 1063 005c FB68     		ldr	r3, [r7, #12]
 1064 005e 1B6F     		ldr	r3, [r3, #112]
 1065 0060 1846     		mov	r0, r3
 1066 0062 FFF7FEFF 		bl	speex_free
 231:STM32F10x_Speex_Lib/STM32/libspeex/nb_celp.c ****    speex_free (st->mem_exc);
 1067              		.loc 3 231 0
 1068 0066 FB68     		ldr	r3, [r7, #12]
 1069 0068 5B6F     		ldr	r3, [r3, #116]
 1070 006a 1846     		mov	r0, r3
 1071 006c FFF7FEFF 		bl	speex_free
 232:STM32F10x_Speex_Lib/STM32/libspeex/nb_celp.c ****    speex_free (st->mem_exc2);
 1072              		.loc 3 232 0
 1073 0070 FB68     		ldr	r3, [r7, #12]
 1074 0072 9B6F     		ldr	r3, [r3, #120]
 1075 0074 1846     		mov	r0, r3
 1076 0076 FFF7FEFF 		bl	speex_free
 233:STM32F10x_Speex_Lib/STM32/libspeex/nb_celp.c ****    speex_free (st->pi_gain);
 1077              		.loc 3 233 0
 1078 007a FB68     		ldr	r3, [r7, #12]
 1079 007c D3F88430 		ldr	r3, [r3, #132]
 1080 0080 1846     		mov	r0, r3
 1081 0082 FFF7FEFF 		bl	speex_free
 234:STM32F10x_Speex_Lib/STM32/libspeex/nb_celp.c ****    speex_free (st->pitch);
 1082              		.loc 3 234 0
 1083 0086 FB68     		ldr	r3, [r7, #12]
 1084 0088 5B6B     		ldr	r3, [r3, #52]
 1085 008a 1846     		mov	r0, r3
 1086 008c FFF7FEFF 		bl	speex_free
 235:STM32F10x_Speex_Lib/STM32/libspeex/nb_celp.c **** 
 236:STM32F10x_Speex_Lib/STM32/libspeex/nb_celp.c **** #ifndef DISABLE_VBR
 237:STM32F10x_Speex_Lib/STM32/libspeex/nb_celp.c ****    vbr_destroy(st->vbr);
 238:STM32F10x_Speex_Lib/STM32/libspeex/nb_celp.c ****    speex_free (st->vbr);
 239:STM32F10x_Speex_Lib/STM32/libspeex/nb_celp.c **** #endif /* #ifndef DISABLE_VBR */
 240:STM32F10x_Speex_Lib/STM32/libspeex/nb_celp.c **** 
 241:STM32F10x_Speex_Lib/STM32/libspeex/nb_celp.c **** #ifdef VORBIS_PSYCHO
 242:STM32F10x_Speex_Lib/STM32/libspeex/nb_celp.c ****    vorbis_psy_destroy(st->psy);
 243:STM32F10x_Speex_Lib/STM32/libspeex/nb_celp.c ****    speex_free (st->curve);
 244:STM32F10x_Speex_Lib/STM32/libspeex/nb_celp.c ****    speex_free (st->old_curve);
 245:STM32F10x_Speex_Lib/STM32/libspeex/nb_celp.c ****    speex_free (st->psy_window);
 246:STM32F10x_Speex_Lib/STM32/libspeex/nb_celp.c **** #endif
ARM GAS  /var/folders/kh/x4vltyy52lbg7p4pcyglc5080000gp/T//ccuucmVt.s 			page 29


 247:STM32F10x_Speex_Lib/STM32/libspeex/nb_celp.c **** 
 248:STM32F10x_Speex_Lib/STM32/libspeex/nb_celp.c ****    /*Free state memory... should be last*/
 249:STM32F10x_Speex_Lib/STM32/libspeex/nb_celp.c ****    speex_free(st);
 1087              		.loc 3 249 0
 1088 0090 F868     		ldr	r0, [r7, #12]
 1089 0092 FFF7FEFF 		bl	speex_free
 250:STM32F10x_Speex_Lib/STM32/libspeex/nb_celp.c **** }
 1090              		.loc 3 250 0
 1091 0096 00BF     		nop
 1092 0098 1037     		adds	r7, r7, #16
 1093              	.LCFI57:
 1094              		.cfi_def_cfa_offset 8
 1095 009a BD46     		mov	sp, r7
 1096              	.LCFI58:
 1097              		.cfi_def_cfa_register 13
 1098              		@ sp needed
 1099 009c 80BD     		pop	{r7, pc}
 1100              		.cfi_endproc
 1101              	.LFE22:
 1103 009e 00BF     		.section	.text.nb_encode,"ax",%progbits
 1104              		.align	2
 1105              		.global	nb_encode
 1106              		.thumb
 1107              		.thumb_func
 1109              	nb_encode:
 1110              	.LFB23:
 251:STM32F10x_Speex_Lib/STM32/libspeex/nb_celp.c **** 
 252:STM32F10x_Speex_Lib/STM32/libspeex/nb_celp.c **** /********************************************************************************************/
 253:STM32F10x_Speex_Lib/STM32/libspeex/nb_celp.c **** /* This function has been modified by STMicroelectronics, MCD Application team, June 2008.  */
 254:STM32F10x_Speex_Lib/STM32/libspeex/nb_celp.c **** /********************************************************************************************/
 255:STM32F10x_Speex_Lib/STM32/libspeex/nb_celp.c **** int nb_encode(void *state, void *vin, SpeexBits *bits)
 256:STM32F10x_Speex_Lib/STM32/libspeex/nb_celp.c **** {
 1111              		.loc 3 256 0
 1112              		.cfi_startproc
 1113              		@ args = 0, pretend = 0, frame = 368
 1114              		@ frame_needed = 1, uses_anonymous_args = 0
 1115 0000 F0B5     		push	{r4, r5, r6, r7, lr}
 1116              	.LCFI59:
 1117              		.cfi_def_cfa_offset 20
 1118              		.cfi_offset 4, -20
 1119              		.cfi_offset 5, -16
 1120              		.cfi_offset 6, -12
 1121              		.cfi_offset 7, -8
 1122              		.cfi_offset 14, -4
 1123 0002 EDB0     		sub	sp, sp, #436
 1124              	.LCFI60:
 1125              		.cfi_def_cfa_offset 456
 1126 0004 10AF     		add	r7, sp, #64
 1127              	.LCFI61:
 1128              		.cfi_def_cfa 7, 392
 1129 0006 07F10C03 		add	r3, r7, #12
 1130 000a 1860     		str	r0, [r3]
 1131 000c 07F10803 		add	r3, r7, #8
 1132 0010 1960     		str	r1, [r3]
 1133 0012 3B1D     		adds	r3, r7, #4
 1134 0014 1A60     		str	r2, [r3]
 257:STM32F10x_Speex_Lib/STM32/libspeex/nb_celp.c ****    EncState *st;
ARM GAS  /var/folders/kh/x4vltyy52lbg7p4pcyglc5080000gp/T//ccuucmVt.s 			page 30


 258:STM32F10x_Speex_Lib/STM32/libspeex/nb_celp.c ****    int i, sub, roots;
 259:STM32F10x_Speex_Lib/STM32/libspeex/nb_celp.c ****    int ol_pitch;
 260:STM32F10x_Speex_Lib/STM32/libspeex/nb_celp.c ****    spx_word16_t ol_pitch_coef;
 261:STM32F10x_Speex_Lib/STM32/libspeex/nb_celp.c ****    spx_word32_t ol_gain;
 262:STM32F10x_Speex_Lib/STM32/libspeex/nb_celp.c ****    VARDECL(spx_word16_t *ringing);
 263:STM32F10x_Speex_Lib/STM32/libspeex/nb_celp.c ****    VARDECL(spx_word16_t *target);
 264:STM32F10x_Speex_Lib/STM32/libspeex/nb_celp.c ****    VARDECL(spx_sig_t *innov);
 265:STM32F10x_Speex_Lib/STM32/libspeex/nb_celp.c ****    VARDECL(spx_word32_t *exc32);
 266:STM32F10x_Speex_Lib/STM32/libspeex/nb_celp.c ****    VARDECL(spx_mem_t *mem);
 267:STM32F10x_Speex_Lib/STM32/libspeex/nb_celp.c **** 
 268:STM32F10x_Speex_Lib/STM32/libspeex/nb_celp.c ****    spx_coef_t lpc[10];
 269:STM32F10x_Speex_Lib/STM32/libspeex/nb_celp.c ****    spx_coef_t bw_lpc1[10];
 270:STM32F10x_Speex_Lib/STM32/libspeex/nb_celp.c ****    spx_coef_t bw_lpc2[10];
 271:STM32F10x_Speex_Lib/STM32/libspeex/nb_celp.c ****    spx_lsp_t lsp[10];
 272:STM32F10x_Speex_Lib/STM32/libspeex/nb_celp.c ****    spx_lsp_t qlsp[10];
 273:STM32F10x_Speex_Lib/STM32/libspeex/nb_celp.c ****    spx_lsp_t interp_lsp[10];
 274:STM32F10x_Speex_Lib/STM32/libspeex/nb_celp.c ****    spx_lsp_t interp_qlsp[10];
 275:STM32F10x_Speex_Lib/STM32/libspeex/nb_celp.c ****    spx_coef_t interp_lpc[10];
 276:STM32F10x_Speex_Lib/STM32/libspeex/nb_celp.c ****    spx_coef_t interp_qlpc[10];
 277:STM32F10x_Speex_Lib/STM32/libspeex/nb_celp.c ****    char *stack;
 278:STM32F10x_Speex_Lib/STM32/libspeex/nb_celp.c ****    VARDECL(spx_word16_t *syn_resp);
 279:STM32F10x_Speex_Lib/STM32/libspeex/nb_celp.c ****    VARDECL(spx_word16_t *real_exc);
 280:STM32F10x_Speex_Lib/STM32/libspeex/nb_celp.c ****    
 281:STM32F10x_Speex_Lib/STM32/libspeex/nb_celp.c ****    spx_word32_t ener=0;
 1135              		.loc 3 281 0
 1136 0016 0023     		movs	r3, #0
 1137 0018 C7F84831 		str	r3, [r7, #328]
 282:STM32F10x_Speex_Lib/STM32/libspeex/nb_celp.c ****    spx_word16_t fine_gain;
 283:STM32F10x_Speex_Lib/STM32/libspeex/nb_celp.c ****    spx_word16_t *in = (spx_word16_t*)vin;
 1138              		.loc 3 283 0
 1139 001c 07F10803 		add	r3, r7, #8
 1140 0020 1B68     		ldr	r3, [r3]
 1141 0022 C7F84431 		str	r3, [r7, #324]
 284:STM32F10x_Speex_Lib/STM32/libspeex/nb_celp.c **** 
 285:STM32F10x_Speex_Lib/STM32/libspeex/nb_celp.c ****    st=(EncState *)state;
 1142              		.loc 3 285 0
 1143 0026 07F10C03 		add	r3, r7, #12
 1144 002a 1B68     		ldr	r3, [r3]
 1145 002c C7F84031 		str	r3, [r7, #320]
 286:STM32F10x_Speex_Lib/STM32/libspeex/nb_celp.c ****    stack=st->stack;
 1146              		.loc 3 286 0
 1147 0030 D7F84031 		ldr	r3, [r7, #320]
 1148 0034 1B6C     		ldr	r3, [r3, #64]
 1149 0036 C7F83C31 		str	r3, [r7, #316]
 287:STM32F10x_Speex_Lib/STM32/libspeex/nb_celp.c **** 
 288:STM32F10x_Speex_Lib/STM32/libspeex/nb_celp.c ****    /* Move signals 1 frame towards the past */
 289:STM32F10x_Speex_Lib/STM32/libspeex/nb_celp.c ****    SPEEX_MOVE(st->excBuf, st->excBuf+st->frameSize, st->max_pitch+2);
 1150              		.loc 3 289 0
 1151 003a D7F84031 		ldr	r3, [r7, #320]
 1152 003e 986C     		ldr	r0, [r3, #72]
 1153 0040 D7F84031 		ldr	r3, [r7, #320]
 1154 0044 9A6C     		ldr	r2, [r3, #72]
 1155 0046 D7F84031 		ldr	r3, [r7, #320]
 1156 004a 9B68     		ldr	r3, [r3, #8]
 1157 004c 5B00     		lsls	r3, r3, #1
 1158 004e D118     		adds	r1, r2, r3
 1159 0050 D7F84031 		ldr	r3, [r7, #320]
ARM GAS  /var/folders/kh/x4vltyy52lbg7p4pcyglc5080000gp/T//ccuucmVt.s 			page 31


 1160 0054 1B6A     		ldr	r3, [r3, #32]
 1161 0056 0233     		adds	r3, r3, #2
 1162 0058 5B00     		lsls	r3, r3, #1
 1163 005a 1A46     		mov	r2, r3
 1164 005c FFF7FEFF 		bl	memmove
 290:STM32F10x_Speex_Lib/STM32/libspeex/nb_celp.c ****    SPEEX_MOVE(st->swBuf, st->swBuf+st->frameSize, st->max_pitch+2);
 1165              		.loc 3 290 0
 1166 0060 D7F84031 		ldr	r3, [r7, #320]
 1167 0064 186D     		ldr	r0, [r3, #80]
 1168 0066 D7F84031 		ldr	r3, [r7, #320]
 1169 006a 1A6D     		ldr	r2, [r3, #80]
 1170 006c D7F84031 		ldr	r3, [r7, #320]
 1171 0070 9B68     		ldr	r3, [r3, #8]
 1172 0072 5B00     		lsls	r3, r3, #1
 1173 0074 D118     		adds	r1, r2, r3
 1174 0076 D7F84031 		ldr	r3, [r7, #320]
 1175 007a 1B6A     		ldr	r3, [r3, #32]
 1176 007c 0233     		adds	r3, r3, #2
 1177 007e 5B00     		lsls	r3, r3, #1
 1178 0080 1A46     		mov	r2, r3
 1179 0082 FFF7FEFF 		bl	memmove
 291:STM32F10x_Speex_Lib/STM32/libspeex/nb_celp.c **** 
 292:STM32F10x_Speex_Lib/STM32/libspeex/nb_celp.c ****    if (st->highpass_enabled)
 1180              		.loc 3 292 0
 1181 0086 D7F84031 		ldr	r3, [r7, #320]
 1182 008a D3F8AC30 		ldr	r3, [r3, #172]
 1183 008e 002B     		cmp	r3, #0
 1184 0090 16D0     		beq	.L34
 293:STM32F10x_Speex_Lib/STM32/libspeex/nb_celp.c ****       highpass(in, in, st->frameSize, (st->isWideband?HIGHPASS_WIDEBAND:HIGHPASS_NARROWBAND)|HIGHPA
 1185              		.loc 3 293 0
 1186 0092 D7F84031 		ldr	r3, [r7, #320]
 1187 0096 9A68     		ldr	r2, [r3, #8]
 1188 0098 D7F84031 		ldr	r3, [r7, #320]
 1189 009c D3F8A830 		ldr	r3, [r3, #168]
 1190 00a0 002B     		cmp	r3, #0
 1191 00a2 01D0     		beq	.L35
 1192              		.loc 3 293 0 is_stmt 0 discriminator 1
 1193 00a4 0221     		movs	r1, #2
 1194 00a6 00E0     		b	.L36
 1195              	.L35:
 1196              		.loc 3 293 0 discriminator 2
 1197 00a8 0021     		movs	r1, #0
 1198              	.L36:
 1199              		.loc 3 293 0 discriminator 4
 1200 00aa D7F84031 		ldr	r3, [r7, #320]
 1201 00ae 7C33     		adds	r3, r3, #124
 1202 00b0 0093     		str	r3, [sp]
 1203 00b2 0B46     		mov	r3, r1
 1204 00b4 D7F84411 		ldr	r1, [r7, #324]
 1205 00b8 D7F84401 		ldr	r0, [r7, #324]
 1206 00bc FFF7FEFF 		bl	highpass
 1207              	.L34:
 1208              	.LBB2:
 294:STM32F10x_Speex_Lib/STM32/libspeex/nb_celp.c ****    
 295:STM32F10x_Speex_Lib/STM32/libspeex/nb_celp.c ****    {
 296:STM32F10x_Speex_Lib/STM32/libspeex/nb_celp.c ****       VARDECL(spx_word16_t *w_sig);
 297:STM32F10x_Speex_Lib/STM32/libspeex/nb_celp.c ****       VARDECL(spx_word16_t *autocorr);
ARM GAS  /var/folders/kh/x4vltyy52lbg7p4pcyglc5080000gp/T//ccuucmVt.s 			page 32


 298:STM32F10x_Speex_Lib/STM32/libspeex/nb_celp.c ****       ALLOC(w_sig, st->windowSize, spx_word16_t);
 1209              		.loc 3 298 0 is_stmt 1
 1210 00c0 D7F83C31 		ldr	r3, [r7, #316]
 1211 00c4 5B42     		negs	r3, r3
 1212 00c6 03F00103 		and	r3, r3, #1
 1213 00ca D7F83C21 		ldr	r2, [r7, #316]
 1214 00ce 1344     		add	r3, r3, r2
 1215 00d0 C7F83C31 		str	r3, [r7, #316]
 1216 00d4 D7F84031 		ldr	r3, [r7, #320]
 1217 00d8 5B69     		ldr	r3, [r3, #20]
 1218 00da 5B00     		lsls	r3, r3, #1
 1219 00dc D7F83C21 		ldr	r2, [r7, #316]
 1220 00e0 1344     		add	r3, r3, r2
 1221 00e2 C7F83C31 		str	r3, [r7, #316]
 1222 00e6 D7F84031 		ldr	r3, [r7, #320]
 1223 00ea 5B69     		ldr	r3, [r3, #20]
 1224 00ec 5B00     		lsls	r3, r3, #1
 1225 00ee 5B42     		negs	r3, r3
 1226 00f0 D7F83C21 		ldr	r2, [r7, #316]
 1227 00f4 1344     		add	r3, r3, r2
 1228 00f6 C7F83831 		str	r3, [r7, #312]
 299:STM32F10x_Speex_Lib/STM32/libspeex/nb_celp.c ****       ALLOC(autocorr, st->lpcSize+1, spx_word16_t);
 1229              		.loc 3 299 0
 1230 00fa D7F83C31 		ldr	r3, [r7, #316]
 1231 00fe 5B42     		negs	r3, r3
 1232 0100 03F00103 		and	r3, r3, #1
 1233 0104 D7F83C21 		ldr	r2, [r7, #316]
 1234 0108 1344     		add	r3, r3, r2
 1235 010a C7F83C31 		str	r3, [r7, #316]
 1236 010e D7F84031 		ldr	r3, [r7, #320]
 1237 0112 9B69     		ldr	r3, [r3, #24]
 1238 0114 0133     		adds	r3, r3, #1
 1239 0116 5B00     		lsls	r3, r3, #1
 1240 0118 D7F83C21 		ldr	r2, [r7, #316]
 1241 011c 1344     		add	r3, r3, r2
 1242 011e C7F83C31 		str	r3, [r7, #316]
 1243 0122 D7F84031 		ldr	r3, [r7, #320]
 1244 0126 9B69     		ldr	r3, [r3, #24]
 1245 0128 0133     		adds	r3, r3, #1
 1246 012a 5B00     		lsls	r3, r3, #1
 1247 012c 5B42     		negs	r3, r3
 1248 012e D7F83C21 		ldr	r2, [r7, #316]
 1249 0132 1344     		add	r3, r3, r2
 1250 0134 C7F83431 		str	r3, [r7, #308]
 300:STM32F10x_Speex_Lib/STM32/libspeex/nb_celp.c ****       /* Window for analysis */
 301:STM32F10x_Speex_Lib/STM32/libspeex/nb_celp.c ****       for (i=0;i<st->windowSize-st->frameSize;i++)
 1251              		.loc 3 301 0
 1252 0138 0023     		movs	r3, #0
 1253 013a C7F86C31 		str	r3, [r7, #364]
 1254 013e 22E0     		b	.L37
 1255              	.L38:
 302:STM32F10x_Speex_Lib/STM32/libspeex/nb_celp.c ****          w_sig[i] = EXTRACT16(SHR32(MULT16_16(st->winBuf[i],st->window[i]),SIG_SHIFT));
 1256              		.loc 3 302 0 discriminator 3
 1257 0140 D7F86C31 		ldr	r3, [r7, #364]
 1258 0144 5B00     		lsls	r3, r3, #1
 1259 0146 D7F83821 		ldr	r2, [r7, #312]
 1260 014a 1344     		add	r3, r3, r2
ARM GAS  /var/folders/kh/x4vltyy52lbg7p4pcyglc5080000gp/T//ccuucmVt.s 			page 33


 1261 014c D7F84021 		ldr	r2, [r7, #320]
 1262 0150 516C     		ldr	r1, [r2, #68]
 1263 0152 D7F86C21 		ldr	r2, [r7, #364]
 1264 0156 5200     		lsls	r2, r2, #1
 1265 0158 0A44     		add	r2, r2, r1
 1266 015a B2F90020 		ldrsh	r2, [r2]
 1267 015e 1046     		mov	r0, r2
 1268 0160 D7F84021 		ldr	r2, [r7, #320]
 1269 0164 916D     		ldr	r1, [r2, #88]
 1270 0166 D7F86C21 		ldr	r2, [r7, #364]
 1271 016a 5200     		lsls	r2, r2, #1
 1272 016c 0A44     		add	r2, r2, r1
 1273 016e B2F90020 		ldrsh	r2, [r2]
 1274 0172 02FB00F2 		mul	r2, r2, r0
 1275 0176 9213     		asrs	r2, r2, #14
 1276 0178 12B2     		sxth	r2, r2
 1277 017a 1A80     		strh	r2, [r3]	@ movhi
 301:STM32F10x_Speex_Lib/STM32/libspeex/nb_celp.c ****          w_sig[i] = EXTRACT16(SHR32(MULT16_16(st->winBuf[i],st->window[i]),SIG_SHIFT));
 1278              		.loc 3 301 0 discriminator 3
 1279 017c D7F86C31 		ldr	r3, [r7, #364]
 1280 0180 0133     		adds	r3, r3, #1
 1281 0182 C7F86C31 		str	r3, [r7, #364]
 1282              	.L37:
 301:STM32F10x_Speex_Lib/STM32/libspeex/nb_celp.c ****          w_sig[i] = EXTRACT16(SHR32(MULT16_16(st->winBuf[i],st->window[i]),SIG_SHIFT));
 1283              		.loc 3 301 0 is_stmt 0 discriminator 1
 1284 0186 D7F84031 		ldr	r3, [r7, #320]
 1285 018a 5A69     		ldr	r2, [r3, #20]
 1286 018c D7F84031 		ldr	r3, [r7, #320]
 1287 0190 9B68     		ldr	r3, [r3, #8]
 1288 0192 D21A     		subs	r2, r2, r3
 1289 0194 D7F86C31 		ldr	r3, [r7, #364]
 1290 0198 9A42     		cmp	r2, r3
 1291 019a D1DC     		bgt	.L38
 303:STM32F10x_Speex_Lib/STM32/libspeex/nb_celp.c ****       for (;i<st->windowSize;i++)
 1292              		.loc 3 303 0 is_stmt 1
 1293 019c 29E0     		b	.L39
 1294              	.L40:
 304:STM32F10x_Speex_Lib/STM32/libspeex/nb_celp.c ****          w_sig[i] = EXTRACT16(SHR32(MULT16_16(in[i-st->windowSize+st->frameSize],st->window[i]),SIG
 1295              		.loc 3 304 0 discriminator 2
 1296 019e D7F86C31 		ldr	r3, [r7, #364]
 1297 01a2 5B00     		lsls	r3, r3, #1
 1298 01a4 D7F83821 		ldr	r2, [r7, #312]
 1299 01a8 1344     		add	r3, r3, r2
 1300 01aa D7F84021 		ldr	r2, [r7, #320]
 1301 01ae 5269     		ldr	r2, [r2, #20]
 1302 01b0 D7F86C11 		ldr	r1, [r7, #364]
 1303 01b4 891A     		subs	r1, r1, r2
 1304 01b6 D7F84021 		ldr	r2, [r7, #320]
 1305 01ba 9268     		ldr	r2, [r2, #8]
 1306 01bc 0A44     		add	r2, r2, r1
 1307 01be 5200     		lsls	r2, r2, #1
 1308 01c0 D7F84411 		ldr	r1, [r7, #324]
 1309 01c4 0A44     		add	r2, r2, r1
 1310 01c6 B2F90020 		ldrsh	r2, [r2]
 1311 01ca 1046     		mov	r0, r2
 1312 01cc D7F84021 		ldr	r2, [r7, #320]
 1313 01d0 916D     		ldr	r1, [r2, #88]
ARM GAS  /var/folders/kh/x4vltyy52lbg7p4pcyglc5080000gp/T//ccuucmVt.s 			page 34


 1314 01d2 D7F86C21 		ldr	r2, [r7, #364]
 1315 01d6 5200     		lsls	r2, r2, #1
 1316 01d8 0A44     		add	r2, r2, r1
 1317 01da B2F90020 		ldrsh	r2, [r2]
 1318 01de 02FB00F2 		mul	r2, r2, r0
 1319 01e2 9213     		asrs	r2, r2, #14
 1320 01e4 12B2     		sxth	r2, r2
 1321 01e6 1A80     		strh	r2, [r3]	@ movhi
 303:STM32F10x_Speex_Lib/STM32/libspeex/nb_celp.c ****       for (;i<st->windowSize;i++)
 1322              		.loc 3 303 0 discriminator 2
 1323 01e8 D7F86C31 		ldr	r3, [r7, #364]
 1324 01ec 0133     		adds	r3, r3, #1
 1325 01ee C7F86C31 		str	r3, [r7, #364]
 1326              	.L39:
 303:STM32F10x_Speex_Lib/STM32/libspeex/nb_celp.c ****       for (;i<st->windowSize;i++)
 1327              		.loc 3 303 0 is_stmt 0 discriminator 1
 1328 01f2 D7F84031 		ldr	r3, [r7, #320]
 1329 01f6 5A69     		ldr	r2, [r3, #20]
 1330 01f8 D7F86C31 		ldr	r3, [r7, #364]
 1331 01fc 9A42     		cmp	r2, r3
 1332 01fe CEDC     		bgt	.L40
 305:STM32F10x_Speex_Lib/STM32/libspeex/nb_celp.c ****       /* Compute auto-correlation */
 306:STM32F10x_Speex_Lib/STM32/libspeex/nb_celp.c ****       _spx_autocorr(w_sig, autocorr, st->lpcSize+1, st->windowSize);
 1333              		.loc 3 306 0 is_stmt 1
 1334 0200 D7F84031 		ldr	r3, [r7, #320]
 1335 0204 9B69     		ldr	r3, [r3, #24]
 1336 0206 5A1C     		adds	r2, r3, #1
 1337 0208 D7F84031 		ldr	r3, [r7, #320]
 1338 020c 5B69     		ldr	r3, [r3, #20]
 1339 020e D7F83411 		ldr	r1, [r7, #308]
 1340 0212 D7F83801 		ldr	r0, [r7, #312]
 1341 0216 FFF7FEFF 		bl	_spx_autocorr
 307:STM32F10x_Speex_Lib/STM32/libspeex/nb_celp.c ****       autocorr[0] = ADD16(autocorr[0],MULT16_16_Q15(autocorr[0],st->lpc_floor)); /* Noise floor in 
 1342              		.loc 3 307 0
 1343 021a D7F83431 		ldr	r3, [r7, #308]
 1344 021e B3F90030 		ldrsh	r3, [r3]
 1345 0222 9AB2     		uxth	r2, r3
 1346 0224 D7F83431 		ldr	r3, [r7, #308]
 1347 0228 B3F90030 		ldrsh	r3, [r3]
 1348 022c 1946     		mov	r1, r3
 1349 022e D7F84031 		ldr	r3, [r7, #320]
 1350 0232 B3F93C30 		ldrsh	r3, [r3, #60]
 1351 0236 03FB01F3 		mul	r3, r3, r1
 1352 023a DB13     		asrs	r3, r3, #15
 1353 023c 9BB2     		uxth	r3, r3
 1354 023e 1344     		add	r3, r3, r2
 1355 0240 9BB2     		uxth	r3, r3
 1356 0242 1AB2     		sxth	r2, r3
 1357 0244 D7F83431 		ldr	r3, [r7, #308]
 1358 0248 1A80     		strh	r2, [r3]	@ movhi
 308:STM32F10x_Speex_Lib/STM32/libspeex/nb_celp.c **** 
 309:STM32F10x_Speex_Lib/STM32/libspeex/nb_celp.c ****       /* Lag windowing: equivalent to filtering in the power-spectrum domain */
 310:STM32F10x_Speex_Lib/STM32/libspeex/nb_celp.c ****       for (i=0;i<st->lpcSize+1;i++)
 1359              		.loc 3 310 0
 1360 024a 0023     		movs	r3, #0
 1361 024c C7F86C31 		str	r3, [r7, #364]
 1362 0250 21E0     		b	.L41
ARM GAS  /var/folders/kh/x4vltyy52lbg7p4pcyglc5080000gp/T//ccuucmVt.s 			page 35


 1363              	.L42:
 311:STM32F10x_Speex_Lib/STM32/libspeex/nb_celp.c ****          autocorr[i] = MULT16_16_Q14(autocorr[i],st->lagWindow[i]);
 1364              		.loc 3 311 0 discriminator 3
 1365 0252 D7F86C31 		ldr	r3, [r7, #364]
 1366 0256 5B00     		lsls	r3, r3, #1
 1367 0258 D7F83421 		ldr	r2, [r7, #308]
 1368 025c 1344     		add	r3, r3, r2
 1369 025e D7F86C21 		ldr	r2, [r7, #364]
 1370 0262 5200     		lsls	r2, r2, #1
 1371 0264 D7F83411 		ldr	r1, [r7, #308]
 1372 0268 0A44     		add	r2, r2, r1
 1373 026a B2F90020 		ldrsh	r2, [r2]
 1374 026e 1046     		mov	r0, r2
 1375 0270 D7F84021 		ldr	r2, [r7, #320]
 1376 0274 D16D     		ldr	r1, [r2, #92]
 1377 0276 D7F86C21 		ldr	r2, [r7, #364]
 1378 027a 5200     		lsls	r2, r2, #1
 1379 027c 0A44     		add	r2, r2, r1
 1380 027e B2F90020 		ldrsh	r2, [r2]
 1381 0282 02FB00F2 		mul	r2, r2, r0
 1382 0286 9213     		asrs	r2, r2, #14
 1383 0288 12B2     		sxth	r2, r2
 1384 028a 1A80     		strh	r2, [r3]	@ movhi
 310:STM32F10x_Speex_Lib/STM32/libspeex/nb_celp.c ****          autocorr[i] = MULT16_16_Q14(autocorr[i],st->lagWindow[i]);
 1385              		.loc 3 310 0 discriminator 3
 1386 028c D7F86C31 		ldr	r3, [r7, #364]
 1387 0290 0133     		adds	r3, r3, #1
 1388 0292 C7F86C31 		str	r3, [r7, #364]
 1389              	.L41:
 310:STM32F10x_Speex_Lib/STM32/libspeex/nb_celp.c ****          autocorr[i] = MULT16_16_Q14(autocorr[i],st->lagWindow[i]);
 1390              		.loc 3 310 0 is_stmt 0 discriminator 1
 1391 0296 D7F84031 		ldr	r3, [r7, #320]
 1392 029a 9B69     		ldr	r3, [r3, #24]
 1393 029c 5A1C     		adds	r2, r3, #1
 1394 029e D7F86C31 		ldr	r3, [r7, #364]
 1395 02a2 9A42     		cmp	r2, r3
 1396 02a4 D5DC     		bgt	.L42
 312:STM32F10x_Speex_Lib/STM32/libspeex/nb_celp.c **** 
 313:STM32F10x_Speex_Lib/STM32/libspeex/nb_celp.c ****       /* Levinson-Durbin */
 314:STM32F10x_Speex_Lib/STM32/libspeex/nb_celp.c ****       _spx_lpc(lpc, autocorr, st->lpcSize);
 1397              		.loc 3 314 0 is_stmt 1
 1398 02a6 D7F84031 		ldr	r3, [r7, #320]
 1399 02aa 9A69     		ldr	r2, [r3, #24]
 1400 02ac 07F1D803 		add	r3, r7, #216
 1401 02b0 D7F83411 		ldr	r1, [r7, #308]
 1402 02b4 1846     		mov	r0, r3
 1403 02b6 FFF7FEFF 		bl	_spx_lpc
 315:STM32F10x_Speex_Lib/STM32/libspeex/nb_celp.c ****       /* LPC to LSPs (x-domain) transform */
 316:STM32F10x_Speex_Lib/STM32/libspeex/nb_celp.c ****       roots=lpc_to_lsp (lpc, st->lpcSize, lsp, 10, LSP_DELTA1, stack);
 1404              		.loc 3 316 0
 1405 02ba D7F84031 		ldr	r3, [r7, #320]
 1406 02be 9969     		ldr	r1, [r3, #24]
 1407 02c0 07F19C02 		add	r2, r7, #156
 1408 02c4 07F1D800 		add	r0, r7, #216
 1409 02c8 D7F83C31 		ldr	r3, [r7, #316]
 1410 02cc 0193     		str	r3, [sp, #4]
 1411 02ce 41F69913 		movw	r3, #6553
ARM GAS  /var/folders/kh/x4vltyy52lbg7p4pcyglc5080000gp/T//ccuucmVt.s 			page 36


 1412 02d2 0093     		str	r3, [sp]
 1413 02d4 0A23     		movs	r3, #10
 1414 02d6 FFF7FEFF 		bl	lpc_to_lsp
 1415 02da C7F83001 		str	r0, [r7, #304]
 317:STM32F10x_Speex_Lib/STM32/libspeex/nb_celp.c ****       /* Check if we found all the roots */
 318:STM32F10x_Speex_Lib/STM32/libspeex/nb_celp.c ****       if (roots!=st->lpcSize)
 1416              		.loc 3 318 0
 1417 02de D7F84031 		ldr	r3, [r7, #320]
 1418 02e2 9A69     		ldr	r2, [r3, #24]
 1419 02e4 D7F83031 		ldr	r3, [r7, #304]
 1420 02e8 9A42     		cmp	r2, r3
 1421 02ea 20D0     		beq	.L43
 319:STM32F10x_Speex_Lib/STM32/libspeex/nb_celp.c ****       {
 320:STM32F10x_Speex_Lib/STM32/libspeex/nb_celp.c ****          /*If we can't find all LSP's, do some damage control and use previous filter*/
 321:STM32F10x_Speex_Lib/STM32/libspeex/nb_celp.c ****          for (i=0;i<st->lpcSize;i++)
 1422              		.loc 3 321 0
 1423 02ec 0023     		movs	r3, #0
 1424 02ee C7F86C31 		str	r3, [r7, #364]
 1425 02f2 15E0     		b	.L44
 1426              	.L45:
 322:STM32F10x_Speex_Lib/STM32/libspeex/nb_celp.c ****          {
 323:STM32F10x_Speex_Lib/STM32/libspeex/nb_celp.c ****             lsp[i]=st->old_lsp[i];
 1427              		.loc 3 323 0 discriminator 3
 1428 02f4 D7F84031 		ldr	r3, [r7, #320]
 1429 02f8 1A6E     		ldr	r2, [r3, #96]
 1430 02fa D7F86C31 		ldr	r3, [r7, #364]
 1431 02fe 5B00     		lsls	r3, r3, #1
 1432 0300 1344     		add	r3, r3, r2
 1433 0302 B3F90020 		ldrsh	r2, [r3]
 1434 0306 D7F86C31 		ldr	r3, [r7, #364]
 1435 030a 5B00     		lsls	r3, r3, #1
 1436 030c 07F5B871 		add	r1, r7, #368
 1437 0310 0B44     		add	r3, r3, r1
 1438 0312 23F8D42C 		strh	r2, [r3, #-212]	@ movhi
 321:STM32F10x_Speex_Lib/STM32/libspeex/nb_celp.c ****          {
 1439              		.loc 3 321 0 discriminator 3
 1440 0316 D7F86C31 		ldr	r3, [r7, #364]
 1441 031a 0133     		adds	r3, r3, #1
 1442 031c C7F86C31 		str	r3, [r7, #364]
 1443              	.L44:
 321:STM32F10x_Speex_Lib/STM32/libspeex/nb_celp.c ****          {
 1444              		.loc 3 321 0 is_stmt 0 discriminator 1
 1445 0320 D7F84031 		ldr	r3, [r7, #320]
 1446 0324 9A69     		ldr	r2, [r3, #24]
 1447 0326 D7F86C31 		ldr	r3, [r7, #364]
 1448 032a 9A42     		cmp	r2, r3
 1449 032c E2DC     		bgt	.L45
 1450              	.L43:
 1451              	.LBE2:
 1452              	.LBB3:
 324:STM32F10x_Speex_Lib/STM32/libspeex/nb_celp.c ****          }
 325:STM32F10x_Speex_Lib/STM32/libspeex/nb_celp.c ****       }
 326:STM32F10x_Speex_Lib/STM32/libspeex/nb_celp.c ****    }
 327:STM32F10x_Speex_Lib/STM32/libspeex/nb_celp.c **** 
 328:STM32F10x_Speex_Lib/STM32/libspeex/nb_celp.c ****    /* Whole frame analysis (open-loop estimation of pitch and excitation gain) */
 329:STM32F10x_Speex_Lib/STM32/libspeex/nb_celp.c ****    {
 330:STM32F10x_Speex_Lib/STM32/libspeex/nb_celp.c ****       int diff = st->windowSize-st->frameSize;
ARM GAS  /var/folders/kh/x4vltyy52lbg7p4pcyglc5080000gp/T//ccuucmVt.s 			page 37


 1453              		.loc 3 330 0 is_stmt 1
 1454 032e D7F84031 		ldr	r3, [r7, #320]
 1455 0332 5A69     		ldr	r2, [r3, #20]
 1456 0334 D7F84031 		ldr	r3, [r7, #320]
 1457 0338 9B68     		ldr	r3, [r3, #8]
 1458 033a D31A     		subs	r3, r2, r3
 1459 033c C7F82C31 		str	r3, [r7, #300]
 331:STM32F10x_Speex_Lib/STM32/libspeex/nb_celp.c ****       if (st->first)
 1460              		.loc 3 331 0
 1461 0340 D7F84031 		ldr	r3, [r7, #320]
 1462 0344 5B68     		ldr	r3, [r3, #4]
 1463 0346 002B     		cmp	r3, #0
 1464 0348 20D0     		beq	.L46
 332:STM32F10x_Speex_Lib/STM32/libspeex/nb_celp.c ****          for (i=0;i<st->lpcSize;i++)
 1465              		.loc 3 332 0
 1466 034a 0023     		movs	r3, #0
 1467 034c C7F86C31 		str	r3, [r7, #364]
 1468 0350 14E0     		b	.L47
 1469              	.L48:
 333:STM32F10x_Speex_Lib/STM32/libspeex/nb_celp.c ****             interp_lsp[i] = lsp[i];
 1470              		.loc 3 333 0 discriminator 3
 1471 0352 D7F86C31 		ldr	r3, [r7, #364]
 1472 0356 5B00     		lsls	r3, r3, #1
 1473 0358 07F5B872 		add	r2, r7, #368
 1474 035c 1344     		add	r3, r3, r2
 1475 035e 33F9D42C 		ldrsh	r2, [r3, #-212]
 1476 0362 D7F86C31 		ldr	r3, [r7, #364]
 1477 0366 5B00     		lsls	r3, r3, #1
 1478 0368 07F5B871 		add	r1, r7, #368
 1479 036c 0B44     		add	r3, r3, r1
 1480 036e 23F8FC2C 		strh	r2, [r3, #-252]	@ movhi
 332:STM32F10x_Speex_Lib/STM32/libspeex/nb_celp.c ****          for (i=0;i<st->lpcSize;i++)
 1481              		.loc 3 332 0 discriminator 3
 1482 0372 D7F86C31 		ldr	r3, [r7, #364]
 1483 0376 0133     		adds	r3, r3, #1
 1484 0378 C7F86C31 		str	r3, [r7, #364]
 1485              	.L47:
 332:STM32F10x_Speex_Lib/STM32/libspeex/nb_celp.c ****          for (i=0;i<st->lpcSize;i++)
 1486              		.loc 3 332 0 is_stmt 0 discriminator 1
 1487 037c D7F84031 		ldr	r3, [r7, #320]
 1488 0380 9A69     		ldr	r2, [r3, #24]
 1489 0382 D7F86C31 		ldr	r3, [r7, #364]
 1490 0386 9A42     		cmp	r2, r3
 1491 0388 E3DC     		bgt	.L48
 1492 038a 16E0     		b	.L49
 1493              	.L46:
 334:STM32F10x_Speex_Lib/STM32/libspeex/nb_celp.c ****       else
 335:STM32F10x_Speex_Lib/STM32/libspeex/nb_celp.c ****          lsp_interpolate(st->old_lsp, lsp, interp_lsp, st->lpcSize, st->nbSubframes, st->nbSubframe
 1494              		.loc 3 335 0 is_stmt 1
 1495 038c D7F84031 		ldr	r3, [r7, #320]
 1496 0390 186E     		ldr	r0, [r3, #96]
 1497 0392 D7F84031 		ldr	r3, [r7, #320]
 1498 0396 9D69     		ldr	r5, [r3, #24]
 1499 0398 D7F84031 		ldr	r3, [r7, #320]
 1500 039c 1B69     		ldr	r3, [r3, #16]
 1501 039e D7F84021 		ldr	r2, [r7, #320]
 1502 03a2 1269     		ldr	r2, [r2, #16]
ARM GAS  /var/folders/kh/x4vltyy52lbg7p4pcyglc5080000gp/T//ccuucmVt.s 			page 38


 1503 03a4 5200     		lsls	r2, r2, #1
 1504 03a6 07F17404 		add	r4, r7, #116
 1505 03aa 07F19C01 		add	r1, r7, #156
 1506 03ae 0192     		str	r2, [sp, #4]
 1507 03b0 0093     		str	r3, [sp]
 1508 03b2 2B46     		mov	r3, r5
 1509 03b4 2246     		mov	r2, r4
 1510 03b6 FFF7FEFF 		bl	lsp_interpolate
 1511              	.L49:
 336:STM32F10x_Speex_Lib/STM32/libspeex/nb_celp.c **** 
 337:STM32F10x_Speex_Lib/STM32/libspeex/nb_celp.c ****       lsp_enforce_margin(interp_lsp, st->lpcSize, LSP_MARGIN);
 1512              		.loc 3 337 0
 1513 03ba D7F84031 		ldr	r3, [r7, #320]
 1514 03be 9969     		ldr	r1, [r3, #24]
 1515 03c0 07F17403 		add	r3, r7, #116
 1516 03c4 1022     		movs	r2, #16
 1517 03c6 1846     		mov	r0, r3
 1518 03c8 FFF7FEFF 		bl	lsp_enforce_margin
 338:STM32F10x_Speex_Lib/STM32/libspeex/nb_celp.c **** 
 339:STM32F10x_Speex_Lib/STM32/libspeex/nb_celp.c ****       /* Compute interpolated LPCs (unquantized) for whole frame*/
 340:STM32F10x_Speex_Lib/STM32/libspeex/nb_celp.c ****       lsp_to_lpc(interp_lsp, interp_lpc, st->lpcSize,stack);
 1519              		.loc 3 340 0
 1520 03cc D7F84031 		ldr	r3, [r7, #320]
 1521 03d0 9A69     		ldr	r2, [r3, #24]
 1522 03d2 07F14C01 		add	r1, r7, #76
 1523 03d6 07F17400 		add	r0, r7, #116
 1524 03da D7F83C31 		ldr	r3, [r7, #316]
 1525 03de FFF7FEFF 		bl	lsp_to_lpc
 341:STM32F10x_Speex_Lib/STM32/libspeex/nb_celp.c **** 
 342:STM32F10x_Speex_Lib/STM32/libspeex/nb_celp.c **** 
 343:STM32F10x_Speex_Lib/STM32/libspeex/nb_celp.c ****       /*Open-loop pitch*/
 344:STM32F10x_Speex_Lib/STM32/libspeex/nb_celp.c ****       if (!st->submodes[st->submodeID] || (st->complexity>2 && SUBMODE(have_subframe_gain)<3) || SU
 1526              		.loc 3 344 0
 1527 03e2 D7F84031 		ldr	r3, [r7, #320]
 1528 03e6 D3F89C20 		ldr	r2, [r3, #156]
 1529 03ea D7F84031 		ldr	r3, [r7, #320]
 1530 03ee D3F8A030 		ldr	r3, [r3, #160]
 1531 03f2 9B00     		lsls	r3, r3, #2
 1532 03f4 1344     		add	r3, r3, r2
 1533 03f6 1B68     		ldr	r3, [r3]
 1534 03f8 002B     		cmp	r3, #0
 1535 03fa 31D0     		beq	.L50
 1536              		.loc 3 344 0 is_stmt 0 discriminator 1
 1537 03fc D7F84031 		ldr	r3, [r7, #320]
 1538 0400 D3F88C30 		ldr	r3, [r3, #140]
 1539 0404 022B     		cmp	r3, #2
 1540 0406 0DDD     		ble	.L51
 1541              		.loc 3 344 0 discriminator 2
 1542 0408 D7F84031 		ldr	r3, [r7, #320]
 1543 040c D3F89C20 		ldr	r2, [r3, #156]
 1544 0410 D7F84031 		ldr	r3, [r7, #320]
 1545 0414 D3F8A030 		ldr	r3, [r3, #160]
 1546 0418 9B00     		lsls	r3, r3, #2
 1547 041a 1344     		add	r3, r3, r2
 1548 041c 1B68     		ldr	r3, [r3]
 1549 041e 9B68     		ldr	r3, [r3, #8]
 1550 0420 022B     		cmp	r3, #2
ARM GAS  /var/folders/kh/x4vltyy52lbg7p4pcyglc5080000gp/T//ccuucmVt.s 			page 39


 1551 0422 1DDD     		ble	.L50
 1552              	.L51:
 1553              		.loc 3 344 0 discriminator 4
 1554 0424 D7F84031 		ldr	r3, [r7, #320]
 1555 0428 D3F89C20 		ldr	r2, [r3, #156]
 1556 042c D7F84031 		ldr	r3, [r7, #320]
 1557 0430 D3F8A030 		ldr	r3, [r3, #160]
 1558 0434 9B00     		lsls	r3, r3, #2
 1559 0436 1344     		add	r3, r3, r2
 1560 0438 1B68     		ldr	r3, [r3]
 1561 043a 5B68     		ldr	r3, [r3, #4]
 1562 043c 002B     		cmp	r3, #0
 1563 043e 0FD1     		bne	.L50
 1564              		.loc 3 344 0 discriminator 5
 1565 0440 D7F84031 		ldr	r3, [r7, #320]
 1566 0444 D3F89C20 		ldr	r2, [r3, #156]
 1567 0448 D7F84031 		ldr	r3, [r7, #320]
 1568 044c D3F8A030 		ldr	r3, [r3, #160]
 1569 0450 9B00     		lsls	r3, r3, #2
 1570 0452 1344     		add	r3, r3, r2
 1571 0454 1B68     		ldr	r3, [r3]
 1572 0456 1B68     		ldr	r3, [r3]
 1573 0458 B3F1FF3F 		cmp	r3, #-1
 1574 045c 00F03281 		beq	.L52
 1575              	.L50:
 1576              	.LBB4:
 345:STM32F10x_Speex_Lib/STM32/libspeex/nb_celp.c ****       {
 346:STM32F10x_Speex_Lib/STM32/libspeex/nb_celp.c ****          int nol_pitch[6];
 347:STM32F10x_Speex_Lib/STM32/libspeex/nb_celp.c ****          spx_word16_t nol_pitch_coef[6];
 348:STM32F10x_Speex_Lib/STM32/libspeex/nb_celp.c ****          
 349:STM32F10x_Speex_Lib/STM32/libspeex/nb_celp.c ****          bw_lpc(st->gamma1, interp_lpc, bw_lpc1, st->lpcSize);
 1577              		.loc 3 349 0 is_stmt 1
 1578 0460 D7F84031 		ldr	r3, [r7, #320]
 1579 0464 B3F93800 		ldrsh	r0, [r3, #56]
 1580 0468 D7F84031 		ldr	r3, [r7, #320]
 1581 046c 9B69     		ldr	r3, [r3, #24]
 1582 046e 07F1C402 		add	r2, r7, #196
 1583 0472 07F14C01 		add	r1, r7, #76
 1584 0476 FFF7FEFF 		bl	bw_lpc
 350:STM32F10x_Speex_Lib/STM32/libspeex/nb_celp.c ****          bw_lpc(st->gamma2, interp_lpc, bw_lpc2, st->lpcSize);
 1585              		.loc 3 350 0
 1586 047a D7F84031 		ldr	r3, [r7, #320]
 1587 047e B3F93A00 		ldrsh	r0, [r3, #58]
 1588 0482 D7F84031 		ldr	r3, [r7, #320]
 1589 0486 9B69     		ldr	r3, [r3, #24]
 1590 0488 07F1B002 		add	r2, r7, #176
 1591 048c 07F14C01 		add	r1, r7, #76
 1592 0490 FFF7FEFF 		bl	bw_lpc
 351:STM32F10x_Speex_Lib/STM32/libspeex/nb_celp.c **** 
 352:STM32F10x_Speex_Lib/STM32/libspeex/nb_celp.c ****          SPEEX_COPY(st->sw, st->winBuf, diff);
 1593              		.loc 3 352 0
 1594 0494 D7F84031 		ldr	r3, [r7, #320]
 1595 0498 586D     		ldr	r0, [r3, #84]
 1596 049a D7F84031 		ldr	r3, [r7, #320]
 1597 049e 596C     		ldr	r1, [r3, #68]
 1598 04a0 D7F82C31 		ldr	r3, [r7, #300]
 1599 04a4 5B00     		lsls	r3, r3, #1
ARM GAS  /var/folders/kh/x4vltyy52lbg7p4pcyglc5080000gp/T//ccuucmVt.s 			page 40


 1600 04a6 1A46     		mov	r2, r3
 1601 04a8 FFF7FEFF 		bl	memcpy
 353:STM32F10x_Speex_Lib/STM32/libspeex/nb_celp.c ****          SPEEX_COPY(st->sw+diff, in, st->frameSize-diff);
 1602              		.loc 3 353 0
 1603 04ac D7F84031 		ldr	r3, [r7, #320]
 1604 04b0 5A6D     		ldr	r2, [r3, #84]
 1605 04b2 D7F82C31 		ldr	r3, [r7, #300]
 1606 04b6 5B00     		lsls	r3, r3, #1
 1607 04b8 D018     		adds	r0, r2, r3
 1608 04ba D7F84031 		ldr	r3, [r7, #320]
 1609 04be 9A68     		ldr	r2, [r3, #8]
 1610 04c0 D7F82C31 		ldr	r3, [r7, #300]
 1611 04c4 D31A     		subs	r3, r2, r3
 1612 04c6 5B00     		lsls	r3, r3, #1
 1613 04c8 1A46     		mov	r2, r3
 1614 04ca D7F84411 		ldr	r1, [r7, #324]
 1615 04ce FFF7FEFF 		bl	memcpy
 354:STM32F10x_Speex_Lib/STM32/libspeex/nb_celp.c ****          filter_mem16(st->sw, bw_lpc1, bw_lpc2, st->sw, st->frameSize, st->lpcSize, st->mem_sw_whol
 1616              		.loc 3 354 0
 1617 04d2 D7F84031 		ldr	r3, [r7, #320]
 1618 04d6 5C6D     		ldr	r4, [r3, #84]
 1619 04d8 D7F84031 		ldr	r3, [r7, #320]
 1620 04dc 5B6D     		ldr	r3, [r3, #84]
 1621 04de 3B60     		str	r3, [r7]
 1622 04e0 D7F84031 		ldr	r3, [r7, #320]
 1623 04e4 9B68     		ldr	r3, [r3, #8]
 1624 04e6 D7F84021 		ldr	r2, [r7, #320]
 1625 04ea 9269     		ldr	r2, [r2, #24]
 1626 04ec D7F84011 		ldr	r1, [r7, #320]
 1627 04f0 096F     		ldr	r1, [r1, #112]
 1628 04f2 07F1B006 		add	r6, r7, #176
 1629 04f6 07F1C405 		add	r5, r7, #196
 1630 04fa D7F83C01 		ldr	r0, [r7, #316]
 1631 04fe 0390     		str	r0, [sp, #12]
 1632 0500 0291     		str	r1, [sp, #8]
 1633 0502 0192     		str	r2, [sp, #4]
 1634 0504 0093     		str	r3, [sp]
 1635 0506 3B68     		ldr	r3, [r7]
 1636 0508 3246     		mov	r2, r6
 1637 050a 2946     		mov	r1, r5
 1638 050c 2046     		mov	r0, r4
 1639 050e FFF7FEFF 		bl	filter_mem16
 355:STM32F10x_Speex_Lib/STM32/libspeex/nb_celp.c **** 
 356:STM32F10x_Speex_Lib/STM32/libspeex/nb_celp.c ****          open_loop_nbest_pitch(st->sw, st->min_pitch, st->max_pitch, st->frameSize, 
 1640              		.loc 3 356 0
 1641 0512 D7F84031 		ldr	r3, [r7, #320]
 1642 0516 586D     		ldr	r0, [r3, #84]
 1643 0518 D7F84031 		ldr	r3, [r7, #320]
 1644 051c D969     		ldr	r1, [r3, #28]
 1645 051e D7F84031 		ldr	r3, [r7, #320]
 1646 0522 1A6A     		ldr	r2, [r3, #32]
 1647 0524 D7F84031 		ldr	r3, [r7, #320]
 1648 0528 9C68     		ldr	r4, [r3, #8]
 1649 052a D7F83C31 		ldr	r3, [r7, #316]
 1650 052e 0393     		str	r3, [sp, #12]
 1651 0530 0623     		movs	r3, #6
 1652 0532 0293     		str	r3, [sp, #8]
ARM GAS  /var/folders/kh/x4vltyy52lbg7p4pcyglc5080000gp/T//ccuucmVt.s 			page 41


 1653 0534 07F11403 		add	r3, r7, #20
 1654 0538 0193     		str	r3, [sp, #4]
 1655 053a 07F12003 		add	r3, r7, #32
 1656 053e 0093     		str	r3, [sp]
 1657 0540 2346     		mov	r3, r4
 1658 0542 FFF7FEFF 		bl	open_loop_nbest_pitch
 357:STM32F10x_Speex_Lib/STM32/libspeex/nb_celp.c ****                                nol_pitch, nol_pitch_coef, 6, stack);
 358:STM32F10x_Speex_Lib/STM32/libspeex/nb_celp.c ****          ol_pitch=nol_pitch[0];
 1659              		.loc 3 358 0
 1660 0546 07F12003 		add	r3, r7, #32
 1661 054a 1B68     		ldr	r3, [r3]
 1662 054c C7F86431 		str	r3, [r7, #356]
 359:STM32F10x_Speex_Lib/STM32/libspeex/nb_celp.c ****          ol_pitch_coef = nol_pitch_coef[0];
 1663              		.loc 3 359 0
 1664 0550 07F11403 		add	r3, r7, #20
 1665 0554 1B88     		ldrh	r3, [r3]	@ movhi
 1666 0556 A7F86231 		strh	r3, [r7, #354]	@ movhi
 360:STM32F10x_Speex_Lib/STM32/libspeex/nb_celp.c ****          /*Try to remove pitch multiples*/
 361:STM32F10x_Speex_Lib/STM32/libspeex/nb_celp.c ****          for (i=1;i<6;i++)
 1667              		.loc 3 361 0
 1668 055a 0123     		movs	r3, #1
 1669 055c C7F86C31 		str	r3, [r7, #364]
 1670 0560 AAE0     		b	.L53
 1671              	.L61:
 362:STM32F10x_Speex_Lib/STM32/libspeex/nb_celp.c ****          {
 363:STM32F10x_Speex_Lib/STM32/libspeex/nb_celp.c ****             if ((nol_pitch_coef[i]>MULT16_16_Q15(nol_pitch_coef[0],27853)) && 
 1672              		.loc 3 363 0
 1673 0562 07F11403 		add	r3, r7, #20
 1674 0566 D7F86C21 		ldr	r2, [r7, #364]
 1675 056a 33F91230 		ldrsh	r3, [r3, r2, lsl #1]
 1676 056e 1A46     		mov	r2, r3
 1677 0570 07F11403 		add	r3, r7, #20
 1678 0574 B3F90030 		ldrsh	r3, [r3]
 1679 0578 1946     		mov	r1, r3
 1680 057a 46F6CD43 		movw	r3, #27853
 1681 057e 03FB01F3 		mul	r3, r3, r1
 1682 0582 DB13     		asrs	r3, r3, #15
 1683 0584 9A42     		cmp	r2, r3
 1684 0586 40F39280 		ble	.L54
 364:STM32F10x_Speex_Lib/STM32/libspeex/nb_celp.c **** 
 365:STM32F10x_Speex_Lib/STM32/libspeex/nb_celp.c ****                 (ABS(2*nol_pitch[i]-ol_pitch)<=2 || ABS(3*nol_pitch[i]-ol_pitch)<=3 || 
 1685              		.loc 3 365 0 discriminator 1
 1686 058a 07F12003 		add	r3, r7, #32
 1687 058e D7F86C21 		ldr	r2, [r7, #364]
 1688 0592 53F82230 		ldr	r3, [r3, r2, lsl #2]
 1689 0596 5A00     		lsls	r2, r3, #1
 1690 0598 D7F86431 		ldr	r3, [r7, #356]
 1691 059c D31A     		subs	r3, r2, r3
 363:STM32F10x_Speex_Lib/STM32/libspeex/nb_celp.c **** 
 1692              		.loc 3 363 0 discriminator 1
 1693 059e 13F1020F 		cmn	r3, #2
 1694 05a2 0BDB     		blt	.L55
 1695              		.loc 3 365 0 discriminator 1
 1696 05a4 07F12003 		add	r3, r7, #32
 1697 05a8 D7F86C21 		ldr	r2, [r7, #364]
 1698 05ac 53F82230 		ldr	r3, [r3, r2, lsl #2]
 1699 05b0 5A00     		lsls	r2, r3, #1
ARM GAS  /var/folders/kh/x4vltyy52lbg7p4pcyglc5080000gp/T//ccuucmVt.s 			page 42


 1700 05b2 D7F86431 		ldr	r3, [r7, #356]
 1701 05b6 D31A     		subs	r3, r2, r3
 1702 05b8 022B     		cmp	r3, #2
 1703 05ba 70DD     		ble	.L56
 1704              	.L55:
 1705              		.loc 3 365 0 is_stmt 0 discriminator 2
 1706 05bc 07F12003 		add	r3, r7, #32
 1707 05c0 D7F86C21 		ldr	r2, [r7, #364]
 1708 05c4 53F82220 		ldr	r2, [r3, r2, lsl #2]
 1709 05c8 1346     		mov	r3, r2
 1710 05ca 5B00     		lsls	r3, r3, #1
 1711 05cc 1A44     		add	r2, r2, r3
 1712 05ce D7F86431 		ldr	r3, [r7, #356]
 1713 05d2 D31A     		subs	r3, r2, r3
 363:STM32F10x_Speex_Lib/STM32/libspeex/nb_celp.c **** 
 1714              		.loc 3 363 0 is_stmt 1 discriminator 2
 1715 05d4 002B     		cmp	r3, #0
 1716 05d6 0EDA     		bge	.L57
 1717              		.loc 3 365 0
 1718 05d8 07F12003 		add	r3, r7, #32
 1719 05dc D7F86C21 		ldr	r2, [r7, #364]
 1720 05e0 53F82230 		ldr	r3, [r3, r2, lsl #2]
 1721 05e4 1A46     		mov	r2, r3
 1722 05e6 9B00     		lsls	r3, r3, #2
 1723 05e8 D21A     		subs	r2, r2, r3
 1724 05ea D7F86431 		ldr	r3, [r7, #356]
 1725 05ee 1344     		add	r3, r3, r2
 1726 05f0 032B     		cmp	r3, #3
 1727 05f2 54DD     		ble	.L56
 1728 05f4 0DE0     		b	.L58
 1729              	.L57:
 1730 05f6 07F12003 		add	r3, r7, #32
 1731 05fa D7F86C21 		ldr	r2, [r7, #364]
 1732 05fe 53F82220 		ldr	r2, [r3, r2, lsl #2]
 1733 0602 1346     		mov	r3, r2
 1734 0604 5B00     		lsls	r3, r3, #1
 1735 0606 1A44     		add	r2, r2, r3
 1736 0608 D7F86431 		ldr	r3, [r7, #356]
 1737 060c D31A     		subs	r3, r2, r3
 1738 060e 032B     		cmp	r3, #3
 1739 0610 45DD     		ble	.L56
 1740              	.L58:
 366:STM32F10x_Speex_Lib/STM32/libspeex/nb_celp.c ****                  ABS(4*nol_pitch[i]-ol_pitch)<=4 || ABS(5*nol_pitch[i]-ol_pitch)<=5))
 1741              		.loc 3 366 0 discriminator 2
 1742 0612 07F12003 		add	r3, r7, #32
 1743 0616 D7F86C21 		ldr	r2, [r7, #364]
 1744 061a 53F82230 		ldr	r3, [r3, r2, lsl #2]
 1745 061e 9A00     		lsls	r2, r3, #2
 1746 0620 D7F86431 		ldr	r3, [r7, #356]
 1747 0624 D31A     		subs	r3, r2, r3
 365:STM32F10x_Speex_Lib/STM32/libspeex/nb_celp.c ****                  ABS(4*nol_pitch[i]-ol_pitch)<=4 || ABS(5*nol_pitch[i]-ol_pitch)<=5))
 1748              		.loc 3 365 0 discriminator 2
 1749 0626 13F1040F 		cmn	r3, #4
 1750 062a 0BDB     		blt	.L59
 1751              		.loc 3 366 0
 1752 062c 07F12003 		add	r3, r7, #32
 1753 0630 D7F86C21 		ldr	r2, [r7, #364]
ARM GAS  /var/folders/kh/x4vltyy52lbg7p4pcyglc5080000gp/T//ccuucmVt.s 			page 43


 1754 0634 53F82230 		ldr	r3, [r3, r2, lsl #2]
 1755 0638 9A00     		lsls	r2, r3, #2
 1756 063a D7F86431 		ldr	r3, [r7, #356]
 1757 063e D31A     		subs	r3, r2, r3
 1758 0640 042B     		cmp	r3, #4
 1759 0642 2CDD     		ble	.L56
 1760              	.L59:
 1761              		.loc 3 366 0 is_stmt 0 discriminator 1
 1762 0644 07F12003 		add	r3, r7, #32
 1763 0648 D7F86C21 		ldr	r2, [r7, #364]
 1764 064c 53F82220 		ldr	r2, [r3, r2, lsl #2]
 1765 0650 1346     		mov	r3, r2
 1766 0652 9B00     		lsls	r3, r3, #2
 1767 0654 1A44     		add	r2, r2, r3
 1768 0656 D7F86431 		ldr	r3, [r7, #356]
 1769 065a D31A     		subs	r3, r2, r3
 363:STM32F10x_Speex_Lib/STM32/libspeex/nb_celp.c **** 
 1770              		.loc 3 363 0 is_stmt 1 discriminator 1
 1771 065c 002B     		cmp	r3, #0
 1772 065e 10DA     		bge	.L60
 1773              		.loc 3 366 0
 1774 0660 07F12003 		add	r3, r7, #32
 1775 0664 D7F86C21 		ldr	r2, [r7, #364]
 1776 0668 53F82220 		ldr	r2, [r3, r2, lsl #2]
 1777 066c 1346     		mov	r3, r2
 1778 066e 9B07     		lsls	r3, r3, #30
 1779 0670 9B1A     		subs	r3, r3, r2
 1780 0672 9B00     		lsls	r3, r3, #2
 1781 0674 9A1A     		subs	r2, r3, r2
 1782 0676 D7F86431 		ldr	r3, [r7, #356]
 1783 067a 1344     		add	r3, r3, r2
 1784 067c 052B     		cmp	r3, #5
 1785 067e 0EDD     		ble	.L56
 1786 0680 15E0     		b	.L54
 1787              	.L60:
 1788 0682 07F12003 		add	r3, r7, #32
 1789 0686 D7F86C21 		ldr	r2, [r7, #364]
 1790 068a 53F82220 		ldr	r2, [r3, r2, lsl #2]
 1791 068e 1346     		mov	r3, r2
 1792 0690 9B00     		lsls	r3, r3, #2
 1793 0692 1A44     		add	r2, r2, r3
 1794 0694 D7F86431 		ldr	r3, [r7, #356]
 1795 0698 D31A     		subs	r3, r2, r3
 1796 069a 052B     		cmp	r3, #5
 1797 069c 07DC     		bgt	.L54
 1798              	.L56:
 367:STM32F10x_Speex_Lib/STM32/libspeex/nb_celp.c ****             {
 368:STM32F10x_Speex_Lib/STM32/libspeex/nb_celp.c ****                /*ol_pitch_coef=nol_pitch_coef[i];*/
 369:STM32F10x_Speex_Lib/STM32/libspeex/nb_celp.c ****                ol_pitch = nol_pitch[i];
 1799              		.loc 3 369 0
 1800 069e 07F12003 		add	r3, r7, #32
 1801 06a2 D7F86C21 		ldr	r2, [r7, #364]
 1802 06a6 53F82230 		ldr	r3, [r3, r2, lsl #2]
 1803 06aa C7F86431 		str	r3, [r7, #356]
 1804              	.L54:
 361:STM32F10x_Speex_Lib/STM32/libspeex/nb_celp.c ****          {
 1805              		.loc 3 361 0 discriminator 2
ARM GAS  /var/folders/kh/x4vltyy52lbg7p4pcyglc5080000gp/T//ccuucmVt.s 			page 44


 1806 06ae D7F86C31 		ldr	r3, [r7, #364]
 1807 06b2 0133     		adds	r3, r3, #1
 1808 06b4 C7F86C31 		str	r3, [r7, #364]
 1809              	.L53:
 361:STM32F10x_Speex_Lib/STM32/libspeex/nb_celp.c ****          {
 1810              		.loc 3 361 0 is_stmt 0 discriminator 1
 1811 06b8 D7F86C31 		ldr	r3, [r7, #364]
 1812 06bc 052B     		cmp	r3, #5
 1813 06be 7FF750AF 		ble	.L61
 1814              	.LBE4:
 345:STM32F10x_Speex_Lib/STM32/libspeex/nb_celp.c ****          int nol_pitch[6];
 1815              		.loc 3 345 0 is_stmt 1
 1816 06c2 05E0     		b	.L62
 1817              	.L52:
 370:STM32F10x_Speex_Lib/STM32/libspeex/nb_celp.c ****             }
 371:STM32F10x_Speex_Lib/STM32/libspeex/nb_celp.c ****          }
 372:STM32F10x_Speex_Lib/STM32/libspeex/nb_celp.c ****          /*if (ol_pitch>50)
 373:STM32F10x_Speex_Lib/STM32/libspeex/nb_celp.c ****            ol_pitch/=2;*/
 374:STM32F10x_Speex_Lib/STM32/libspeex/nb_celp.c ****          /*ol_pitch_coef = sqrt(ol_pitch_coef);*/
 375:STM32F10x_Speex_Lib/STM32/libspeex/nb_celp.c **** 
 376:STM32F10x_Speex_Lib/STM32/libspeex/nb_celp.c ****       } else {
 377:STM32F10x_Speex_Lib/STM32/libspeex/nb_celp.c ****          ol_pitch=0;
 1818              		.loc 3 377 0
 1819 06c4 0023     		movs	r3, #0
 1820 06c6 C7F86431 		str	r3, [r7, #356]
 378:STM32F10x_Speex_Lib/STM32/libspeex/nb_celp.c ****          ol_pitch_coef=0;
 1821              		.loc 3 378 0
 1822 06ca 0023     		movs	r3, #0
 1823 06cc A7F86231 		strh	r3, [r7, #354]	@ movhi
 1824              	.L62:
 379:STM32F10x_Speex_Lib/STM32/libspeex/nb_celp.c ****       }
 380:STM32F10x_Speex_Lib/STM32/libspeex/nb_celp.c ****       
 381:STM32F10x_Speex_Lib/STM32/libspeex/nb_celp.c ****       /*Compute "real" excitation*/
 382:STM32F10x_Speex_Lib/STM32/libspeex/nb_celp.c ****       SPEEX_COPY(st->exc, st->winBuf, diff);
 1825              		.loc 3 382 0
 1826 06d0 D7F84031 		ldr	r3, [r7, #320]
 1827 06d4 D86C     		ldr	r0, [r3, #76]
 1828 06d6 D7F84031 		ldr	r3, [r7, #320]
 1829 06da 596C     		ldr	r1, [r3, #68]
 1830 06dc D7F82C31 		ldr	r3, [r7, #300]
 1831 06e0 5B00     		lsls	r3, r3, #1
 1832 06e2 1A46     		mov	r2, r3
 1833 06e4 FFF7FEFF 		bl	memcpy
 383:STM32F10x_Speex_Lib/STM32/libspeex/nb_celp.c ****       SPEEX_COPY(st->exc+diff, in, st->frameSize-diff);
 1834              		.loc 3 383 0
 1835 06e8 D7F84031 		ldr	r3, [r7, #320]
 1836 06ec DA6C     		ldr	r2, [r3, #76]
 1837 06ee D7F82C31 		ldr	r3, [r7, #300]
 1838 06f2 5B00     		lsls	r3, r3, #1
 1839 06f4 D018     		adds	r0, r2, r3
 1840 06f6 D7F84031 		ldr	r3, [r7, #320]
 1841 06fa 9A68     		ldr	r2, [r3, #8]
 1842 06fc D7F82C31 		ldr	r3, [r7, #300]
 1843 0700 D31A     		subs	r3, r2, r3
 1844 0702 5B00     		lsls	r3, r3, #1
 1845 0704 1A46     		mov	r2, r3
 1846 0706 D7F84411 		ldr	r1, [r7, #324]
ARM GAS  /var/folders/kh/x4vltyy52lbg7p4pcyglc5080000gp/T//ccuucmVt.s 			page 45


 1847 070a FFF7FEFF 		bl	memcpy
 384:STM32F10x_Speex_Lib/STM32/libspeex/nb_celp.c ****       fir_mem16(st->exc, interp_lpc, st->exc, st->frameSize, st->lpcSize, st->mem_exc, stack);
 1848              		.loc 3 384 0
 1849 070e D7F84031 		ldr	r3, [r7, #320]
 1850 0712 D86C     		ldr	r0, [r3, #76]
 1851 0714 D7F84031 		ldr	r3, [r7, #320]
 1852 0718 DD6C     		ldr	r5, [r3, #76]
 1853 071a D7F84031 		ldr	r3, [r7, #320]
 1854 071e 9E68     		ldr	r6, [r3, #8]
 1855 0720 D7F84031 		ldr	r3, [r7, #320]
 1856 0724 9B69     		ldr	r3, [r3, #24]
 1857 0726 D7F84021 		ldr	r2, [r7, #320]
 1858 072a 526F     		ldr	r2, [r2, #116]
 1859 072c 07F14C04 		add	r4, r7, #76
 1860 0730 D7F83C11 		ldr	r1, [r7, #316]
 1861 0734 0291     		str	r1, [sp, #8]
 1862 0736 0192     		str	r2, [sp, #4]
 1863 0738 0093     		str	r3, [sp]
 1864 073a 3346     		mov	r3, r6
 1865 073c 2A46     		mov	r2, r5
 1866 073e 2146     		mov	r1, r4
 1867 0740 FFF7FEFF 		bl	fir_mem16
 1868              	.LBB5:
 385:STM32F10x_Speex_Lib/STM32/libspeex/nb_celp.c **** 
 386:STM32F10x_Speex_Lib/STM32/libspeex/nb_celp.c ****       /* Compute open-loop excitation gain */
 387:STM32F10x_Speex_Lib/STM32/libspeex/nb_celp.c ****       {
 388:STM32F10x_Speex_Lib/STM32/libspeex/nb_celp.c ****          spx_word16_t g = compute_rms16(st->exc, st->frameSize);
 1869              		.loc 3 388 0
 1870 0744 D7F84031 		ldr	r3, [r7, #320]
 1871 0748 DA6C     		ldr	r2, [r3, #76]
 1872 074a D7F84031 		ldr	r3, [r7, #320]
 1873 074e 9B68     		ldr	r3, [r3, #8]
 1874 0750 1946     		mov	r1, r3
 1875 0752 1046     		mov	r0, r2
 1876 0754 FFF7FEFF 		bl	compute_rms16
 1877 0758 0346     		mov	r3, r0
 1878 075a A7F82A31 		strh	r3, [r7, #298]	@ movhi
 389:STM32F10x_Speex_Lib/STM32/libspeex/nb_celp.c ****          if (st->submodeID!=1 && ol_pitch>0)
 1879              		.loc 3 389 0
 1880 075e D7F84031 		ldr	r3, [r7, #320]
 1881 0762 D3F8A030 		ldr	r3, [r3, #160]
 1882 0766 012B     		cmp	r3, #1
 1883 0768 24D0     		beq	.L63
 1884              		.loc 3 389 0 is_stmt 0 discriminator 1
 1885 076a D7F86431 		ldr	r3, [r7, #356]
 1886 076e 002B     		cmp	r3, #0
 1887 0770 20DD     		ble	.L63
 390:STM32F10x_Speex_Lib/STM32/libspeex/nb_celp.c ****             ol_gain = MULT16_16(g, MULT16_16_Q14(QCONST16(1.1,14),
 1888              		.loc 3 390 0 is_stmt 1
 1889 0772 B7F92A41 		ldrsh	r4, [r7, #298]
 1890 0776 B7F96231 		ldrsh	r3, [r7, #354]
 1891 077a B7F96221 		ldrsh	r2, [r7, #354]
 1892 077e 02FB03F3 		mul	r3, r2, r3
 1893 0782 1B04     		lsls	r3, r3, #16
 1894 0784 DB13     		asrs	r3, r3, #15
 1895 0786 1BB2     		sxth	r3, r3
 1896 0788 1A46     		mov	r2, r3
ARM GAS  /var/folders/kh/x4vltyy52lbg7p4pcyglc5080000gp/T//ccuucmVt.s 			page 46


 1897 078a C44B     		ldr	r3, .L125
 1898 078c 03FB02F3 		mul	r3, r3, r2
 1899 0790 03F18053 		add	r3, r3, #268435456
 1900 0794 1846     		mov	r0, r3
 1901 0796 FFF7FEFF 		bl	spx_sqrt
 1902 079a 0346     		mov	r3, r0
 1903 079c 1A46     		mov	r2, r3
 1904 079e 44F26663 		movw	r3, #18022
 1905 07a2 03FB02F3 		mul	r3, r3, r2
 1906 07a6 9B13     		asrs	r3, r3, #14
 1907 07a8 1BB2     		sxth	r3, r3
 1908 07aa 03FB04F3 		mul	r3, r3, r4
 1909 07ae C7F85C31 		str	r3, [r7, #348]
 1910 07b2 04E0     		b	.L64
 1911              	.L63:
 391:STM32F10x_Speex_Lib/STM32/libspeex/nb_celp.c ****                                 spx_sqrt(QCONST32(1.,28)-MULT16_32_Q15(QCONST16(.8,15),SHL32(MULT16
 392:STM32F10x_Speex_Lib/STM32/libspeex/nb_celp.c ****          else
 393:STM32F10x_Speex_Lib/STM32/libspeex/nb_celp.c ****             ol_gain = SHL32(EXTEND32(g),SIG_SHIFT);
 1912              		.loc 3 393 0
 1913 07b4 B7F92A31 		ldrsh	r3, [r7, #298]
 1914 07b8 9B03     		lsls	r3, r3, #14
 1915 07ba C7F85C31 		str	r3, [r7, #348]
 1916              	.L64:
 1917              	.LBE5:
 1918              	.LBE3:
 394:STM32F10x_Speex_Lib/STM32/libspeex/nb_celp.c ****       }
 395:STM32F10x_Speex_Lib/STM32/libspeex/nb_celp.c ****    }
 396:STM32F10x_Speex_Lib/STM32/libspeex/nb_celp.c **** 
 397:STM32F10x_Speex_Lib/STM32/libspeex/nb_celp.c ****    if (st->encode_submode)
 1919              		.loc 3 397 0
 1920 07be D7F84031 		ldr	r3, [r7, #320]
 1921 07c2 D3F89830 		ldr	r3, [r3, #152]
 1922 07c6 002B     		cmp	r3, #0
 1923 07c8 0ED0     		beq	.L65
 398:STM32F10x_Speex_Lib/STM32/libspeex/nb_celp.c ****    {
 399:STM32F10x_Speex_Lib/STM32/libspeex/nb_celp.c ****       /* First, transmit a zero for narrowband */
 400:STM32F10x_Speex_Lib/STM32/libspeex/nb_celp.c ****       speex_bits_pack(bits, 0, 1);
 1924              		.loc 3 400 0
 1925 07ca 3B1D     		adds	r3, r7, #4
 1926 07cc 0122     		movs	r2, #1
 1927 07ce 0021     		movs	r1, #0
 1928 07d0 1868     		ldr	r0, [r3]
 1929 07d2 FFF7FEFF 		bl	speex_bits_pack
 401:STM32F10x_Speex_Lib/STM32/libspeex/nb_celp.c **** 
 402:STM32F10x_Speex_Lib/STM32/libspeex/nb_celp.c ****       /* Transmit the sub-mode we use for this frame */
 403:STM32F10x_Speex_Lib/STM32/libspeex/nb_celp.c ****       speex_bits_pack(bits, st->submodeID, NB_SUBMODE_BITS);
 1930              		.loc 3 403 0
 1931 07d6 D7F84031 		ldr	r3, [r7, #320]
 1932 07da D3F8A010 		ldr	r1, [r3, #160]
 1933 07de 3B1D     		adds	r3, r7, #4
 1934 07e0 0422     		movs	r2, #4
 1935 07e2 1868     		ldr	r0, [r3]
 1936 07e4 FFF7FEFF 		bl	speex_bits_pack
 1937              	.L65:
 404:STM32F10x_Speex_Lib/STM32/libspeex/nb_celp.c **** 
 405:STM32F10x_Speex_Lib/STM32/libspeex/nb_celp.c ****    }
 406:STM32F10x_Speex_Lib/STM32/libspeex/nb_celp.c **** 
ARM GAS  /var/folders/kh/x4vltyy52lbg7p4pcyglc5080000gp/T//ccuucmVt.s 			page 47


 407:STM32F10x_Speex_Lib/STM32/libspeex/nb_celp.c ****    /* LSP Quantization */
 408:STM32F10x_Speex_Lib/STM32/libspeex/nb_celp.c ****    if (st->first)
 1938              		.loc 3 408 0
 1939 07e8 D7F84031 		ldr	r3, [r7, #320]
 1940 07ec 5B68     		ldr	r3, [r3, #4]
 1941 07ee 002B     		cmp	r3, #0
 1942 07f0 1FD0     		beq	.L66
 409:STM32F10x_Speex_Lib/STM32/libspeex/nb_celp.c ****    {
 410:STM32F10x_Speex_Lib/STM32/libspeex/nb_celp.c ****       for (i=0;i<st->lpcSize;i++)
 1943              		.loc 3 410 0
 1944 07f2 0023     		movs	r3, #0
 1945 07f4 C7F86C31 		str	r3, [r7, #364]
 1946 07f8 14E0     		b	.L67
 1947              	.L68:
 411:STM32F10x_Speex_Lib/STM32/libspeex/nb_celp.c ****          st->old_lsp[i] = lsp[i];
 1948              		.loc 3 411 0 discriminator 3
 1949 07fa D7F84031 		ldr	r3, [r7, #320]
 1950 07fe 1A6E     		ldr	r2, [r3, #96]
 1951 0800 D7F86C31 		ldr	r3, [r7, #364]
 1952 0804 5B00     		lsls	r3, r3, #1
 1953 0806 1A44     		add	r2, r2, r3
 1954 0808 D7F86C31 		ldr	r3, [r7, #364]
 1955 080c 5B00     		lsls	r3, r3, #1
 1956 080e 07F5B871 		add	r1, r7, #368
 1957 0812 0B44     		add	r3, r3, r1
 1958 0814 33F9D43C 		ldrsh	r3, [r3, #-212]
 1959 0818 1380     		strh	r3, [r2]	@ movhi
 410:STM32F10x_Speex_Lib/STM32/libspeex/nb_celp.c ****          st->old_lsp[i] = lsp[i];
 1960              		.loc 3 410 0 discriminator 3
 1961 081a D7F86C31 		ldr	r3, [r7, #364]
 1962 081e 0133     		adds	r3, r3, #1
 1963 0820 C7F86C31 		str	r3, [r7, #364]
 1964              	.L67:
 410:STM32F10x_Speex_Lib/STM32/libspeex/nb_celp.c ****          st->old_lsp[i] = lsp[i];
 1965              		.loc 3 410 0 is_stmt 0 discriminator 1
 1966 0824 D7F84031 		ldr	r3, [r7, #320]
 1967 0828 9A69     		ldr	r2, [r3, #24]
 1968 082a D7F86C31 		ldr	r3, [r7, #364]
 1969 082e 9A42     		cmp	r2, r3
 1970 0830 E3DC     		bgt	.L68
 1971              	.L66:
 412:STM32F10x_Speex_Lib/STM32/libspeex/nb_celp.c ****    }
 413:STM32F10x_Speex_Lib/STM32/libspeex/nb_celp.c **** 
 414:STM32F10x_Speex_Lib/STM32/libspeex/nb_celp.c **** 
 415:STM32F10x_Speex_Lib/STM32/libspeex/nb_celp.c ****    /*Quantize LSPs*/
 416:STM32F10x_Speex_Lib/STM32/libspeex/nb_celp.c ****    SUBMODE(lsp_quant)(lsp, qlsp, st->lpcSize, bits);  
 1972              		.loc 3 416 0 is_stmt 1
 1973 0832 D7F84031 		ldr	r3, [r7, #320]
 1974 0836 D3F89C20 		ldr	r2, [r3, #156]
 1975 083a D7F84031 		ldr	r3, [r7, #320]
 1976 083e D3F8A030 		ldr	r3, [r3, #160]
 1977 0842 9B00     		lsls	r3, r3, #2
 1978 0844 1344     		add	r3, r3, r2
 1979 0846 1B68     		ldr	r3, [r3]
 1980 0848 1C69     		ldr	r4, [r3, #16]
 1981 084a D7F84031 		ldr	r3, [r7, #320]
 1982 084e 9A69     		ldr	r2, [r3, #24]
ARM GAS  /var/folders/kh/x4vltyy52lbg7p4pcyglc5080000gp/T//ccuucmVt.s 			page 48


 1983 0850 3B1D     		adds	r3, r7, #4
 1984 0852 07F18801 		add	r1, r7, #136
 1985 0856 07F19C00 		add	r0, r7, #156
 1986 085a 1B68     		ldr	r3, [r3]
 1987 085c A047     		blx	r4
 1988              	.LBB6:
 417:STM32F10x_Speex_Lib/STM32/libspeex/nb_celp.c ****    
 418:STM32F10x_Speex_Lib/STM32/libspeex/nb_celp.c ****    /*Quantize and transmit open-loop excitation gain*/
 419:STM32F10x_Speex_Lib/STM32/libspeex/nb_celp.c ****    {
 420:STM32F10x_Speex_Lib/STM32/libspeex/nb_celp.c ****       int qe = scal_quant32(ol_gain, ol_gain_table, 32);
 1989              		.loc 3 420 0
 1990 085e 2022     		movs	r2, #32
 1991 0860 8F49     		ldr	r1, .L125+4
 1992 0862 D7F85C01 		ldr	r0, [r7, #348]
 1993 0866 FFF7FEFF 		bl	scal_quant32
 1994 086a C7F82401 		str	r0, [r7, #292]
 421:STM32F10x_Speex_Lib/STM32/libspeex/nb_celp.c ****       /*ol_gain = exp(qe/3.5)*SIG_SCALING;*/
 422:STM32F10x_Speex_Lib/STM32/libspeex/nb_celp.c ****       ol_gain = MULT16_32_Q15(28406,ol_gain_table[qe]);
 1995              		.loc 3 422 0
 1996 086e 8C4A     		ldr	r2, .L125+4
 1997 0870 D7F82431 		ldr	r3, [r7, #292]
 1998 0874 52F82330 		ldr	r3, [r2, r3, lsl #2]
 1999 0878 DB13     		asrs	r3, r3, #15
 2000 087a 1BB2     		sxth	r3, r3
 2001 087c 1A46     		mov	r2, r3
 2002 087e 46F6F663 		movw	r3, #28406
 2003 0882 03FB02F2 		mul	r2, r3, r2
 2004 0886 8649     		ldr	r1, .L125+4
 2005 0888 D7F82431 		ldr	r3, [r7, #292]
 2006 088c 51F82330 		ldr	r3, [r1, r3, lsl #2]
 2007 0890 C3F30E03 		ubfx	r3, r3, #0, #15
 2008 0894 46F6F661 		movw	r1, #28406
 2009 0898 01FB03F3 		mul	r3, r1, r3
 2010 089c DB13     		asrs	r3, r3, #15
 2011 089e 1344     		add	r3, r3, r2
 2012 08a0 C7F85C31 		str	r3, [r7, #348]
 423:STM32F10x_Speex_Lib/STM32/libspeex/nb_celp.c ****       speex_bits_pack(bits, qe, 5);
 2013              		.loc 3 423 0
 2014 08a4 3B1D     		adds	r3, r7, #4
 2015 08a6 0522     		movs	r2, #5
 2016 08a8 D7F82411 		ldr	r1, [r7, #292]
 2017 08ac 1868     		ldr	r0, [r3]
 2018 08ae FFF7FEFF 		bl	speex_bits_pack
 2019              	.LBE6:
 424:STM32F10x_Speex_Lib/STM32/libspeex/nb_celp.c ****    }
 425:STM32F10x_Speex_Lib/STM32/libspeex/nb_celp.c **** 
 426:STM32F10x_Speex_Lib/STM32/libspeex/nb_celp.c **** 
 427:STM32F10x_Speex_Lib/STM32/libspeex/nb_celp.c **** 
 428:STM32F10x_Speex_Lib/STM32/libspeex/nb_celp.c **** 
 429:STM32F10x_Speex_Lib/STM32/libspeex/nb_celp.c ****    /* Special case for first frame */
 430:STM32F10x_Speex_Lib/STM32/libspeex/nb_celp.c ****    if (st->first)
 2020              		.loc 3 430 0
 2021 08b2 D7F84031 		ldr	r3, [r7, #320]
 2022 08b6 5B68     		ldr	r3, [r3, #4]
 2023 08b8 002B     		cmp	r3, #0
 2024 08ba 1FD0     		beq	.L69
 431:STM32F10x_Speex_Lib/STM32/libspeex/nb_celp.c ****    {
ARM GAS  /var/folders/kh/x4vltyy52lbg7p4pcyglc5080000gp/T//ccuucmVt.s 			page 49


 432:STM32F10x_Speex_Lib/STM32/libspeex/nb_celp.c ****       for (i=0;i<st->lpcSize;i++)
 2025              		.loc 3 432 0
 2026 08bc 0023     		movs	r3, #0
 2027 08be C7F86C31 		str	r3, [r7, #364]
 2028 08c2 14E0     		b	.L70
 2029              	.L71:
 433:STM32F10x_Speex_Lib/STM32/libspeex/nb_celp.c ****          st->old_qlsp[i] = qlsp[i];
 2030              		.loc 3 433 0 discriminator 3
 2031 08c4 D7F84031 		ldr	r3, [r7, #320]
 2032 08c8 5A6E     		ldr	r2, [r3, #100]
 2033 08ca D7F86C31 		ldr	r3, [r7, #364]
 2034 08ce 5B00     		lsls	r3, r3, #1
 2035 08d0 1A44     		add	r2, r2, r3
 2036 08d2 D7F86C31 		ldr	r3, [r7, #364]
 2037 08d6 5B00     		lsls	r3, r3, #1
 2038 08d8 07F5B871 		add	r1, r7, #368
 2039 08dc 0B44     		add	r3, r3, r1
 2040 08de 33F9E83C 		ldrsh	r3, [r3, #-232]
 2041 08e2 1380     		strh	r3, [r2]	@ movhi
 432:STM32F10x_Speex_Lib/STM32/libspeex/nb_celp.c ****          st->old_qlsp[i] = qlsp[i];
 2042              		.loc 3 432 0 discriminator 3
 2043 08e4 D7F86C31 		ldr	r3, [r7, #364]
 2044 08e8 0133     		adds	r3, r3, #1
 2045 08ea C7F86C31 		str	r3, [r7, #364]
 2046              	.L70:
 432:STM32F10x_Speex_Lib/STM32/libspeex/nb_celp.c ****          st->old_qlsp[i] = qlsp[i];
 2047              		.loc 3 432 0 is_stmt 0 discriminator 1
 2048 08ee D7F84031 		ldr	r3, [r7, #320]
 2049 08f2 9A69     		ldr	r2, [r3, #24]
 2050 08f4 D7F86C31 		ldr	r3, [r7, #364]
 2051 08f8 9A42     		cmp	r2, r3
 2052 08fa E3DC     		bgt	.L71
 2053              	.L69:
 434:STM32F10x_Speex_Lib/STM32/libspeex/nb_celp.c ****    }
 435:STM32F10x_Speex_Lib/STM32/libspeex/nb_celp.c **** 
 436:STM32F10x_Speex_Lib/STM32/libspeex/nb_celp.c ****    /* Target signal */
 437:STM32F10x_Speex_Lib/STM32/libspeex/nb_celp.c ****    ALLOC(target, st->subframeSize, spx_word16_t);
 2054              		.loc 3 437 0 is_stmt 1
 2055 08fc D7F83C31 		ldr	r3, [r7, #316]
 2056 0900 5B42     		negs	r3, r3
 2057 0902 03F00103 		and	r3, r3, #1
 2058 0906 D7F83C21 		ldr	r2, [r7, #316]
 2059 090a 1344     		add	r3, r3, r2
 2060 090c C7F83C31 		str	r3, [r7, #316]
 2061 0910 D7F84031 		ldr	r3, [r7, #320]
 2062 0914 DB68     		ldr	r3, [r3, #12]
 2063 0916 5B00     		lsls	r3, r3, #1
 2064 0918 D7F83C21 		ldr	r2, [r7, #316]
 2065 091c 1344     		add	r3, r3, r2
 2066 091e C7F83C31 		str	r3, [r7, #316]
 2067 0922 D7F84031 		ldr	r3, [r7, #320]
 2068 0926 DB68     		ldr	r3, [r3, #12]
 2069 0928 5B00     		lsls	r3, r3, #1
 2070 092a 5B42     		negs	r3, r3
 2071 092c D7F83C21 		ldr	r2, [r7, #316]
 2072 0930 1344     		add	r3, r3, r2
 2073 0932 C7F82031 		str	r3, [r7, #288]
ARM GAS  /var/folders/kh/x4vltyy52lbg7p4pcyglc5080000gp/T//ccuucmVt.s 			page 50


 438:STM32F10x_Speex_Lib/STM32/libspeex/nb_celp.c ****    ALLOC(innov, st->subframeSize, spx_sig_t);
 2074              		.loc 3 438 0
 2075 0936 D7F83C31 		ldr	r3, [r7, #316]
 2076 093a 5B42     		negs	r3, r3
 2077 093c 03F00303 		and	r3, r3, #3
 2078 0940 D7F83C21 		ldr	r2, [r7, #316]
 2079 0944 1344     		add	r3, r3, r2
 2080 0946 C7F83C31 		str	r3, [r7, #316]
 2081 094a D7F84031 		ldr	r3, [r7, #320]
 2082 094e DB68     		ldr	r3, [r3, #12]
 2083 0950 9B00     		lsls	r3, r3, #2
 2084 0952 D7F83C21 		ldr	r2, [r7, #316]
 2085 0956 1344     		add	r3, r3, r2
 2086 0958 C7F83C31 		str	r3, [r7, #316]
 2087 095c D7F84031 		ldr	r3, [r7, #320]
 2088 0960 DB68     		ldr	r3, [r3, #12]
 2089 0962 9B00     		lsls	r3, r3, #2
 2090 0964 5B42     		negs	r3, r3
 2091 0966 D7F83C21 		ldr	r2, [r7, #316]
 2092 096a 1344     		add	r3, r3, r2
 2093 096c C7F81C31 		str	r3, [r7, #284]
 439:STM32F10x_Speex_Lib/STM32/libspeex/nb_celp.c ****    ALLOC(exc32, st->subframeSize, spx_word32_t);
 2094              		.loc 3 439 0
 2095 0970 D7F83C31 		ldr	r3, [r7, #316]
 2096 0974 5B42     		negs	r3, r3
 2097 0976 03F00303 		and	r3, r3, #3
 2098 097a D7F83C21 		ldr	r2, [r7, #316]
 2099 097e 1344     		add	r3, r3, r2
 2100 0980 C7F83C31 		str	r3, [r7, #316]
 2101 0984 D7F84031 		ldr	r3, [r7, #320]
 2102 0988 DB68     		ldr	r3, [r3, #12]
 2103 098a 9B00     		lsls	r3, r3, #2
 2104 098c D7F83C21 		ldr	r2, [r7, #316]
 2105 0990 1344     		add	r3, r3, r2
 2106 0992 C7F83C31 		str	r3, [r7, #316]
 2107 0996 D7F84031 		ldr	r3, [r7, #320]
 2108 099a DB68     		ldr	r3, [r3, #12]
 2109 099c 9B00     		lsls	r3, r3, #2
 2110 099e 5B42     		negs	r3, r3
 2111 09a0 D7F83C21 		ldr	r2, [r7, #316]
 2112 09a4 1344     		add	r3, r3, r2
 2113 09a6 C7F81831 		str	r3, [r7, #280]
 440:STM32F10x_Speex_Lib/STM32/libspeex/nb_celp.c ****    ALLOC(ringing, st->subframeSize, spx_word16_t);
 2114              		.loc 3 440 0
 2115 09aa D7F83C31 		ldr	r3, [r7, #316]
 2116 09ae 5B42     		negs	r3, r3
 2117 09b0 03F00103 		and	r3, r3, #1
 2118 09b4 D7F83C21 		ldr	r2, [r7, #316]
 2119 09b8 1344     		add	r3, r3, r2
 2120 09ba C7F83C31 		str	r3, [r7, #316]
 2121 09be D7F84031 		ldr	r3, [r7, #320]
 2122 09c2 DB68     		ldr	r3, [r3, #12]
 2123 09c4 5B00     		lsls	r3, r3, #1
 2124 09c6 D7F83C21 		ldr	r2, [r7, #316]
 2125 09ca 1344     		add	r3, r3, r2
 2126 09cc C7F83C31 		str	r3, [r7, #316]
 2127 09d0 D7F84031 		ldr	r3, [r7, #320]
ARM GAS  /var/folders/kh/x4vltyy52lbg7p4pcyglc5080000gp/T//ccuucmVt.s 			page 51


 2128 09d4 DB68     		ldr	r3, [r3, #12]
 2129 09d6 5B00     		lsls	r3, r3, #1
 2130 09d8 5B42     		negs	r3, r3
 2131 09da D7F83C21 		ldr	r2, [r7, #316]
 2132 09de 1344     		add	r3, r3, r2
 2133 09e0 C7F81431 		str	r3, [r7, #276]
 441:STM32F10x_Speex_Lib/STM32/libspeex/nb_celp.c ****    ALLOC(syn_resp, st->subframeSize, spx_word16_t);
 2134              		.loc 3 441 0
 2135 09e4 D7F83C31 		ldr	r3, [r7, #316]
 2136 09e8 5B42     		negs	r3, r3
 2137 09ea 03F00103 		and	r3, r3, #1
 2138 09ee D7F83C21 		ldr	r2, [r7, #316]
 2139 09f2 1344     		add	r3, r3, r2
 2140 09f4 C7F83C31 		str	r3, [r7, #316]
 2141 09f8 D7F84031 		ldr	r3, [r7, #320]
 2142 09fc DB68     		ldr	r3, [r3, #12]
 2143 09fe 5B00     		lsls	r3, r3, #1
 2144 0a00 D7F83C21 		ldr	r2, [r7, #316]
 2145 0a04 1344     		add	r3, r3, r2
 2146 0a06 C7F83C31 		str	r3, [r7, #316]
 2147 0a0a D7F84031 		ldr	r3, [r7, #320]
 2148 0a0e DB68     		ldr	r3, [r3, #12]
 2149 0a10 5B00     		lsls	r3, r3, #1
 2150 0a12 5B42     		negs	r3, r3
 2151 0a14 D7F83C21 		ldr	r2, [r7, #316]
 2152 0a18 1344     		add	r3, r3, r2
 2153 0a1a C7F81031 		str	r3, [r7, #272]
 442:STM32F10x_Speex_Lib/STM32/libspeex/nb_celp.c ****    ALLOC(real_exc, st->subframeSize, spx_word16_t);
 2154              		.loc 3 442 0
 2155 0a1e D7F83C31 		ldr	r3, [r7, #316]
 2156 0a22 5B42     		negs	r3, r3
 2157 0a24 03F00103 		and	r3, r3, #1
 2158 0a28 D7F83C21 		ldr	r2, [r7, #316]
 2159 0a2c 1344     		add	r3, r3, r2
 2160 0a2e C7F83C31 		str	r3, [r7, #316]
 2161 0a32 D7F84031 		ldr	r3, [r7, #320]
 2162 0a36 DB68     		ldr	r3, [r3, #12]
 2163 0a38 5B00     		lsls	r3, r3, #1
 2164 0a3a D7F83C21 		ldr	r2, [r7, #316]
 2165 0a3e 1344     		add	r3, r3, r2
 2166 0a40 C7F83C31 		str	r3, [r7, #316]
 2167 0a44 D7F84031 		ldr	r3, [r7, #320]
 2168 0a48 DB68     		ldr	r3, [r3, #12]
 2169 0a4a 5B00     		lsls	r3, r3, #1
 2170 0a4c 5B42     		negs	r3, r3
 2171 0a4e D7F83C21 		ldr	r2, [r7, #316]
 2172 0a52 1344     		add	r3, r3, r2
 2173 0a54 C7F80C31 		str	r3, [r7, #268]
 443:STM32F10x_Speex_Lib/STM32/libspeex/nb_celp.c ****    ALLOC(mem, st->lpcSize, spx_mem_t);
 2174              		.loc 3 443 0
 2175 0a58 D7F83C31 		ldr	r3, [r7, #316]
 2176 0a5c 5B42     		negs	r3, r3
 2177 0a5e 03F00303 		and	r3, r3, #3
 2178 0a62 D7F83C21 		ldr	r2, [r7, #316]
 2179 0a66 1344     		add	r3, r3, r2
 2180 0a68 C7F83C31 		str	r3, [r7, #316]
 2181 0a6c D7F84031 		ldr	r3, [r7, #320]
ARM GAS  /var/folders/kh/x4vltyy52lbg7p4pcyglc5080000gp/T//ccuucmVt.s 			page 52


 2182 0a70 9B69     		ldr	r3, [r3, #24]
 2183 0a72 9B00     		lsls	r3, r3, #2
 2184 0a74 D7F83C21 		ldr	r2, [r7, #316]
 2185 0a78 1344     		add	r3, r3, r2
 2186 0a7a C7F83C31 		str	r3, [r7, #316]
 2187 0a7e D7F84031 		ldr	r3, [r7, #320]
 2188 0a82 9B69     		ldr	r3, [r3, #24]
 2189 0a84 9B00     		lsls	r3, r3, #2
 2190 0a86 5B42     		negs	r3, r3
 2191 0a88 D7F83C21 		ldr	r2, [r7, #316]
 2192 0a8c 1344     		add	r3, r3, r2
 2193 0a8e C7F80831 		str	r3, [r7, #264]
 444:STM32F10x_Speex_Lib/STM32/libspeex/nb_celp.c **** 
 445:STM32F10x_Speex_Lib/STM32/libspeex/nb_celp.c **** 
 446:STM32F10x_Speex_Lib/STM32/libspeex/nb_celp.c ****    /* Loop on sub-frames */
 447:STM32F10x_Speex_Lib/STM32/libspeex/nb_celp.c ****    for (sub=0;sub<st->nbSubframes;sub++)
 2194              		.loc 3 447 0
 2195 0a92 0023     		movs	r3, #0
 2196 0a94 C7F86831 		str	r3, [r7, #360]
 2197 0a98 00F0EFBC 		b	.L72
 2198              	.L126:
 2199              		.align	2
 2200              	.L125:
 2201 0a9c 9A99FFFF 		.word	-26214
 2202 0aa0 00000000 		.word	ol_gain_table
 2203              	.L118:
 2204              	.LBB7:
 448:STM32F10x_Speex_Lib/STM32/libspeex/nb_celp.c ****    {
 449:STM32F10x_Speex_Lib/STM32/libspeex/nb_celp.c ****       int   offset;
 450:STM32F10x_Speex_Lib/STM32/libspeex/nb_celp.c ****       spx_word16_t *sw;
 451:STM32F10x_Speex_Lib/STM32/libspeex/nb_celp.c ****       spx_word16_t *exc;
 452:STM32F10x_Speex_Lib/STM32/libspeex/nb_celp.c ****       int pitch;
 453:STM32F10x_Speex_Lib/STM32/libspeex/nb_celp.c ****       int response_bound = st->subframeSize;
 2205              		.loc 3 453 0
 2206 0aa4 D7F84031 		ldr	r3, [r7, #320]
 2207 0aa8 DB68     		ldr	r3, [r3, #12]
 2208 0aaa C7F85431 		str	r3, [r7, #340]
 454:STM32F10x_Speex_Lib/STM32/libspeex/nb_celp.c **** 
 455:STM32F10x_Speex_Lib/STM32/libspeex/nb_celp.c ****       /* Offset relative to start of frame */
 456:STM32F10x_Speex_Lib/STM32/libspeex/nb_celp.c ****       offset = st->subframeSize*sub;	
 2209              		.loc 3 456 0
 2210 0aae D7F84031 		ldr	r3, [r7, #320]
 2211 0ab2 DB68     		ldr	r3, [r3, #12]
 2212 0ab4 D7F86821 		ldr	r2, [r7, #360]
 2213 0ab8 02FB03F3 		mul	r3, r2, r3
 2214 0abc C7F80431 		str	r3, [r7, #260]
 457:STM32F10x_Speex_Lib/STM32/libspeex/nb_celp.c ****       /* Excitation */
 458:STM32F10x_Speex_Lib/STM32/libspeex/nb_celp.c ****       exc=st->exc+offset;
 2215              		.loc 3 458 0
 2216 0ac0 D7F84031 		ldr	r3, [r7, #320]
 2217 0ac4 DA6C     		ldr	r2, [r3, #76]
 2218 0ac6 D7F80431 		ldr	r3, [r7, #260]
 2219 0aca 5B00     		lsls	r3, r3, #1
 2220 0acc 1344     		add	r3, r3, r2
 2221 0ace C7F80031 		str	r3, [r7, #256]
 459:STM32F10x_Speex_Lib/STM32/libspeex/nb_celp.c ****       /* Weighted signal */
 460:STM32F10x_Speex_Lib/STM32/libspeex/nb_celp.c ****       sw=st->sw+offset;
ARM GAS  /var/folders/kh/x4vltyy52lbg7p4pcyglc5080000gp/T//ccuucmVt.s 			page 53


 2222              		.loc 3 460 0
 2223 0ad2 D7F84031 		ldr	r3, [r7, #320]
 2224 0ad6 5A6D     		ldr	r2, [r3, #84]
 2225 0ad8 D7F80431 		ldr	r3, [r7, #260]
 2226 0adc 5B00     		lsls	r3, r3, #1
 2227 0ade 1344     		add	r3, r3, r2
 2228 0ae0 C7F8FC30 		str	r3, [r7, #252]
 461:STM32F10x_Speex_Lib/STM32/libspeex/nb_celp.c ****       
 462:STM32F10x_Speex_Lib/STM32/libspeex/nb_celp.c ****       /* LSP interpolation (quantized and unquantized) */
 463:STM32F10x_Speex_Lib/STM32/libspeex/nb_celp.c ****       lsp_interpolate(st->old_lsp, lsp, interp_lsp, st->lpcSize, sub, st->nbSubframes);
 2229              		.loc 3 463 0
 2230 0ae4 D7F84031 		ldr	r3, [r7, #320]
 2231 0ae8 186E     		ldr	r0, [r3, #96]
 2232 0aea D7F84031 		ldr	r3, [r7, #320]
 2233 0aee 9C69     		ldr	r4, [r3, #24]
 2234 0af0 D7F84031 		ldr	r3, [r7, #320]
 2235 0af4 1B69     		ldr	r3, [r3, #16]
 2236 0af6 07F17402 		add	r2, r7, #116
 2237 0afa 07F19C01 		add	r1, r7, #156
 2238 0afe 0193     		str	r3, [sp, #4]
 2239 0b00 D7F86831 		ldr	r3, [r7, #360]
 2240 0b04 0093     		str	r3, [sp]
 2241 0b06 2346     		mov	r3, r4
 2242 0b08 FFF7FEFF 		bl	lsp_interpolate
 464:STM32F10x_Speex_Lib/STM32/libspeex/nb_celp.c ****       lsp_interpolate(st->old_qlsp, qlsp, interp_qlsp, st->lpcSize, sub, st->nbSubframes);
 2243              		.loc 3 464 0
 2244 0b0c D7F84031 		ldr	r3, [r7, #320]
 2245 0b10 586E     		ldr	r0, [r3, #100]
 2246 0b12 D7F84031 		ldr	r3, [r7, #320]
 2247 0b16 9C69     		ldr	r4, [r3, #24]
 2248 0b18 D7F84031 		ldr	r3, [r7, #320]
 2249 0b1c 1B69     		ldr	r3, [r3, #16]
 2250 0b1e 07F16002 		add	r2, r7, #96
 2251 0b22 07F18801 		add	r1, r7, #136
 2252 0b26 0193     		str	r3, [sp, #4]
 2253 0b28 D7F86831 		ldr	r3, [r7, #360]
 2254 0b2c 0093     		str	r3, [sp]
 2255 0b2e 2346     		mov	r3, r4
 2256 0b30 FFF7FEFF 		bl	lsp_interpolate
 465:STM32F10x_Speex_Lib/STM32/libspeex/nb_celp.c **** 
 466:STM32F10x_Speex_Lib/STM32/libspeex/nb_celp.c ****       /* Make sure the filters are stable */
 467:STM32F10x_Speex_Lib/STM32/libspeex/nb_celp.c ****       lsp_enforce_margin(interp_lsp, st->lpcSize, LSP_MARGIN);
 2257              		.loc 3 467 0
 2258 0b34 D7F84031 		ldr	r3, [r7, #320]
 2259 0b38 9969     		ldr	r1, [r3, #24]
 2260 0b3a 07F17403 		add	r3, r7, #116
 2261 0b3e 1022     		movs	r2, #16
 2262 0b40 1846     		mov	r0, r3
 2263 0b42 FFF7FEFF 		bl	lsp_enforce_margin
 468:STM32F10x_Speex_Lib/STM32/libspeex/nb_celp.c ****       lsp_enforce_margin(interp_qlsp, st->lpcSize, LSP_MARGIN);
 2264              		.loc 3 468 0
 2265 0b46 D7F84031 		ldr	r3, [r7, #320]
 2266 0b4a 9969     		ldr	r1, [r3, #24]
 2267 0b4c 07F16003 		add	r3, r7, #96
 2268 0b50 1022     		movs	r2, #16
 2269 0b52 1846     		mov	r0, r3
 2270 0b54 FFF7FEFF 		bl	lsp_enforce_margin
ARM GAS  /var/folders/kh/x4vltyy52lbg7p4pcyglc5080000gp/T//ccuucmVt.s 			page 54


 469:STM32F10x_Speex_Lib/STM32/libspeex/nb_celp.c **** 
 470:STM32F10x_Speex_Lib/STM32/libspeex/nb_celp.c ****       /* Compute interpolated LPCs (quantized and unquantized) */
 471:STM32F10x_Speex_Lib/STM32/libspeex/nb_celp.c ****       lsp_to_lpc(interp_lsp, interp_lpc, st->lpcSize,stack);
 2271              		.loc 3 471 0
 2272 0b58 D7F84031 		ldr	r3, [r7, #320]
 2273 0b5c 9A69     		ldr	r2, [r3, #24]
 2274 0b5e 07F14C01 		add	r1, r7, #76
 2275 0b62 07F17400 		add	r0, r7, #116
 2276 0b66 D7F83C31 		ldr	r3, [r7, #316]
 2277 0b6a FFF7FEFF 		bl	lsp_to_lpc
 472:STM32F10x_Speex_Lib/STM32/libspeex/nb_celp.c **** 
 473:STM32F10x_Speex_Lib/STM32/libspeex/nb_celp.c ****       lsp_to_lpc(interp_qlsp, interp_qlpc, st->lpcSize, stack);
 2278              		.loc 3 473 0
 2279 0b6e D7F84031 		ldr	r3, [r7, #320]
 2280 0b72 9A69     		ldr	r2, [r3, #24]
 2281 0b74 07F13801 		add	r1, r7, #56
 2282 0b78 07F16000 		add	r0, r7, #96
 2283 0b7c D7F83C31 		ldr	r3, [r7, #316]
 2284 0b80 FFF7FEFF 		bl	lsp_to_lpc
 2285              	.LBB8:
 474:STM32F10x_Speex_Lib/STM32/libspeex/nb_celp.c **** 
 475:STM32F10x_Speex_Lib/STM32/libspeex/nb_celp.c ****       /* Compute analysis filter gain at w=pi (for use in SB-CELP) */
 476:STM32F10x_Speex_Lib/STM32/libspeex/nb_celp.c ****       {
 477:STM32F10x_Speex_Lib/STM32/libspeex/nb_celp.c ****          spx_word32_t pi_g=LPC_SCALING;
 2286              		.loc 3 477 0
 2287 0b84 4FF40053 		mov	r3, #8192
 2288 0b88 C7F85031 		str	r3, [r7, #336]
 478:STM32F10x_Speex_Lib/STM32/libspeex/nb_celp.c ****          for (i=0;i<st->lpcSize;i+=2)
 2289              		.loc 3 478 0
 2290 0b8c 0023     		movs	r3, #0
 2291 0b8e C7F86C31 		str	r3, [r7, #364]
 2292 0b92 18E0     		b	.L73
 2293              	.L74:
 479:STM32F10x_Speex_Lib/STM32/libspeex/nb_celp.c ****          {
 480:STM32F10x_Speex_Lib/STM32/libspeex/nb_celp.c ****             /*pi_g += -st->interp_qlpc[i] +  st->interp_qlpc[i+1];*/
 481:STM32F10x_Speex_Lib/STM32/libspeex/nb_celp.c ****             pi_g = ADD32(pi_g, SUB32(EXTEND32(interp_qlpc[i+1]),EXTEND32(interp_qlpc[i])));
 2294              		.loc 3 481 0 discriminator 3
 2295 0b94 D7F86C31 		ldr	r3, [r7, #364]
 2296 0b98 5A1C     		adds	r2, r3, #1
 2297 0b9a 07F13803 		add	r3, r7, #56
 2298 0b9e 33F91230 		ldrsh	r3, [r3, r2, lsl #1]
 2299 0ba2 1946     		mov	r1, r3
 2300 0ba4 07F13803 		add	r3, r7, #56
 2301 0ba8 D7F86C21 		ldr	r2, [r7, #364]
 2302 0bac 33F91230 		ldrsh	r3, [r3, r2, lsl #1]
 2303 0bb0 CB1A     		subs	r3, r1, r3
 2304 0bb2 D7F85021 		ldr	r2, [r7, #336]
 2305 0bb6 1344     		add	r3, r3, r2
 2306 0bb8 C7F85031 		str	r3, [r7, #336]
 478:STM32F10x_Speex_Lib/STM32/libspeex/nb_celp.c ****          for (i=0;i<st->lpcSize;i+=2)
 2307              		.loc 3 478 0 discriminator 3
 2308 0bbc D7F86C31 		ldr	r3, [r7, #364]
 2309 0bc0 0233     		adds	r3, r3, #2
 2310 0bc2 C7F86C31 		str	r3, [r7, #364]
 2311              	.L73:
 478:STM32F10x_Speex_Lib/STM32/libspeex/nb_celp.c ****          for (i=0;i<st->lpcSize;i+=2)
 2312              		.loc 3 478 0 is_stmt 0 discriminator 1
ARM GAS  /var/folders/kh/x4vltyy52lbg7p4pcyglc5080000gp/T//ccuucmVt.s 			page 55


 2313 0bc6 D7F84031 		ldr	r3, [r7, #320]
 2314 0bca 9A69     		ldr	r2, [r3, #24]
 2315 0bcc D7F86C31 		ldr	r3, [r7, #364]
 2316 0bd0 9A42     		cmp	r2, r3
 2317 0bd2 DFDC     		bgt	.L74
 482:STM32F10x_Speex_Lib/STM32/libspeex/nb_celp.c ****          }
 483:STM32F10x_Speex_Lib/STM32/libspeex/nb_celp.c ****          st->pi_gain[sub] = pi_g;
 2318              		.loc 3 483 0 is_stmt 1
 2319 0bd4 D7F84031 		ldr	r3, [r7, #320]
 2320 0bd8 D3F88420 		ldr	r2, [r3, #132]
 2321 0bdc D7F86831 		ldr	r3, [r7, #360]
 2322 0be0 9B00     		lsls	r3, r3, #2
 2323 0be2 1344     		add	r3, r3, r2
 2324 0be4 D7F85021 		ldr	r2, [r7, #336]
 2325 0be8 1A60     		str	r2, [r3]
 2326              	.LBE8:
 484:STM32F10x_Speex_Lib/STM32/libspeex/nb_celp.c ****       }
 485:STM32F10x_Speex_Lib/STM32/libspeex/nb_celp.c **** 
 486:STM32F10x_Speex_Lib/STM32/libspeex/nb_celp.c ****       /* Compute bandwidth-expanded (unquantized) LPCs for perceptual weighting */
 487:STM32F10x_Speex_Lib/STM32/libspeex/nb_celp.c ****       bw_lpc(st->gamma1, interp_lpc, bw_lpc1, st->lpcSize);
 2327              		.loc 3 487 0
 2328 0bea D7F84031 		ldr	r3, [r7, #320]
 2329 0bee B3F93800 		ldrsh	r0, [r3, #56]
 2330 0bf2 D7F84031 		ldr	r3, [r7, #320]
 2331 0bf6 9B69     		ldr	r3, [r3, #24]
 2332 0bf8 07F1C402 		add	r2, r7, #196
 2333 0bfc 07F14C01 		add	r1, r7, #76
 2334 0c00 FFF7FEFF 		bl	bw_lpc
 488:STM32F10x_Speex_Lib/STM32/libspeex/nb_celp.c ****       if (st->gamma2>=0)
 2335              		.loc 3 488 0
 2336 0c04 D7F84031 		ldr	r3, [r7, #320]
 2337 0c08 B3F93A30 		ldrsh	r3, [r3, #58]
 2338 0c0c 002B     		cmp	r3, #0
 2339 0c0e 0DDB     		blt	.L75
 489:STM32F10x_Speex_Lib/STM32/libspeex/nb_celp.c ****          bw_lpc(st->gamma2, interp_lpc, bw_lpc2, st->lpcSize);
 2340              		.loc 3 489 0
 2341 0c10 D7F84031 		ldr	r3, [r7, #320]
 2342 0c14 B3F93A00 		ldrsh	r0, [r3, #58]
 2343 0c18 D7F84031 		ldr	r3, [r7, #320]
 2344 0c1c 9B69     		ldr	r3, [r3, #24]
 2345 0c1e 07F1B002 		add	r2, r7, #176
 2346 0c22 07F14C01 		add	r1, r7, #76
 2347 0c26 FFF7FEFF 		bl	bw_lpc
 2348 0c2a 18E0     		b	.L76
 2349              	.L75:
 490:STM32F10x_Speex_Lib/STM32/libspeex/nb_celp.c ****       else
 491:STM32F10x_Speex_Lib/STM32/libspeex/nb_celp.c ****       {
 492:STM32F10x_Speex_Lib/STM32/libspeex/nb_celp.c ****          for (i=0;i<st->lpcSize;i++)
 2350              		.loc 3 492 0
 2351 0c2c 0023     		movs	r3, #0
 2352 0c2e C7F86C31 		str	r3, [r7, #364]
 2353 0c32 0DE0     		b	.L77
 2354              	.L78:
 493:STM32F10x_Speex_Lib/STM32/libspeex/nb_celp.c ****             bw_lpc2[i]=0;
 2355              		.loc 3 493 0 discriminator 3
 2356 0c34 D7F86C31 		ldr	r3, [r7, #364]
 2357 0c38 5B00     		lsls	r3, r3, #1
ARM GAS  /var/folders/kh/x4vltyy52lbg7p4pcyglc5080000gp/T//ccuucmVt.s 			page 56


 2358 0c3a 07F5B872 		add	r2, r7, #368
 2359 0c3e 1344     		add	r3, r3, r2
 2360 0c40 0022     		movs	r2, #0
 2361 0c42 23F8C02C 		strh	r2, [r3, #-192]	@ movhi
 492:STM32F10x_Speex_Lib/STM32/libspeex/nb_celp.c ****             bw_lpc2[i]=0;
 2362              		.loc 3 492 0 discriminator 3
 2363 0c46 D7F86C31 		ldr	r3, [r7, #364]
 2364 0c4a 0133     		adds	r3, r3, #1
 2365 0c4c C7F86C31 		str	r3, [r7, #364]
 2366              	.L77:
 492:STM32F10x_Speex_Lib/STM32/libspeex/nb_celp.c ****             bw_lpc2[i]=0;
 2367              		.loc 3 492 0 is_stmt 0 discriminator 1
 2368 0c50 D7F84031 		ldr	r3, [r7, #320]
 2369 0c54 9A69     		ldr	r2, [r3, #24]
 2370 0c56 D7F86C31 		ldr	r3, [r7, #364]
 2371 0c5a 9A42     		cmp	r2, r3
 2372 0c5c EADC     		bgt	.L78
 2373              	.L76:
 494:STM32F10x_Speex_Lib/STM32/libspeex/nb_celp.c ****       }
 495:STM32F10x_Speex_Lib/STM32/libspeex/nb_celp.c **** 
 496:STM32F10x_Speex_Lib/STM32/libspeex/nb_celp.c **** 
 497:STM32F10x_Speex_Lib/STM32/libspeex/nb_celp.c ****       /*FIXME: This will break if we change the window size */
 498:STM32F10x_Speex_Lib/STM32/libspeex/nb_celp.c ****       if (sub==0)
 2374              		.loc 3 498 0 is_stmt 1
 2375 0c5e D7F86831 		ldr	r3, [r7, #360]
 2376 0c62 002B     		cmp	r3, #0
 2377 0c64 29D1     		bne	.L79
 499:STM32F10x_Speex_Lib/STM32/libspeex/nb_celp.c ****       {
 500:STM32F10x_Speex_Lib/STM32/libspeex/nb_celp.c ****          for (i=0;i<st->subframeSize;i++)
 2378              		.loc 3 500 0
 2379 0c66 0023     		movs	r3, #0
 2380 0c68 C7F86C31 		str	r3, [r7, #364]
 2381 0c6c 1DE0     		b	.L80
 2382              	.L81:
 501:STM32F10x_Speex_Lib/STM32/libspeex/nb_celp.c ****             real_exc[i] = sw[i] = st->winBuf[i];
 2383              		.loc 3 501 0 discriminator 3
 2384 0c6e D7F86C31 		ldr	r3, [r7, #364]
 2385 0c72 5B00     		lsls	r3, r3, #1
 2386 0c74 D7F80C21 		ldr	r2, [r7, #268]
 2387 0c78 1A44     		add	r2, r2, r3
 2388 0c7a D7F86C31 		ldr	r3, [r7, #364]
 2389 0c7e 5B00     		lsls	r3, r3, #1
 2390 0c80 D7F8FC10 		ldr	r1, [r7, #252]
 2391 0c84 0B44     		add	r3, r3, r1
 2392 0c86 D7F84011 		ldr	r1, [r7, #320]
 2393 0c8a 486C     		ldr	r0, [r1, #68]
 2394 0c8c D7F86C11 		ldr	r1, [r7, #364]
 2395 0c90 4900     		lsls	r1, r1, #1
 2396 0c92 0144     		add	r1, r1, r0
 2397 0c94 B1F90010 		ldrsh	r1, [r1]
 2398 0c98 1980     		strh	r1, [r3]	@ movhi
 2399 0c9a B3F90030 		ldrsh	r3, [r3]
 2400 0c9e 1380     		strh	r3, [r2]	@ movhi
 500:STM32F10x_Speex_Lib/STM32/libspeex/nb_celp.c ****             real_exc[i] = sw[i] = st->winBuf[i];
 2401              		.loc 3 500 0 discriminator 3
 2402 0ca0 D7F86C31 		ldr	r3, [r7, #364]
 2403 0ca4 0133     		adds	r3, r3, #1
ARM GAS  /var/folders/kh/x4vltyy52lbg7p4pcyglc5080000gp/T//ccuucmVt.s 			page 57


 2404 0ca6 C7F86C31 		str	r3, [r7, #364]
 2405              	.L80:
 500:STM32F10x_Speex_Lib/STM32/libspeex/nb_celp.c ****             real_exc[i] = sw[i] = st->winBuf[i];
 2406              		.loc 3 500 0 is_stmt 0 discriminator 1
 2407 0caa D7F84031 		ldr	r3, [r7, #320]
 2408 0cae DA68     		ldr	r2, [r3, #12]
 2409 0cb0 D7F86C31 		ldr	r3, [r7, #364]
 2410 0cb4 9A42     		cmp	r2, r3
 2411 0cb6 DADC     		bgt	.L81
 2412 0cb8 30E0     		b	.L82
 2413              	.L79:
 502:STM32F10x_Speex_Lib/STM32/libspeex/nb_celp.c ****       } else {
 503:STM32F10x_Speex_Lib/STM32/libspeex/nb_celp.c ****          for (i=0;i<st->subframeSize;i++)
 2414              		.loc 3 503 0 is_stmt 1
 2415 0cba 0023     		movs	r3, #0
 2416 0cbc C7F86C31 		str	r3, [r7, #364]
 2417 0cc0 25E0     		b	.L83
 2418              	.L84:
 504:STM32F10x_Speex_Lib/STM32/libspeex/nb_celp.c ****             real_exc[i] = sw[i] = in[i+((sub-1)*st->subframeSize)];
 2419              		.loc 3 504 0 discriminator 3
 2420 0cc2 D7F86C31 		ldr	r3, [r7, #364]
 2421 0cc6 5B00     		lsls	r3, r3, #1
 2422 0cc8 D7F80C21 		ldr	r2, [r7, #268]
 2423 0ccc 1A44     		add	r2, r2, r3
 2424 0cce D7F86C31 		ldr	r3, [r7, #364]
 2425 0cd2 5B00     		lsls	r3, r3, #1
 2426 0cd4 D7F8FC10 		ldr	r1, [r7, #252]
 2427 0cd8 0B44     		add	r3, r3, r1
 2428 0cda D7F86811 		ldr	r1, [r7, #360]
 2429 0cde 0139     		subs	r1, r1, #1
 2430 0ce0 D7F84001 		ldr	r0, [r7, #320]
 2431 0ce4 C068     		ldr	r0, [r0, #12]
 2432 0ce6 00FB01F0 		mul	r0, r0, r1
 2433 0cea D7F86C11 		ldr	r1, [r7, #364]
 2434 0cee 0144     		add	r1, r1, r0
 2435 0cf0 4900     		lsls	r1, r1, #1
 2436 0cf2 D7F84401 		ldr	r0, [r7, #324]
 2437 0cf6 0144     		add	r1, r1, r0
 2438 0cf8 B1F90010 		ldrsh	r1, [r1]
 2439 0cfc 1980     		strh	r1, [r3]	@ movhi
 2440 0cfe B3F90030 		ldrsh	r3, [r3]
 2441 0d02 1380     		strh	r3, [r2]	@ movhi
 503:STM32F10x_Speex_Lib/STM32/libspeex/nb_celp.c ****             real_exc[i] = sw[i] = in[i+((sub-1)*st->subframeSize)];
 2442              		.loc 3 503 0 discriminator 3
 2443 0d04 D7F86C31 		ldr	r3, [r7, #364]
 2444 0d08 0133     		adds	r3, r3, #1
 2445 0d0a C7F86C31 		str	r3, [r7, #364]
 2446              	.L83:
 503:STM32F10x_Speex_Lib/STM32/libspeex/nb_celp.c ****             real_exc[i] = sw[i] = in[i+((sub-1)*st->subframeSize)];
 2447              		.loc 3 503 0 is_stmt 0 discriminator 1
 2448 0d0e D7F84031 		ldr	r3, [r7, #320]
 2449 0d12 DA68     		ldr	r2, [r3, #12]
 2450 0d14 D7F86C31 		ldr	r3, [r7, #364]
 2451 0d18 9A42     		cmp	r2, r3
 2452 0d1a D2DC     		bgt	.L84
 2453              	.L82:
 505:STM32F10x_Speex_Lib/STM32/libspeex/nb_celp.c ****       }
ARM GAS  /var/folders/kh/x4vltyy52lbg7p4pcyglc5080000gp/T//ccuucmVt.s 			page 58


 506:STM32F10x_Speex_Lib/STM32/libspeex/nb_celp.c ****       fir_mem16(real_exc, interp_qlpc, real_exc, st->subframeSize, st->lpcSize, st->mem_exc2, stack
 2454              		.loc 3 506 0 is_stmt 1
 2455 0d1c D7F84031 		ldr	r3, [r7, #320]
 2456 0d20 DC68     		ldr	r4, [r3, #12]
 2457 0d22 D7F84031 		ldr	r3, [r7, #320]
 2458 0d26 9B69     		ldr	r3, [r3, #24]
 2459 0d28 D7F84021 		ldr	r2, [r7, #320]
 2460 0d2c 926F     		ldr	r2, [r2, #120]
 2461 0d2e 07F13800 		add	r0, r7, #56
 2462 0d32 D7F83C11 		ldr	r1, [r7, #316]
 2463 0d36 0291     		str	r1, [sp, #8]
 2464 0d38 0192     		str	r2, [sp, #4]
 2465 0d3a 0093     		str	r3, [sp]
 2466 0d3c 2346     		mov	r3, r4
 2467 0d3e D7F80C21 		ldr	r2, [r7, #268]
 2468 0d42 0146     		mov	r1, r0
 2469 0d44 D7F80C01 		ldr	r0, [r7, #268]
 2470 0d48 FFF7FEFF 		bl	fir_mem16
 507:STM32F10x_Speex_Lib/STM32/libspeex/nb_celp.c ****       
 508:STM32F10x_Speex_Lib/STM32/libspeex/nb_celp.c ****       if (st->complexity==0)
 2471              		.loc 3 508 0
 2472 0d4c D7F84031 		ldr	r3, [r7, #320]
 2473 0d50 D3F88C30 		ldr	r3, [r3, #140]
 2474 0d54 002B     		cmp	r3, #0
 2475 0d56 04D1     		bne	.L85
 509:STM32F10x_Speex_Lib/STM32/libspeex/nb_celp.c ****          response_bound >>= 1;
 2476              		.loc 3 509 0
 2477 0d58 D7F85431 		ldr	r3, [r7, #340]
 2478 0d5c 5B10     		asrs	r3, r3, #1
 2479 0d5e C7F85431 		str	r3, [r7, #340]
 2480              	.L85:
 510:STM32F10x_Speex_Lib/STM32/libspeex/nb_celp.c ****       compute_impulse_response(interp_qlpc, bw_lpc1, bw_lpc2, syn_resp, response_bound, st->lpcSize
 2481              		.loc 3 510 0
 2482 0d62 D7F84031 		ldr	r3, [r7, #320]
 2483 0d66 9B69     		ldr	r3, [r3, #24]
 2484 0d68 07F1B004 		add	r4, r7, #176
 2485 0d6c 07F1C401 		add	r1, r7, #196
 2486 0d70 07F13800 		add	r0, r7, #56
 2487 0d74 D7F83C21 		ldr	r2, [r7, #316]
 2488 0d78 0292     		str	r2, [sp, #8]
 2489 0d7a 0193     		str	r3, [sp, #4]
 2490 0d7c D7F85431 		ldr	r3, [r7, #340]
 2491 0d80 0093     		str	r3, [sp]
 2492 0d82 D7F81031 		ldr	r3, [r7, #272]
 2493 0d86 2246     		mov	r2, r4
 2494 0d88 FFF7FEFF 		bl	compute_impulse_response
 511:STM32F10x_Speex_Lib/STM32/libspeex/nb_celp.c ****       for (i=response_bound;i<st->subframeSize;i++)
 2495              		.loc 3 511 0
 2496 0d8c D7F85431 		ldr	r3, [r7, #340]
 2497 0d90 C7F86C31 		str	r3, [r7, #364]
 2498 0d94 0CE0     		b	.L86
 2499              	.L87:
 512:STM32F10x_Speex_Lib/STM32/libspeex/nb_celp.c ****          syn_resp[i]=VERY_SMALL;
 2500              		.loc 3 512 0 discriminator 3
 2501 0d96 D7F86C31 		ldr	r3, [r7, #364]
 2502 0d9a 5B00     		lsls	r3, r3, #1
 2503 0d9c D7F81021 		ldr	r2, [r7, #272]
ARM GAS  /var/folders/kh/x4vltyy52lbg7p4pcyglc5080000gp/T//ccuucmVt.s 			page 59


 2504 0da0 1344     		add	r3, r3, r2
 2505 0da2 0022     		movs	r2, #0
 2506 0da4 1A80     		strh	r2, [r3]	@ movhi
 511:STM32F10x_Speex_Lib/STM32/libspeex/nb_celp.c ****       for (i=response_bound;i<st->subframeSize;i++)
 2507              		.loc 3 511 0 discriminator 3
 2508 0da6 D7F86C31 		ldr	r3, [r7, #364]
 2509 0daa 0133     		adds	r3, r3, #1
 2510 0dac C7F86C31 		str	r3, [r7, #364]
 2511              	.L86:
 511:STM32F10x_Speex_Lib/STM32/libspeex/nb_celp.c ****       for (i=response_bound;i<st->subframeSize;i++)
 2512              		.loc 3 511 0 is_stmt 0 discriminator 1
 2513 0db0 D7F84031 		ldr	r3, [r7, #320]
 2514 0db4 DA68     		ldr	r2, [r3, #12]
 2515 0db6 D7F86C31 		ldr	r3, [r7, #364]
 2516 0dba 9A42     		cmp	r2, r3
 2517 0dbc EBDC     		bgt	.L87
 513:STM32F10x_Speex_Lib/STM32/libspeex/nb_celp.c ****       
 514:STM32F10x_Speex_Lib/STM32/libspeex/nb_celp.c ****       /* Compute zero response of A(z/g1) / ( A(z/g2) * A(z) ) */
 515:STM32F10x_Speex_Lib/STM32/libspeex/nb_celp.c ****       for (i=0;i<st->lpcSize;i++)
 2518              		.loc 3 515 0 is_stmt 1
 2519 0dbe 0023     		movs	r3, #0
 2520 0dc0 C7F86C31 		str	r3, [r7, #364]
 2521 0dc4 14E0     		b	.L88
 2522              	.L89:
 516:STM32F10x_Speex_Lib/STM32/libspeex/nb_celp.c ****          mem[i]=SHL32(st->mem_sp[i],1);
 2523              		.loc 3 516 0 discriminator 3
 2524 0dc6 D7F86C31 		ldr	r3, [r7, #364]
 2525 0dca 9B00     		lsls	r3, r3, #2
 2526 0dcc D7F80821 		ldr	r2, [r7, #264]
 2527 0dd0 1344     		add	r3, r3, r2
 2528 0dd2 D7F84021 		ldr	r2, [r7, #320]
 2529 0dd6 916E     		ldr	r1, [r2, #104]
 2530 0dd8 D7F86C21 		ldr	r2, [r7, #364]
 2531 0ddc 9200     		lsls	r2, r2, #2
 2532 0dde 0A44     		add	r2, r2, r1
 2533 0de0 1268     		ldr	r2, [r2]
 2534 0de2 5200     		lsls	r2, r2, #1
 2535 0de4 1A60     		str	r2, [r3]
 515:STM32F10x_Speex_Lib/STM32/libspeex/nb_celp.c ****          mem[i]=SHL32(st->mem_sp[i],1);
 2536              		.loc 3 515 0 discriminator 3
 2537 0de6 D7F86C31 		ldr	r3, [r7, #364]
 2538 0dea 0133     		adds	r3, r3, #1
 2539 0dec C7F86C31 		str	r3, [r7, #364]
 2540              	.L88:
 515:STM32F10x_Speex_Lib/STM32/libspeex/nb_celp.c ****          mem[i]=SHL32(st->mem_sp[i],1);
 2541              		.loc 3 515 0 is_stmt 0 discriminator 1
 2542 0df0 D7F84031 		ldr	r3, [r7, #320]
 2543 0df4 9A69     		ldr	r2, [r3, #24]
 2544 0df6 D7F86C31 		ldr	r3, [r7, #364]
 2545 0dfa 9A42     		cmp	r2, r3
 2546 0dfc E3DC     		bgt	.L89
 517:STM32F10x_Speex_Lib/STM32/libspeex/nb_celp.c ****       for (i=0;i<st->subframeSize;i++)
 2547              		.loc 3 517 0 is_stmt 1
 2548 0dfe 0023     		movs	r3, #0
 2549 0e00 C7F86C31 		str	r3, [r7, #364]
 2550 0e04 0CE0     		b	.L90
 2551              	.L91:
ARM GAS  /var/folders/kh/x4vltyy52lbg7p4pcyglc5080000gp/T//ccuucmVt.s 			page 60


 518:STM32F10x_Speex_Lib/STM32/libspeex/nb_celp.c ****          ringing[i] = VERY_SMALL;
 2552              		.loc 3 518 0 discriminator 3
 2553 0e06 D7F86C31 		ldr	r3, [r7, #364]
 2554 0e0a 5B00     		lsls	r3, r3, #1
 2555 0e0c D7F81421 		ldr	r2, [r7, #276]
 2556 0e10 1344     		add	r3, r3, r2
 2557 0e12 0022     		movs	r2, #0
 2558 0e14 1A80     		strh	r2, [r3]	@ movhi
 517:STM32F10x_Speex_Lib/STM32/libspeex/nb_celp.c ****       for (i=0;i<st->subframeSize;i++)
 2559              		.loc 3 517 0 discriminator 3
 2560 0e16 D7F86C31 		ldr	r3, [r7, #364]
 2561 0e1a 0133     		adds	r3, r3, #1
 2562 0e1c C7F86C31 		str	r3, [r7, #364]
 2563              	.L90:
 517:STM32F10x_Speex_Lib/STM32/libspeex/nb_celp.c ****       for (i=0;i<st->subframeSize;i++)
 2564              		.loc 3 517 0 is_stmt 0 discriminator 1
 2565 0e20 D7F84031 		ldr	r3, [r7, #320]
 2566 0e24 DA68     		ldr	r2, [r3, #12]
 2567 0e26 D7F86C31 		ldr	r3, [r7, #364]
 2568 0e2a 9A42     		cmp	r2, r3
 2569 0e2c EBDC     		bgt	.L91
 519:STM32F10x_Speex_Lib/STM32/libspeex/nb_celp.c **** 
 520:STM32F10x_Speex_Lib/STM32/libspeex/nb_celp.c ****       iir_mem16(ringing, interp_qlpc, ringing, st->subframeSize, st->lpcSize, mem, stack);
 2570              		.loc 3 520 0 is_stmt 1
 2571 0e2e D7F84031 		ldr	r3, [r7, #320]
 2572 0e32 D868     		ldr	r0, [r3, #12]
 2573 0e34 D7F84031 		ldr	r3, [r7, #320]
 2574 0e38 9B69     		ldr	r3, [r3, #24]
 2575 0e3a 07F13801 		add	r1, r7, #56
 2576 0e3e D7F83C21 		ldr	r2, [r7, #316]
 2577 0e42 0292     		str	r2, [sp, #8]
 2578 0e44 D7F80821 		ldr	r2, [r7, #264]
 2579 0e48 0192     		str	r2, [sp, #4]
 2580 0e4a 0093     		str	r3, [sp]
 2581 0e4c 0346     		mov	r3, r0
 2582 0e4e D7F81421 		ldr	r2, [r7, #276]
 2583 0e52 D7F81401 		ldr	r0, [r7, #276]
 2584 0e56 FFF7FEFF 		bl	iir_mem16
 521:STM32F10x_Speex_Lib/STM32/libspeex/nb_celp.c ****       for (i=0;i<st->lpcSize;i++)
 2585              		.loc 3 521 0
 2586 0e5a 0023     		movs	r3, #0
 2587 0e5c C7F86C31 		str	r3, [r7, #364]
 2588 0e60 14E0     		b	.L92
 2589              	.L93:
 522:STM32F10x_Speex_Lib/STM32/libspeex/nb_celp.c ****          mem[i]=SHL32(st->mem_sw[i],1);
 2590              		.loc 3 522 0 discriminator 3
 2591 0e62 D7F86C31 		ldr	r3, [r7, #364]
 2592 0e66 9B00     		lsls	r3, r3, #2
 2593 0e68 D7F80821 		ldr	r2, [r7, #264]
 2594 0e6c 1344     		add	r3, r3, r2
 2595 0e6e D7F84021 		ldr	r2, [r7, #320]
 2596 0e72 D16E     		ldr	r1, [r2, #108]
 2597 0e74 D7F86C21 		ldr	r2, [r7, #364]
 2598 0e78 9200     		lsls	r2, r2, #2
 2599 0e7a 0A44     		add	r2, r2, r1
 2600 0e7c 1268     		ldr	r2, [r2]
 2601 0e7e 5200     		lsls	r2, r2, #1
ARM GAS  /var/folders/kh/x4vltyy52lbg7p4pcyglc5080000gp/T//ccuucmVt.s 			page 61


 2602 0e80 1A60     		str	r2, [r3]
 521:STM32F10x_Speex_Lib/STM32/libspeex/nb_celp.c ****       for (i=0;i<st->lpcSize;i++)
 2603              		.loc 3 521 0 discriminator 3
 2604 0e82 D7F86C31 		ldr	r3, [r7, #364]
 2605 0e86 0133     		adds	r3, r3, #1
 2606 0e88 C7F86C31 		str	r3, [r7, #364]
 2607              	.L92:
 521:STM32F10x_Speex_Lib/STM32/libspeex/nb_celp.c ****       for (i=0;i<st->lpcSize;i++)
 2608              		.loc 3 521 0 is_stmt 0 discriminator 1
 2609 0e8c D7F84031 		ldr	r3, [r7, #320]
 2610 0e90 9A69     		ldr	r2, [r3, #24]
 2611 0e92 D7F86C31 		ldr	r3, [r7, #364]
 2612 0e96 9A42     		cmp	r2, r3
 2613 0e98 E3DC     		bgt	.L93
 523:STM32F10x_Speex_Lib/STM32/libspeex/nb_celp.c ****       filter_mem16(ringing, bw_lpc1, bw_lpc2, ringing, st->subframeSize, st->lpcSize, mem, stack);
 2614              		.loc 3 523 0 is_stmt 1
 2615 0e9a D7F84031 		ldr	r3, [r7, #320]
 2616 0e9e DB68     		ldr	r3, [r3, #12]
 2617 0ea0 D7F84021 		ldr	r2, [r7, #320]
 2618 0ea4 9269     		ldr	r2, [r2, #24]
 2619 0ea6 07F1B004 		add	r4, r7, #176
 2620 0eaa 07F1C400 		add	r0, r7, #196
 2621 0eae D7F83C11 		ldr	r1, [r7, #316]
 2622 0eb2 0391     		str	r1, [sp, #12]
 2623 0eb4 D7F80811 		ldr	r1, [r7, #264]
 2624 0eb8 0291     		str	r1, [sp, #8]
 2625 0eba 0192     		str	r2, [sp, #4]
 2626 0ebc 0093     		str	r3, [sp]
 2627 0ebe D7F81431 		ldr	r3, [r7, #276]
 2628 0ec2 2246     		mov	r2, r4
 2629 0ec4 0146     		mov	r1, r0
 2630 0ec6 D7F81401 		ldr	r0, [r7, #276]
 2631 0eca FFF7FEFF 		bl	filter_mem16
 524:STM32F10x_Speex_Lib/STM32/libspeex/nb_celp.c ****       
 525:STM32F10x_Speex_Lib/STM32/libspeex/nb_celp.c ****       /* Compute weighted signal */
 526:STM32F10x_Speex_Lib/STM32/libspeex/nb_celp.c ****       for (i=0;i<st->lpcSize;i++)
 2632              		.loc 3 526 0
 2633 0ece 0023     		movs	r3, #0
 2634 0ed0 C7F86C31 		str	r3, [r7, #364]
 2635 0ed4 13E0     		b	.L94
 2636              	.L95:
 527:STM32F10x_Speex_Lib/STM32/libspeex/nb_celp.c ****          mem[i]=st->mem_sw[i];
 2637              		.loc 3 527 0 discriminator 3
 2638 0ed6 D7F86C31 		ldr	r3, [r7, #364]
 2639 0eda 9B00     		lsls	r3, r3, #2
 2640 0edc D7F80821 		ldr	r2, [r7, #264]
 2641 0ee0 1344     		add	r3, r3, r2
 2642 0ee2 D7F84021 		ldr	r2, [r7, #320]
 2643 0ee6 D16E     		ldr	r1, [r2, #108]
 2644 0ee8 D7F86C21 		ldr	r2, [r7, #364]
 2645 0eec 9200     		lsls	r2, r2, #2
 2646 0eee 0A44     		add	r2, r2, r1
 2647 0ef0 1268     		ldr	r2, [r2]
 2648 0ef2 1A60     		str	r2, [r3]
 526:STM32F10x_Speex_Lib/STM32/libspeex/nb_celp.c ****          mem[i]=st->mem_sw[i];
 2649              		.loc 3 526 0 discriminator 3
 2650 0ef4 D7F86C31 		ldr	r3, [r7, #364]
ARM GAS  /var/folders/kh/x4vltyy52lbg7p4pcyglc5080000gp/T//ccuucmVt.s 			page 62


 2651 0ef8 0133     		adds	r3, r3, #1
 2652 0efa C7F86C31 		str	r3, [r7, #364]
 2653              	.L94:
 526:STM32F10x_Speex_Lib/STM32/libspeex/nb_celp.c ****          mem[i]=st->mem_sw[i];
 2654              		.loc 3 526 0 is_stmt 0 discriminator 1
 2655 0efe D7F84031 		ldr	r3, [r7, #320]
 2656 0f02 9A69     		ldr	r2, [r3, #24]
 2657 0f04 D7F86C31 		ldr	r3, [r7, #364]
 2658 0f08 9A42     		cmp	r2, r3
 2659 0f0a E4DC     		bgt	.L95
 528:STM32F10x_Speex_Lib/STM32/libspeex/nb_celp.c ****       filter_mem16(sw, bw_lpc1, bw_lpc2, sw, st->subframeSize, st->lpcSize, mem, stack);
 2660              		.loc 3 528 0 is_stmt 1
 2661 0f0c D7F84031 		ldr	r3, [r7, #320]
 2662 0f10 DB68     		ldr	r3, [r3, #12]
 2663 0f12 D7F84021 		ldr	r2, [r7, #320]
 2664 0f16 9269     		ldr	r2, [r2, #24]
 2665 0f18 07F1B004 		add	r4, r7, #176
 2666 0f1c 07F1C400 		add	r0, r7, #196
 2667 0f20 D7F83C11 		ldr	r1, [r7, #316]
 2668 0f24 0391     		str	r1, [sp, #12]
 2669 0f26 D7F80811 		ldr	r1, [r7, #264]
 2670 0f2a 0291     		str	r1, [sp, #8]
 2671 0f2c 0192     		str	r2, [sp, #4]
 2672 0f2e 0093     		str	r3, [sp]
 2673 0f30 D7F8FC30 		ldr	r3, [r7, #252]
 2674 0f34 2246     		mov	r2, r4
 2675 0f36 0146     		mov	r1, r0
 2676 0f38 D7F8FC00 		ldr	r0, [r7, #252]
 2677 0f3c FFF7FEFF 		bl	filter_mem16
 529:STM32F10x_Speex_Lib/STM32/libspeex/nb_celp.c ****       
 530:STM32F10x_Speex_Lib/STM32/libspeex/nb_celp.c ****       if (st->complexity==0)
 2678              		.loc 3 530 0
 2679 0f40 D7F84031 		ldr	r3, [r7, #320]
 2680 0f44 D3F88C30 		ldr	r3, [r3, #140]
 2681 0f48 002B     		cmp	r3, #0
 2682 0f4a 1ED1     		bne	.L96
 531:STM32F10x_Speex_Lib/STM32/libspeex/nb_celp.c ****          for (i=0;i<st->lpcSize;i++)
 2683              		.loc 3 531 0
 2684 0f4c 0023     		movs	r3, #0
 2685 0f4e C7F86C31 		str	r3, [r7, #364]
 2686 0f52 13E0     		b	.L97
 2687              	.L98:
 532:STM32F10x_Speex_Lib/STM32/libspeex/nb_celp.c ****             st->mem_sw[i]=mem[i];
 2688              		.loc 3 532 0 discriminator 3
 2689 0f54 D7F84031 		ldr	r3, [r7, #320]
 2690 0f58 DA6E     		ldr	r2, [r3, #108]
 2691 0f5a D7F86C31 		ldr	r3, [r7, #364]
 2692 0f5e 9B00     		lsls	r3, r3, #2
 2693 0f60 1344     		add	r3, r3, r2
 2694 0f62 D7F86C21 		ldr	r2, [r7, #364]
 2695 0f66 9200     		lsls	r2, r2, #2
 2696 0f68 D7F80811 		ldr	r1, [r7, #264]
 2697 0f6c 0A44     		add	r2, r2, r1
 2698 0f6e 1268     		ldr	r2, [r2]
 2699 0f70 1A60     		str	r2, [r3]
 531:STM32F10x_Speex_Lib/STM32/libspeex/nb_celp.c ****          for (i=0;i<st->lpcSize;i++)
 2700              		.loc 3 531 0 discriminator 3
ARM GAS  /var/folders/kh/x4vltyy52lbg7p4pcyglc5080000gp/T//ccuucmVt.s 			page 63


 2701 0f72 D7F86C31 		ldr	r3, [r7, #364]
 2702 0f76 0133     		adds	r3, r3, #1
 2703 0f78 C7F86C31 		str	r3, [r7, #364]
 2704              	.L97:
 531:STM32F10x_Speex_Lib/STM32/libspeex/nb_celp.c ****          for (i=0;i<st->lpcSize;i++)
 2705              		.loc 3 531 0 is_stmt 0 discriminator 1
 2706 0f7c D7F84031 		ldr	r3, [r7, #320]
 2707 0f80 9A69     		ldr	r2, [r3, #24]
 2708 0f82 D7F86C31 		ldr	r3, [r7, #364]
 2709 0f86 9A42     		cmp	r2, r3
 2710 0f88 E4DC     		bgt	.L98
 2711              	.L96:
 533:STM32F10x_Speex_Lib/STM32/libspeex/nb_celp.c ****       
 534:STM32F10x_Speex_Lib/STM32/libspeex/nb_celp.c ****       /* Compute target signal (saturation prevents overflows on clipped input speech) */
 535:STM32F10x_Speex_Lib/STM32/libspeex/nb_celp.c ****       for (i=0;i<st->subframeSize;i++)
 2712              		.loc 3 535 0 is_stmt 1
 2713 0f8a 0023     		movs	r3, #0
 2714 0f8c C7F86C31 		str	r3, [r7, #364]
 2715 0f90 55E0     		b	.L99
 2716              	.L104:
 536:STM32F10x_Speex_Lib/STM32/libspeex/nb_celp.c ****          target[i]=EXTRACT16(SATURATE(SUB32(sw[i],PSHR32(ringing[i],1)),32767));
 2717              		.loc 3 536 0
 2718 0f92 D7F86C31 		ldr	r3, [r7, #364]
 2719 0f96 5B00     		lsls	r3, r3, #1
 2720 0f98 D7F82021 		ldr	r2, [r7, #288]
 2721 0f9c 1A44     		add	r2, r2, r3
 2722 0f9e D7F86C31 		ldr	r3, [r7, #364]
 2723 0fa2 5B00     		lsls	r3, r3, #1
 2724 0fa4 D7F8FC10 		ldr	r1, [r7, #252]
 2725 0fa8 0B44     		add	r3, r3, r1
 2726 0faa B3F90030 		ldrsh	r3, [r3]
 2727 0fae 1846     		mov	r0, r3
 2728 0fb0 D7F86C31 		ldr	r3, [r7, #364]
 2729 0fb4 5B00     		lsls	r3, r3, #1
 2730 0fb6 D7F81411 		ldr	r1, [r7, #276]
 2731 0fba 0B44     		add	r3, r3, r1
 2732 0fbc B3F90030 		ldrsh	r3, [r3]
 2733 0fc0 0133     		adds	r3, r3, #1
 2734 0fc2 5B10     		asrs	r3, r3, #1
 2735 0fc4 C31A     		subs	r3, r0, r3
 2736 0fc6 B3F5004F 		cmp	r3, #32768
 2737 0fca 30DA     		bge	.L100
 2738              		.loc 3 536 0 is_stmt 0 discriminator 1
 2739 0fcc D7F86C31 		ldr	r3, [r7, #364]
 2740 0fd0 5B00     		lsls	r3, r3, #1
 2741 0fd2 D7F8FC10 		ldr	r1, [r7, #252]
 2742 0fd6 0B44     		add	r3, r3, r1
 2743 0fd8 B3F90030 		ldrsh	r3, [r3]
 2744 0fdc 1846     		mov	r0, r3
 2745 0fde D7F86C31 		ldr	r3, [r7, #364]
 2746 0fe2 5B00     		lsls	r3, r3, #1
 2747 0fe4 D7F81411 		ldr	r1, [r7, #276]
 2748 0fe8 0B44     		add	r3, r3, r1
 2749 0fea B3F90030 		ldrsh	r3, [r3]
 2750 0fee 0133     		adds	r3, r3, #1
 2751 0ff0 5B10     		asrs	r3, r3, #1
 2752 0ff2 C31A     		subs	r3, r0, r3
ARM GAS  /var/folders/kh/x4vltyy52lbg7p4pcyglc5080000gp/T//ccuucmVt.s 			page 64


 2753 0ff4 13F5004F 		cmn	r3, #32768
 2754 0ff8 17DD     		ble	.L101
 2755              		.loc 3 536 0 discriminator 3
 2756 0ffa D7F86C31 		ldr	r3, [r7, #364]
 2757 0ffe 5B00     		lsls	r3, r3, #1
 2758 1000 D7F8FC10 		ldr	r1, [r7, #252]
 2759 1004 0B44     		add	r3, r3, r1
 2760 1006 B3F90030 		ldrsh	r3, [r3]
 2761 100a 99B2     		uxth	r1, r3
 2762 100c D7F86C31 		ldr	r3, [r7, #364]
 2763 1010 5B00     		lsls	r3, r3, #1
 2764 1012 D7F81401 		ldr	r0, [r7, #276]
 2765 1016 0344     		add	r3, r3, r0
 2766 1018 B3F90030 		ldrsh	r3, [r3]
 2767 101c 0133     		adds	r3, r3, #1
 2768 101e 5B10     		asrs	r3, r3, #1
 2769 1020 9BB2     		uxth	r3, r3
 2770 1022 CB1A     		subs	r3, r1, r3
 2771 1024 9BB2     		uxth	r3, r3
 2772 1026 1BB2     		sxth	r3, r3
 2773 1028 03E0     		b	.L103
 2774              	.L101:
 2775              		.loc 3 536 0 discriminator 4
 2776 102a BB4B     		ldr	r3, .L127
 2777 102c 01E0     		b	.L103
 2778              	.L100:
 2779              		.loc 3 536 0 discriminator 2
 2780 102e 47F6FF73 		movw	r3, #32767
 2781              	.L103:
 2782              		.loc 3 536 0 discriminator 8
 2783 1032 1380     		strh	r3, [r2]	@ movhi
 535:STM32F10x_Speex_Lib/STM32/libspeex/nb_celp.c ****          target[i]=EXTRACT16(SATURATE(SUB32(sw[i],PSHR32(ringing[i],1)),32767));
 2784              		.loc 3 535 0 is_stmt 1 discriminator 8
 2785 1034 D7F86C31 		ldr	r3, [r7, #364]
 2786 1038 0133     		adds	r3, r3, #1
 2787 103a C7F86C31 		str	r3, [r7, #364]
 2788              	.L99:
 535:STM32F10x_Speex_Lib/STM32/libspeex/nb_celp.c ****          target[i]=EXTRACT16(SATURATE(SUB32(sw[i],PSHR32(ringing[i],1)),32767));
 2789              		.loc 3 535 0 is_stmt 0 discriminator 2
 2790 103e D7F84031 		ldr	r3, [r7, #320]
 2791 1042 DA68     		ldr	r2, [r3, #12]
 2792 1044 D7F86C31 		ldr	r3, [r7, #364]
 2793 1048 9A42     		cmp	r2, r3
 2794 104a A2DC     		bgt	.L104
 537:STM32F10x_Speex_Lib/STM32/libspeex/nb_celp.c **** 
 538:STM32F10x_Speex_Lib/STM32/libspeex/nb_celp.c ****       /* Reset excitation */
 539:STM32F10x_Speex_Lib/STM32/libspeex/nb_celp.c ****       SPEEX_MEMSET(exc, 0, st->subframeSize);
 2795              		.loc 3 539 0 is_stmt 1
 2796 104c D7F84031 		ldr	r3, [r7, #320]
 2797 1050 DB68     		ldr	r3, [r3, #12]
 2798 1052 5B00     		lsls	r3, r3, #1
 2799 1054 1A46     		mov	r2, r3
 2800 1056 0021     		movs	r1, #0
 2801 1058 D7F80001 		ldr	r0, [r7, #256]
 2802 105c FFF7FEFF 		bl	memset
 2803              	.LBB9:
 540:STM32F10x_Speex_Lib/STM32/libspeex/nb_celp.c **** 
ARM GAS  /var/folders/kh/x4vltyy52lbg7p4pcyglc5080000gp/T//ccuucmVt.s 			page 65


 541:STM32F10x_Speex_Lib/STM32/libspeex/nb_celp.c ****       /* If we have a long-term predictor (otherwise, something's wrong) */
 542:STM32F10x_Speex_Lib/STM32/libspeex/nb_celp.c ****       {
 543:STM32F10x_Speex_Lib/STM32/libspeex/nb_celp.c ****          int pit_min, pit_max;
 544:STM32F10x_Speex_Lib/STM32/libspeex/nb_celp.c ****          pit_min = st->min_pitch;
 2804              		.loc 3 544 0
 2805 1060 D7F84031 		ldr	r3, [r7, #320]
 2806 1064 DB69     		ldr	r3, [r3, #28]
 2807 1066 C7F8F830 		str	r3, [r7, #248]
 545:STM32F10x_Speex_Lib/STM32/libspeex/nb_celp.c ****          pit_max = st->max_pitch;
 2808              		.loc 3 545 0
 2809 106a D7F84031 		ldr	r3, [r7, #320]
 2810 106e 1B6A     		ldr	r3, [r3, #32]
 2811 1070 C7F84C31 		str	r3, [r7, #332]
 546:STM32F10x_Speex_Lib/STM32/libspeex/nb_celp.c ****            
 547:STM32F10x_Speex_Lib/STM32/libspeex/nb_celp.c ****          /* Force pitch to use only the current frame if needed */
 548:STM32F10x_Speex_Lib/STM32/libspeex/nb_celp.c ****          if (st->bounded_pitch && pit_max>offset)
 2812              		.loc 3 548 0
 2813 1074 D7F84031 		ldr	r3, [r7, #320]
 2814 1078 9B6A     		ldr	r3, [r3, #40]
 2815 107a 002B     		cmp	r3, #0
 2816 107c 09D0     		beq	.L105
 2817              		.loc 3 548 0 is_stmt 0 discriminator 1
 2818 107e D7F84C21 		ldr	r2, [r7, #332]
 2819 1082 D7F80431 		ldr	r3, [r7, #260]
 2820 1086 9A42     		cmp	r2, r3
 2821 1088 03DD     		ble	.L105
 549:STM32F10x_Speex_Lib/STM32/libspeex/nb_celp.c ****             pit_max=offset;
 2822              		.loc 3 549 0 is_stmt 1
 2823 108a D7F80431 		ldr	r3, [r7, #260]
 2824 108e C7F84C31 		str	r3, [r7, #332]
 2825              	.L105:
 550:STM32F10x_Speex_Lib/STM32/libspeex/nb_celp.c **** 
 551:STM32F10x_Speex_Lib/STM32/libspeex/nb_celp.c ****          /* Perform pitch search */
 552:STM32F10x_Speex_Lib/STM32/libspeex/nb_celp.c **** 		 pitch = pitch_search_3tap(target, sw, interp_qlpc, bw_lpc1, bw_lpc2,
 553:STM32F10x_Speex_Lib/STM32/libspeex/nb_celp.c ****                                     exc32, SUBMODE(ltp_params), pit_min, pit_max, ol_pitch_coef,
 2826              		.loc 3 553 0
 2827 1092 D7F84031 		ldr	r3, [r7, #320]
 2828 1096 D3F89C20 		ldr	r2, [r3, #156]
 2829 109a D7F84031 		ldr	r3, [r7, #320]
 2830 109e D3F8A030 		ldr	r3, [r3, #160]
 2831 10a2 9B00     		lsls	r3, r3, #2
 2832 10a4 1344     		add	r3, r3, r2
 2833 10a6 1B68     		ldr	r3, [r3]
 552:STM32F10x_Speex_Lib/STM32/libspeex/nb_celp.c ****                                     exc32, SUBMODE(ltp_params), pit_min, pit_max, ol_pitch_coef,
 2834              		.loc 3 552 0
 2835 10a8 1B6A     		ldr	r3, [r3, #32]
 2836 10aa D7F84021 		ldr	r2, [r7, #320]
 2837 10ae 9269     		ldr	r2, [r2, #24]
 2838 10b0 D7F84011 		ldr	r1, [r7, #320]
 2839 10b4 C968     		ldr	r1, [r1, #12]
 2840 10b6 D7F84001 		ldr	r0, [r7, #320]
 2841 10ba D0F88C00 		ldr	r0, [r0, #140]
 2842 10be D7F84041 		ldr	r4, [r7, #320]
 2843 10c2 D4F89440 		ldr	r4, [r4, #148]
 2844 10c6 D7F84051 		ldr	r5, [r7, #320]
 2845 10ca 2435     		adds	r5, r5, #36
 2846 10cc 07F1C40E 		add	lr, r7, #196
ARM GAS  /var/folders/kh/x4vltyy52lbg7p4pcyglc5080000gp/T//ccuucmVt.s 			page 66


 2847 10d0 07F13806 		add	r6, r7, #56
 2848 10d4 0F95     		str	r5, [sp, #60]
 2849 10d6 0E94     		str	r4, [sp, #56]
 2850 10d8 0024     		movs	r4, #0
 2851 10da 0D94     		str	r4, [sp, #52]
 2852 10dc 0C90     		str	r0, [sp, #48]
 2853 10de D7F81001 		ldr	r0, [r7, #272]
 2854 10e2 0B90     		str	r0, [sp, #44]
 2855 10e4 D7F80001 		ldr	r0, [r7, #256]
 2856 10e8 0A90     		str	r0, [sp, #40]
 2857 10ea D7F83C01 		ldr	r0, [r7, #316]
 2858 10ee 0990     		str	r0, [sp, #36]
 2859 10f0 381D     		adds	r0, r7, #4
 2860 10f2 0068     		ldr	r0, [r0]
 2861 10f4 0890     		str	r0, [sp, #32]
 2862 10f6 0791     		str	r1, [sp, #28]
 2863 10f8 0692     		str	r2, [sp, #24]
 2864 10fa B7F96221 		ldrsh	r2, [r7, #354]
 2865 10fe 0592     		str	r2, [sp, #20]
 2866 1100 D7F84C21 		ldr	r2, [r7, #332]
 2867 1104 0492     		str	r2, [sp, #16]
 2868 1106 D7F8F820 		ldr	r2, [r7, #248]
 2869 110a 0392     		str	r2, [sp, #12]
 2870 110c 0293     		str	r3, [sp, #8]
 2871 110e D7F81831 		ldr	r3, [r7, #280]
 2872 1112 0193     		str	r3, [sp, #4]
 2873 1114 07F1B003 		add	r3, r7, #176
 2874 1118 0093     		str	r3, [sp]
 2875 111a 7346     		mov	r3, lr
 2876 111c 3246     		mov	r2, r6
 2877 111e D7F8FC10 		ldr	r1, [r7, #252]
 2878 1122 D7F82001 		ldr	r0, [r7, #288]
 2879 1126 FFF7FEFF 		bl	pitch_search_3tap
 2880 112a C7F8F400 		str	r0, [r7, #244]
 554:STM32F10x_Speex_Lib/STM32/libspeex/nb_celp.c ****                                     st->lpcSize, st->subframeSize, bits, stack, 
 555:STM32F10x_Speex_Lib/STM32/libspeex/nb_celp.c ****                                     exc, syn_resp, st->complexity, 0, st->plc_tuning, &st->cumul_ga
 556:STM32F10x_Speex_Lib/STM32/libspeex/nb_celp.c ****          st->pitch[sub]=pitch;
 2881              		.loc 3 556 0
 2882 112e D7F84031 		ldr	r3, [r7, #320]
 2883 1132 5A6B     		ldr	r2, [r3, #52]
 2884 1134 D7F86831 		ldr	r3, [r7, #360]
 2885 1138 9B00     		lsls	r3, r3, #2
 2886 113a 1344     		add	r3, r3, r2
 2887 113c D7F8F420 		ldr	r2, [r7, #244]
 2888 1140 1A60     		str	r2, [r3]
 2889              	.LBE9:
 557:STM32F10x_Speex_Lib/STM32/libspeex/nb_celp.c ****       }
 558:STM32F10x_Speex_Lib/STM32/libspeex/nb_celp.c ****       /* Quantization of innovation */
 559:STM32F10x_Speex_Lib/STM32/libspeex/nb_celp.c ****       SPEEX_MEMSET(innov, 0, st->subframeSize);
 2890              		.loc 3 559 0
 2891 1142 D7F84031 		ldr	r3, [r7, #320]
 2892 1146 DB68     		ldr	r3, [r3, #12]
 2893 1148 9B00     		lsls	r3, r3, #2
 2894 114a 1A46     		mov	r2, r3
 2895 114c 0021     		movs	r1, #0
 2896 114e D7F81C01 		ldr	r0, [r7, #284]
 2897 1152 FFF7FEFF 		bl	memset
ARM GAS  /var/folders/kh/x4vltyy52lbg7p4pcyglc5080000gp/T//ccuucmVt.s 			page 67


 560:STM32F10x_Speex_Lib/STM32/libspeex/nb_celp.c ****       
 561:STM32F10x_Speex_Lib/STM32/libspeex/nb_celp.c ****       /* FIXME: Make sure this is save from overflows (so far so good) */
 562:STM32F10x_Speex_Lib/STM32/libspeex/nb_celp.c ****       for (i=0;i<40;i++)
 2898              		.loc 3 562 0
 2899 1156 0023     		movs	r3, #0
 2900 1158 C7F86C31 		str	r3, [r7, #364]
 2901 115c 22E0     		b	.L106
 2902              	.L107:
 563:STM32F10x_Speex_Lib/STM32/libspeex/nb_celp.c ****          real_exc[i] = EXTRACT16(SUB32(EXTEND32(real_exc[i]), PSHR32(exc32[i],SIG_SHIFT-1)));
 2903              		.loc 3 563 0 discriminator 3
 2904 115e D7F86C31 		ldr	r3, [r7, #364]
 2905 1162 5B00     		lsls	r3, r3, #1
 2906 1164 D7F80C21 		ldr	r2, [r7, #268]
 2907 1168 1344     		add	r3, r3, r2
 2908 116a D7F86C21 		ldr	r2, [r7, #364]
 2909 116e 5200     		lsls	r2, r2, #1
 2910 1170 D7F80C11 		ldr	r1, [r7, #268]
 2911 1174 0A44     		add	r2, r2, r1
 2912 1176 B2F90020 		ldrsh	r2, [r2]
 2913 117a 91B2     		uxth	r1, r2
 2914 117c D7F86C21 		ldr	r2, [r7, #364]
 2915 1180 9200     		lsls	r2, r2, #2
 2916 1182 D7F81801 		ldr	r0, [r7, #280]
 2917 1186 0244     		add	r2, r2, r0
 2918 1188 1268     		ldr	r2, [r2]
 2919 118a 02F58052 		add	r2, r2, #4096
 2920 118e 5213     		asrs	r2, r2, #13
 2921 1190 92B2     		uxth	r2, r2
 2922 1192 8A1A     		subs	r2, r1, r2
 2923 1194 92B2     		uxth	r2, r2
 2924 1196 12B2     		sxth	r2, r2
 2925 1198 1A80     		strh	r2, [r3]	@ movhi
 562:STM32F10x_Speex_Lib/STM32/libspeex/nb_celp.c ****          real_exc[i] = EXTRACT16(SUB32(EXTEND32(real_exc[i]), PSHR32(exc32[i],SIG_SHIFT-1)));
 2926              		.loc 3 562 0 discriminator 3
 2927 119a D7F86C31 		ldr	r3, [r7, #364]
 2928 119e 0133     		adds	r3, r3, #1
 2929 11a0 C7F86C31 		str	r3, [r7, #364]
 2930              	.L106:
 562:STM32F10x_Speex_Lib/STM32/libspeex/nb_celp.c ****          real_exc[i] = EXTRACT16(SUB32(EXTEND32(real_exc[i]), PSHR32(exc32[i],SIG_SHIFT-1)));
 2931              		.loc 3 562 0 is_stmt 0 discriminator 1
 2932 11a4 D7F86C31 		ldr	r3, [r7, #364]
 2933 11a8 272B     		cmp	r3, #39
 2934 11aa D8DD     		ble	.L107
 564:STM32F10x_Speex_Lib/STM32/libspeex/nb_celp.c ****       
 565:STM32F10x_Speex_Lib/STM32/libspeex/nb_celp.c ****       ener = SHL32(EXTEND32(compute_rms16(real_exc, st->subframeSize)),SIG_SHIFT);
 2935              		.loc 3 565 0 is_stmt 1
 2936 11ac D7F84031 		ldr	r3, [r7, #320]
 2937 11b0 DB68     		ldr	r3, [r3, #12]
 2938 11b2 1946     		mov	r1, r3
 2939 11b4 D7F80C01 		ldr	r0, [r7, #268]
 2940 11b8 FFF7FEFF 		bl	compute_rms16
 2941 11bc 0346     		mov	r3, r0
 2942 11be 9B03     		lsls	r3, r3, #14
 2943 11c0 C7F84831 		str	r3, [r7, #328]
 2944              	.LBB10:
 566:STM32F10x_Speex_Lib/STM32/libspeex/nb_celp.c ****       
 567:STM32F10x_Speex_Lib/STM32/libspeex/nb_celp.c ****       /*FIXME: Should use DIV32_16 and make sure result fits in 16 bits */
ARM GAS  /var/folders/kh/x4vltyy52lbg7p4pcyglc5080000gp/T//ccuucmVt.s 			page 68


 568:STM32F10x_Speex_Lib/STM32/libspeex/nb_celp.c ****       {
 569:STM32F10x_Speex_Lib/STM32/libspeex/nb_celp.c ****          spx_word32_t f = PDIV32(ener,PSHR32(ol_gain,SIG_SHIFT));
 2945              		.loc 3 569 0
 2946 11c4 D7F85C31 		ldr	r3, [r7, #348]
 2947 11c8 03F50053 		add	r3, r3, #8192
 2948 11cc 9B13     		asrs	r3, r3, #14
 2949 11ce 1BB2     		sxth	r3, r3
 2950 11d0 5B10     		asrs	r3, r3, #1
 2951 11d2 1BB2     		sxth	r3, r3
 2952 11d4 1A46     		mov	r2, r3
 2953 11d6 D7F84831 		ldr	r3, [r7, #328]
 2954 11da 1A44     		add	r2, r2, r3
 2955 11dc D7F85C31 		ldr	r3, [r7, #348]
 2956 11e0 03F50053 		add	r3, r3, #8192
 2957 11e4 9B13     		asrs	r3, r3, #14
 2958 11e6 92FBF3F3 		sdiv	r3, r2, r3
 2959 11ea C7F8F030 		str	r3, [r7, #240]
 570:STM32F10x_Speex_Lib/STM32/libspeex/nb_celp.c ****          if (f<=32767)
 2960              		.loc 3 570 0
 2961 11ee D7F8F030 		ldr	r3, [r7, #240]
 2962 11f2 B3F5004F 		cmp	r3, #32768
 2963 11f6 04DA     		bge	.L108
 571:STM32F10x_Speex_Lib/STM32/libspeex/nb_celp.c ****             fine_gain = f;
 2964              		.loc 3 571 0
 2965 11f8 D7F8F030 		ldr	r3, [r7, #240]
 2966 11fc A7F85A31 		strh	r3, [r7, #346]	@ movhi
 2967 1200 03E0     		b	.L109
 2968              	.L108:
 572:STM32F10x_Speex_Lib/STM32/libspeex/nb_celp.c ****          else
 573:STM32F10x_Speex_Lib/STM32/libspeex/nb_celp.c ****             fine_gain = 32767;
 2969              		.loc 3 573 0
 2970 1202 47F6FF73 		movw	r3, #32767
 2971 1206 A7F85A31 		strh	r3, [r7, #346]	@ movhi
 2972              	.L109:
 2973              	.LBE10:
 2974              	.LBB11:
 574:STM32F10x_Speex_Lib/STM32/libspeex/nb_celp.c ****       }
 575:STM32F10x_Speex_Lib/STM32/libspeex/nb_celp.c **** 
 576:STM32F10x_Speex_Lib/STM32/libspeex/nb_celp.c ****       /* Calculate gain correction for the sub-frame (if any) */
 577:STM32F10x_Speex_Lib/STM32/libspeex/nb_celp.c ****       {
 578:STM32F10x_Speex_Lib/STM32/libspeex/nb_celp.c ****          int qe;
 579:STM32F10x_Speex_Lib/STM32/libspeex/nb_celp.c ****          qe = scal_quant(fine_gain, exc_gain_quant_scal1_bound, 2);
 2975              		.loc 3 579 0
 2976 120a B7F95A31 		ldrsh	r3, [r7, #346]
 2977 120e 0222     		movs	r2, #2
 2978 1210 4249     		ldr	r1, .L127+4
 2979 1212 1846     		mov	r0, r3
 2980 1214 FFF7FEFF 		bl	scal_quant
 2981 1218 C7F8EC00 		str	r0, [r7, #236]
 580:STM32F10x_Speex_Lib/STM32/libspeex/nb_celp.c ****          speex_bits_pack(bits, qe, 1);
 2982              		.loc 3 580 0
 2983 121c 3B1D     		adds	r3, r7, #4
 2984 121e 0122     		movs	r2, #1
 2985 1220 D7F8EC10 		ldr	r1, [r7, #236]
 2986 1224 1868     		ldr	r0, [r3]
 2987 1226 FFF7FEFF 		bl	speex_bits_pack
 581:STM32F10x_Speex_Lib/STM32/libspeex/nb_celp.c ****          ener=MULT16_32_Q14(exc_gain_quant_scal1[qe],ol_gain);               
ARM GAS  /var/folders/kh/x4vltyy52lbg7p4pcyglc5080000gp/T//ccuucmVt.s 			page 69


 2988              		.loc 3 581 0
 2989 122a 3D4A     		ldr	r2, .L127+8
 2990 122c D7F8EC30 		ldr	r3, [r7, #236]
 2991 1230 32F91330 		ldrsh	r3, [r2, r3, lsl #1]
 2992 1234 1A46     		mov	r2, r3
 2993 1236 D7F85C31 		ldr	r3, [r7, #348]
 2994 123a 9B13     		asrs	r3, r3, #14
 2995 123c 1BB2     		sxth	r3, r3
 2996 123e 03FB02F2 		mul	r2, r3, r2
 2997 1242 3749     		ldr	r1, .L127+8
 2998 1244 D7F8EC30 		ldr	r3, [r7, #236]
 2999 1248 31F91330 		ldrsh	r3, [r1, r3, lsl #1]
 3000 124c 1946     		mov	r1, r3
 3001 124e D7F85C31 		ldr	r3, [r7, #348]
 3002 1252 C3F30D03 		ubfx	r3, r3, #0, #14
 3003 1256 03FB01F3 		mul	r3, r3, r1
 3004 125a 9B13     		asrs	r3, r3, #14
 3005 125c 1344     		add	r3, r3, r2
 3006 125e C7F84831 		str	r3, [r7, #328]
 3007              	.LBE11:
 582:STM32F10x_Speex_Lib/STM32/libspeex/nb_celp.c ****       }
 583:STM32F10x_Speex_Lib/STM32/libspeex/nb_celp.c ****       
 584:STM32F10x_Speex_Lib/STM32/libspeex/nb_celp.c ****       /* Normalize innovation */
 585:STM32F10x_Speex_Lib/STM32/libspeex/nb_celp.c ****       signal_div(target, target, ener, st->subframeSize);
 3008              		.loc 3 585 0
 3009 1262 D7F84031 		ldr	r3, [r7, #320]
 3010 1266 DB68     		ldr	r3, [r3, #12]
 3011 1268 D7F84821 		ldr	r2, [r7, #328]
 3012 126c D7F82011 		ldr	r1, [r7, #288]
 3013 1270 D7F82001 		ldr	r0, [r7, #288]
 3014 1274 FFF7FEFF 		bl	signal_div
 586:STM32F10x_Speex_Lib/STM32/libspeex/nb_celp.c ****       
 587:STM32F10x_Speex_Lib/STM32/libspeex/nb_celp.c ****       /* Quantize innovation */
 588:STM32F10x_Speex_Lib/STM32/libspeex/nb_celp.c ****       {
 589:STM32F10x_Speex_Lib/STM32/libspeex/nb_celp.c ****          /* Codebook search */
 590:STM32F10x_Speex_Lib/STM32/libspeex/nb_celp.c **** 		 split_cb_search_shape_sign(target, interp_qlpc, bw_lpc1, bw_lpc2, 
 591:STM32F10x_Speex_Lib/STM32/libspeex/nb_celp.c ****                   SUBMODE(innovation_params), st->lpcSize, st->subframeSize, 
 3015              		.loc 3 591 0
 3016 1278 D7F84031 		ldr	r3, [r7, #320]
 3017 127c D3F89C20 		ldr	r2, [r3, #156]
 3018 1280 D7F84031 		ldr	r3, [r7, #320]
 3019 1284 D3F8A030 		ldr	r3, [r3, #160]
 3020 1288 9B00     		lsls	r3, r3, #2
 3021 128a 1344     		add	r3, r3, r2
 3022 128c 1B68     		ldr	r3, [r3]
 590:STM32F10x_Speex_Lib/STM32/libspeex/nb_celp.c ****                   SUBMODE(innovation_params), st->lpcSize, st->subframeSize, 
 3023              		.loc 3 590 0
 3024 128e DB6A     		ldr	r3, [r3, #44]
 3025 1290 D7F84021 		ldr	r2, [r7, #320]
 3026 1294 9269     		ldr	r2, [r2, #24]
 3027 1296 D7F84011 		ldr	r1, [r7, #320]
 3028 129a C968     		ldr	r1, [r1, #12]
 3029 129c D7F84001 		ldr	r0, [r7, #320]
 3030 12a0 D0F88C00 		ldr	r0, [r0, #140]
 592:STM32F10x_Speex_Lib/STM32/libspeex/nb_celp.c ****                   innov, syn_resp, bits, stack, st->complexity, SUBMODE(double_codebook));
 3031              		.loc 3 592 0
 3032 12a4 D7F84041 		ldr	r4, [r7, #320]
ARM GAS  /var/folders/kh/x4vltyy52lbg7p4pcyglc5080000gp/T//ccuucmVt.s 			page 70


 3033 12a8 D4F89C50 		ldr	r5, [r4, #156]
 3034 12ac D7F84041 		ldr	r4, [r7, #320]
 3035 12b0 D4F8A040 		ldr	r4, [r4, #160]
 3036 12b4 A400     		lsls	r4, r4, #2
 3037 12b6 2C44     		add	r4, r4, r5
 3038 12b8 2468     		ldr	r4, [r4]
 590:STM32F10x_Speex_Lib/STM32/libspeex/nb_celp.c ****                   SUBMODE(innovation_params), st->lpcSize, st->subframeSize, 
 3039              		.loc 3 590 0
 3040 12ba E468     		ldr	r4, [r4, #12]
 3041 12bc 07F1B00E 		add	lr, r7, #176
 3042 12c0 07F1C406 		add	r6, r7, #196
 3043 12c4 07F13805 		add	r5, r7, #56
 3044 12c8 0894     		str	r4, [sp, #32]
 3045 12ca 0790     		str	r0, [sp, #28]
 3046 12cc D7F83C01 		ldr	r0, [r7, #316]
 3047 12d0 0690     		str	r0, [sp, #24]
 3048 12d2 381D     		adds	r0, r7, #4
 3049 12d4 0068     		ldr	r0, [r0]
 3050 12d6 0590     		str	r0, [sp, #20]
 3051 12d8 D7F81001 		ldr	r0, [r7, #272]
 3052 12dc 0490     		str	r0, [sp, #16]
 3053 12de D7F81C01 		ldr	r0, [r7, #284]
 3054 12e2 0390     		str	r0, [sp, #12]
 3055 12e4 0291     		str	r1, [sp, #8]
 3056 12e6 0192     		str	r2, [sp, #4]
 3057 12e8 0093     		str	r3, [sp]
 3058 12ea 7346     		mov	r3, lr
 3059 12ec 3246     		mov	r2, r6
 3060 12ee 2946     		mov	r1, r5
 3061 12f0 D7F82001 		ldr	r0, [r7, #288]
 3062 12f4 FFF7FEFF 		bl	split_cb_search_shape_sign
 593:STM32F10x_Speex_Lib/STM32/libspeex/nb_celp.c **** 		 /* De-normalize innovation and update excitation */
 594:STM32F10x_Speex_Lib/STM32/libspeex/nb_celp.c ****          signal_mul(innov, innov, ener, st->subframeSize);
 3063              		.loc 3 594 0
 3064 12f8 D7F84031 		ldr	r3, [r7, #320]
 3065 12fc DB68     		ldr	r3, [r3, #12]
 3066 12fe D7F84821 		ldr	r2, [r7, #328]
 3067 1302 D7F81C11 		ldr	r1, [r7, #284]
 3068 1306 D7F81C01 		ldr	r0, [r7, #284]
 3069 130a FFF7FEFF 		bl	signal_mul
 595:STM32F10x_Speex_Lib/STM32/libspeex/nb_celp.c ****          
 596:STM32F10x_Speex_Lib/STM32/libspeex/nb_celp.c ****          for (i=0;i<40;i++)
 3070              		.loc 3 596 0
 3071 130e 0023     		movs	r3, #0
 3072 1310 C7F86C31 		str	r3, [r7, #364]
 3073 1314 57E0     		b	.L110
 3074              	.L128:
 3075 1316 00BF     		.align	2
 3076              	.L127:
 3077 1318 0180FFFF 		.word	-32767
 3078 131c 00000000 		.word	exc_gain_quant_scal1_bound
 3079 1320 00000000 		.word	exc_gain_quant_scal1
 3080              	.L115:
 597:STM32F10x_Speex_Lib/STM32/libspeex/nb_celp.c ****             exc[i] = EXTRACT16(SATURATE32(PSHR32(ADD32(SHL32(exc32[i],1),innov[i]),SIG_SHIFT),32767
 3081              		.loc 3 597 0
 3082 1324 D7F86C31 		ldr	r3, [r7, #364]
 3083 1328 5B00     		lsls	r3, r3, #1
ARM GAS  /var/folders/kh/x4vltyy52lbg7p4pcyglc5080000gp/T//ccuucmVt.s 			page 71


 3084 132a D7F80021 		ldr	r2, [r7, #256]
 3085 132e 1A44     		add	r2, r2, r3
 3086 1330 D7F86C31 		ldr	r3, [r7, #364]
 3087 1334 9B00     		lsls	r3, r3, #2
 3088 1336 D7F81811 		ldr	r1, [r7, #280]
 3089 133a 0B44     		add	r3, r3, r1
 3090 133c 1B68     		ldr	r3, [r3]
 3091 133e 5900     		lsls	r1, r3, #1
 3092 1340 D7F86C31 		ldr	r3, [r7, #364]
 3093 1344 9B00     		lsls	r3, r3, #2
 3094 1346 D7F81C01 		ldr	r0, [r7, #284]
 3095 134a 0344     		add	r3, r3, r0
 3096 134c 1B68     		ldr	r3, [r3]
 3097 134e 0B44     		add	r3, r3, r1
 3098 1350 03F50053 		add	r3, r3, #8192
 3099 1354 9B13     		asrs	r3, r3, #14
 3100 1356 B3F5004F 		cmp	r3, #32768
 3101 135a 2CDA     		bge	.L111
 3102              		.loc 3 597 0 is_stmt 0 discriminator 1
 3103 135c D7F86C31 		ldr	r3, [r7, #364]
 3104 1360 9B00     		lsls	r3, r3, #2
 3105 1362 D7F81811 		ldr	r1, [r7, #280]
 3106 1366 0B44     		add	r3, r3, r1
 3107 1368 1B68     		ldr	r3, [r3]
 3108 136a 5900     		lsls	r1, r3, #1
 3109 136c D7F86C31 		ldr	r3, [r7, #364]
 3110 1370 9B00     		lsls	r3, r3, #2
 3111 1372 D7F81C01 		ldr	r0, [r7, #284]
 3112 1376 0344     		add	r3, r3, r0
 3113 1378 1B68     		ldr	r3, [r3]
 3114 137a 0B44     		add	r3, r3, r1
 3115 137c 03F50053 		add	r3, r3, #8192
 3116 1380 9B13     		asrs	r3, r3, #14
 3117 1382 13F5004F 		cmn	r3, #32768
 3118 1386 14DD     		ble	.L112
 3119              		.loc 3 597 0 discriminator 3
 3120 1388 D7F86C31 		ldr	r3, [r7, #364]
 3121 138c 9B00     		lsls	r3, r3, #2
 3122 138e D7F81811 		ldr	r1, [r7, #280]
 3123 1392 0B44     		add	r3, r3, r1
 3124 1394 1B68     		ldr	r3, [r3]
 3125 1396 5900     		lsls	r1, r3, #1
 3126 1398 D7F86C31 		ldr	r3, [r7, #364]
 3127 139c 9B00     		lsls	r3, r3, #2
 3128 139e D7F81C01 		ldr	r0, [r7, #284]
 3129 13a2 0344     		add	r3, r3, r0
 3130 13a4 1B68     		ldr	r3, [r3]
 3131 13a6 0B44     		add	r3, r3, r1
 3132 13a8 03F50053 		add	r3, r3, #8192
 3133 13ac 9B13     		asrs	r3, r3, #14
 3134 13ae 1BB2     		sxth	r3, r3
 3135 13b0 03E0     		b	.L114
 3136              	.L112:
 3137              		.loc 3 597 0 discriminator 4
 3138 13b2 6E4B     		ldr	r3, .L129
 3139 13b4 01E0     		b	.L114
 3140              	.L111:
ARM GAS  /var/folders/kh/x4vltyy52lbg7p4pcyglc5080000gp/T//ccuucmVt.s 			page 72


 3141              		.loc 3 597 0 discriminator 2
 3142 13b6 47F6FF73 		movw	r3, #32767
 3143              	.L114:
 3144              		.loc 3 597 0 discriminator 8
 3145 13ba 1380     		strh	r3, [r2]	@ movhi
 596:STM32F10x_Speex_Lib/STM32/libspeex/nb_celp.c ****             exc[i] = EXTRACT16(SATURATE32(PSHR32(ADD32(SHL32(exc32[i],1),innov[i]),SIG_SHIFT),32767
 3146              		.loc 3 596 0 is_stmt 1 discriminator 8
 3147 13bc D7F86C31 		ldr	r3, [r7, #364]
 3148 13c0 0133     		adds	r3, r3, #1
 3149 13c2 C7F86C31 		str	r3, [r7, #364]
 3150              	.L110:
 596:STM32F10x_Speex_Lib/STM32/libspeex/nb_celp.c ****             exc[i] = EXTRACT16(SATURATE32(PSHR32(ADD32(SHL32(exc32[i],1),innov[i]),SIG_SHIFT),32767
 3151              		.loc 3 596 0 is_stmt 0 discriminator 2
 3152 13c6 D7F86C31 		ldr	r3, [r7, #364]
 3153 13ca 272B     		cmp	r3, #39
 3154 13cc AADD     		ble	.L115
 598:STM32F10x_Speex_Lib/STM32/libspeex/nb_celp.c **** 
 599:STM32F10x_Speex_Lib/STM32/libspeex/nb_celp.c ****          if (st->innov_rms_save)
 3155              		.loc 3 599 0 is_stmt 1
 3156 13ce D7F84031 		ldr	r3, [r7, #320]
 3157 13d2 D3F88830 		ldr	r3, [r3, #136]
 3158 13d6 002B     		cmp	r3, #0
 3159 13d8 11D0     		beq	.L116
 600:STM32F10x_Speex_Lib/STM32/libspeex/nb_celp.c ****          {
 601:STM32F10x_Speex_Lib/STM32/libspeex/nb_celp.c ****             st->innov_rms_save[sub] = compute_rms(innov, st->subframeSize);
 3160              		.loc 3 601 0
 3161 13da D7F84031 		ldr	r3, [r7, #320]
 3162 13de D3F88820 		ldr	r2, [r3, #136]
 3163 13e2 D7F86831 		ldr	r3, [r7, #360]
 3164 13e6 5B00     		lsls	r3, r3, #1
 3165 13e8 D418     		adds	r4, r2, r3
 3166 13ea D7F84031 		ldr	r3, [r7, #320]
 3167 13ee DB68     		ldr	r3, [r3, #12]
 3168 13f0 1946     		mov	r1, r3
 3169 13f2 D7F81C01 		ldr	r0, [r7, #284]
 3170 13f6 FFF7FEFF 		bl	compute_rms
 3171 13fa 0346     		mov	r3, r0
 3172 13fc 2380     		strh	r3, [r4]	@ movhi
 3173              	.L116:
 602:STM32F10x_Speex_Lib/STM32/libspeex/nb_celp.c ****          }
 603:STM32F10x_Speex_Lib/STM32/libspeex/nb_celp.c ****       }
 604:STM32F10x_Speex_Lib/STM32/libspeex/nb_celp.c **** 
 605:STM32F10x_Speex_Lib/STM32/libspeex/nb_celp.c ****       /* Final signal synthesis from excitation */
 606:STM32F10x_Speex_Lib/STM32/libspeex/nb_celp.c ****       iir_mem16(exc, interp_qlpc, sw, st->subframeSize, st->lpcSize, st->mem_sp, stack);
 3174              		.loc 3 606 0
 3175 13fe D7F84031 		ldr	r3, [r7, #320]
 3176 1402 DC68     		ldr	r4, [r3, #12]
 3177 1404 D7F84031 		ldr	r3, [r7, #320]
 3178 1408 9B69     		ldr	r3, [r3, #24]
 3179 140a D7F84021 		ldr	r2, [r7, #320]
 3180 140e 926E     		ldr	r2, [r2, #104]
 3181 1410 07F13800 		add	r0, r7, #56
 3182 1414 D7F83C11 		ldr	r1, [r7, #316]
 3183 1418 0291     		str	r1, [sp, #8]
 3184 141a 0192     		str	r2, [sp, #4]
 3185 141c 0093     		str	r3, [sp]
 3186 141e 2346     		mov	r3, r4
ARM GAS  /var/folders/kh/x4vltyy52lbg7p4pcyglc5080000gp/T//ccuucmVt.s 			page 73


 3187 1420 D7F8FC20 		ldr	r2, [r7, #252]
 3188 1424 0146     		mov	r1, r0
 3189 1426 D7F80001 		ldr	r0, [r7, #256]
 3190 142a FFF7FEFF 		bl	iir_mem16
 607:STM32F10x_Speex_Lib/STM32/libspeex/nb_celp.c **** 
 608:STM32F10x_Speex_Lib/STM32/libspeex/nb_celp.c ****       /* Compute weighted signal again, from synthesized speech (not sure it's the right thing) */
 609:STM32F10x_Speex_Lib/STM32/libspeex/nb_celp.c ****       if (st->complexity!=0)
 3191              		.loc 3 609 0
 3192 142e D7F84031 		ldr	r3, [r7, #320]
 3193 1432 D3F88C30 		ldr	r3, [r3, #140]
 3194 1436 002B     		cmp	r3, #0
 3195 1438 1AD0     		beq	.L117
 610:STM32F10x_Speex_Lib/STM32/libspeex/nb_celp.c ****          filter_mem16(sw, bw_lpc1, bw_lpc2, sw, st->subframeSize, st->lpcSize, st->mem_sw, stack);
 3196              		.loc 3 610 0
 3197 143a D7F84031 		ldr	r3, [r7, #320]
 3198 143e DB68     		ldr	r3, [r3, #12]
 3199 1440 D7F84021 		ldr	r2, [r7, #320]
 3200 1444 9269     		ldr	r2, [r2, #24]
 3201 1446 D7F84011 		ldr	r1, [r7, #320]
 3202 144a C96E     		ldr	r1, [r1, #108]
 3203 144c 07F1B005 		add	r5, r7, #176
 3204 1450 07F1C404 		add	r4, r7, #196
 3205 1454 D7F83C01 		ldr	r0, [r7, #316]
 3206 1458 0390     		str	r0, [sp, #12]
 3207 145a 0291     		str	r1, [sp, #8]
 3208 145c 0192     		str	r2, [sp, #4]
 3209 145e 0093     		str	r3, [sp]
 3210 1460 D7F8FC30 		ldr	r3, [r7, #252]
 3211 1464 2A46     		mov	r2, r5
 3212 1466 2146     		mov	r1, r4
 3213 1468 D7F8FC00 		ldr	r0, [r7, #252]
 3214 146c FFF7FEFF 		bl	filter_mem16
 3215              	.L117:
 3216              	.LBE7:
 447:STM32F10x_Speex_Lib/STM32/libspeex/nb_celp.c ****    {
 3217              		.loc 3 447 0 discriminator 2
 3218 1470 D7F86831 		ldr	r3, [r7, #360]
 3219 1474 0133     		adds	r3, r3, #1
 3220 1476 C7F86831 		str	r3, [r7, #360]
 3221              	.L72:
 447:STM32F10x_Speex_Lib/STM32/libspeex/nb_celp.c ****    {
 3222              		.loc 3 447 0 is_stmt 0 discriminator 1
 3223 147a D7F84031 		ldr	r3, [r7, #320]
 3224 147e 1A69     		ldr	r2, [r3, #16]
 3225 1480 D7F86831 		ldr	r3, [r7, #360]
 3226 1484 9A42     		cmp	r2, r3
 3227 1486 3FF70DAB 		bgt	.L118
 611:STM32F10x_Speex_Lib/STM32/libspeex/nb_celp.c ****       
 612:STM32F10x_Speex_Lib/STM32/libspeex/nb_celp.c ****    }
 613:STM32F10x_Speex_Lib/STM32/libspeex/nb_celp.c **** 
 614:STM32F10x_Speex_Lib/STM32/libspeex/nb_celp.c ****    /* Store the LSPs for interpolation in the next frame */
 615:STM32F10x_Speex_Lib/STM32/libspeex/nb_celp.c ****    for (i=0;i<10;i++)
 3228              		.loc 3 615 0 is_stmt 1
 3229 148a 0023     		movs	r3, #0
 3230 148c C7F86C31 		str	r3, [r7, #364]
 3231 1490 24E0     		b	.L119
 3232              	.L120:
ARM GAS  /var/folders/kh/x4vltyy52lbg7p4pcyglc5080000gp/T//ccuucmVt.s 			page 74


 616:STM32F10x_Speex_Lib/STM32/libspeex/nb_celp.c ****    {
 617:STM32F10x_Speex_Lib/STM32/libspeex/nb_celp.c **** 	   st->old_lsp[i] = lsp[i];
 3233              		.loc 3 617 0 discriminator 3
 3234 1492 D7F84031 		ldr	r3, [r7, #320]
 3235 1496 1A6E     		ldr	r2, [r3, #96]
 3236 1498 D7F86C31 		ldr	r3, [r7, #364]
 3237 149c 5B00     		lsls	r3, r3, #1
 3238 149e 1A44     		add	r2, r2, r3
 3239 14a0 D7F86C31 		ldr	r3, [r7, #364]
 3240 14a4 5B00     		lsls	r3, r3, #1
 3241 14a6 07F5B871 		add	r1, r7, #368
 3242 14aa 0B44     		add	r3, r3, r1
 3243 14ac 33F9D43C 		ldrsh	r3, [r3, #-212]
 3244 14b0 1380     		strh	r3, [r2]	@ movhi
 618:STM32F10x_Speex_Lib/STM32/libspeex/nb_celp.c ****        st->old_qlsp[i] = qlsp[i];
 3245              		.loc 3 618 0 discriminator 3
 3246 14b2 D7F84031 		ldr	r3, [r7, #320]
 3247 14b6 5A6E     		ldr	r2, [r3, #100]
 3248 14b8 D7F86C31 		ldr	r3, [r7, #364]
 3249 14bc 5B00     		lsls	r3, r3, #1
 3250 14be 1A44     		add	r2, r2, r3
 3251 14c0 D7F86C31 		ldr	r3, [r7, #364]
 3252 14c4 5B00     		lsls	r3, r3, #1
 3253 14c6 07F5B871 		add	r1, r7, #368
 3254 14ca 0B44     		add	r3, r3, r1
 3255 14cc 33F9E83C 		ldrsh	r3, [r3, #-232]
 3256 14d0 1380     		strh	r3, [r2]	@ movhi
 615:STM32F10x_Speex_Lib/STM32/libspeex/nb_celp.c ****    {
 3257              		.loc 3 615 0 discriminator 3
 3258 14d2 D7F86C31 		ldr	r3, [r7, #364]
 3259 14d6 0133     		adds	r3, r3, #1
 3260 14d8 C7F86C31 		str	r3, [r7, #364]
 3261              	.L119:
 615:STM32F10x_Speex_Lib/STM32/libspeex/nb_celp.c ****    {
 3262              		.loc 3 615 0 is_stmt 0 discriminator 1
 3263 14dc D7F86C31 		ldr	r3, [r7, #364]
 3264 14e0 092B     		cmp	r3, #9
 3265 14e2 D6DD     		ble	.L120
 619:STM32F10x_Speex_Lib/STM32/libspeex/nb_celp.c ****    }
 620:STM32F10x_Speex_Lib/STM32/libspeex/nb_celp.c **** 
 621:STM32F10x_Speex_Lib/STM32/libspeex/nb_celp.c ****    /* The next frame will not be the first (Duh!) */
 622:STM32F10x_Speex_Lib/STM32/libspeex/nb_celp.c ****    st->first = 0;
 3266              		.loc 3 622 0 is_stmt 1
 3267 14e4 D7F84031 		ldr	r3, [r7, #320]
 3268 14e8 0022     		movs	r2, #0
 3269 14ea 5A60     		str	r2, [r3, #4]
 623:STM32F10x_Speex_Lib/STM32/libspeex/nb_celp.c ****    SPEEX_COPY(st->winBuf, in+2*st->frameSize-st->windowSize, st->windowSize-st->frameSize);
 3270              		.loc 3 623 0
 3271 14ec D7F84031 		ldr	r3, [r7, #320]
 3272 14f0 586C     		ldr	r0, [r3, #68]
 3273 14f2 D7F84031 		ldr	r3, [r7, #320]
 3274 14f6 9B68     		ldr	r3, [r3, #8]
 3275 14f8 5B00     		lsls	r3, r3, #1
 3276 14fa 1A46     		mov	r2, r3
 3277 14fc D7F84031 		ldr	r3, [r7, #320]
 3278 1500 5B69     		ldr	r3, [r3, #20]
 3279 1502 D31A     		subs	r3, r2, r3
ARM GAS  /var/folders/kh/x4vltyy52lbg7p4pcyglc5080000gp/T//ccuucmVt.s 			page 75


 3280 1504 5B00     		lsls	r3, r3, #1
 3281 1506 D7F84421 		ldr	r2, [r7, #324]
 3282 150a D118     		adds	r1, r2, r3
 3283 150c D7F84031 		ldr	r3, [r7, #320]
 3284 1510 5A69     		ldr	r2, [r3, #20]
 3285 1512 D7F84031 		ldr	r3, [r7, #320]
 3286 1516 9B68     		ldr	r3, [r3, #8]
 3287 1518 D31A     		subs	r3, r2, r3
 3288 151a 5B00     		lsls	r3, r3, #1
 3289 151c 1A46     		mov	r2, r3
 3290 151e FFF7FEFF 		bl	memcpy
 624:STM32F10x_Speex_Lib/STM32/libspeex/nb_celp.c **** 
 625:STM32F10x_Speex_Lib/STM32/libspeex/nb_celp.c ****    if (SUBMODE(innovation_quant) == noise_codebook_quant || st->submodeID==0)
 3291              		.loc 3 625 0
 3292 1522 D7F84031 		ldr	r3, [r7, #320]
 3293 1526 D3F89C20 		ldr	r2, [r3, #156]
 3294 152a D7F84031 		ldr	r3, [r7, #320]
 3295 152e D3F8A030 		ldr	r3, [r3, #160]
 3296 1532 9B00     		lsls	r3, r3, #2
 3297 1534 1344     		add	r3, r3, r2
 3298 1536 1B68     		ldr	r3, [r3]
 3299 1538 5B6A     		ldr	r3, [r3, #36]
 3300 153a 0D4A     		ldr	r2, .L129+4
 3301 153c 9342     		cmp	r3, r2
 3302 153e 05D0     		beq	.L121
 3303              		.loc 3 625 0 is_stmt 0 discriminator 1
 3304 1540 D7F84031 		ldr	r3, [r7, #320]
 3305 1544 D3F8A030 		ldr	r3, [r3, #160]
 3306 1548 002B     		cmp	r3, #0
 3307 154a 04D1     		bne	.L122
 3308              	.L121:
 626:STM32F10x_Speex_Lib/STM32/libspeex/nb_celp.c ****       st->bounded_pitch = 1;
 3309              		.loc 3 626 0 is_stmt 1
 3310 154c D7F84031 		ldr	r3, [r7, #320]
 3311 1550 0122     		movs	r2, #1
 3312 1552 9A62     		str	r2, [r3, #40]
 3313 1554 03E0     		b	.L123
 3314              	.L122:
 627:STM32F10x_Speex_Lib/STM32/libspeex/nb_celp.c ****    else
 628:STM32F10x_Speex_Lib/STM32/libspeex/nb_celp.c ****       st->bounded_pitch = 0;
 3315              		.loc 3 628 0
 3316 1556 D7F84031 		ldr	r3, [r7, #320]
 3317 155a 0022     		movs	r2, #0
 3318 155c 9A62     		str	r2, [r3, #40]
 3319              	.L123:
 629:STM32F10x_Speex_Lib/STM32/libspeex/nb_celp.c **** 
 630:STM32F10x_Speex_Lib/STM32/libspeex/nb_celp.c ****    return 1;
 3320              		.loc 3 630 0
 3321 155e 0123     		movs	r3, #1
 631:STM32F10x_Speex_Lib/STM32/libspeex/nb_celp.c **** }
 3322              		.loc 3 631 0
 3323 1560 1846     		mov	r0, r3
 3324 1562 07F5BA77 		add	r7, r7, #372
 3325              	.LCFI62:
 3326              		.cfi_def_cfa_offset 20
 3327 1566 BD46     		mov	sp, r7
 3328              	.LCFI63:
ARM GAS  /var/folders/kh/x4vltyy52lbg7p4pcyglc5080000gp/T//ccuucmVt.s 			page 76


 3329              		.cfi_def_cfa_register 13
 3330              		@ sp needed
 3331 1568 F0BD     		pop	{r4, r5, r6, r7, pc}
 3332              	.L130:
 3333 156a 00BF     		.align	2
 3334              	.L129:
 3335 156c 0180FFFF 		.word	-32767
 3336 1570 00000000 		.word	noise_codebook_quant
 3337              		.cfi_endproc
 3338              	.LFE23:
 3340              		.section	.text.nb_decoder_init,"ax",%progbits
 3341              		.align	2
 3342              		.global	nb_decoder_init
 3343              		.thumb
 3344              		.thumb_func
 3346              	nb_decoder_init:
 3347              	.LFB24:
 632:STM32F10x_Speex_Lib/STM32/libspeex/nb_celp.c **** 
 633:STM32F10x_Speex_Lib/STM32/libspeex/nb_celp.c **** void *nb_decoder_init(const SpeexMode *m)
 634:STM32F10x_Speex_Lib/STM32/libspeex/nb_celp.c **** {
 3348              		.loc 3 634 0
 3349              		.cfi_startproc
 3350              		@ args = 0, pretend = 0, frame = 24
 3351              		@ frame_needed = 1, uses_anonymous_args = 0
 3352 0000 80B5     		push	{r7, lr}
 3353              	.LCFI64:
 3354              		.cfi_def_cfa_offset 8
 3355              		.cfi_offset 7, -8
 3356              		.cfi_offset 14, -4
 3357 0002 86B0     		sub	sp, sp, #24
 3358              	.LCFI65:
 3359              		.cfi_def_cfa_offset 32
 3360 0004 00AF     		add	r7, sp, #0
 3361              	.LCFI66:
 3362              		.cfi_def_cfa_register 7
 3363 0006 7860     		str	r0, [r7, #4]
 635:STM32F10x_Speex_Lib/STM32/libspeex/nb_celp.c ****    DecState *st;
 636:STM32F10x_Speex_Lib/STM32/libspeex/nb_celp.c ****    const SpeexNBMode *mode;
 637:STM32F10x_Speex_Lib/STM32/libspeex/nb_celp.c ****    int i;
 638:STM32F10x_Speex_Lib/STM32/libspeex/nb_celp.c **** 
 639:STM32F10x_Speex_Lib/STM32/libspeex/nb_celp.c ****    mode=(const SpeexNBMode*)m->mode;
 3364              		.loc 3 639 0
 3365 0008 7B68     		ldr	r3, [r7, #4]
 3366 000a 1B68     		ldr	r3, [r3]
 3367 000c 3B61     		str	r3, [r7, #16]
 640:STM32F10x_Speex_Lib/STM32/libspeex/nb_celp.c ****    st = (DecState *)speex_alloc(sizeof(DecState));
 3368              		.loc 3 640 0
 3369 000e 4FF4F870 		mov	r0, #496
 3370 0012 FFF7FEFF 		bl	speex_alloc
 3371 0016 F860     		str	r0, [r7, #12]
 641:STM32F10x_Speex_Lib/STM32/libspeex/nb_celp.c ****    if (!st)
 3372              		.loc 3 641 0
 3373 0018 FB68     		ldr	r3, [r7, #12]
 3374 001a 002B     		cmp	r3, #0
 3375 001c 01D1     		bne	.L132
 642:STM32F10x_Speex_Lib/STM32/libspeex/nb_celp.c ****       return NULL;
 3376              		.loc 3 642 0
ARM GAS  /var/folders/kh/x4vltyy52lbg7p4pcyglc5080000gp/T//ccuucmVt.s 			page 77


 3377 001e 0023     		movs	r3, #0
 3378 0020 E5E0     		b	.L133
 3379              	.L132:
 643:STM32F10x_Speex_Lib/STM32/libspeex/nb_celp.c **** #if defined(VAR_ARRAYS) || defined (USE_ALLOCA)
 644:STM32F10x_Speex_Lib/STM32/libspeex/nb_celp.c ****    st->stack = NULL;
 645:STM32F10x_Speex_Lib/STM32/libspeex/nb_celp.c **** #else
 646:STM32F10x_Speex_Lib/STM32/libspeex/nb_celp.c ****    st->stack = (char*)speex_alloc_scratch(NB_DEC_STACK);
 3380              		.loc 3 646 0
 3381 0022 4FF47A70 		mov	r0, #1000
 3382 0026 FFF7FEFF 		bl	speex_alloc_scratch
 3383 002a 0246     		mov	r2, r0
 3384 002c FB68     		ldr	r3, [r7, #12]
 3385 002e DA62     		str	r2, [r3, #44]
 647:STM32F10x_Speex_Lib/STM32/libspeex/nb_celp.c **** #endif
 648:STM32F10x_Speex_Lib/STM32/libspeex/nb_celp.c **** 
 649:STM32F10x_Speex_Lib/STM32/libspeex/nb_celp.c ****    st->mode=m;
 3386              		.loc 3 649 0
 3387 0030 FB68     		ldr	r3, [r7, #12]
 3388 0032 7A68     		ldr	r2, [r7, #4]
 3389 0034 1A60     		str	r2, [r3]
 650:STM32F10x_Speex_Lib/STM32/libspeex/nb_celp.c **** 
 651:STM32F10x_Speex_Lib/STM32/libspeex/nb_celp.c **** 
 652:STM32F10x_Speex_Lib/STM32/libspeex/nb_celp.c ****    st->encode_submode = 1;
 3390              		.loc 3 652 0
 3391 0036 FB68     		ldr	r3, [r7, #12]
 3392 0038 0122     		movs	r2, #1
 3393 003a 1A67     		str	r2, [r3, #112]
 653:STM32F10x_Speex_Lib/STM32/libspeex/nb_celp.c **** 
 654:STM32F10x_Speex_Lib/STM32/libspeex/nb_celp.c ****    st->first=1;
 3394              		.loc 3 654 0
 3395 003c FB68     		ldr	r3, [r7, #12]
 3396 003e 0122     		movs	r2, #1
 3397 0040 5A60     		str	r2, [r3, #4]
 655:STM32F10x_Speex_Lib/STM32/libspeex/nb_celp.c ****    /* Codec parameters, should eventually have several "modes"*/
 656:STM32F10x_Speex_Lib/STM32/libspeex/nb_celp.c ****    st->frameSize = mode->frameSize;
 3398              		.loc 3 656 0
 3399 0042 3B69     		ldr	r3, [r7, #16]
 3400 0044 1A68     		ldr	r2, [r3]
 3401 0046 FB68     		ldr	r3, [r7, #12]
 3402 0048 DA60     		str	r2, [r3, #12]
 657:STM32F10x_Speex_Lib/STM32/libspeex/nb_celp.c ****    st->nbSubframes=mode->frameSize/mode->subframeSize;
 3403              		.loc 3 657 0
 3404 004a 3B69     		ldr	r3, [r7, #16]
 3405 004c 1A68     		ldr	r2, [r3]
 3406 004e 3B69     		ldr	r3, [r7, #16]
 3407 0050 5B68     		ldr	r3, [r3, #4]
 3408 0052 92FBF3F2 		sdiv	r2, r2, r3
 3409 0056 FB68     		ldr	r3, [r7, #12]
 3410 0058 5A61     		str	r2, [r3, #20]
 658:STM32F10x_Speex_Lib/STM32/libspeex/nb_celp.c ****    st->subframeSize=mode->subframeSize;
 3411              		.loc 3 658 0
 3412 005a 3B69     		ldr	r3, [r7, #16]
 3413 005c 5A68     		ldr	r2, [r3, #4]
 3414 005e FB68     		ldr	r3, [r7, #12]
 3415 0060 1A61     		str	r2, [r3, #16]
 659:STM32F10x_Speex_Lib/STM32/libspeex/nb_celp.c ****    st->lpcSize = mode->lpcSize;
 3416              		.loc 3 659 0
ARM GAS  /var/folders/kh/x4vltyy52lbg7p4pcyglc5080000gp/T//ccuucmVt.s 			page 78


 3417 0062 3B69     		ldr	r3, [r7, #16]
 3418 0064 9A68     		ldr	r2, [r3, #8]
 3419 0066 FB68     		ldr	r3, [r7, #12]
 3420 0068 9A61     		str	r2, [r3, #24]
 660:STM32F10x_Speex_Lib/STM32/libspeex/nb_celp.c ****    st->min_pitch=mode->pitchStart;
 3421              		.loc 3 660 0
 3422 006a 3B69     		ldr	r3, [r7, #16]
 3423 006c DA68     		ldr	r2, [r3, #12]
 3424 006e FB68     		ldr	r3, [r7, #12]
 3425 0070 DA61     		str	r2, [r3, #28]
 661:STM32F10x_Speex_Lib/STM32/libspeex/nb_celp.c ****    st->max_pitch=mode->pitchEnd;
 3426              		.loc 3 661 0
 3427 0072 3B69     		ldr	r3, [r7, #16]
 3428 0074 1A69     		ldr	r2, [r3, #16]
 3429 0076 FB68     		ldr	r3, [r7, #12]
 3430 0078 1A62     		str	r2, [r3, #32]
 662:STM32F10x_Speex_Lib/STM32/libspeex/nb_celp.c **** 
 663:STM32F10x_Speex_Lib/STM32/libspeex/nb_celp.c ****    st->submodes=mode->submodes;
 3431              		.loc 3 663 0
 3432 007a 3B69     		ldr	r3, [r7, #16]
 3433 007c 03F11C02 		add	r2, r3, #28
 3434 0080 FB68     		ldr	r3, [r7, #12]
 3435 0082 5A67     		str	r2, [r3, #116]
 664:STM32F10x_Speex_Lib/STM32/libspeex/nb_celp.c ****    st->submodeID=mode->defaultSubmode;
 3436              		.loc 3 664 0
 3437 0084 3B69     		ldr	r3, [r7, #16]
 3438 0086 DA6D     		ldr	r2, [r3, #92]
 3439 0088 FB68     		ldr	r3, [r7, #12]
 3440 008a 9A67     		str	r2, [r3, #120]
 665:STM32F10x_Speex_Lib/STM32/libspeex/nb_celp.c **** 
 666:STM32F10x_Speex_Lib/STM32/libspeex/nb_celp.c ****    st->lpc_enh_enabled=1;
 3441              		.loc 3 666 0
 3442 008c FB68     		ldr	r3, [r7, #12]
 3443 008e 0122     		movs	r2, #1
 3444 0090 DA67     		str	r2, [r3, #124]
 667:STM32F10x_Speex_Lib/STM32/libspeex/nb_celp.c **** 
 668:STM32F10x_Speex_Lib/STM32/libspeex/nb_celp.c ****    st->excBuf = (spx_word16_t*)speex_alloc((st->frameSize + 2*st->max_pitch + st->subframeSize + 12
 3445              		.loc 3 668 0
 3446 0092 FB68     		ldr	r3, [r7, #12]
 3447 0094 DA68     		ldr	r2, [r3, #12]
 3448 0096 FB68     		ldr	r3, [r7, #12]
 3449 0098 1B6A     		ldr	r3, [r3, #32]
 3450 009a 5B00     		lsls	r3, r3, #1
 3451 009c 1A44     		add	r2, r2, r3
 3452 009e FB68     		ldr	r3, [r7, #12]
 3453 00a0 1B69     		ldr	r3, [r3, #16]
 3454 00a2 1344     		add	r3, r3, r2
 3455 00a4 0C33     		adds	r3, r3, #12
 3456 00a6 5B00     		lsls	r3, r3, #1
 3457 00a8 1846     		mov	r0, r3
 3458 00aa FFF7FEFF 		bl	speex_alloc
 3459 00ae 0246     		mov	r2, r0
 3460 00b0 FB68     		ldr	r3, [r7, #12]
 3461 00b2 1A63     		str	r2, [r3, #48]
 669:STM32F10x_Speex_Lib/STM32/libspeex/nb_celp.c ****    st->exc = st->excBuf + 2*st->max_pitch + st->subframeSize + 6;
 3462              		.loc 3 669 0
 3463 00b4 FB68     		ldr	r3, [r7, #12]
ARM GAS  /var/folders/kh/x4vltyy52lbg7p4pcyglc5080000gp/T//ccuucmVt.s 			page 79


 3464 00b6 1A6B     		ldr	r2, [r3, #48]
 3465 00b8 FB68     		ldr	r3, [r7, #12]
 3466 00ba 1B6A     		ldr	r3, [r3, #32]
 3467 00bc 5B00     		lsls	r3, r3, #1
 3468 00be 1946     		mov	r1, r3
 3469 00c0 FB68     		ldr	r3, [r7, #12]
 3470 00c2 1B69     		ldr	r3, [r3, #16]
 3471 00c4 0B44     		add	r3, r3, r1
 3472 00c6 0633     		adds	r3, r3, #6
 3473 00c8 5B00     		lsls	r3, r3, #1
 3474 00ca 1A44     		add	r2, r2, r3
 3475 00cc FB68     		ldr	r3, [r7, #12]
 3476 00ce 5A63     		str	r2, [r3, #52]
 670:STM32F10x_Speex_Lib/STM32/libspeex/nb_celp.c ****    SPEEX_MEMSET(st->excBuf, 0, st->frameSize + st->max_pitch);
 3477              		.loc 3 670 0
 3478 00d0 FB68     		ldr	r3, [r7, #12]
 3479 00d2 186B     		ldr	r0, [r3, #48]
 3480 00d4 FB68     		ldr	r3, [r7, #12]
 3481 00d6 DA68     		ldr	r2, [r3, #12]
 3482 00d8 FB68     		ldr	r3, [r7, #12]
 3483 00da 1B6A     		ldr	r3, [r3, #32]
 3484 00dc 1344     		add	r3, r3, r2
 3485 00de 5B00     		lsls	r3, r3, #1
 3486 00e0 1A46     		mov	r2, r3
 3487 00e2 0021     		movs	r1, #0
 3488 00e4 FFF7FEFF 		bl	memset
 671:STM32F10x_Speex_Lib/STM32/libspeex/nb_celp.c **** 
 672:STM32F10x_Speex_Lib/STM32/libspeex/nb_celp.c ****    st->interp_qlpc = (spx_coef_t*)speex_alloc(st->lpcSize*sizeof(spx_coef_t));
 3489              		.loc 3 672 0
 3490 00e8 FB68     		ldr	r3, [r7, #12]
 3491 00ea 9B69     		ldr	r3, [r3, #24]
 3492 00ec 5B00     		lsls	r3, r3, #1
 3493 00ee 1846     		mov	r0, r3
 3494 00f0 FFF7FEFF 		bl	speex_alloc
 3495 00f4 0246     		mov	r2, r0
 3496 00f6 FB68     		ldr	r3, [r7, #12]
 3497 00f8 DA63     		str	r2, [r3, #60]
 673:STM32F10x_Speex_Lib/STM32/libspeex/nb_celp.c ****    st->old_qlsp = (spx_lsp_t*)speex_alloc(st->lpcSize*sizeof(spx_lsp_t));
 3498              		.loc 3 673 0
 3499 00fa FB68     		ldr	r3, [r7, #12]
 3500 00fc 9B69     		ldr	r3, [r3, #24]
 3501 00fe 5B00     		lsls	r3, r3, #1
 3502 0100 1846     		mov	r0, r3
 3503 0102 FFF7FEFF 		bl	speex_alloc
 3504 0106 0246     		mov	r2, r0
 3505 0108 FB68     		ldr	r3, [r7, #12]
 3506 010a 9A63     		str	r2, [r3, #56]
 674:STM32F10x_Speex_Lib/STM32/libspeex/nb_celp.c ****    st->mem_sp = (spx_mem_t*)speex_alloc(st->lpcSize*sizeof(spx_mem_t));
 3507              		.loc 3 674 0
 3508 010c FB68     		ldr	r3, [r7, #12]
 3509 010e 9B69     		ldr	r3, [r3, #24]
 3510 0110 9B00     		lsls	r3, r3, #2
 3511 0112 1846     		mov	r0, r3
 3512 0114 FFF7FEFF 		bl	speex_alloc
 3513 0118 0246     		mov	r2, r0
 3514 011a FB68     		ldr	r3, [r7, #12]
 3515 011c 1A64     		str	r2, [r3, #64]
ARM GAS  /var/folders/kh/x4vltyy52lbg7p4pcyglc5080000gp/T//ccuucmVt.s 			page 80


 675:STM32F10x_Speex_Lib/STM32/libspeex/nb_celp.c ****    st->pi_gain = (spx_word32_t*)speex_alloc((st->nbSubframes)*sizeof(spx_word32_t));
 3516              		.loc 3 675 0
 3517 011e FB68     		ldr	r3, [r7, #12]
 3518 0120 5B69     		ldr	r3, [r3, #20]
 3519 0122 9B00     		lsls	r3, r3, #2
 3520 0124 1846     		mov	r0, r3
 3521 0126 FFF7FEFF 		bl	speex_alloc
 3522 012a 0246     		mov	r2, r0
 3523 012c FB68     		ldr	r3, [r7, #12]
 3524 012e DA64     		str	r2, [r3, #76]
 676:STM32F10x_Speex_Lib/STM32/libspeex/nb_celp.c ****    st->last_pitch = 40;
 3525              		.loc 3 676 0
 3526 0130 FB68     		ldr	r3, [r7, #12]
 3527 0132 2822     		movs	r2, #40
 3528 0134 DA65     		str	r2, [r3, #92]
 677:STM32F10x_Speex_Lib/STM32/libspeex/nb_celp.c ****    st->count_lost=0;
 3529              		.loc 3 677 0
 3530 0136 FB68     		ldr	r3, [r7, #12]
 3531 0138 0022     		movs	r2, #0
 3532 013a 9A60     		str	r2, [r3, #8]
 678:STM32F10x_Speex_Lib/STM32/libspeex/nb_celp.c ****    st->pitch_gain_buf[0] = st->pitch_gain_buf[1] = st->pitch_gain_buf[2] = 0;
 3533              		.loc 3 678 0
 3534 013c FB68     		ldr	r3, [r7, #12]
 3535 013e 0022     		movs	r2, #0
 3536 0140 A3F86620 		strh	r2, [r3, #102]	@ movhi
 3537 0144 FB68     		ldr	r3, [r7, #12]
 3538 0146 B3F96620 		ldrsh	r2, [r3, #102]
 3539 014a FB68     		ldr	r3, [r7, #12]
 3540 014c A3F86420 		strh	r2, [r3, #100]	@ movhi
 3541 0150 FB68     		ldr	r3, [r7, #12]
 3542 0152 B3F96420 		ldrsh	r2, [r3, #100]
 3543 0156 FB68     		ldr	r3, [r7, #12]
 3544 0158 A3F86220 		strh	r2, [r3, #98]	@ movhi
 679:STM32F10x_Speex_Lib/STM32/libspeex/nb_celp.c ****    st->pitch_gain_buf_idx = 0;
 3545              		.loc 3 679 0
 3546 015c FB68     		ldr	r3, [r7, #12]
 3547 015e 0022     		movs	r2, #0
 3548 0160 9A66     		str	r2, [r3, #104]
 680:STM32F10x_Speex_Lib/STM32/libspeex/nb_celp.c ****    st->seed = 1000;
 3549              		.loc 3 680 0
 3550 0162 FB68     		ldr	r3, [r7, #12]
 3551 0164 4FF47A72 		mov	r2, #1000
 3552 0168 DA66     		str	r2, [r3, #108]
 681:STM32F10x_Speex_Lib/STM32/libspeex/nb_celp.c ****    
 682:STM32F10x_Speex_Lib/STM32/libspeex/nb_celp.c ****    st->sampling_rate=8000;
 3553              		.loc 3 682 0
 3554 016a FB68     		ldr	r3, [r7, #12]
 3555 016c 4FF4FA52 		mov	r2, #8000
 3556 0170 5A62     		str	r2, [r3, #36]
 683:STM32F10x_Speex_Lib/STM32/libspeex/nb_celp.c ****    st->last_ol_gain = 0;
 3557              		.loc 3 683 0
 3558 0172 FB68     		ldr	r3, [r7, #12]
 3559 0174 0022     		movs	r2, #0
 3560 0176 1A85     		strh	r2, [r3, #40]	@ movhi
 684:STM32F10x_Speex_Lib/STM32/libspeex/nb_celp.c **** 
 685:STM32F10x_Speex_Lib/STM32/libspeex/nb_celp.c ****    st->user_callback.func = &speex_default_user_handler;
 3561              		.loc 3 685 0
ARM GAS  /var/folders/kh/x4vltyy52lbg7p4pcyglc5080000gp/T//ccuucmVt.s 			page 81


 3562 0178 FB68     		ldr	r3, [r7, #12]
 3563 017a 1F4A     		ldr	r2, .L136
 3564 017c C3F8C421 		str	r2, [r3, #452]
 686:STM32F10x_Speex_Lib/STM32/libspeex/nb_celp.c ****    st->user_callback.data = NULL;
 3565              		.loc 3 686 0
 3566 0180 FB68     		ldr	r3, [r7, #12]
 3567 0182 0022     		movs	r2, #0
 3568 0184 C3F8C821 		str	r2, [r3, #456]
 687:STM32F10x_Speex_Lib/STM32/libspeex/nb_celp.c ****    for (i=0;i<16;i++)
 3569              		.loc 3 687 0
 3570 0188 0023     		movs	r3, #0
 3571 018a 7B61     		str	r3, [r7, #20]
 3572 018c 0CE0     		b	.L134
 3573              	.L135:
 688:STM32F10x_Speex_Lib/STM32/libspeex/nb_celp.c ****       st->speex_callbacks[i].func = NULL;
 3574              		.loc 3 688 0 discriminator 3
 3575 018e F968     		ldr	r1, [r7, #12]
 3576 0190 7A69     		ldr	r2, [r7, #20]
 3577 0192 1346     		mov	r3, r2
 3578 0194 9B00     		lsls	r3, r3, #2
 3579 0196 1344     		add	r3, r3, r2
 3580 0198 9B00     		lsls	r3, r3, #2
 3581 019a 0B44     		add	r3, r3, r1
 3582 019c 8433     		adds	r3, r3, #132
 3583 019e 0022     		movs	r2, #0
 3584 01a0 1A60     		str	r2, [r3]
 687:STM32F10x_Speex_Lib/STM32/libspeex/nb_celp.c ****    for (i=0;i<16;i++)
 3585              		.loc 3 687 0 discriminator 3
 3586 01a2 7B69     		ldr	r3, [r7, #20]
 3587 01a4 0133     		adds	r3, r3, #1
 3588 01a6 7B61     		str	r3, [r7, #20]
 3589              	.L134:
 687:STM32F10x_Speex_Lib/STM32/libspeex/nb_celp.c ****    for (i=0;i<16;i++)
 3590              		.loc 3 687 0 is_stmt 0 discriminator 1
 3591 01a8 7B69     		ldr	r3, [r7, #20]
 3592 01aa 0F2B     		cmp	r3, #15
 3593 01ac EFDD     		ble	.L135
 689:STM32F10x_Speex_Lib/STM32/libspeex/nb_celp.c **** 
 690:STM32F10x_Speex_Lib/STM32/libspeex/nb_celp.c ****    st->voc_m1=st->voc_m2=st->voc_mean=0;
 3594              		.loc 3 690 0 is_stmt 1
 3595 01ae FB68     		ldr	r3, [r7, #12]
 3596 01b0 0022     		movs	r2, #0
 3597 01b2 A3F8DC21 		strh	r2, [r3, #476]	@ movhi
 3598 01b6 FB68     		ldr	r3, [r7, #12]
 3599 01b8 0022     		movs	r2, #0
 3600 01ba C3F8D821 		str	r2, [r3, #472]
 3601 01be FB68     		ldr	r3, [r7, #12]
 3602 01c0 D3F8D831 		ldr	r3, [r3, #472]
 3603 01c4 1AB2     		sxth	r2, r3
 3604 01c6 FB68     		ldr	r3, [r7, #12]
 3605 01c8 A3F8D421 		strh	r2, [r3, #468]	@ movhi
 691:STM32F10x_Speex_Lib/STM32/libspeex/nb_celp.c ****    st->voc_offset=0;
 3606              		.loc 3 691 0
 3607 01cc FB68     		ldr	r3, [r7, #12]
 3608 01ce 0022     		movs	r2, #0
 3609 01d0 C3F8E021 		str	r2, [r3, #480]
 692:STM32F10x_Speex_Lib/STM32/libspeex/nb_celp.c ****    st->dtx_enabled=0;
ARM GAS  /var/folders/kh/x4vltyy52lbg7p4pcyglc5080000gp/T//ccuucmVt.s 			page 82


 3610              		.loc 3 692 0
 3611 01d4 FB68     		ldr	r3, [r7, #12]
 3612 01d6 0022     		movs	r2, #0
 3613 01d8 C3F8E421 		str	r2, [r3, #484]
 693:STM32F10x_Speex_Lib/STM32/libspeex/nb_celp.c ****    st->isWideband = 0;
 3614              		.loc 3 693 0
 3615 01dc FB68     		ldr	r3, [r7, #12]
 3616 01de 0022     		movs	r2, #0
 3617 01e0 C3F8E821 		str	r2, [r3, #488]
 694:STM32F10x_Speex_Lib/STM32/libspeex/nb_celp.c ****    st->highpass_enabled = 1;
 3618              		.loc 3 694 0
 3619 01e4 FB68     		ldr	r3, [r7, #12]
 3620 01e6 0122     		movs	r2, #1
 3621 01e8 C3F8EC21 		str	r2, [r3, #492]
 695:STM32F10x_Speex_Lib/STM32/libspeex/nb_celp.c **** 
 696:STM32F10x_Speex_Lib/STM32/libspeex/nb_celp.c **** #ifdef ENABLE_VALGRIND
 697:STM32F10x_Speex_Lib/STM32/libspeex/nb_celp.c ****    VALGRIND_MAKE_READABLE(st, NB_DEC_STACK);
 698:STM32F10x_Speex_Lib/STM32/libspeex/nb_celp.c **** #endif
 699:STM32F10x_Speex_Lib/STM32/libspeex/nb_celp.c ****    return st;
 3622              		.loc 3 699 0
 3623 01ec FB68     		ldr	r3, [r7, #12]
 3624              	.L133:
 700:STM32F10x_Speex_Lib/STM32/libspeex/nb_celp.c **** }
 3625              		.loc 3 700 0
 3626 01ee 1846     		mov	r0, r3
 3627 01f0 1837     		adds	r7, r7, #24
 3628              	.LCFI67:
 3629              		.cfi_def_cfa_offset 8
 3630 01f2 BD46     		mov	sp, r7
 3631              	.LCFI68:
 3632              		.cfi_def_cfa_register 13
 3633              		@ sp needed
 3634 01f4 80BD     		pop	{r7, pc}
 3635              	.L137:
 3636 01f6 00BF     		.align	2
 3637              	.L136:
 3638 01f8 00000000 		.word	speex_default_user_handler
 3639              		.cfi_endproc
 3640              	.LFE24:
 3642              		.section	.text.nb_decoder_destroy,"ax",%progbits
 3643              		.align	2
 3644              		.global	nb_decoder_destroy
 3645              		.thumb
 3646              		.thumb_func
 3648              	nb_decoder_destroy:
 3649              	.LFB25:
 701:STM32F10x_Speex_Lib/STM32/libspeex/nb_celp.c **** 
 702:STM32F10x_Speex_Lib/STM32/libspeex/nb_celp.c **** void nb_decoder_destroy(void *state)
 703:STM32F10x_Speex_Lib/STM32/libspeex/nb_celp.c **** {
 3650              		.loc 3 703 0
 3651              		.cfi_startproc
 3652              		@ args = 0, pretend = 0, frame = 16
 3653              		@ frame_needed = 1, uses_anonymous_args = 0
 3654 0000 80B5     		push	{r7, lr}
 3655              	.LCFI69:
 3656              		.cfi_def_cfa_offset 8
 3657              		.cfi_offset 7, -8
ARM GAS  /var/folders/kh/x4vltyy52lbg7p4pcyglc5080000gp/T//ccuucmVt.s 			page 83


 3658              		.cfi_offset 14, -4
 3659 0002 84B0     		sub	sp, sp, #16
 3660              	.LCFI70:
 3661              		.cfi_def_cfa_offset 24
 3662 0004 00AF     		add	r7, sp, #0
 3663              	.LCFI71:
 3664              		.cfi_def_cfa_register 7
 3665 0006 7860     		str	r0, [r7, #4]
 704:STM32F10x_Speex_Lib/STM32/libspeex/nb_celp.c ****    DecState *st;
 705:STM32F10x_Speex_Lib/STM32/libspeex/nb_celp.c ****    st=(DecState*)state;
 3666              		.loc 3 705 0
 3667 0008 7B68     		ldr	r3, [r7, #4]
 3668 000a FB60     		str	r3, [r7, #12]
 706:STM32F10x_Speex_Lib/STM32/libspeex/nb_celp.c ****    
 707:STM32F10x_Speex_Lib/STM32/libspeex/nb_celp.c **** #if !(defined(VAR_ARRAYS) || defined (USE_ALLOCA))
 708:STM32F10x_Speex_Lib/STM32/libspeex/nb_celp.c ****    speex_free_scratch(st->stack);
 3669              		.loc 3 708 0
 3670 000c FB68     		ldr	r3, [r7, #12]
 3671 000e DB6A     		ldr	r3, [r3, #44]
 3672 0010 1846     		mov	r0, r3
 3673 0012 FFF7FEFF 		bl	speex_free_scratch
 709:STM32F10x_Speex_Lib/STM32/libspeex/nb_celp.c **** #endif
 710:STM32F10x_Speex_Lib/STM32/libspeex/nb_celp.c **** 
 711:STM32F10x_Speex_Lib/STM32/libspeex/nb_celp.c ****    speex_free (st->excBuf);
 3674              		.loc 3 711 0
 3675 0016 FB68     		ldr	r3, [r7, #12]
 3676 0018 1B6B     		ldr	r3, [r3, #48]
 3677 001a 1846     		mov	r0, r3
 3678 001c FFF7FEFF 		bl	speex_free
 712:STM32F10x_Speex_Lib/STM32/libspeex/nb_celp.c ****    speex_free (st->interp_qlpc);
 3679              		.loc 3 712 0
 3680 0020 FB68     		ldr	r3, [r7, #12]
 3681 0022 DB6B     		ldr	r3, [r3, #60]
 3682 0024 1846     		mov	r0, r3
 3683 0026 FFF7FEFF 		bl	speex_free
 713:STM32F10x_Speex_Lib/STM32/libspeex/nb_celp.c ****    speex_free (st->old_qlsp);
 3684              		.loc 3 713 0
 3685 002a FB68     		ldr	r3, [r7, #12]
 3686 002c 9B6B     		ldr	r3, [r3, #56]
 3687 002e 1846     		mov	r0, r3
 3688 0030 FFF7FEFF 		bl	speex_free
 714:STM32F10x_Speex_Lib/STM32/libspeex/nb_celp.c ****    speex_free (st->mem_sp);
 3689              		.loc 3 714 0
 3690 0034 FB68     		ldr	r3, [r7, #12]
 3691 0036 1B6C     		ldr	r3, [r3, #64]
 3692 0038 1846     		mov	r0, r3
 3693 003a FFF7FEFF 		bl	speex_free
 715:STM32F10x_Speex_Lib/STM32/libspeex/nb_celp.c ****    speex_free (st->pi_gain);
 3694              		.loc 3 715 0
 3695 003e FB68     		ldr	r3, [r7, #12]
 3696 0040 DB6C     		ldr	r3, [r3, #76]
 3697 0042 1846     		mov	r0, r3
 3698 0044 FFF7FEFF 		bl	speex_free
 716:STM32F10x_Speex_Lib/STM32/libspeex/nb_celp.c **** 
 717:STM32F10x_Speex_Lib/STM32/libspeex/nb_celp.c ****    speex_free(state);
 3699              		.loc 3 717 0
 3700 0048 7868     		ldr	r0, [r7, #4]
ARM GAS  /var/folders/kh/x4vltyy52lbg7p4pcyglc5080000gp/T//ccuucmVt.s 			page 84


 3701 004a FFF7FEFF 		bl	speex_free
 718:STM32F10x_Speex_Lib/STM32/libspeex/nb_celp.c **** }
 3702              		.loc 3 718 0
 3703 004e 00BF     		nop
 3704 0050 1037     		adds	r7, r7, #16
 3705              	.LCFI72:
 3706              		.cfi_def_cfa_offset 8
 3707 0052 BD46     		mov	sp, r7
 3708              	.LCFI73:
 3709              		.cfi_def_cfa_register 13
 3710              		@ sp needed
 3711 0054 80BD     		pop	{r7, pc}
 3712              		.cfi_endproc
 3713              	.LFE25:
 3715              		.global	attenuation
 3716 0056 00BF     		.section	.rodata.attenuation,"a",%progbits
 3717              		.align	2
 3720              	attenuation:
 3721 0000 FF7F     		.short	32767
 3722 0002 FB7A     		.short	31483
 3723 0004 136D     		.short	27923
 3724 0006 4D59     		.short	22861
 3725 0008 7E43     		.short	17278
 3726 000a 172F     		.short	12055
 3727 000c 541E     		.short	7764
 3728 000e 0812     		.short	4616
 3729 0010 E509     		.short	2533
 3730 0012 0305     		.short	1283
 3731              		.section	.text.nb_decode_lost,"ax",%progbits
 3732              		.align	2
 3733              		.thumb
 3734              		.thumb_func
 3736              	nb_decode_lost:
 3737              	.LFB26:
 719:STM32F10x_Speex_Lib/STM32/libspeex/nb_celp.c **** 
 720:STM32F10x_Speex_Lib/STM32/libspeex/nb_celp.c **** #define median3(a, b, c)	((a) < (b) ? ((b) < (c) ? (b) : ((a) < (c) ? (c) : (a))) : ((c) < (b) ? (b
 721:STM32F10x_Speex_Lib/STM32/libspeex/nb_celp.c **** 
 722:STM32F10x_Speex_Lib/STM32/libspeex/nb_celp.c **** #ifdef FIXED_POINT
 723:STM32F10x_Speex_Lib/STM32/libspeex/nb_celp.c **** const spx_word16_t attenuation[10] = {32767, 31483, 27923, 22861, 17278, 12055, 7764, 4616, 2533, 1
 724:STM32F10x_Speex_Lib/STM32/libspeex/nb_celp.c **** #else
 725:STM32F10x_Speex_Lib/STM32/libspeex/nb_celp.c **** const spx_word16_t attenuation[10] = {1., 0.961, 0.852, 0.698, 0.527, 0.368, 0.237, 0.141, 0.077, 0
 726:STM32F10x_Speex_Lib/STM32/libspeex/nb_celp.c **** 
 727:STM32F10x_Speex_Lib/STM32/libspeex/nb_celp.c **** #endif
 728:STM32F10x_Speex_Lib/STM32/libspeex/nb_celp.c **** 
 729:STM32F10x_Speex_Lib/STM32/libspeex/nb_celp.c **** static void nb_decode_lost(DecState *st, spx_word16_t *out, char *stack)
 730:STM32F10x_Speex_Lib/STM32/libspeex/nb_celp.c **** {
 3738              		.loc 3 730 0
 3739              		.cfi_startproc
 3740              		@ args = 0, pretend = 0, frame = 40
 3741              		@ frame_needed = 1, uses_anonymous_args = 0
 3742 0000 B0B5     		push	{r4, r5, r7, lr}
 3743              	.LCFI74:
 3744              		.cfi_def_cfa_offset 16
 3745              		.cfi_offset 4, -16
 3746              		.cfi_offset 5, -12
 3747              		.cfi_offset 7, -8
 3748              		.cfi_offset 14, -4
ARM GAS  /var/folders/kh/x4vltyy52lbg7p4pcyglc5080000gp/T//ccuucmVt.s 			page 85


 3749 0002 8EB0     		sub	sp, sp, #56
 3750              	.LCFI75:
 3751              		.cfi_def_cfa_offset 72
 3752 0004 04AF     		add	r7, sp, #16
 3753              	.LCFI76:
 3754              		.cfi_def_cfa 7, 56
 3755 0006 F860     		str	r0, [r7, #12]
 3756 0008 B960     		str	r1, [r7, #8]
 3757 000a 7A60     		str	r2, [r7, #4]
 731:STM32F10x_Speex_Lib/STM32/libspeex/nb_celp.c ****    int i;
 732:STM32F10x_Speex_Lib/STM32/libspeex/nb_celp.c ****    int pitch_val;
 733:STM32F10x_Speex_Lib/STM32/libspeex/nb_celp.c ****    spx_word16_t pitch_gain;
 734:STM32F10x_Speex_Lib/STM32/libspeex/nb_celp.c ****    spx_word16_t fact;
 735:STM32F10x_Speex_Lib/STM32/libspeex/nb_celp.c ****    spx_word16_t gain_med;
 736:STM32F10x_Speex_Lib/STM32/libspeex/nb_celp.c ****    spx_word16_t innov_gain;
 737:STM32F10x_Speex_Lib/STM32/libspeex/nb_celp.c ****    spx_word16_t noise_gain;
 738:STM32F10x_Speex_Lib/STM32/libspeex/nb_celp.c ****    
 739:STM32F10x_Speex_Lib/STM32/libspeex/nb_celp.c ****    if (st->count_lost<10)
 3758              		.loc 3 739 0
 3759 000c FB68     		ldr	r3, [r7, #12]
 3760 000e 9B68     		ldr	r3, [r3, #8]
 3761 0010 092B     		cmp	r3, #9
 3762 0012 06DC     		bgt	.L140
 740:STM32F10x_Speex_Lib/STM32/libspeex/nb_celp.c ****       fact = attenuation[st->count_lost];
 3763              		.loc 3 740 0
 3764 0014 FB68     		ldr	r3, [r7, #12]
 3765 0016 9B68     		ldr	r3, [r3, #8]
 3766 0018 9B4A     		ldr	r2, .L156
 3767 001a 32F81330 		ldrh	r3, [r2, r3, lsl #1]	@ movhi
 3768 001e BB83     		strh	r3, [r7, #28]	@ movhi
 3769 0020 01E0     		b	.L141
 3770              	.L140:
 741:STM32F10x_Speex_Lib/STM32/libspeex/nb_celp.c ****    else
 742:STM32F10x_Speex_Lib/STM32/libspeex/nb_celp.c ****       fact = 0;
 3771              		.loc 3 742 0
 3772 0022 0023     		movs	r3, #0
 3773 0024 BB83     		strh	r3, [r7, #28]	@ movhi
 3774              	.L141:
 743:STM32F10x_Speex_Lib/STM32/libspeex/nb_celp.c **** 
 744:STM32F10x_Speex_Lib/STM32/libspeex/nb_celp.c ****    gain_med = median3(st->pitch_gain_buf[0], st->pitch_gain_buf[1], st->pitch_gain_buf[2]);
 3775              		.loc 3 744 0
 3776 0026 FB68     		ldr	r3, [r7, #12]
 3777 0028 B3F96220 		ldrsh	r2, [r3, #98]
 3778 002c FB68     		ldr	r3, [r7, #12]
 3779 002e B3F96430 		ldrsh	r3, [r3, #100]
 3780 0032 9A42     		cmp	r2, r3
 3781 0034 16DA     		bge	.L142
 3782              		.loc 3 744 0 is_stmt 0 discriminator 1
 3783 0036 FB68     		ldr	r3, [r7, #12]
 3784 0038 B3F96420 		ldrsh	r2, [r3, #100]
 3785 003c FB68     		ldr	r3, [r7, #12]
 3786 003e B3F96630 		ldrsh	r3, [r3, #102]
 3787 0042 9A42     		cmp	r2, r3
 3788 0044 03DA     		bge	.L143
 3789              		.loc 3 744 0 discriminator 3
 3790 0046 FB68     		ldr	r3, [r7, #12]
 3791 0048 B3F96430 		ldrsh	r3, [r3, #100]
ARM GAS  /var/folders/kh/x4vltyy52lbg7p4pcyglc5080000gp/T//ccuucmVt.s 			page 86


 3792 004c 20E0     		b	.L145
 3793              	.L143:
 3794              		.loc 3 744 0 discriminator 4
 3795 004e FB68     		ldr	r3, [r7, #12]
 3796 0050 B3F96220 		ldrsh	r2, [r3, #98]
 3797 0054 FB68     		ldr	r3, [r7, #12]
 3798 0056 B3F96630 		ldrsh	r3, [r3, #102]
 3799 005a 9342     		cmp	r3, r2
 3800 005c B8BF     		it	lt
 3801 005e 1346     		movlt	r3, r2
 3802 0060 1BB2     		sxth	r3, r3
 3803 0062 15E0     		b	.L145
 3804              	.L142:
 3805              		.loc 3 744 0 discriminator 2
 3806 0064 FB68     		ldr	r3, [r7, #12]
 3807 0066 B3F96620 		ldrsh	r2, [r3, #102]
 3808 006a FB68     		ldr	r3, [r7, #12]
 3809 006c B3F96430 		ldrsh	r3, [r3, #100]
 3810 0070 9A42     		cmp	r2, r3
 3811 0072 03DA     		bge	.L146
 3812              		.loc 3 744 0 discriminator 8
 3813 0074 FB68     		ldr	r3, [r7, #12]
 3814 0076 B3F96430 		ldrsh	r3, [r3, #100]
 3815 007a 09E0     		b	.L145
 3816              	.L146:
 3817              		.loc 3 744 0 discriminator 9
 3818 007c FB68     		ldr	r3, [r7, #12]
 3819 007e B3F96220 		ldrsh	r2, [r3, #98]
 3820 0082 FB68     		ldr	r3, [r7, #12]
 3821 0084 B3F96630 		ldrsh	r3, [r3, #102]
 3822 0088 9342     		cmp	r3, r2
 3823 008a A8BF     		it	ge
 3824 008c 1346     		movge	r3, r2
 3825 008e 1BB2     		sxth	r3, r3
 3826              	.L145:
 3827              		.loc 3 744 0 discriminator 12
 3828 0090 7B83     		strh	r3, [r7, #26]	@ movhi
 745:STM32F10x_Speex_Lib/STM32/libspeex/nb_celp.c ****    if (gain_med < st->last_pitch_gain)
 3829              		.loc 3 745 0 is_stmt 1 discriminator 12
 3830 0092 FB68     		ldr	r3, [r7, #12]
 3831 0094 B3F96030 		ldrsh	r3, [r3, #96]
 3832 0098 B7F91A20 		ldrsh	r2, [r7, #26]
 3833 009c 9A42     		cmp	r2, r3
 3834 009e 03DA     		bge	.L148
 746:STM32F10x_Speex_Lib/STM32/libspeex/nb_celp.c ****       st->last_pitch_gain = gain_med;
 3835              		.loc 3 746 0
 3836 00a0 FB68     		ldr	r3, [r7, #12]
 3837 00a2 7A8B     		ldrh	r2, [r7, #26]	@ movhi
 3838 00a4 A3F86020 		strh	r2, [r3, #96]	@ movhi
 3839              	.L148:
 747:STM32F10x_Speex_Lib/STM32/libspeex/nb_celp.c ****    
 748:STM32F10x_Speex_Lib/STM32/libspeex/nb_celp.c **** #ifdef FIXED_POINT
 749:STM32F10x_Speex_Lib/STM32/libspeex/nb_celp.c ****    pitch_gain = st->last_pitch_gain;
 3840              		.loc 3 749 0
 3841 00a8 FB68     		ldr	r3, [r7, #12]
 3842 00aa B3F86030 		ldrh	r3, [r3, #96]	@ movhi
 3843 00ae FB83     		strh	r3, [r7, #30]	@ movhi
ARM GAS  /var/folders/kh/x4vltyy52lbg7p4pcyglc5080000gp/T//ccuucmVt.s 			page 87


 750:STM32F10x_Speex_Lib/STM32/libspeex/nb_celp.c ****    if (pitch_gain>54)
 3844              		.loc 3 750 0
 3845 00b0 B7F91E30 		ldrsh	r3, [r7, #30]
 3846 00b4 362B     		cmp	r3, #54
 3847 00b6 01DD     		ble	.L149
 751:STM32F10x_Speex_Lib/STM32/libspeex/nb_celp.c ****       pitch_gain = 54;
 3848              		.loc 3 751 0
 3849 00b8 3623     		movs	r3, #54
 3850 00ba FB83     		strh	r3, [r7, #30]	@ movhi
 3851              	.L149:
 752:STM32F10x_Speex_Lib/STM32/libspeex/nb_celp.c ****    pitch_gain = SHL16(pitch_gain, 9);
 3852              		.loc 3 752 0
 3853 00bc B7F91E30 		ldrsh	r3, [r7, #30]
 3854 00c0 5B02     		lsls	r3, r3, #9
 3855 00c2 FB83     		strh	r3, [r7, #30]	@ movhi
 753:STM32F10x_Speex_Lib/STM32/libspeex/nb_celp.c **** #else   
 754:STM32F10x_Speex_Lib/STM32/libspeex/nb_celp.c ****    pitch_gain = GAIN_SCALING_1*st->last_pitch_gain;
 755:STM32F10x_Speex_Lib/STM32/libspeex/nb_celp.c ****    if (pitch_gain>.85)
 756:STM32F10x_Speex_Lib/STM32/libspeex/nb_celp.c ****       pitch_gain=.85;
 757:STM32F10x_Speex_Lib/STM32/libspeex/nb_celp.c **** #endif
 758:STM32F10x_Speex_Lib/STM32/libspeex/nb_celp.c ****    pitch_gain = MULT16_16_Q15(fact,pitch_gain) + VERY_SMALL;
 3856              		.loc 3 758 0
 3857 00c4 B7F91C30 		ldrsh	r3, [r7, #28]
 3858 00c8 B7F91E20 		ldrsh	r2, [r7, #30]
 3859 00cc 02FB03F3 		mul	r3, r2, r3
 3860 00d0 DB13     		asrs	r3, r3, #15
 3861 00d2 FB83     		strh	r3, [r7, #30]	@ movhi
 759:STM32F10x_Speex_Lib/STM32/libspeex/nb_celp.c ****    /* FIXME: This was rms of innovation (not exc) */
 760:STM32F10x_Speex_Lib/STM32/libspeex/nb_celp.c ****    innov_gain = compute_rms16(st->exc, st->frameSize);
 3862              		.loc 3 760 0
 3863 00d4 FB68     		ldr	r3, [r7, #12]
 3864 00d6 5A6B     		ldr	r2, [r3, #52]
 3865 00d8 FB68     		ldr	r3, [r7, #12]
 3866 00da DB68     		ldr	r3, [r3, #12]
 3867 00dc 1946     		mov	r1, r3
 3868 00de 1046     		mov	r0, r2
 3869 00e0 FFF7FEFF 		bl	compute_rms16
 3870 00e4 0346     		mov	r3, r0
 3871 00e6 3B83     		strh	r3, [r7, #24]	@ movhi
 761:STM32F10x_Speex_Lib/STM32/libspeex/nb_celp.c ****    noise_gain = MULT16_16_Q15(innov_gain, MULT16_16_Q15(fact, SUB16(Q15ONE,MULT16_16_Q15(pitch_gain
 3872              		.loc 3 761 0
 3873 00e8 B7F91820 		ldrsh	r2, [r7, #24]
 3874 00ec B7F91C10 		ldrsh	r1, [r7, #28]
 3875 00f0 B7F91E30 		ldrsh	r3, [r7, #30]
 3876 00f4 B7F91E00 		ldrsh	r0, [r7, #30]
 3877 00f8 00FB03F3 		mul	r3, r0, r3
 3878 00fc DB13     		asrs	r3, r3, #15
 3879 00fe 9BB2     		uxth	r3, r3
 3880 0100 C3F5FF43 		rsb	r3, r3, #32640
 3881 0104 7F33     		adds	r3, r3, #127
 3882 0106 9BB2     		uxth	r3, r3
 3883 0108 1BB2     		sxth	r3, r3
 3884 010a 03FB01F3 		mul	r3, r3, r1
 3885 010e DB13     		asrs	r3, r3, #15
 3886 0110 1BB2     		sxth	r3, r3
 3887 0112 03FB02F3 		mul	r3, r3, r2
 3888 0116 DB13     		asrs	r3, r3, #15
ARM GAS  /var/folders/kh/x4vltyy52lbg7p4pcyglc5080000gp/T//ccuucmVt.s 			page 88


 3889 0118 FB82     		strh	r3, [r7, #22]	@ movhi
 762:STM32F10x_Speex_Lib/STM32/libspeex/nb_celp.c ****    /* Shift all buffers by one frame */
 763:STM32F10x_Speex_Lib/STM32/libspeex/nb_celp.c ****    SPEEX_MOVE(st->excBuf, st->excBuf+st->frameSize, 2*st->max_pitch + st->subframeSize + 12);
 3890              		.loc 3 763 0
 3891 011a FB68     		ldr	r3, [r7, #12]
 3892 011c 186B     		ldr	r0, [r3, #48]
 3893 011e FB68     		ldr	r3, [r7, #12]
 3894 0120 1A6B     		ldr	r2, [r3, #48]
 3895 0122 FB68     		ldr	r3, [r7, #12]
 3896 0124 DB68     		ldr	r3, [r3, #12]
 3897 0126 5B00     		lsls	r3, r3, #1
 3898 0128 D118     		adds	r1, r2, r3
 3899 012a FB68     		ldr	r3, [r7, #12]
 3900 012c 1B6A     		ldr	r3, [r3, #32]
 3901 012e 5A00     		lsls	r2, r3, #1
 3902 0130 FB68     		ldr	r3, [r7, #12]
 3903 0132 1B69     		ldr	r3, [r3, #16]
 3904 0134 1344     		add	r3, r3, r2
 3905 0136 0C33     		adds	r3, r3, #12
 3906 0138 5B00     		lsls	r3, r3, #1
 3907 013a 1A46     		mov	r2, r3
 3908 013c FFF7FEFF 		bl	memmove
 764:STM32F10x_Speex_Lib/STM32/libspeex/nb_celp.c ****    
 765:STM32F10x_Speex_Lib/STM32/libspeex/nb_celp.c **** 
