ARM GAS  /var/folders/kh/x4vltyy52lbg7p4pcyglc5080000gp/T//cc33Oc7n.s 			page 1


   1              		.syntax unified
   2              		.cpu cortex-m3
   3              		.fpu softvfp
   4              		.eabi_attribute 20, 1
   5              		.eabi_attribute 21, 1
   6              		.eabi_attribute 23, 3
   7              		.eabi_attribute 24, 1
   8              		.eabi_attribute 25, 1
   9              		.eabi_attribute 26, 1
  10              		.eabi_attribute 30, 6
  11              		.eabi_attribute 34, 1
  12              		.eabi_attribute 18, 4
  13              		.thumb
  14              		.syntax unified
  15              		.file	"resample.c"
  16              		.text
  17              	.Ltext0:
  18              		.cfi_sections	.debug_frame
  19              		.section	.text.speex_alloc,"ax",%progbits
  20              		.align	2
  21              		.thumb
  22              		.thumb_func
  24              	speex_alloc:
  25              	.LFB1:
  26              		.file 1 "STM32F10x_Speex_Lib/libspeex/os_support.h"
   1:STM32F10x_Speex_Lib/libspeex/os_support.h **** /* Copyright (C) 2007 Jean-Marc Valin
   2:STM32F10x_Speex_Lib/libspeex/os_support.h ****       
   3:STM32F10x_Speex_Lib/libspeex/os_support.h ****    File: os_support.h
   4:STM32F10x_Speex_Lib/libspeex/os_support.h ****    This is the (tiny) OS abstraction layer. Aside from math.h, this is the
   5:STM32F10x_Speex_Lib/libspeex/os_support.h ****    only place where system headers are allowed.
   6:STM32F10x_Speex_Lib/libspeex/os_support.h **** 
   7:STM32F10x_Speex_Lib/libspeex/os_support.h ****    Redistribution and use in source and binary forms, with or without
   8:STM32F10x_Speex_Lib/libspeex/os_support.h ****    modification, are permitted provided that the following conditions are
   9:STM32F10x_Speex_Lib/libspeex/os_support.h ****    met:
  10:STM32F10x_Speex_Lib/libspeex/os_support.h **** 
  11:STM32F10x_Speex_Lib/libspeex/os_support.h ****    1. Redistributions of source code must retain the above copyright notice,
  12:STM32F10x_Speex_Lib/libspeex/os_support.h ****    this list of conditions and the following disclaimer.
  13:STM32F10x_Speex_Lib/libspeex/os_support.h **** 
  14:STM32F10x_Speex_Lib/libspeex/os_support.h ****    2. Redistributions in binary form must reproduce the above copyright
  15:STM32F10x_Speex_Lib/libspeex/os_support.h ****    notice, this list of conditions and the following disclaimer in the
  16:STM32F10x_Speex_Lib/libspeex/os_support.h ****    documentation and/or other materials provided with the distribution.
  17:STM32F10x_Speex_Lib/libspeex/os_support.h **** 
  18:STM32F10x_Speex_Lib/libspeex/os_support.h ****    3. The name of the author may not be used to endorse or promote products
  19:STM32F10x_Speex_Lib/libspeex/os_support.h ****    derived from this software without specific prior written permission.
  20:STM32F10x_Speex_Lib/libspeex/os_support.h **** 
  21:STM32F10x_Speex_Lib/libspeex/os_support.h ****    THIS SOFTWARE IS PROVIDED BY THE AUTHOR ``AS IS'' AND ANY EXPRESS OR
  22:STM32F10x_Speex_Lib/libspeex/os_support.h ****    IMPLIED WARRANTIES, INCLUDING, BUT NOT LIMITED TO, THE IMPLIED WARRANTIES
  23:STM32F10x_Speex_Lib/libspeex/os_support.h ****    OF MERCHANTABILITY AND FITNESS FOR A PARTICULAR PURPOSE ARE
  24:STM32F10x_Speex_Lib/libspeex/os_support.h ****    DISCLAIMED. IN NO EVENT SHALL THE AUTHOR BE LIABLE FOR ANY DIRECT,
  25:STM32F10x_Speex_Lib/libspeex/os_support.h ****    INDIRECT, INCIDENTAL, SPECIAL, EXEMPLARY, OR CONSEQUENTIAL DAMAGES
  26:STM32F10x_Speex_Lib/libspeex/os_support.h ****    (INCLUDING, BUT NOT LIMITED TO, PROCUREMENT OF SUBSTITUTE GOODS OR
  27:STM32F10x_Speex_Lib/libspeex/os_support.h ****    SERVICES; LOSS OF USE, DATA, OR PROFITS; OR BUSINESS INTERRUPTION)
  28:STM32F10x_Speex_Lib/libspeex/os_support.h ****    HOWEVER CAUSED AND ON ANY THEORY OF LIABILITY, WHETHER IN CONTRACT,
  29:STM32F10x_Speex_Lib/libspeex/os_support.h ****    STRICT LIABILITY, OR TORT (INCLUDING NEGLIGENCE OR OTHERWISE) ARISING IN
  30:STM32F10x_Speex_Lib/libspeex/os_support.h ****    ANY WAY OUT OF THE USE OF THIS SOFTWARE, EVEN IF ADVISED OF THE
  31:STM32F10x_Speex_Lib/libspeex/os_support.h ****    POSSIBILITY OF SUCH DAMAGE.
  32:STM32F10x_Speex_Lib/libspeex/os_support.h **** */
ARM GAS  /var/folders/kh/x4vltyy52lbg7p4pcyglc5080000gp/T//cc33Oc7n.s 			page 2


  33:STM32F10x_Speex_Lib/libspeex/os_support.h **** 
  34:STM32F10x_Speex_Lib/libspeex/os_support.h **** #ifndef OS_SUPPORT_H
  35:STM32F10x_Speex_Lib/libspeex/os_support.h **** #define OS_SUPPORT_H
  36:STM32F10x_Speex_Lib/libspeex/os_support.h **** 
  37:STM32F10x_Speex_Lib/libspeex/os_support.h **** #include <string.h>
  38:STM32F10x_Speex_Lib/libspeex/os_support.h **** #include <stdio.h>
  39:STM32F10x_Speex_Lib/libspeex/os_support.h **** #include <stdlib.h>
  40:STM32F10x_Speex_Lib/libspeex/os_support.h **** 
  41:STM32F10x_Speex_Lib/libspeex/os_support.h **** // #ifdef HAVE_CONFIG_H
  42:STM32F10x_Speex_Lib/libspeex/os_support.h **** #include "config.h"
  43:STM32F10x_Speex_Lib/libspeex/os_support.h **** // #endif
  44:STM32F10x_Speex_Lib/libspeex/os_support.h **** #ifdef OS_SUPPORT_CUSTOM
  45:STM32F10x_Speex_Lib/libspeex/os_support.h **** #include "os_support_custom.h"
  46:STM32F10x_Speex_Lib/libspeex/os_support.h **** #endif
  47:STM32F10x_Speex_Lib/libspeex/os_support.h **** 
  48:STM32F10x_Speex_Lib/libspeex/os_support.h **** /** Speex wrapper for calloc. To do your own dynamic allocation, all you need to do is replace this
  49:STM32F10x_Speex_Lib/libspeex/os_support.h ****     NOTE: speex_alloc needs to CLEAR THE MEMORY */
  50:STM32F10x_Speex_Lib/libspeex/os_support.h **** #ifndef OVERRIDE_SPEEX_ALLOC
  51:STM32F10x_Speex_Lib/libspeex/os_support.h **** static inline void *speex_alloc (int size)
  52:STM32F10x_Speex_Lib/libspeex/os_support.h **** {
  27              		.loc 1 52 0
  28              		.cfi_startproc
  29              		@ args = 0, pretend = 0, frame = 8
  30              		@ frame_needed = 1, uses_anonymous_args = 0
  31 0000 80B5     		push	{r7, lr}
  32              	.LCFI0:
  33              		.cfi_def_cfa_offset 8
  34              		.cfi_offset 7, -8
  35              		.cfi_offset 14, -4
  36 0002 82B0     		sub	sp, sp, #8
  37              	.LCFI1:
  38              		.cfi_def_cfa_offset 16
  39 0004 00AF     		add	r7, sp, #0
  40              	.LCFI2:
  41              		.cfi_def_cfa_register 7
  42 0006 7860     		str	r0, [r7, #4]
  53:STM32F10x_Speex_Lib/libspeex/os_support.h ****    /* WARNING: this is not equivalent to malloc(). If you want to use malloc() 
  54:STM32F10x_Speex_Lib/libspeex/os_support.h ****       or your own allocator, YOU NEED TO CLEAR THE MEMORY ALLOCATED. Otherwise
  55:STM32F10x_Speex_Lib/libspeex/os_support.h ****       you will experience strange bugs */
  56:STM32F10x_Speex_Lib/libspeex/os_support.h ****    return calloc(size,1);
  43              		.loc 1 56 0
  44 0008 7B68     		ldr	r3, [r7, #4]
  45 000a 0121     		movs	r1, #1
  46 000c 1846     		mov	r0, r3
  47 000e FFF7FEFF 		bl	calloc
  48 0012 0346     		mov	r3, r0
  57:STM32F10x_Speex_Lib/libspeex/os_support.h **** }
  49              		.loc 1 57 0
  50 0014 1846     		mov	r0, r3
  51 0016 0837     		adds	r7, r7, #8
  52              	.LCFI3:
  53              		.cfi_def_cfa_offset 8
  54 0018 BD46     		mov	sp, r7
  55              	.LCFI4:
  56              		.cfi_def_cfa_register 13
  57              		@ sp needed
  58 001a 80BD     		pop	{r7, pc}
ARM GAS  /var/folders/kh/x4vltyy52lbg7p4pcyglc5080000gp/T//cc33Oc7n.s 			page 3


  59              		.cfi_endproc
  60              	.LFE1:
  62              		.section	.text.speex_realloc,"ax",%progbits
  63              		.align	2
  64              		.thumb
  65              		.thumb_func
  67              	speex_realloc:
  68              	.LFB3:
  58:STM32F10x_Speex_Lib/libspeex/os_support.h **** #endif
  59:STM32F10x_Speex_Lib/libspeex/os_support.h **** 
  60:STM32F10x_Speex_Lib/libspeex/os_support.h **** /** Same as speex_alloc, except that the area is only needed inside a Speex call (might cause probl
  61:STM32F10x_Speex_Lib/libspeex/os_support.h **** #ifndef OVERRIDE_SPEEX_ALLOC_SCRATCH
  62:STM32F10x_Speex_Lib/libspeex/os_support.h **** static inline void *speex_alloc_scratch (int size)
  63:STM32F10x_Speex_Lib/libspeex/os_support.h **** {
  64:STM32F10x_Speex_Lib/libspeex/os_support.h ****    /* Scratch space doesn't need to be cleared */
  65:STM32F10x_Speex_Lib/libspeex/os_support.h ****    return calloc(size,1);
  66:STM32F10x_Speex_Lib/libspeex/os_support.h **** }
  67:STM32F10x_Speex_Lib/libspeex/os_support.h **** #endif
  68:STM32F10x_Speex_Lib/libspeex/os_support.h **** 
  69:STM32F10x_Speex_Lib/libspeex/os_support.h **** /** Speex wrapper for realloc. To do your own dynamic allocation, all you need to do is replace thi
  70:STM32F10x_Speex_Lib/libspeex/os_support.h **** #ifndef OVERRIDE_SPEEX_REALLOC
  71:STM32F10x_Speex_Lib/libspeex/os_support.h **** static inline void *speex_realloc (void *ptr, int size)
  72:STM32F10x_Speex_Lib/libspeex/os_support.h **** {
  69              		.loc 1 72 0
  70              		.cfi_startproc
  71              		@ args = 0, pretend = 0, frame = 8
  72              		@ frame_needed = 1, uses_anonymous_args = 0
  73 0000 80B5     		push	{r7, lr}
  74              	.LCFI5:
  75              		.cfi_def_cfa_offset 8
  76              		.cfi_offset 7, -8
  77              		.cfi_offset 14, -4
  78 0002 82B0     		sub	sp, sp, #8
  79              	.LCFI6:
  80              		.cfi_def_cfa_offset 16
  81 0004 00AF     		add	r7, sp, #0
  82              	.LCFI7:
  83              		.cfi_def_cfa_register 7
  84 0006 7860     		str	r0, [r7, #4]
  85 0008 3960     		str	r1, [r7]
  73:STM32F10x_Speex_Lib/libspeex/os_support.h ****    return realloc(ptr, size);
  86              		.loc 1 73 0
  87 000a 3B68     		ldr	r3, [r7]
  88 000c 1946     		mov	r1, r3
  89 000e 7868     		ldr	r0, [r7, #4]
  90 0010 FFF7FEFF 		bl	realloc
  91 0014 0346     		mov	r3, r0
  74:STM32F10x_Speex_Lib/libspeex/os_support.h **** }
  92              		.loc 1 74 0
  93 0016 1846     		mov	r0, r3
  94 0018 0837     		adds	r7, r7, #8
  95              	.LCFI8:
  96              		.cfi_def_cfa_offset 8
  97 001a BD46     		mov	sp, r7
  98              	.LCFI9:
  99              		.cfi_def_cfa_register 13
 100              		@ sp needed
ARM GAS  /var/folders/kh/x4vltyy52lbg7p4pcyglc5080000gp/T//cc33Oc7n.s 			page 4


 101 001c 80BD     		pop	{r7, pc}
 102              		.cfi_endproc
 103              	.LFE3:
 105 001e 00BF     		.section	.text.speex_free,"ax",%progbits
 106              		.align	2
 107              		.thumb
 108              		.thumb_func
 110              	speex_free:
 111              	.LFB4:
  75:STM32F10x_Speex_Lib/libspeex/os_support.h **** #endif
  76:STM32F10x_Speex_Lib/libspeex/os_support.h **** 
  77:STM32F10x_Speex_Lib/libspeex/os_support.h **** /** Speex wrapper for calloc. To do your own dynamic allocation, all you need to do is replace this
  78:STM32F10x_Speex_Lib/libspeex/os_support.h **** #ifndef OVERRIDE_SPEEX_FREE
  79:STM32F10x_Speex_Lib/libspeex/os_support.h **** static inline void speex_free (void *ptr)
  80:STM32F10x_Speex_Lib/libspeex/os_support.h **** {
 112              		.loc 1 80 0
 113              		.cfi_startproc
 114              		@ args = 0, pretend = 0, frame = 8
 115              		@ frame_needed = 1, uses_anonymous_args = 0
 116 0000 80B5     		push	{r7, lr}
 117              	.LCFI10:
 118              		.cfi_def_cfa_offset 8
 119              		.cfi_offset 7, -8
 120              		.cfi_offset 14, -4
 121 0002 82B0     		sub	sp, sp, #8
 122              	.LCFI11:
 123              		.cfi_def_cfa_offset 16
 124 0004 00AF     		add	r7, sp, #0
 125              	.LCFI12:
 126              		.cfi_def_cfa_register 7
 127 0006 7860     		str	r0, [r7, #4]
  81:STM32F10x_Speex_Lib/libspeex/os_support.h ****    free(ptr);
 128              		.loc 1 81 0
 129 0008 7868     		ldr	r0, [r7, #4]
 130 000a FFF7FEFF 		bl	free
  82:STM32F10x_Speex_Lib/libspeex/os_support.h **** }
 131              		.loc 1 82 0
 132 000e 00BF     		nop
 133 0010 0837     		adds	r7, r7, #8
 134              	.LCFI13:
 135              		.cfi_def_cfa_offset 8
 136 0012 BD46     		mov	sp, r7
 137              	.LCFI14:
 138              		.cfi_def_cfa_register 13
 139              		@ sp needed
 140 0014 80BD     		pop	{r7, pc}
 141              		.cfi_endproc
 142              	.LFE4:
 144 0016 00BF     		.section	.data.kaiser12_table,"aw",%progbits
 145              		.align	3
 148              	kaiser12_table:
 149 0000 C8510CD2 		.word	3524022728
 150 0004 84F4EF3F 		.word	1072690308
 151 0008 00000000 		.word	0
 152 000c 0000F03F 		.word	1072693248
 153 0010 C8510CD2 		.word	3524022728
 154 0014 84F4EF3F 		.word	1072690308
ARM GAS  /var/folders/kh/x4vltyy52lbg7p4pcyglc5080000gp/T//cc33Oc7n.s 			page 5


 155 0018 F69507E9 		.word	3909588470
 156 001c 29D2EF3F 		.word	1072681513
 157 0020 DAD3C4F1 		.word	4056208346
 158 0024 3299EF3F 		.word	1072666930
 159 0028 D4FD10D9 		.word	3641769428
 160 002c 0F4AEF3F 		.word	1072646671
 161 0030 7E9FBB6E 		.word	1857789822
 162 0034 5BE5EE3F 		.word	1072620891
 163 0038 61C13F9D 		.word	2638201185
 164 003c D96BEE3F 		.word	1072589785
 165 0040 1DD7F125 		.word	636606237
 166 0044 75DEED3F 		.word	1072553589
 167 0048 6A7F6FEC 		.word	3966730090
 168 004c 3C3EED3F 		.word	1072512572
 169 0050 C9EA35C1 		.word	3241536201
 170 0054 608CEC3F 		.word	1072467040
 171 0058 77244501 		.word	21308535
 172 005c 2ECAEB3F 		.word	1072417326
 173 0060 1EBC7EDA 		.word	3665738782
 174 0064 0BF9EA3F 		.word	1072363787
 175 0068 3AD0BF34 		.word	884985914
 176 006c 771AEA3F 		.word	1072306807
 177 0070 F5252380 		.word	2149787125
 178 0074 FE2FE93F 		.word	1072246782
 179 0078 F2404383 		.word	2202222834
 180 007c 3D3BE83F 		.word	1072184125
 181 0080 0E0753DE 		.word	3729983246
 182 0084 D83DE73F 		.word	1072119256
 183 0088 F7F2AFA3 		.word	2746217207
 184 008c 7939E63F 		.word	1072052601
 185 0090 4CC8C520 		.word	549832780
 186 0094 C92FE53F 		.word	1071984585
 187 0098 CEB87891 		.word	2440607950
 188 009c 6C22E43F 		.word	1071915628
 189 00a0 FF995A19 		.word	425368063
 190 00a4 0113E33F 		.word	1071846145
 191 00a8 2F9C31ED 		.word	3979451439
 192 00ac 1703E23F 		.word	1071776535
 193 00b0 63D906CD 		.word	3439778147
 194 00b4 32F4E03F 		.word	1071707186
 195 00b8 4D5A8672 		.word	1921407565
 196 00bc 81CFDF3F 		.word	1071632257
 197 00c0 CD8F64FB 		.word	4217671629
 198 00c4 35BEDD3F 		.word	1071496757
 199 00c8 15C63790 		.word	2419574293
 200 00cc 05B7DB3F 		.word	1071363845
 201 00d0 E007ADA8 		.word	2829912032
 202 00d4 3DBCD93F 		.word	1071234109
 203 00d8 60330A93 		.word	2466919264
 204 00dc F3CFD73F 		.word	1071108083
 205 00e0 F31DFCC4 		.word	3304857075
 206 00e4 01F4D53F 		.word	1070986241
 207 00e8 4A8567F8 		.word	4167533898
 208 00ec 052AD43F 		.word	1070868997
 209 00f0 E7CD3C14 		.word	339529191
 210 00f4 6073D23F 		.word	1070756704
 211 00f8 8DCA3437 		.word	926206605
ARM GAS  /var/folders/kh/x4vltyy52lbg7p4pcyglc5080000gp/T//cc33Oc7n.s 			page 6


 212 00fc 32D1D03F 		.word	1070649650
 213 0100 D8D17AF0 		.word	4034580952
 214 0104 C188CE3F 		.word	1070500033
 215 0108 AF277812 		.word	309864367
 216 010c 2A9BCB3F 		.word	1070308138
 217 0110 C84893DE 		.word	3734194376
 218 0114 79DAC83F 		.word	1070127737
 219 0118 B5CF5B23 		.word	593219509
 220 011c 1F47C63F 		.word	1069958943
 221 0120 3D574214 		.word	339892029
 222 0124 1FE1C33F 		.word	1069801759
 223 0128 B5CD0140 		.word	1073860021
 224 012c 1DA8C13F 		.word	1069656093
 225 0130 4DBA90BB 		.word	3146824269
 226 0134 C636BF3F 		.word	1069496006
 227 0138 2E0C2638 		.word	942017582
 228 013c D473BB3F 		.word	1069249492
 229 0140 6692050A 		.word	168137318
 230 0144 C404B83F 		.word	1069024452
 231 0148 805416C7 		.word	3340129408
 232 014c 79E6B43F 		.word	1068820089
 233 0150 62484E26 		.word	642664546
 234 0154 6E15B23F 		.word	1068635502
 235 0158 A4158497 		.word	2542015908
 236 015c 851BAF3F 		.word	1068440453
 237 0160 ECB2EB20 		.word	552317676
 238 0164 A796AA3F 		.word	1068144295
 239 0168 97A84145 		.word	1161930903
 240 016c 9393A63F 		.word	1067881363
 241 0170 3E782FEF 		.word	4012865598
 242 0174 5809A33F 		.word	1067649368
 243 0178 D5E7AC47 		.word	1202513877
 244 017c C8DD9F3F 		.word	1067441608
 245 0180 6CCF4D17 		.word	390975340
 246 0184 39769A3F 		.word	1067087417
 247 0188 F4F1D8E8 		.word	3906531828
 248 018c FFC9953F 		.word	1066781183
 249 0190 0F0BB5A6 		.word	2796882703
 250 0194 79C7913F 		.word	1066518393
 251 0198 55176CFA 		.word	4201387861
 252 019c 1EBB8C3F 		.word	1066187550
 253 01a0 FEA4B128 		.word	682730750
 254 01a4 B2F7863F 		.word	1065809842
 255 01a8 3CB796EA 		.word	3935745852
 256 01ac 7E25823F 		.word	1065493886
 257 01b0 A5FBB5CC 		.word	3434478501
 258 01b4 544E7C3F 		.word	1065111124
 259 01b8 671F5477 		.word	2002001767
 260 01bc 9FC2753F 		.word	1064682143
 261 01c0 05C47F15 		.word	360694789
 262 01c4 3B75703F 		.word	1064334651
 263 01c8 747FB39C 		.word	2629009268
 264 01cc 9D6F683F 		.word	1063808925
 265 01d0 D3F0F300 		.word	15986899
 266 01d4 92C0613F 		.word	1063370898
 267 01d8 F752DBFA 		.word	4208677623
 268 01dc A723593F 		.word	1062806439
ARM GAS  /var/folders/kh/x4vltyy52lbg7p4pcyglc5080000gp/T//cc33Oc7n.s 			page 7


 269 01e0 3FC1ACED 		.word	3987521855
 270 01e4 7940513F 		.word	1062289529
 271 01e8 F1420091 		.word	2432713457
 272 01ec FAC2463F 		.word	1061602042
 273 01f0 7BB2CD53 		.word	1405989499
 274 01f4 3E803C3F 		.word	1060929598
 275 01f8 26519222 		.word	580014374
 276 01fc F08F303F 		.word	1060147184
 277 0200 C7546E60 		.word	1617843399
 278 0204 7A14213F 		.word	1059132538
 279 0208 7D897F37 		.word	931105149
 280 020c 20AB0B3F 		.word	1057729312
 281 0210 F168E388 		.word	2296604913
 282 0214 B5F8E43E 		.word	1055193269
 283 0218 00000000 		.word	0
 284 021c 00000000 		.word	0
 285              		.section	.data.kaiser10_table,"aw",%progbits
 286              		.align	3
 289              	kaiser10_table:
 290 0000 B9A6A390 		.word	2426644153
 291 0004 22DAEF3F 		.word	1072683554
 292 0008 00000000 		.word	0
 293 000c 0000F03F 		.word	1072693248
 294 0010 B9A6A390 		.word	2426644153
 295 0014 22DAEF3F 		.word	1072683554
 296 0018 850B16DA 		.word	3658877829
 297 001c 7B69EF3F 		.word	1072654715
 298 0020 4446CD78 		.word	2026718788
 299 0024 D7B0EE3F 		.word	1072607447
 300 0028 2653C386 		.word	2260947750
 301 002c C0B4ED3F 		.word	1072542912
 302 0030 33DA2E5D 		.word	1563351603
 303 0034 567BEC3F 		.word	1072462678
 304 0038 A9CE1739 		.word	957861545
 305 003c 130CEB3F 		.word	1072368659
 306 0040 A9EA7121 		.word	561113769
 307 0044 876FE93F 		.word	1072263047
 308 0048 72E6911E 		.word	512878194
 309 004c 0AAFE73F 		.word	1072148234
 310 0050 D6D169C4 		.word	3295269334
 311 0054 69D4E53F 		.word	1072026729
 312 0058 C0A7A414 		.word	346335168
 313 005c 95E9E33F 		.word	1071901077
 314 0060 39A000E5 		.word	3842023481
 315 0064 4AF8E13F 		.word	1071773770
 316 0068 EA831BDF 		.word	3743122410
 317 006c CD09E03F 		.word	1071647181
 318 0070 556AD532 		.word	852847189
 319 0074 424DDC3F 		.word	1071402306
 320 0078 435DDEFB 		.word	4225654083
 321 007c 9FACD83F 		.word	1071164575
 322 0080 0F5AF6C1 		.word	3254147599
 323 0084 853ED53F 		.word	1070939781
 324 0088 1F05DBCA 		.word	3403351327
 325 008c 430DD23F 		.word	1070730563
 326 0090 A0673723 		.word	590833568
 327 0094 1841CE3F 		.word	1070481688
ARM GAS  /var/folders/kh/x4vltyy52lbg7p4pcyglc5080000gp/T//cc33Oc7n.s 			page 8


 328 0098 8C8B7AF3 		.word	4084894604
 329 009c E1FAC83F 		.word	1070136033
 330 00a0 F0AE4886 		.word	2252910320
 331 00a4 FB4CC43F 		.word	1069829371
 332 00a8 74E3271F 		.word	522707828
 333 00ac CC37C03F 		.word	1069561804
 334 00b0 EE618ACD 		.word	3448398318
 335 00b4 226FB93F 		.word	1069117218
 336 00b8 3B4E55CA 		.word	3394588219
 337 00bc 008AB33F 		.word	1068730880
 338 00c0 E8612ECA 		.word	3392037352
 339 00c4 E857AD3F 		.word	1068324840
 340 00c8 2433CD2A 		.word	718091044
 341 00cc 2279A53F 		.word	1067809058
 342 00d0 BB696DF9 		.word	4184697275
 343 00d4 CC829E3F 		.word	1067352780
 344 00d8 222C746F 		.word	1869884450
 345 00dc 8FEF943F 		.word	1066725263
 346 00e0 3E11DD16 		.word	383586622
 347 00e4 D98C8B3F 		.word	1066110169
 348 00e8 5DC25F9B 		.word	2606744157
 349 00ec A632813F 		.word	1065431718
 350 00f0 5008B2D8 		.word	3635546192
 351 00f4 0507743F 		.word	1064568581
 352 00f8 81C82ABE 		.word	3190474881
 353 00fc 041B653F 		.word	1063590660
 354 0100 DCEEAB93 		.word	2477518556
 355 0104 AFDB523F 		.word	1062394799
 356 0108 1BCA9AA2 		.word	2728053275
 357 010c 6D46373F 		.word	1060587117
 358 0110 00000000 		.word	0
 359 0114 00000000 		.word	0
 360 0118 00000000 		.word	0
 361 011c 00000000 		.word	0
 362              		.section	.data.kaiser8_table,"aw",%progbits
 363              		.align	3
 366              	kaiser8_table:
 367 0000 C1534CCE 		.word	3461108673
 368 0004 1EE2EF3F 		.word	1072685598
 369 0008 00000000 		.word	0
 370 000c 0000F03F 		.word	1072693248
 371 0010 C1534CCE 		.word	3461108673
 372 0014 1EE2EF3F 		.word	1072685598
 373 0018 CF42C89A 		.word	2596815567
 374 001c 0D89EF3F 		.word	1072662797
 375 0020 0C6DE798 		.word	2565303564
 376 0024 7FF6EE3F 		.word	1072625279
 377 0028 88122D79 		.word	2032997000
 378 002c 3C2DEE3F 		.word	1072573756
 379 0030 9A4DF4B7 		.word	3086241178
 380 0034 0C31ED3F 		.word	1072509196
 381 0038 B5B0C0BA 		.word	3133190325
 382 003c 9E06EC3F 		.word	1072432798
 383 0040 CC990E19 		.word	420387276
 384 0044 66B3EA3F 		.word	1072345958
 385 0048 DC792CC7 		.word	3341580764
 386 004c 753DE93F 		.word	1072250229
ARM GAS  /var/folders/kh/x4vltyy52lbg7p4pcyglc5080000gp/T//cc33Oc7n.s 			page 9


 387 0050 51AB22BB 		.word	3139611473
 388 0054 56ABE73F 		.word	1072147286
 389 0058 9536C94D 		.word	1305032341
 390 005c DC03E63F 		.word	1072038876
 391 0060 75ABE7A4 		.word	2766646133
 392 0064 F74DE43F 		.word	1071926775
 393 0068 77009BDE 		.word	3734700151
 394 006c 8B90E23F 		.word	1071812747
 395 0070 1381EA1F 		.word	535462163
 396 0074 44D2E03F 		.word	1071698500
 397 0078 C600C3D1 		.word	3519217862
 398 007c D932DE3F 		.word	1071526617
 399 0080 533E0455 		.word	1426341459
 400 0084 A3D7DA3F 		.word	1071306659
 401 0088 D90861C1 		.word	3244361945
 402 008c 3F9DD73F 		.word	1071095103
 403 0090 A86A06E1 		.word	3775294120
 404 0094 9F8CD43F 		.word	1070894239
 405 0098 6E247D18 		.word	410854510
 406 009c 29ADD13F 		.word	1070705961
 407 00a0 5AEF79F6 		.word	4135186266
 408 00a4 4309CE3F 		.word	1070467395
 409 00a8 1B00602B 		.word	727711771
 410 00ac 572EC93F 		.word	1070149207
 411 00b0 51966B1B 		.word	460035665
 412 00b4 90CEC43F 		.word	1069862544
 413 00b8 8BEC5AAD 		.word	2908417163
 414 00bc D9EBC03F 		.word	1069607897
 415 00c0 E9D6295E 		.word	1579800297
 416 00c4 7E0ABB3F 		.word	1069222526
 417 00c8 DF17FAD4 		.word	3573159903
 418 00cc 6F2EB53F 		.word	1068838511
 419 00d0 060D814C 		.word	1283525894
 420 00d4 0038B03F 		.word	1068513280
 421 00d8 CABD44E5 		.word	3846487498
 422 00dc F42FA83F 		.word	1067986932
 423 00e0 A615F8ED 		.word	3992458662
 424 00e4 9878A13F 		.word	1067546776
 425 00e8 4BF553D2 		.word	3528717643
 426 00ec 7943983F 		.word	1066943353
 427 00f0 94CF9FF4 		.word	4104114068
 428 00f4 8D01903F 		.word	1066402189
 429 00f8 006E373D 		.word	1027042816
 430 00fc FFA8833F 		.word	1065593087
 431 0100 DE691946 		.word	1176070622
 432 0104 CD99753F 		.word	1064671693
 433 0108 E0858CCB 		.word	3414984160
 434 010c E128633F 		.word	1063463137
 435 0110 FCA9F1D2 		.word	3539053052
 436 0114 4D62403F 		.word	1061184077
 437 0118 00000000 		.word	0
 438 011c 00000000 		.word	0
 439              		.section	.data.kaiser6_table,"aw",%progbits
 440              		.align	3
 443              	kaiser6_table:
 444 0000 2591E0BA 		.word	3135279397
 445 0004 20EAEF3F 		.word	1072687648
ARM GAS  /var/folders/kh/x4vltyy52lbg7p4pcyglc5080000gp/T//cc33Oc7n.s 			page 10


 446 0008 00000000 		.word	0
 447 000c 0000F03F 		.word	1072693248
 448 0010 2591E0BA 		.word	3135279397
 449 0014 20EAEF3F 		.word	1072687648
 450 0018 DE4B2BCF 		.word	3475721182
 451 001c CDA8EF3F 		.word	1072670925
 452 0020 5A1FFF9A 		.word	2600410970
 453 0024 E63CEF3F 		.word	1072643302
 454 0028 55CF17B5 		.word	3038236501
 455 002c DAA7EE3F 		.word	1072605146
 456 0030 BEA064F6 		.word	4133789886
 457 0034 A2EBED3F 		.word	1072556962
 458 0038 D7906E3A 		.word	980324567
 459 003c B80AED3F 		.word	1072499384
 460 0040 8BE8CF65 		.word	1708124299
 461 0044 0708EC3F 		.word	1072433159
 462 0048 B5DE6FB4 		.word	3027230389
 463 004c E3E6EA3F 		.word	1072359139
 464 0050 58007414 		.word	343146584
 465 0054 F7AAE93F 		.word	1072278263
 466 0058 22725534 		.word	878015010
 467 005c 3158E83F 		.word	1072191537
 468 0060 50C5AE69 		.word	1773061456
 469 0064 B5F2E63F 		.word	1072100021
 470 0068 58E4B601 		.word	28763224
 471 006c C87EE53F 		.word	1072004808
 472 0070 9445276C 		.word	1814513044
 473 0074 BB00E43F 		.word	1071907003
 474 0078 472B4A4B 		.word	1263151943
 475 007c DD7CE23F 		.word	1071807709
 476 0080 A9A3E36A 		.word	1793303465
 477 0084 64F7E03F 		.word	1071708004
 478 0088 AAA997A5 		.word	2778180010
 479 008c BEE8DE3F 		.word	1071573182
 480 0090 16C47A82 		.word	2189083670
 481 0094 48EFDB3F 		.word	1071378248
 482 0098 4B66CC8F 		.word	2412537419
 483 009c 8509D93F 		.word	1071188357
 484 00a0 3FE9E157 		.word	1474423103
 485 00a4 EE3DD63F 		.word	1071005166
 486 00a8 C26A6E7D 		.word	2104388290
 487 00ac 3F92D33F 		.word	1070830143
 488 00b0 A0BEA76A 		.word	1789378208
 489 00b4 690BD13F 		.word	1070664553
 490 00b8 2B725F39 		.word	962556459
 491 00bc 085BCD3F 		.word	1070422792
 492 00c0 2799622F 		.word	794990887
 493 00c4 90F7C83F 		.word	1070135184
 494 00c8 A107CAAF 		.word	2949253025
 495 00cc 17F1C43F 		.word	1069871383
 496 00d0 CA62AC80 		.word	2158781130
 497 00d4 8C4AC13F 		.word	1069632140
 498 00d8 22C5BE6C 		.word	1824441634
 499 00dc 540ABC3F 		.word	1069288020
 500 00e0 61850085 		.word	2231403873
 501 00e4 1F41B63F 		.word	1068908831
 502 00e8 8FDE701F 		.word	527490703
ARM GAS  /var/folders/kh/x4vltyy52lbg7p4pcyglc5080000gp/T//cc33Oc7n.s 			page 11


 503 00ec B935B13F 		.word	1068578233
 504 00f0 4384C99E 		.word	2664006723
 505 00f4 4EC3A93F 		.word	1068090190
 506 00f8 217B7BDF 		.word	3749411617
 507 00fc 1178A23F 		.word	1067612177
 508 0100 F34728E8 		.word	3894953971
 509 0104 BCE7983F 		.word	1066985404
 510 0108 59ED0EE7 		.word	3876515161
 511 010c E9758E3F 		.word	1066300905
 512 0110 21020EA1 		.word	2702049825
 513 0114 4ACD7E3F 		.word	1065274698
 514 0118 00000000 		.word	0
 515 011c 00000000 		.word	0
 516              		.section	.data._KAISER12,"aw",%progbits
 517              		.align	2
 520              	_KAISER12:
 521 0000 00000000 		.word	kaiser12_table
 522 0004 40000000 		.word	64
 523              		.section	.data._KAISER10,"aw",%progbits
 524              		.align	2
 527              	_KAISER10:
 528 0000 00000000 		.word	kaiser10_table
 529 0004 20000000 		.word	32
 530              		.section	.data._KAISER8,"aw",%progbits
 531              		.align	2
 534              	_KAISER8:
 535 0000 00000000 		.word	kaiser8_table
 536 0004 20000000 		.word	32
 537              		.section	.data._KAISER6,"aw",%progbits
 538              		.align	2
 541              	_KAISER6:
 542 0000 00000000 		.word	kaiser6_table
 543 0004 20000000 		.word	32
 544              		.section	.rodata.quality_map,"a",%progbits
 545              		.align	2
 548              	quality_map:
 549 0000 08000000 		.word	8
 550 0004 04000000 		.word	4
 551 0008 E17A543F 		.word	1062501089
 552 000c F6285C3F 		.word	1063004406
 553 0010 00000000 		.word	_KAISER6
 554 0014 10000000 		.word	16
 555 0018 04000000 		.word	4
 556 001c 9A99593F 		.word	1062836634
 557 0020 AE47613F 		.word	1063339950
 558 0024 00000000 		.word	_KAISER6
 559 0028 20000000 		.word	32
 560 002c 04000000 		.word	4
 561 0030 C1CA613F 		.word	1063373505
 562 0034 C3F5683F 		.word	1063843267
 563 0038 00000000 		.word	_KAISER6
 564 003c 30000000 		.word	48
 565 0040 08000000 		.word	8
 566 0044 B81E653F 		.word	1063591608
 567 0048 83C06A3F 		.word	1063960707
 568 004c 00000000 		.word	_KAISER8
 569 0050 40000000 		.word	64
ARM GAS  /var/folders/kh/x4vltyy52lbg7p4pcyglc5080000gp/T//cc33Oc7n.s 			page 12


 570 0054 08000000 		.word	8
 571 0058 A8C66B3F 		.word	1064027816
 572 005c D7A3703F 		.word	1064346583
 573 0060 00000000 		.word	_KAISER8
 574 0064 50000000 		.word	80
 575 0068 10000000 		.word	16
 576 006c 31086C3F 		.word	1064044593
 577 0070 D7A3703F 		.word	1064346583
 578 0074 00000000 		.word	_KAISER10
 579 0078 60000000 		.word	96
 580 007c 10000000 		.word	16
 581 0080 D7A3703F 		.word	1064346583
 582 0084 85EB713F 		.word	1064430469
 583 0088 00000000 		.word	_KAISER10
 584 008c 80000000 		.word	128
 585 0090 10000000 		.word	16
 586 0094 3333733F 		.word	1064514355
 587 0098 3333733F 		.word	1064514355
 588 009c 00000000 		.word	_KAISER10
 589 00a0 A0000000 		.word	160
 590 00a4 10000000 		.word	16
 591 00a8 8FC2753F 		.word	1064682127
 592 00ac 8FC2753F 		.word	1064682127
 593 00b0 00000000 		.word	_KAISER10
 594 00b4 C0000000 		.word	192
 595 00b8 20000000 		.word	32
 596 00bc D9CE773F 		.word	1064816345
 597 00c0 D9CE773F 		.word	1064816345
 598 00c4 00000000 		.word	_KAISER12
 599 00c8 00010000 		.word	256
 600 00cc 20000000 		.word	32
 601 00d0 9A99793F 		.word	1064933786
 602 00d4 9A99793F 		.word	1064933786
 603 00d8 00000000 		.word	_KAISER12
 604              		.global	__aeabi_i2f
 605              		.global	__aeabi_fmul
 606              		.global	__aeabi_f2d
 607              		.global	__aeabi_d2iz
 608              		.global	__aeabi_fsub
 609              		.global	__aeabi_dmul
 610              		.global	__aeabi_dadd
 611              		.global	__aeabi_dsub
 612              		.section	.text.compute_func,"ax",%progbits
 613              		.align	2
 614              		.thumb
 615              		.thumb_func
 617              	compute_func:
 618              	.LFB9:
 619              		.file 2 "STM32F10x_Speex_Lib/libspeex/resample.c"
   1:STM32F10x_Speex_Lib/libspeex/resample.c **** /* Copyright (C) 2007-2008 Jean-Marc Valin
   2:STM32F10x_Speex_Lib/libspeex/resample.c ****    Copyright (C) 2008      Thorvald Natvig
   3:STM32F10x_Speex_Lib/libspeex/resample.c ****       
   4:STM32F10x_Speex_Lib/libspeex/resample.c ****    File: resample.c
   5:STM32F10x_Speex_Lib/libspeex/resample.c ****    Arbitrary resampling code
   6:STM32F10x_Speex_Lib/libspeex/resample.c **** 
   7:STM32F10x_Speex_Lib/libspeex/resample.c ****    Redistribution and use in source and binary forms, with or without
   8:STM32F10x_Speex_Lib/libspeex/resample.c ****    modification, are permitted provided that the following conditions are
ARM GAS  /var/folders/kh/x4vltyy52lbg7p4pcyglc5080000gp/T//cc33Oc7n.s 			page 13


   9:STM32F10x_Speex_Lib/libspeex/resample.c ****    met:
  10:STM32F10x_Speex_Lib/libspeex/resample.c **** 
  11:STM32F10x_Speex_Lib/libspeex/resample.c ****    1. Redistributions of source code must retain the above copyright notice,
  12:STM32F10x_Speex_Lib/libspeex/resample.c ****    this list of conditions and the following disclaimer.
  13:STM32F10x_Speex_Lib/libspeex/resample.c **** 
  14:STM32F10x_Speex_Lib/libspeex/resample.c ****    2. Redistributions in binary form must reproduce the above copyright
  15:STM32F10x_Speex_Lib/libspeex/resample.c ****    notice, this list of conditions and the following disclaimer in the
  16:STM32F10x_Speex_Lib/libspeex/resample.c ****    documentation and/or other materials provided with the distribution.
  17:STM32F10x_Speex_Lib/libspeex/resample.c **** 
  18:STM32F10x_Speex_Lib/libspeex/resample.c ****    3. The name of the author may not be used to endorse or promote products
  19:STM32F10x_Speex_Lib/libspeex/resample.c ****    derived from this software without specific prior written permission.
  20:STM32F10x_Speex_Lib/libspeex/resample.c **** 
  21:STM32F10x_Speex_Lib/libspeex/resample.c ****    THIS SOFTWARE IS PROVIDED BY THE AUTHOR ``AS IS'' AND ANY EXPRESS OR
  22:STM32F10x_Speex_Lib/libspeex/resample.c ****    IMPLIED WARRANTIES, INCLUDING, BUT NOT LIMITED TO, THE IMPLIED WARRANTIES
  23:STM32F10x_Speex_Lib/libspeex/resample.c ****    OF MERCHANTABILITY AND FITNESS FOR A PARTICULAR PURPOSE ARE
  24:STM32F10x_Speex_Lib/libspeex/resample.c ****    DISCLAIMED. IN NO EVENT SHALL THE AUTHOR BE LIABLE FOR ANY DIRECT,
  25:STM32F10x_Speex_Lib/libspeex/resample.c ****    INDIRECT, INCIDENTAL, SPECIAL, EXEMPLARY, OR CONSEQUENTIAL DAMAGES
  26:STM32F10x_Speex_Lib/libspeex/resample.c ****    (INCLUDING, BUT NOT LIMITED TO, PROCUREMENT OF SUBSTITUTE GOODS OR
  27:STM32F10x_Speex_Lib/libspeex/resample.c ****    SERVICES; LOSS OF USE, DATA, OR PROFITS; OR BUSINESS INTERRUPTION)
  28:STM32F10x_Speex_Lib/libspeex/resample.c ****    HOWEVER CAUSED AND ON ANY THEORY OF LIABILITY, WHETHER IN CONTRACT,
  29:STM32F10x_Speex_Lib/libspeex/resample.c ****    STRICT LIABILITY, OR TORT (INCLUDING NEGLIGENCE OR OTHERWISE) ARISING IN
  30:STM32F10x_Speex_Lib/libspeex/resample.c ****    ANY WAY OUT OF THE USE OF THIS SOFTWARE, EVEN IF ADVISED OF THE
  31:STM32F10x_Speex_Lib/libspeex/resample.c ****    POSSIBILITY OF SUCH DAMAGE.
  32:STM32F10x_Speex_Lib/libspeex/resample.c **** */
  33:STM32F10x_Speex_Lib/libspeex/resample.c **** 
  34:STM32F10x_Speex_Lib/libspeex/resample.c **** /*
  35:STM32F10x_Speex_Lib/libspeex/resample.c ****    The design goals of this code are:
  36:STM32F10x_Speex_Lib/libspeex/resample.c ****       - Very fast algorithm
  37:STM32F10x_Speex_Lib/libspeex/resample.c ****       - SIMD-friendly algorithm
  38:STM32F10x_Speex_Lib/libspeex/resample.c ****       - Low memory requirement
  39:STM32F10x_Speex_Lib/libspeex/resample.c ****       - Good *perceptual* quality (and not best SNR)
  40:STM32F10x_Speex_Lib/libspeex/resample.c **** 
  41:STM32F10x_Speex_Lib/libspeex/resample.c ****    Warning: This resampler is relatively new. Although I think I got rid of 
  42:STM32F10x_Speex_Lib/libspeex/resample.c ****    all the major bugs and I don't expect the API to change anymore, there
  43:STM32F10x_Speex_Lib/libspeex/resample.c ****    may be something I've missed. So use with caution.
  44:STM32F10x_Speex_Lib/libspeex/resample.c **** 
  45:STM32F10x_Speex_Lib/libspeex/resample.c ****    This algorithm is based on this original resampling algorithm:
  46:STM32F10x_Speex_Lib/libspeex/resample.c ****    Smith, Julius O. Digital Audio Resampling Home Page
  47:STM32F10x_Speex_Lib/libspeex/resample.c ****    Center for Computer Research in Music and Acoustics (CCRMA), 
  48:STM32F10x_Speex_Lib/libspeex/resample.c ****    Stanford University, 2007.
  49:STM32F10x_Speex_Lib/libspeex/resample.c ****    Web published at http://www-ccrma.stanford.edu/~jos/resample/.
  50:STM32F10x_Speex_Lib/libspeex/resample.c **** 
  51:STM32F10x_Speex_Lib/libspeex/resample.c ****    There is one main difference, though. This resampler uses cubic 
  52:STM32F10x_Speex_Lib/libspeex/resample.c ****    interpolation instead of linear interpolation in the above paper. This
  53:STM32F10x_Speex_Lib/libspeex/resample.c ****    makes the table much smaller and makes it possible to compute that table
  54:STM32F10x_Speex_Lib/libspeex/resample.c ****    on a per-stream basis. In turn, being able to tweak the table for each 
  55:STM32F10x_Speex_Lib/libspeex/resample.c ****    stream makes it possible to both reduce complexity on simple ratios 
  56:STM32F10x_Speex_Lib/libspeex/resample.c ****    (e.g. 2/3), and get rid of the rounding operations in the inner loop. 
  57:STM32F10x_Speex_Lib/libspeex/resample.c ****    The latter both reduces CPU time and makes the algorithm more SIMD-friendly.
  58:STM32F10x_Speex_Lib/libspeex/resample.c **** */
  59:STM32F10x_Speex_Lib/libspeex/resample.c **** 
  60:STM32F10x_Speex_Lib/libspeex/resample.c **** // #ifdef HAVE_CONFIG_H
  61:STM32F10x_Speex_Lib/libspeex/resample.c **** #include "config.h"
  62:STM32F10x_Speex_Lib/libspeex/resample.c **** // #endif
  63:STM32F10x_Speex_Lib/libspeex/resample.c **** 
  64:STM32F10x_Speex_Lib/libspeex/resample.c **** #ifdef OUTSIDE_SPEEX
  65:STM32F10x_Speex_Lib/libspeex/resample.c **** #include <stdlib.h>
ARM GAS  /var/folders/kh/x4vltyy52lbg7p4pcyglc5080000gp/T//cc33Oc7n.s 			page 14


  66:STM32F10x_Speex_Lib/libspeex/resample.c **** static void *speex_alloc (int size) {return calloc(size,1);}
  67:STM32F10x_Speex_Lib/libspeex/resample.c **** static void *speex_realloc (void *ptr, int size) {return realloc(ptr, size);}
  68:STM32F10x_Speex_Lib/libspeex/resample.c **** static void speex_free (void *ptr) {free(ptr);}
  69:STM32F10x_Speex_Lib/libspeex/resample.c **** #include "speex_resampler.h"
  70:STM32F10x_Speex_Lib/libspeex/resample.c **** #include "arch.h"
  71:STM32F10x_Speex_Lib/libspeex/resample.c **** #else /* OUTSIDE_SPEEX */
  72:STM32F10x_Speex_Lib/libspeex/resample.c ****                
  73:STM32F10x_Speex_Lib/libspeex/resample.c **** #include "speex/speex_resampler.h"
  74:STM32F10x_Speex_Lib/libspeex/resample.c **** #include "arch.h"
  75:STM32F10x_Speex_Lib/libspeex/resample.c **** #include "os_support.h"
  76:STM32F10x_Speex_Lib/libspeex/resample.c **** #endif /* OUTSIDE_SPEEX */
  77:STM32F10x_Speex_Lib/libspeex/resample.c **** 
  78:STM32F10x_Speex_Lib/libspeex/resample.c **** #include "stack_alloc.h"
  79:STM32F10x_Speex_Lib/libspeex/resample.c **** #include <math.h>
  80:STM32F10x_Speex_Lib/libspeex/resample.c **** 
  81:STM32F10x_Speex_Lib/libspeex/resample.c **** #ifndef M_PI
  82:STM32F10x_Speex_Lib/libspeex/resample.c **** #define M_PI 3.14159263
  83:STM32F10x_Speex_Lib/libspeex/resample.c **** #endif
  84:STM32F10x_Speex_Lib/libspeex/resample.c **** 
  85:STM32F10x_Speex_Lib/libspeex/resample.c **** #ifdef FIXED_POINT
  86:STM32F10x_Speex_Lib/libspeex/resample.c **** #define WORD2INT(x) ((x) < -32767 ? -32768 : ((x) > 32766 ? 32767 : (x)))  
  87:STM32F10x_Speex_Lib/libspeex/resample.c **** #else
  88:STM32F10x_Speex_Lib/libspeex/resample.c **** #define WORD2INT(x) ((x) < -32767.5f ? -32768 : ((x) > 32766.5f ? 32767 : floor(.5+(x))))  
  89:STM32F10x_Speex_Lib/libspeex/resample.c **** #endif
  90:STM32F10x_Speex_Lib/libspeex/resample.c ****                
  91:STM32F10x_Speex_Lib/libspeex/resample.c **** #define IMAX(a,b) ((a) > (b) ? (a) : (b))
  92:STM32F10x_Speex_Lib/libspeex/resample.c **** #define IMIN(a,b) ((a) < (b) ? (a) : (b))
  93:STM32F10x_Speex_Lib/libspeex/resample.c **** 
  94:STM32F10x_Speex_Lib/libspeex/resample.c **** #ifndef NULL
  95:STM32F10x_Speex_Lib/libspeex/resample.c **** #define NULL 0
  96:STM32F10x_Speex_Lib/libspeex/resample.c **** #endif
  97:STM32F10x_Speex_Lib/libspeex/resample.c **** 
  98:STM32F10x_Speex_Lib/libspeex/resample.c **** #ifdef _USE_SSE
  99:STM32F10x_Speex_Lib/libspeex/resample.c **** #include "resample_sse.h"
 100:STM32F10x_Speex_Lib/libspeex/resample.c **** #endif
 101:STM32F10x_Speex_Lib/libspeex/resample.c **** 
 102:STM32F10x_Speex_Lib/libspeex/resample.c **** /* Numer of elements to allocate on the stack */
 103:STM32F10x_Speex_Lib/libspeex/resample.c **** #ifdef VAR_ARRAYS
 104:STM32F10x_Speex_Lib/libspeex/resample.c **** #define FIXED_STACK_ALLOC 8192
 105:STM32F10x_Speex_Lib/libspeex/resample.c **** #else
 106:STM32F10x_Speex_Lib/libspeex/resample.c **** #define FIXED_STACK_ALLOC 1024
 107:STM32F10x_Speex_Lib/libspeex/resample.c **** #endif
 108:STM32F10x_Speex_Lib/libspeex/resample.c **** 
 109:STM32F10x_Speex_Lib/libspeex/resample.c **** typedef int (*resampler_basic_func)(SpeexResamplerState *, spx_uint32_t , const spx_word16_t *, spx
 110:STM32F10x_Speex_Lib/libspeex/resample.c **** 
 111:STM32F10x_Speex_Lib/libspeex/resample.c **** struct SpeexResamplerState_ {
 112:STM32F10x_Speex_Lib/libspeex/resample.c ****    spx_uint32_t in_rate;
 113:STM32F10x_Speex_Lib/libspeex/resample.c ****    spx_uint32_t out_rate;
 114:STM32F10x_Speex_Lib/libspeex/resample.c ****    spx_uint32_t num_rate;
 115:STM32F10x_Speex_Lib/libspeex/resample.c ****    spx_uint32_t den_rate;
 116:STM32F10x_Speex_Lib/libspeex/resample.c ****    
 117:STM32F10x_Speex_Lib/libspeex/resample.c ****    int    quality;
 118:STM32F10x_Speex_Lib/libspeex/resample.c ****    spx_uint32_t nb_channels;
 119:STM32F10x_Speex_Lib/libspeex/resample.c ****    spx_uint32_t filt_len;
 120:STM32F10x_Speex_Lib/libspeex/resample.c ****    spx_uint32_t mem_alloc_size;
 121:STM32F10x_Speex_Lib/libspeex/resample.c ****    spx_uint32_t buffer_size;
 122:STM32F10x_Speex_Lib/libspeex/resample.c ****    int          int_advance;
ARM GAS  /var/folders/kh/x4vltyy52lbg7p4pcyglc5080000gp/T//cc33Oc7n.s 			page 15


 123:STM32F10x_Speex_Lib/libspeex/resample.c ****    int          frac_advance;
 124:STM32F10x_Speex_Lib/libspeex/resample.c ****    float  cutoff;
 125:STM32F10x_Speex_Lib/libspeex/resample.c ****    spx_uint32_t oversample;
 126:STM32F10x_Speex_Lib/libspeex/resample.c ****    int          initialised;
 127:STM32F10x_Speex_Lib/libspeex/resample.c ****    int          started;
 128:STM32F10x_Speex_Lib/libspeex/resample.c ****    
 129:STM32F10x_Speex_Lib/libspeex/resample.c ****    /* These are per-channel */
 130:STM32F10x_Speex_Lib/libspeex/resample.c ****    spx_int32_t  *last_sample;
 131:STM32F10x_Speex_Lib/libspeex/resample.c ****    spx_uint32_t *samp_frac_num;
 132:STM32F10x_Speex_Lib/libspeex/resample.c ****    spx_uint32_t *magic_samples;
 133:STM32F10x_Speex_Lib/libspeex/resample.c ****    
 134:STM32F10x_Speex_Lib/libspeex/resample.c ****    spx_word16_t *mem;
 135:STM32F10x_Speex_Lib/libspeex/resample.c ****    spx_word16_t *sinc_table;
 136:STM32F10x_Speex_Lib/libspeex/resample.c ****    spx_uint32_t sinc_table_length;
 137:STM32F10x_Speex_Lib/libspeex/resample.c ****    resampler_basic_func resampler_ptr;
 138:STM32F10x_Speex_Lib/libspeex/resample.c ****          
 139:STM32F10x_Speex_Lib/libspeex/resample.c ****    int    in_stride;
 140:STM32F10x_Speex_Lib/libspeex/resample.c ****    int    out_stride;
 141:STM32F10x_Speex_Lib/libspeex/resample.c **** } ;
 142:STM32F10x_Speex_Lib/libspeex/resample.c **** 
 143:STM32F10x_Speex_Lib/libspeex/resample.c **** static double kaiser12_table[68] = {
 144:STM32F10x_Speex_Lib/libspeex/resample.c ****    0.99859849, 1.00000000, 0.99859849, 0.99440475, 0.98745105, 0.97779076,
 145:STM32F10x_Speex_Lib/libspeex/resample.c ****    0.96549770, 0.95066529, 0.93340547, 0.91384741, 0.89213598, 0.86843014,
 146:STM32F10x_Speex_Lib/libspeex/resample.c ****    0.84290116, 0.81573067, 0.78710866, 0.75723148, 0.72629970, 0.69451601,
 147:STM32F10x_Speex_Lib/libspeex/resample.c ****    0.66208321, 0.62920216, 0.59606986, 0.56287762, 0.52980938, 0.49704014,
 148:STM32F10x_Speex_Lib/libspeex/resample.c ****    0.46473455, 0.43304576, 0.40211431, 0.37206735, 0.34301800, 0.31506490,
 149:STM32F10x_Speex_Lib/libspeex/resample.c ****    0.28829195, 0.26276832, 0.23854851, 0.21567274, 0.19416736, 0.17404546,
 150:STM32F10x_Speex_Lib/libspeex/resample.c ****    0.15530766, 0.13794294, 0.12192957, 0.10723616, 0.09382272, 0.08164178,
 151:STM32F10x_Speex_Lib/libspeex/resample.c ****    0.07063950, 0.06075685, 0.05193064, 0.04409466, 0.03718069, 0.03111947,
 152:STM32F10x_Speex_Lib/libspeex/resample.c ****    0.02584161, 0.02127838, 0.01736250, 0.01402878, 0.01121463, 0.00886058,
 153:STM32F10x_Speex_Lib/libspeex/resample.c ****    0.00691064, 0.00531256, 0.00401805, 0.00298291, 0.00216702, 0.00153438,
 154:STM32F10x_Speex_Lib/libspeex/resample.c ****    0.00105297, 0.00069463, 0.00043489, 0.00025272, 0.00013031, 0.0000527734,
 155:STM32F10x_Speex_Lib/libspeex/resample.c ****    0.00001000, 0.00000000};
 156:STM32F10x_Speex_Lib/libspeex/resample.c **** /*
 157:STM32F10x_Speex_Lib/libspeex/resample.c **** static double kaiser12_table[36] = {
 158:STM32F10x_Speex_Lib/libspeex/resample.c ****    0.99440475, 1.00000000, 0.99440475, 0.97779076, 0.95066529, 0.91384741,
 159:STM32F10x_Speex_Lib/libspeex/resample.c ****    0.86843014, 0.81573067, 0.75723148, 0.69451601, 0.62920216, 0.56287762,
 160:STM32F10x_Speex_Lib/libspeex/resample.c ****    0.49704014, 0.43304576, 0.37206735, 0.31506490, 0.26276832, 0.21567274,
 161:STM32F10x_Speex_Lib/libspeex/resample.c ****    0.17404546, 0.13794294, 0.10723616, 0.08164178, 0.06075685, 0.04409466,
 162:STM32F10x_Speex_Lib/libspeex/resample.c ****    0.03111947, 0.02127838, 0.01402878, 0.00886058, 0.00531256, 0.00298291,
 163:STM32F10x_Speex_Lib/libspeex/resample.c ****    0.00153438, 0.00069463, 0.00025272, 0.0000527734, 0.00000500, 0.00000000};
 164:STM32F10x_Speex_Lib/libspeex/resample.c **** */
 165:STM32F10x_Speex_Lib/libspeex/resample.c **** static double kaiser10_table[36] = {
 166:STM32F10x_Speex_Lib/libspeex/resample.c ****    0.99537781, 1.00000000, 0.99537781, 0.98162644, 0.95908712, 0.92831446,
 167:STM32F10x_Speex_Lib/libspeex/resample.c ****    0.89005583, 0.84522401, 0.79486424, 0.74011713, 0.68217934, 0.62226347,
 168:STM32F10x_Speex_Lib/libspeex/resample.c ****    0.56155915, 0.50119680, 0.44221549, 0.38553619, 0.33194107, 0.28205962,
 169:STM32F10x_Speex_Lib/libspeex/resample.c ****    0.23636152, 0.19515633, 0.15859932, 0.12670280, 0.09935205, 0.07632451,
 170:STM32F10x_Speex_Lib/libspeex/resample.c ****    0.05731132, 0.04193980, 0.02979584, 0.02044510, 0.01345224, 0.00839739,
 171:STM32F10x_Speex_Lib/libspeex/resample.c ****    0.00488951, 0.00257636, 0.00115101, 0.00035515, 0.00000000, 0.00000000};
 172:STM32F10x_Speex_Lib/libspeex/resample.c **** 
 173:STM32F10x_Speex_Lib/libspeex/resample.c **** static double kaiser8_table[36] = {
 174:STM32F10x_Speex_Lib/libspeex/resample.c ****    0.99635258, 1.00000000, 0.99635258, 0.98548012, 0.96759014, 0.94302200,
 175:STM32F10x_Speex_Lib/libspeex/resample.c ****    0.91223751, 0.87580811, 0.83439927, 0.78875245, 0.73966538, 0.68797126,
 176:STM32F10x_Speex_Lib/libspeex/resample.c ****    0.63451750, 0.58014482, 0.52566725, 0.47185369, 0.41941150, 0.36897272,
 177:STM32F10x_Speex_Lib/libspeex/resample.c ****    0.32108304, 0.27619388, 0.23465776, 0.19672670, 0.16255380, 0.13219758,
 178:STM32F10x_Speex_Lib/libspeex/resample.c ****    0.10562887, 0.08273982, 0.06335451, 0.04724088, 0.03412321, 0.02369490,
 179:STM32F10x_Speex_Lib/libspeex/resample.c ****    0.01563093, 0.00959968, 0.00527363, 0.00233883, 0.00050000, 0.00000000};
ARM GAS  /var/folders/kh/x4vltyy52lbg7p4pcyglc5080000gp/T//cc33Oc7n.s 			page 16


 180:STM32F10x_Speex_Lib/libspeex/resample.c ****    
 181:STM32F10x_Speex_Lib/libspeex/resample.c **** static double kaiser6_table[36] = {
 182:STM32F10x_Speex_Lib/libspeex/resample.c ****    0.99733006, 1.00000000, 0.99733006, 0.98935595, 0.97618418, 0.95799003,
 183:STM32F10x_Speex_Lib/libspeex/resample.c ****    0.93501423, 0.90755855, 0.87598009, 0.84068475, 0.80211977, 0.76076565,
 184:STM32F10x_Speex_Lib/libspeex/resample.c ****    0.71712752, 0.67172623, 0.62508937, 0.57774224, 0.53019925, 0.48295561,
 185:STM32F10x_Speex_Lib/libspeex/resample.c ****    0.43647969, 0.39120616, 0.34752997, 0.30580127, 0.26632152, 0.22934058,
 186:STM32F10x_Speex_Lib/libspeex/resample.c ****    0.19505503, 0.16360756, 0.13508755, 0.10953262, 0.08693120, 0.06722600,
 187:STM32F10x_Speex_Lib/libspeex/resample.c ****    0.05031820, 0.03607231, 0.02432151, 0.01487334, 0.00752000, 0.00000000};
 188:STM32F10x_Speex_Lib/libspeex/resample.c **** 
 189:STM32F10x_Speex_Lib/libspeex/resample.c **** struct FuncDef {
 190:STM32F10x_Speex_Lib/libspeex/resample.c ****    double *table;
 191:STM32F10x_Speex_Lib/libspeex/resample.c ****    int oversample;
 192:STM32F10x_Speex_Lib/libspeex/resample.c **** };
 193:STM32F10x_Speex_Lib/libspeex/resample.c ****       
 194:STM32F10x_Speex_Lib/libspeex/resample.c **** static struct FuncDef _KAISER12 = {kaiser12_table, 64};
 195:STM32F10x_Speex_Lib/libspeex/resample.c **** #define KAISER12 (&_KAISER12)
 196:STM32F10x_Speex_Lib/libspeex/resample.c **** /*static struct FuncDef _KAISER12 = {kaiser12_table, 32};
 197:STM32F10x_Speex_Lib/libspeex/resample.c **** #define KAISER12 (&_KAISER12)*/
 198:STM32F10x_Speex_Lib/libspeex/resample.c **** static struct FuncDef _KAISER10 = {kaiser10_table, 32};
 199:STM32F10x_Speex_Lib/libspeex/resample.c **** #define KAISER10 (&_KAISER10)
 200:STM32F10x_Speex_Lib/libspeex/resample.c **** static struct FuncDef _KAISER8 = {kaiser8_table, 32};
 201:STM32F10x_Speex_Lib/libspeex/resample.c **** #define KAISER8 (&_KAISER8)
 202:STM32F10x_Speex_Lib/libspeex/resample.c **** static struct FuncDef _KAISER6 = {kaiser6_table, 32};
 203:STM32F10x_Speex_Lib/libspeex/resample.c **** #define KAISER6 (&_KAISER6)
 204:STM32F10x_Speex_Lib/libspeex/resample.c **** 
 205:STM32F10x_Speex_Lib/libspeex/resample.c **** struct QualityMapping {
 206:STM32F10x_Speex_Lib/libspeex/resample.c ****    int base_length;
 207:STM32F10x_Speex_Lib/libspeex/resample.c ****    int oversample;
 208:STM32F10x_Speex_Lib/libspeex/resample.c ****    float downsample_bandwidth;
 209:STM32F10x_Speex_Lib/libspeex/resample.c ****    float upsample_bandwidth;
 210:STM32F10x_Speex_Lib/libspeex/resample.c ****    struct FuncDef *window_func;
 211:STM32F10x_Speex_Lib/libspeex/resample.c **** };
 212:STM32F10x_Speex_Lib/libspeex/resample.c **** 
 213:STM32F10x_Speex_Lib/libspeex/resample.c **** 
 214:STM32F10x_Speex_Lib/libspeex/resample.c **** /* This table maps conversion quality to internal parameters. There are two
 215:STM32F10x_Speex_Lib/libspeex/resample.c ****    reasons that explain why the up-sampling bandwidth is larger than the 
 216:STM32F10x_Speex_Lib/libspeex/resample.c ****    down-sampling bandwidth:
 217:STM32F10x_Speex_Lib/libspeex/resample.c ****    1) When up-sampling, we can assume that the spectrum is already attenuated
 218:STM32F10x_Speex_Lib/libspeex/resample.c ****       close to the Nyquist rate (from an A/D or a previous resampling filter)
 219:STM32F10x_Speex_Lib/libspeex/resample.c ****    2) Any aliasing that occurs very close to the Nyquist rate will be masked
 220:STM32F10x_Speex_Lib/libspeex/resample.c ****       by the sinusoids/noise just below the Nyquist rate (guaranteed only for
 221:STM32F10x_Speex_Lib/libspeex/resample.c ****       up-sampling).
 222:STM32F10x_Speex_Lib/libspeex/resample.c **** */
 223:STM32F10x_Speex_Lib/libspeex/resample.c **** static const struct QualityMapping quality_map[11] = {
 224:STM32F10x_Speex_Lib/libspeex/resample.c ****    {  8,  4, 0.830f, 0.860f, KAISER6 }, /* Q0 */
 225:STM32F10x_Speex_Lib/libspeex/resample.c ****    { 16,  4, 0.850f, 0.880f, KAISER6 }, /* Q1 */
 226:STM32F10x_Speex_Lib/libspeex/resample.c ****    { 32,  4, 0.882f, 0.910f, KAISER6 }, /* Q2 */  /* 82.3% cutoff ( ~60 dB stop) 6  */
 227:STM32F10x_Speex_Lib/libspeex/resample.c ****    { 48,  8, 0.895f, 0.917f, KAISER8 }, /* Q3 */  /* 84.9% cutoff ( ~80 dB stop) 8  */
 228:STM32F10x_Speex_Lib/libspeex/resample.c ****    { 64,  8, 0.921f, 0.940f, KAISER8 }, /* Q4 */  /* 88.7% cutoff ( ~80 dB stop) 8  */
 229:STM32F10x_Speex_Lib/libspeex/resample.c ****    { 80, 16, 0.922f, 0.940f, KAISER10}, /* Q5 */  /* 89.1% cutoff (~100 dB stop) 10 */
 230:STM32F10x_Speex_Lib/libspeex/resample.c ****    { 96, 16, 0.940f, 0.945f, KAISER10}, /* Q6 */  /* 91.5% cutoff (~100 dB stop) 10 */
 231:STM32F10x_Speex_Lib/libspeex/resample.c ****    {128, 16, 0.950f, 0.950f, KAISER10}, /* Q7 */  /* 93.1% cutoff (~100 dB stop) 10 */
 232:STM32F10x_Speex_Lib/libspeex/resample.c ****    {160, 16, 0.960f, 0.960f, KAISER10}, /* Q8 */  /* 94.5% cutoff (~100 dB stop) 10 */
 233:STM32F10x_Speex_Lib/libspeex/resample.c ****    {192, 32, 0.968f, 0.968f, KAISER12}, /* Q9 */  /* 95.5% cutoff (~100 dB stop) 10 */
 234:STM32F10x_Speex_Lib/libspeex/resample.c ****    {256, 32, 0.975f, 0.975f, KAISER12}, /* Q10 */ /* 96.6% cutoff (~100 dB stop) 10 */
 235:STM32F10x_Speex_Lib/libspeex/resample.c **** };
 236:STM32F10x_Speex_Lib/libspeex/resample.c **** /*8,24,40,56,80,104,128,160,200,256,320*/
ARM GAS  /var/folders/kh/x4vltyy52lbg7p4pcyglc5080000gp/T//cc33Oc7n.s 			page 17


 237:STM32F10x_Speex_Lib/libspeex/resample.c **** static double compute_func(float x, struct FuncDef *func)
 238:STM32F10x_Speex_Lib/libspeex/resample.c **** {
 620              		.loc 2 238 0
 621              		.cfi_startproc
 622              		@ args = 0, pretend = 0, frame = 56
 623              		@ frame_needed = 1, uses_anonymous_args = 0
 624 0000 F0B5     		push	{r4, r5, r6, r7, lr}
 625              	.LCFI15:
 626              		.cfi_def_cfa_offset 20
 627              		.cfi_offset 4, -20
 628              		.cfi_offset 5, -16
 629              		.cfi_offset 6, -12
 630              		.cfi_offset 7, -8
 631              		.cfi_offset 14, -4
 632 0002 8FB0     		sub	sp, sp, #60
 633              	.LCFI16:
 634              		.cfi_def_cfa_offset 80
 635 0004 00AF     		add	r7, sp, #0
 636              	.LCFI17:
 637              		.cfi_def_cfa_register 7
 638 0006 7860     		str	r0, [r7, #4]	@ float
 639 0008 3960     		str	r1, [r7]
 239:STM32F10x_Speex_Lib/libspeex/resample.c ****    float y, frac;
 240:STM32F10x_Speex_Lib/libspeex/resample.c ****    double interp[4];
 241:STM32F10x_Speex_Lib/libspeex/resample.c ****    int ind; 
 242:STM32F10x_Speex_Lib/libspeex/resample.c ****    y = x*func->oversample;
 640              		.loc 2 242 0
 641 000a 3B68     		ldr	r3, [r7]
 642 000c 5B68     		ldr	r3, [r3, #4]
 643 000e 1846     		mov	r0, r3
 644 0010 FFF7FEFF 		bl	__aeabi_i2f
 645 0014 0346     		mov	r3, r0
 646 0016 7968     		ldr	r1, [r7, #4]	@ float
 647 0018 1846     		mov	r0, r3
 648 001a FFF7FEFF 		bl	__aeabi_fmul
 649 001e 0346     		mov	r3, r0
 650 0020 7B63     		str	r3, [r7, #52]	@ float
 243:STM32F10x_Speex_Lib/libspeex/resample.c ****    ind = (int)floor(y);
 651              		.loc 2 243 0
 652 0022 786B     		ldr	r0, [r7, #52]	@ float
 653 0024 FFF7FEFF 		bl	__aeabi_f2d
 654 0028 0346     		mov	r3, r0
 655 002a 0C46     		mov	r4, r1
 656 002c 1846     		mov	r0, r3
 657 002e 2146     		mov	r1, r4
 658 0030 FFF7FEFF 		bl	floor
 659 0034 0346     		mov	r3, r0
 660 0036 0C46     		mov	r4, r1
 661 0038 1846     		mov	r0, r3
 662 003a 2146     		mov	r1, r4
 663 003c FFF7FEFF 		bl	__aeabi_d2iz
 664 0040 0346     		mov	r3, r0
 665 0042 3B63     		str	r3, [r7, #48]
 244:STM32F10x_Speex_Lib/libspeex/resample.c ****    frac = (y-ind);
 666              		.loc 2 244 0
 667 0044 386B     		ldr	r0, [r7, #48]
 668 0046 FFF7FEFF 		bl	__aeabi_i2f
ARM GAS  /var/folders/kh/x4vltyy52lbg7p4pcyglc5080000gp/T//cc33Oc7n.s 			page 18


 669 004a 0346     		mov	r3, r0
 670 004c 1946     		mov	r1, r3
 671 004e 786B     		ldr	r0, [r7, #52]	@ float
 672 0050 FFF7FEFF 		bl	__aeabi_fsub
 673 0054 0346     		mov	r3, r0
 674 0056 FB62     		str	r3, [r7, #44]	@ float
 245:STM32F10x_Speex_Lib/libspeex/resample.c ****    /* CSE with handle the repeated powers */
 246:STM32F10x_Speex_Lib/libspeex/resample.c ****    interp[3] =  -0.1666666667*frac + 0.1666666667*(frac*frac*frac);
 675              		.loc 2 246 0
 676 0058 F86A     		ldr	r0, [r7, #44]	@ float
 677 005a FFF7FEFF 		bl	__aeabi_f2d
 678 005e 8EA3     		adr	r3, .L8
 679 0060 D3E90023 		ldrd	r2, [r3]
 680 0064 FFF7FEFF 		bl	__aeabi_dmul
 681 0068 0346     		mov	r3, r0
 682 006a 0C46     		mov	r4, r1
 683 006c 2546     		mov	r5, r4
 684 006e 1C46     		mov	r4, r3
 685 0070 F96A     		ldr	r1, [r7, #44]	@ float
 686 0072 F86A     		ldr	r0, [r7, #44]	@ float
 687 0074 FFF7FEFF 		bl	__aeabi_fmul
 688 0078 0346     		mov	r3, r0
 689 007a F96A     		ldr	r1, [r7, #44]	@ float
 690 007c 1846     		mov	r0, r3
 691 007e FFF7FEFF 		bl	__aeabi_fmul
 692 0082 0346     		mov	r3, r0
 693 0084 1846     		mov	r0, r3
 694 0086 FFF7FEFF 		bl	__aeabi_f2d
 695 008a 85A3     		adr	r3, .L8+8
 696 008c D3E90023 		ldrd	r2, [r3]
 697 0090 FFF7FEFF 		bl	__aeabi_dmul
 698 0094 0246     		mov	r2, r0
 699 0096 0B46     		mov	r3, r1
 700 0098 2046     		mov	r0, r4
 701 009a 2946     		mov	r1, r5
 702 009c FFF7FEFF 		bl	__aeabi_dadd
 703 00a0 0346     		mov	r3, r0
 704 00a2 0C46     		mov	r4, r1
 705 00a4 C7E90834 		strd	r3, [r7, #32]
 247:STM32F10x_Speex_Lib/libspeex/resample.c ****    interp[2] = frac + 0.5*(frac*frac) - 0.5*(frac*frac*frac);
 706              		.loc 2 247 0
 707 00a8 F86A     		ldr	r0, [r7, #44]	@ float
 708 00aa FFF7FEFF 		bl	__aeabi_f2d
 709 00ae 0446     		mov	r4, r0
 710 00b0 0D46     		mov	r5, r1
 711 00b2 F96A     		ldr	r1, [r7, #44]	@ float
 712 00b4 F86A     		ldr	r0, [r7, #44]	@ float
 713 00b6 FFF7FEFF 		bl	__aeabi_fmul
 714 00ba 0346     		mov	r3, r0
 715 00bc 1846     		mov	r0, r3
 716 00be FFF7FEFF 		bl	__aeabi_f2d
 717 00c2 4FF00002 		mov	r2, #0
 718 00c6 7A4B     		ldr	r3, .L8+24
 719 00c8 FFF7FEFF 		bl	__aeabi_dmul
 720 00cc 0246     		mov	r2, r0
 721 00ce 0B46     		mov	r3, r1
 722 00d0 2046     		mov	r0, r4
ARM GAS  /var/folders/kh/x4vltyy52lbg7p4pcyglc5080000gp/T//cc33Oc7n.s 			page 19


 723 00d2 2946     		mov	r1, r5
 724 00d4 FFF7FEFF 		bl	__aeabi_dadd
 725 00d8 0346     		mov	r3, r0
 726 00da 0C46     		mov	r4, r1
 727 00dc 2546     		mov	r5, r4
 728 00de 1C46     		mov	r4, r3
 729 00e0 F96A     		ldr	r1, [r7, #44]	@ float
 730 00e2 F86A     		ldr	r0, [r7, #44]	@ float
 731 00e4 FFF7FEFF 		bl	__aeabi_fmul
 732 00e8 0346     		mov	r3, r0
 733 00ea F96A     		ldr	r1, [r7, #44]	@ float
 734 00ec 1846     		mov	r0, r3
 735 00ee FFF7FEFF 		bl	__aeabi_fmul
 736 00f2 0346     		mov	r3, r0
 737 00f4 1846     		mov	r0, r3
 738 00f6 FFF7FEFF 		bl	__aeabi_f2d
 739 00fa 4FF00002 		mov	r2, #0
 740 00fe 6C4B     		ldr	r3, .L8+24
 741 0100 FFF7FEFF 		bl	__aeabi_dmul
 742 0104 0246     		mov	r2, r0
 743 0106 0B46     		mov	r3, r1
 744 0108 2046     		mov	r0, r4
 745 010a 2946     		mov	r1, r5
 746 010c FFF7FEFF 		bl	__aeabi_dsub
 747 0110 0346     		mov	r3, r0
 748 0112 0C46     		mov	r4, r1
 749 0114 C7E90634 		strd	r3, [r7, #24]
 248:STM32F10x_Speex_Lib/libspeex/resample.c ****    /*interp[2] = 1.f - 0.5f*frac - frac*frac + 0.5f*frac*frac*frac;*/
 249:STM32F10x_Speex_Lib/libspeex/resample.c ****    interp[0] = -0.3333333333*frac + 0.5*(frac*frac) - 0.1666666667*(frac*frac*frac);
 750              		.loc 2 249 0
 751 0118 F86A     		ldr	r0, [r7, #44]	@ float
 752 011a FFF7FEFF 		bl	__aeabi_f2d
 753 011e 62A3     		adr	r3, .L8+16
 754 0120 D3E90023 		ldrd	r2, [r3]
 755 0124 FFF7FEFF 		bl	__aeabi_dmul
 756 0128 0346     		mov	r3, r0
 757 012a 0C46     		mov	r4, r1
 758 012c 2546     		mov	r5, r4
 759 012e 1C46     		mov	r4, r3
 760 0130 F96A     		ldr	r1, [r7, #44]	@ float
 761 0132 F86A     		ldr	r0, [r7, #44]	@ float
 762 0134 FFF7FEFF 		bl	__aeabi_fmul
 763 0138 0346     		mov	r3, r0
 764 013a 1846     		mov	r0, r3
 765 013c FFF7FEFF 		bl	__aeabi_f2d
 766 0140 4FF00002 		mov	r2, #0
 767 0144 5A4B     		ldr	r3, .L8+24
 768 0146 FFF7FEFF 		bl	__aeabi_dmul
 769 014a 0246     		mov	r2, r0
 770 014c 0B46     		mov	r3, r1
 771 014e 2046     		mov	r0, r4
 772 0150 2946     		mov	r1, r5
 773 0152 FFF7FEFF 		bl	__aeabi_dadd
 774 0156 0346     		mov	r3, r0
 775 0158 0C46     		mov	r4, r1
 776 015a 2546     		mov	r5, r4
 777 015c 1C46     		mov	r4, r3
ARM GAS  /var/folders/kh/x4vltyy52lbg7p4pcyglc5080000gp/T//cc33Oc7n.s 			page 20


 778 015e F96A     		ldr	r1, [r7, #44]	@ float
 779 0160 F86A     		ldr	r0, [r7, #44]	@ float
 780 0162 FFF7FEFF 		bl	__aeabi_fmul
 781 0166 0346     		mov	r3, r0
 782 0168 F96A     		ldr	r1, [r7, #44]	@ float
 783 016a 1846     		mov	r0, r3
 784 016c FFF7FEFF 		bl	__aeabi_fmul
 785 0170 0346     		mov	r3, r0
 786 0172 1846     		mov	r0, r3
 787 0174 FFF7FEFF 		bl	__aeabi_f2d
 788 0178 49A3     		adr	r3, .L8+8
 789 017a D3E90023 		ldrd	r2, [r3]
 790 017e FFF7FEFF 		bl	__aeabi_dmul
 791 0182 0246     		mov	r2, r0
 792 0184 0B46     		mov	r3, r1
 793 0186 2046     		mov	r0, r4
 794 0188 2946     		mov	r1, r5
 795 018a FFF7FEFF 		bl	__aeabi_dsub
 796 018e 0346     		mov	r3, r0
 797 0190 0C46     		mov	r4, r1
 798 0192 C7E90234 		strd	r3, [r7, #8]
 250:STM32F10x_Speex_Lib/libspeex/resample.c ****    /* Just to make sure we don't have rounding problems */
 251:STM32F10x_Speex_Lib/libspeex/resample.c ****    interp[1] = 1.f-interp[3]-interp[2]-interp[0];
 799              		.loc 2 251 0
 800 0196 D7E90834 		ldrd	r3, [r7, #32]
 801 019a 1A46     		mov	r2, r3
 802 019c 2346     		mov	r3, r4
 803 019e 4FF00000 		mov	r0, #0
 804 01a2 4449     		ldr	r1, .L8+28
 805 01a4 FFF7FEFF 		bl	__aeabi_dsub
 806 01a8 0346     		mov	r3, r0
 807 01aa 0C46     		mov	r4, r1
 808 01ac 1846     		mov	r0, r3
 809 01ae 2146     		mov	r1, r4
 810 01b0 D7E90634 		ldrd	r3, [r7, #24]
 811 01b4 1A46     		mov	r2, r3
 812 01b6 2346     		mov	r3, r4
 813 01b8 FFF7FEFF 		bl	__aeabi_dsub
 814 01bc 0346     		mov	r3, r0
 815 01be 0C46     		mov	r4, r1
 816 01c0 1846     		mov	r0, r3
 817 01c2 2146     		mov	r1, r4
 818 01c4 D7E90234 		ldrd	r3, [r7, #8]
 819 01c8 1A46     		mov	r2, r3
 820 01ca 2346     		mov	r3, r4
 821 01cc FFF7FEFF 		bl	__aeabi_dsub
 822 01d0 0346     		mov	r3, r0
 823 01d2 0C46     		mov	r4, r1
 824 01d4 C7E90434 		strd	r3, [r7, #16]
 252:STM32F10x_Speex_Lib/libspeex/resample.c ****    
 253:STM32F10x_Speex_Lib/libspeex/resample.c ****    /*sum = frac*accum[1] + (1-frac)*accum[2];*/
 254:STM32F10x_Speex_Lib/libspeex/resample.c ****    return interp[0]*func->table[ind] + interp[1]*func->table[ind+1] + interp[2]*func->table[ind+2] 
 825              		.loc 2 254 0
 826 01d8 D7E90201 		ldrd	r0, [r7, #8]
 827 01dc 3B68     		ldr	r3, [r7]
 828 01de 1A68     		ldr	r2, [r3]
 829 01e0 3B6B     		ldr	r3, [r7, #48]
ARM GAS  /var/folders/kh/x4vltyy52lbg7p4pcyglc5080000gp/T//cc33Oc7n.s 			page 21


 830 01e2 DB00     		lsls	r3, r3, #3
 831 01e4 1344     		add	r3, r3, r2
 832 01e6 18CB     		ldmia	r3, {r3-r4}
 833 01e8 1A46     		mov	r2, r3
 834 01ea 2346     		mov	r3, r4
 835 01ec FFF7FEFF 		bl	__aeabi_dmul
 836 01f0 0346     		mov	r3, r0
 837 01f2 0C46     		mov	r4, r1
 838 01f4 1D46     		mov	r5, r3
 839 01f6 2646     		mov	r6, r4
 840 01f8 D7E90401 		ldrd	r0, [r7, #16]
 841 01fc 3B68     		ldr	r3, [r7]
 842 01fe 1A68     		ldr	r2, [r3]
 843 0200 3B6B     		ldr	r3, [r7, #48]
 844 0202 0133     		adds	r3, r3, #1
 845 0204 DB00     		lsls	r3, r3, #3
 846 0206 1344     		add	r3, r3, r2
 847 0208 18CB     		ldmia	r3, {r3-r4}
 848 020a 1A46     		mov	r2, r3
 849 020c 2346     		mov	r3, r4
 850 020e FFF7FEFF 		bl	__aeabi_dmul
 851 0212 0346     		mov	r3, r0
 852 0214 0C46     		mov	r4, r1
 853 0216 1A46     		mov	r2, r3
 854 0218 2346     		mov	r3, r4
 855 021a 2846     		mov	r0, r5
 856 021c 3146     		mov	r1, r6
 857 021e FFF7FEFF 		bl	__aeabi_dadd
 858 0222 0346     		mov	r3, r0
 859 0224 0C46     		mov	r4, r1
 860 0226 1D46     		mov	r5, r3
 861 0228 2646     		mov	r6, r4
 862 022a D7E90601 		ldrd	r0, [r7, #24]
 863 022e 3B68     		ldr	r3, [r7]
 864 0230 1A68     		ldr	r2, [r3]
 865 0232 3B6B     		ldr	r3, [r7, #48]
 866 0234 0233     		adds	r3, r3, #2
 867 0236 DB00     		lsls	r3, r3, #3
 868 0238 1344     		add	r3, r3, r2
 869 023a 18CB     		ldmia	r3, {r3-r4}
 870 023c 1A46     		mov	r2, r3
 871 023e 2346     		mov	r3, r4
 872 0240 FFF7FEFF 		bl	__aeabi_dmul
 873 0244 0346     		mov	r3, r0
 874 0246 0C46     		mov	r4, r1
 875 0248 1A46     		mov	r2, r3
 876 024a 2346     		mov	r3, r4
 877 024c 2846     		mov	r0, r5
 878 024e 3146     		mov	r1, r6
 879 0250 FFF7FEFF 		bl	__aeabi_dadd
 880 0254 0346     		mov	r3, r0
 881 0256 0C46     		mov	r4, r1
 882 0258 1D46     		mov	r5, r3
 883 025a 2646     		mov	r6, r4
 884 025c D7E90801 		ldrd	r0, [r7, #32]
 885 0260 3B68     		ldr	r3, [r7]
 886 0262 1A68     		ldr	r2, [r3]
ARM GAS  /var/folders/kh/x4vltyy52lbg7p4pcyglc5080000gp/T//cc33Oc7n.s 			page 22


 887 0264 3B6B     		ldr	r3, [r7, #48]
 888 0266 0333     		adds	r3, r3, #3
 889 0268 DB00     		lsls	r3, r3, #3
 890 026a 1344     		add	r3, r3, r2
 891 026c 18CB     		ldmia	r3, {r3-r4}
 892 026e 1A46     		mov	r2, r3
 893 0270 2346     		mov	r3, r4
 894 0272 FFF7FEFF 		bl	__aeabi_dmul
 895 0276 0346     		mov	r3, r0
 896 0278 0C46     		mov	r4, r1
 897 027a 1A46     		mov	r2, r3
 898 027c 2346     		mov	r3, r4
 899 027e 2846     		mov	r0, r5
 900 0280 3146     		mov	r1, r6
 901 0282 FFF7FEFF 		bl	__aeabi_dadd
 902 0286 0346     		mov	r3, r0
 903 0288 0C46     		mov	r4, r1
 255:STM32F10x_Speex_Lib/libspeex/resample.c **** }
 904              		.loc 2 255 0
 905 028a 1846     		mov	r0, r3
 906 028c 2146     		mov	r1, r4
 907 028e 3C37     		adds	r7, r7, #60
 908              	.LCFI18:
 909              		.cfi_def_cfa_offset 20
 910 0290 BD46     		mov	sp, r7
 911              	.LCFI19:
 912              		.cfi_def_cfa_register 13
 913              		@ sp needed
 914 0292 F0BD     		pop	{r4, r5, r6, r7, pc}
 915              	.L9:
 916 0294 AFF30080 		.align	3
 917              	.L8:
 918 0298 95A86755 		.word	1432856725
 919 029c 5555C5BF 		.word	-1077586603
 920 02a0 95A86755 		.word	1432856725
 921 02a4 5555C53F 		.word	1069897045
 922 02a8 B52B4C55 		.word	1431055285
 923 02ac 5555D5BF 		.word	-1076538027
 924 02b0 0000E03F 		.word	1071644672
 925 02b4 0000F03F 		.word	1072693248
 926              		.cfi_endproc
 927              	.LFE9:
 929              		.global	__aeabi_fcmplt
 930              		.global	__aeabi_dcmplt
 931              		.global	__aeabi_dcmpgt
 932              		.global	__aeabi_fcmpgt
 933              		.global	__aeabi_ddiv
 934              		.global	__aeabi_i2d
 935              		.global	__aeabi_d2f
 936              		.section	.text.sinc,"ax",%progbits
 937              		.align	2
 938              		.thumb
 939              		.thumb_func
 941              	sinc:
 942              	.LFB10:
 256:STM32F10x_Speex_Lib/libspeex/resample.c **** 
 257:STM32F10x_Speex_Lib/libspeex/resample.c **** #if 0
ARM GAS  /var/folders/kh/x4vltyy52lbg7p4pcyglc5080000gp/T//cc33Oc7n.s 			page 23


 258:STM32F10x_Speex_Lib/libspeex/resample.c **** #include <stdio.h>
 259:STM32F10x_Speex_Lib/libspeex/resample.c **** int main(int argc, char **argv)
 260:STM32F10x_Speex_Lib/libspeex/resample.c **** {
 261:STM32F10x_Speex_Lib/libspeex/resample.c ****    int i;
 262:STM32F10x_Speex_Lib/libspeex/resample.c ****    for (i=0;i<256;i++)
 263:STM32F10x_Speex_Lib/libspeex/resample.c ****    {
 264:STM32F10x_Speex_Lib/libspeex/resample.c ****       printf ("%f\n", compute_func(i/256., KAISER12));
 265:STM32F10x_Speex_Lib/libspeex/resample.c ****    }
 266:STM32F10x_Speex_Lib/libspeex/resample.c ****    return 0;
 267:STM32F10x_Speex_Lib/libspeex/resample.c **** }
 268:STM32F10x_Speex_Lib/libspeex/resample.c **** #endif
 269:STM32F10x_Speex_Lib/libspeex/resample.c **** 
 270:STM32F10x_Speex_Lib/libspeex/resample.c **** #ifdef FIXED_POINT
 271:STM32F10x_Speex_Lib/libspeex/resample.c **** /* The slow way of computing a sinc for the table. Should improve that some day */
 272:STM32F10x_Speex_Lib/libspeex/resample.c **** static spx_word16_t sinc(float cutoff, float x, int N, struct FuncDef *window_func)
 273:STM32F10x_Speex_Lib/libspeex/resample.c **** {
 943              		.loc 2 273 0
 944              		.cfi_startproc
 945              		@ args = 0, pretend = 0, frame = 24
 946              		@ frame_needed = 1, uses_anonymous_args = 0
 947 0000 2DE9B043 		push	{r4, r5, r7, r8, r9, lr}
 948              	.LCFI20:
 949              		.cfi_def_cfa_offset 24
 950              		.cfi_offset 4, -24
 951              		.cfi_offset 5, -20
 952              		.cfi_offset 7, -16
 953              		.cfi_offset 8, -12
 954              		.cfi_offset 9, -8
 955              		.cfi_offset 14, -4
 956 0004 86B0     		sub	sp, sp, #24
 957              	.LCFI21:
 958              		.cfi_def_cfa_offset 48
 959 0006 00AF     		add	r7, sp, #0
 960              	.LCFI22:
 961              		.cfi_def_cfa_register 7
 962 0008 F860     		str	r0, [r7, #12]	@ float
 963 000a B960     		str	r1, [r7, #8]	@ float
 964 000c 7A60     		str	r2, [r7, #4]
 965 000e 3B60     		str	r3, [r7]
 274:STM32F10x_Speex_Lib/libspeex/resample.c ****    /*fprintf (stderr, "%f ", x);*/
 275:STM32F10x_Speex_Lib/libspeex/resample.c ****    float xx = x * cutoff;
 966              		.loc 2 275 0
 967 0010 F968     		ldr	r1, [r7, #12]	@ float
 968 0012 B868     		ldr	r0, [r7, #8]	@ float
 969 0014 FFF7FEFF 		bl	__aeabi_fmul
 970 0018 0346     		mov	r3, r0
 971 001a 7B61     		str	r3, [r7, #20]	@ float
 276:STM32F10x_Speex_Lib/libspeex/resample.c ****    if (fabs(x)<1e-6f)
 972              		.loc 2 276 0
 973 001c BB68     		ldr	r3, [r7, #8]
 974 001e 23F00043 		bic	r3, r3, #-2147483648
 975 0022 D549     		ldr	r1, .L40+24
 976 0024 1846     		mov	r0, r3
 977 0026 FFF7FEFF 		bl	__aeabi_fcmplt
 978 002a 0346     		mov	r3, r0
 979 002c 002B     		cmp	r3, #0
 980 002e 3DD0     		beq	.L34
ARM GAS  /var/folders/kh/x4vltyy52lbg7p4pcyglc5080000gp/T//cc33Oc7n.s 			page 24


 277:STM32F10x_Speex_Lib/libspeex/resample.c ****       return WORD2INT(32768.*cutoff);
 981              		.loc 2 277 0
 982 0030 F868     		ldr	r0, [r7, #12]	@ float
 983 0032 FFF7FEFF 		bl	__aeabi_f2d
 984 0036 4FF00002 		mov	r2, #0
 985 003a D04B     		ldr	r3, .L40+28
 986 003c FFF7FEFF 		bl	__aeabi_dmul
 987 0040 0346     		mov	r3, r0
 988 0042 0C46     		mov	r4, r1
 989 0044 1846     		mov	r0, r3
 990 0046 2146     		mov	r1, r4
 991 0048 C5A3     		adr	r3, .L40
 992 004a D3E90023 		ldrd	r2, [r3]
 993 004e FFF7FEFF 		bl	__aeabi_dcmplt
 994 0052 0346     		mov	r3, r0
 995 0054 002B     		cmp	r3, #0
 996 0056 01D0     		beq	.L35
 997              		.loc 2 277 0 is_stmt 0 discriminator 1
 998 0058 C94B     		ldr	r3, .L40+32
 999 005a 79E1     		b	.L19
 1000              	.L35:
 1001              		.loc 2 277 0 discriminator 2
 1002 005c F868     		ldr	r0, [r7, #12]	@ float
 1003 005e FFF7FEFF 		bl	__aeabi_f2d
 1004 0062 4FF00002 		mov	r2, #0
 1005 0066 C54B     		ldr	r3, .L40+28
 1006 0068 FFF7FEFF 		bl	__aeabi_dmul
 1007 006c 0346     		mov	r3, r0
 1008 006e 0C46     		mov	r4, r1
 1009 0070 1846     		mov	r0, r3
 1010 0072 2146     		mov	r1, r4
 1011 0074 BCA3     		adr	r3, .L40+8
 1012 0076 D3E90023 		ldrd	r2, [r3]
 1013 007a FFF7FEFF 		bl	__aeabi_dcmpgt
 1014 007e 0346     		mov	r3, r0
 1015 0080 002B     		cmp	r3, #0
 1016 0082 02D0     		beq	.L36
 1017              		.loc 2 277 0 discriminator 4
 1018 0084 47F6FF73 		movw	r3, #32767
 1019 0088 62E1     		b	.L19
 1020              	.L36:
 1021              		.loc 2 277 0 discriminator 5
 1022 008a F868     		ldr	r0, [r7, #12]	@ float
 1023 008c FFF7FEFF 		bl	__aeabi_f2d
 1024 0090 4FF00002 		mov	r2, #0
 1025 0094 B94B     		ldr	r3, .L40+28
 1026 0096 FFF7FEFF 		bl	__aeabi_dmul
 1027 009a 0346     		mov	r3, r0
 1028 009c 0C46     		mov	r4, r1
 1029 009e 1846     		mov	r0, r3
 1030 00a0 2146     		mov	r1, r4
 1031 00a2 FFF7FEFF 		bl	__aeabi_d2iz
 1032 00a6 0346     		mov	r3, r0
 1033 00a8 1BB2     		sxth	r3, r3
 1034 00aa 51E1     		b	.L19
 1035              	.L34:
 278:STM32F10x_Speex_Lib/libspeex/resample.c ****    else if (fabs(x) > .5f*N)
ARM GAS  /var/folders/kh/x4vltyy52lbg7p4pcyglc5080000gp/T//cc33Oc7n.s 			page 25


 1036              		.loc 2 278 0 is_stmt 1
 1037 00ac BB68     		ldr	r3, [r7, #8]
 1038 00ae 23F00044 		bic	r4, r3, #-2147483648
 1039 00b2 7868     		ldr	r0, [r7, #4]
 1040 00b4 FFF7FEFF 		bl	__aeabi_i2f
 1041 00b8 0346     		mov	r3, r0
 1042 00ba 4FF07C51 		mov	r1, #1056964608
 1043 00be 1846     		mov	r0, r3
 1044 00c0 FFF7FEFF 		bl	__aeabi_fmul
 1045 00c4 0346     		mov	r3, r0
 1046 00c6 1946     		mov	r1, r3
 1047 00c8 2046     		mov	r0, r4
 1048 00ca FFF7FEFF 		bl	__aeabi_fcmpgt
 1049 00ce 0346     		mov	r3, r0
 1050 00d0 002B     		cmp	r3, #0
 1051 00d2 01D0     		beq	.L37
 279:STM32F10x_Speex_Lib/libspeex/resample.c ****       return 0;
 1052              		.loc 2 279 0
 1053 00d4 0023     		movs	r3, #0
 1054 00d6 3BE1     		b	.L19
 1055              	.L37:
 280:STM32F10x_Speex_Lib/libspeex/resample.c ****    /*FIXME: Can it really be any slower than this? */
 281:STM32F10x_Speex_Lib/libspeex/resample.c ****    return WORD2INT(32768.*cutoff*sin(M_PI*xx)/(M_PI*xx) * compute_func(fabs(2.*x/N), window_func));
 1056              		.loc 2 281 0
 1057 00d8 F868     		ldr	r0, [r7, #12]	@ float
 1058 00da FFF7FEFF 		bl	__aeabi_f2d
 1059 00de 4FF00002 		mov	r2, #0
 1060 00e2 A64B     		ldr	r3, .L40+28
 1061 00e4 FFF7FEFF 		bl	__aeabi_dmul
 1062 00e8 0346     		mov	r3, r0
 1063 00ea 0C46     		mov	r4, r1
 1064 00ec 2546     		mov	r5, r4
 1065 00ee 1C46     		mov	r4, r3
 1066 00f0 7869     		ldr	r0, [r7, #20]	@ float
 1067 00f2 FFF7FEFF 		bl	__aeabi_f2d
 1068 00f6 9EA3     		adr	r3, .L40+16
 1069 00f8 D3E90023 		ldrd	r2, [r3]
 1070 00fc FFF7FEFF 		bl	__aeabi_dmul
 1071 0100 0246     		mov	r2, r0
 1072 0102 0B46     		mov	r3, r1
 1073 0104 1046     		mov	r0, r2
 1074 0106 1946     		mov	r1, r3
 1075 0108 FFF7FEFF 		bl	sin
 1076 010c 0246     		mov	r2, r0
 1077 010e 0B46     		mov	r3, r1
 1078 0110 2046     		mov	r0, r4
 1079 0112 2946     		mov	r1, r5
 1080 0114 FFF7FEFF 		bl	__aeabi_dmul
 1081 0118 0346     		mov	r3, r0
 1082 011a 0C46     		mov	r4, r1
 1083 011c 2546     		mov	r5, r4
 1084 011e 1C46     		mov	r4, r3
 1085 0120 7869     		ldr	r0, [r7, #20]	@ float
 1086 0122 FFF7FEFF 		bl	__aeabi_f2d
 1087 0126 92A3     		adr	r3, .L40+16
 1088 0128 D3E90023 		ldrd	r2, [r3]
 1089 012c FFF7FEFF 		bl	__aeabi_dmul
ARM GAS  /var/folders/kh/x4vltyy52lbg7p4pcyglc5080000gp/T//cc33Oc7n.s 			page 26


 1090 0130 0246     		mov	r2, r0
 1091 0132 0B46     		mov	r3, r1
 1092 0134 2046     		mov	r0, r4
 1093 0136 2946     		mov	r1, r5
 1094 0138 FFF7FEFF 		bl	__aeabi_ddiv
 1095 013c 0346     		mov	r3, r0
 1096 013e 0C46     		mov	r4, r1
 1097 0140 2546     		mov	r5, r4
 1098 0142 1C46     		mov	r4, r3
 1099 0144 B868     		ldr	r0, [r7, #8]	@ float
 1100 0146 FFF7FEFF 		bl	__aeabi_f2d
 1101 014a 0246     		mov	r2, r0
 1102 014c 0B46     		mov	r3, r1
 1103 014e FFF7FEFF 		bl	__aeabi_dadd
 1104 0152 0246     		mov	r2, r0
 1105 0154 0B46     		mov	r3, r1
 1106 0156 9046     		mov	r8, r2
 1107 0158 9946     		mov	r9, r3
 1108 015a 7868     		ldr	r0, [r7, #4]
 1109 015c FFF7FEFF 		bl	__aeabi_i2d
 1110 0160 0246     		mov	r2, r0
 1111 0162 0B46     		mov	r3, r1
 1112 0164 4046     		mov	r0, r8
 1113 0166 4946     		mov	r1, r9
 1114 0168 FFF7FEFF 		bl	__aeabi_ddiv
 1115 016c 0246     		mov	r2, r0
 1116 016e 0B46     		mov	r3, r1
 1117 0170 1046     		mov	r0, r2
 1118 0172 1946     		mov	r1, r3
 1119 0174 FFF7FEFF 		bl	__aeabi_d2f
 1120 0178 0346     		mov	r3, r0
 1121 017a 23F00043 		bic	r3, r3, #-2147483648
 1122 017e 3968     		ldr	r1, [r7]
 1123 0180 1846     		mov	r0, r3
 1124 0182 FFF7FEFF 		bl	compute_func
 1125 0186 0246     		mov	r2, r0
 1126 0188 0B46     		mov	r3, r1
 1127 018a 2046     		mov	r0, r4
 1128 018c 2946     		mov	r1, r5
 1129 018e FFF7FEFF 		bl	__aeabi_dmul
 1130 0192 0346     		mov	r3, r0
 1131 0194 0C46     		mov	r4, r1
 1132 0196 1846     		mov	r0, r3
 1133 0198 2146     		mov	r1, r4
 1134 019a 71A3     		adr	r3, .L40
 1135 019c D3E90023 		ldrd	r2, [r3]
 1136 01a0 FFF7FEFF 		bl	__aeabi_dcmplt
 1137 01a4 0346     		mov	r3, r0
 1138 01a6 002B     		cmp	r3, #0
 1139 01a8 01D0     		beq	.L38
 1140              		.loc 2 281 0 is_stmt 0 discriminator 1
 1141 01aa 754B     		ldr	r3, .L40+32
 1142 01ac D0E0     		b	.L19
 1143              	.L38:
 1144              		.loc 2 281 0 discriminator 2
 1145 01ae F868     		ldr	r0, [r7, #12]	@ float
 1146 01b0 FFF7FEFF 		bl	__aeabi_f2d
ARM GAS  /var/folders/kh/x4vltyy52lbg7p4pcyglc5080000gp/T//cc33Oc7n.s 			page 27


 1147 01b4 4FF00002 		mov	r2, #0
 1148 01b8 704B     		ldr	r3, .L40+28
 1149 01ba FFF7FEFF 		bl	__aeabi_dmul
 1150 01be 0346     		mov	r3, r0
 1151 01c0 0C46     		mov	r4, r1
 1152 01c2 2546     		mov	r5, r4
 1153 01c4 1C46     		mov	r4, r3
 1154 01c6 7869     		ldr	r0, [r7, #20]	@ float
 1155 01c8 FFF7FEFF 		bl	__aeabi_f2d
 1156 01cc 68A3     		adr	r3, .L40+16
 1157 01ce D3E90023 		ldrd	r2, [r3]
 1158 01d2 FFF7FEFF 		bl	__aeabi_dmul
 1159 01d6 0246     		mov	r2, r0
 1160 01d8 0B46     		mov	r3, r1
 1161 01da 1046     		mov	r0, r2
 1162 01dc 1946     		mov	r1, r3
 1163 01de FFF7FEFF 		bl	sin
 1164 01e2 0246     		mov	r2, r0
 1165 01e4 0B46     		mov	r3, r1
 1166 01e6 2046     		mov	r0, r4
 1167 01e8 2946     		mov	r1, r5
 1168 01ea FFF7FEFF 		bl	__aeabi_dmul
 1169 01ee 0346     		mov	r3, r0
 1170 01f0 0C46     		mov	r4, r1
 1171 01f2 2546     		mov	r5, r4
 1172 01f4 1C46     		mov	r4, r3
 1173 01f6 7869     		ldr	r0, [r7, #20]	@ float
 1174 01f8 FFF7FEFF 		bl	__aeabi_f2d
 1175 01fc 5CA3     		adr	r3, .L40+16
 1176 01fe D3E90023 		ldrd	r2, [r3]
 1177 0202 FFF7FEFF 		bl	__aeabi_dmul
 1178 0206 0246     		mov	r2, r0
 1179 0208 0B46     		mov	r3, r1
 1180 020a 2046     		mov	r0, r4
 1181 020c 2946     		mov	r1, r5
 1182 020e FFF7FEFF 		bl	__aeabi_ddiv
 1183 0212 0346     		mov	r3, r0
 1184 0214 0C46     		mov	r4, r1
 1185 0216 2546     		mov	r5, r4
 1186 0218 1C46     		mov	r4, r3
 1187 021a B868     		ldr	r0, [r7, #8]	@ float
 1188 021c FFF7FEFF 		bl	__aeabi_f2d
 1189 0220 0246     		mov	r2, r0
 1190 0222 0B46     		mov	r3, r1
 1191 0224 FFF7FEFF 		bl	__aeabi_dadd
 1192 0228 0246     		mov	r2, r0
 1193 022a 0B46     		mov	r3, r1
 1194 022c 9046     		mov	r8, r2
 1195 022e 9946     		mov	r9, r3
 1196 0230 7868     		ldr	r0, [r7, #4]
 1197 0232 FFF7FEFF 		bl	__aeabi_i2d
 1198 0236 0246     		mov	r2, r0
 1199 0238 0B46     		mov	r3, r1
 1200 023a 4046     		mov	r0, r8
 1201 023c 4946     		mov	r1, r9
 1202 023e FFF7FEFF 		bl	__aeabi_ddiv
 1203 0242 0246     		mov	r2, r0
ARM GAS  /var/folders/kh/x4vltyy52lbg7p4pcyglc5080000gp/T//cc33Oc7n.s 			page 28


 1204 0244 0B46     		mov	r3, r1
 1205 0246 1046     		mov	r0, r2
 1206 0248 1946     		mov	r1, r3
 1207 024a FFF7FEFF 		bl	__aeabi_d2f
 1208 024e 0346     		mov	r3, r0
 1209 0250 23F00043 		bic	r3, r3, #-2147483648
 1210 0254 3968     		ldr	r1, [r7]
 1211 0256 1846     		mov	r0, r3
 1212 0258 FFF7FEFF 		bl	compute_func
 1213 025c 0246     		mov	r2, r0
 1214 025e 0B46     		mov	r3, r1
 1215 0260 2046     		mov	r0, r4
 1216 0262 2946     		mov	r1, r5
 1217 0264 FFF7FEFF 		bl	__aeabi_dmul
 1218 0268 0346     		mov	r3, r0
 1219 026a 0C46     		mov	r4, r1
 1220 026c 1846     		mov	r0, r3
 1221 026e 2146     		mov	r1, r4
 1222 0270 3DA3     		adr	r3, .L40+8
 1223 0272 D3E90023 		ldrd	r2, [r3]
 1224 0276 FFF7FEFF 		bl	__aeabi_dcmpgt
 1225 027a 0346     		mov	r3, r0
 1226 027c 002B     		cmp	r3, #0
 1227 027e 02D0     		beq	.L39
 1228              		.loc 2 281 0 discriminator 4
 1229 0280 47F6FF73 		movw	r3, #32767
 1230 0284 64E0     		b	.L19
 1231              	.L39:
 1232              		.loc 2 281 0 discriminator 5
 1233 0286 F868     		ldr	r0, [r7, #12]	@ float
 1234 0288 FFF7FEFF 		bl	__aeabi_f2d
 1235 028c 4FF00002 		mov	r2, #0
 1236 0290 3A4B     		ldr	r3, .L40+28
 1237 0292 FFF7FEFF 		bl	__aeabi_dmul
 1238 0296 0346     		mov	r3, r0
 1239 0298 0C46     		mov	r4, r1
 1240 029a 2546     		mov	r5, r4
 1241 029c 1C46     		mov	r4, r3
 1242 029e 7869     		ldr	r0, [r7, #20]	@ float
 1243 02a0 FFF7FEFF 		bl	__aeabi_f2d
 1244 02a4 32A3     		adr	r3, .L40+16
 1245 02a6 D3E90023 		ldrd	r2, [r3]
 1246 02aa FFF7FEFF 		bl	__aeabi_dmul
 1247 02ae 0246     		mov	r2, r0
 1248 02b0 0B46     		mov	r3, r1
 1249 02b2 1046     		mov	r0, r2
 1250 02b4 1946     		mov	r1, r3
 1251 02b6 FFF7FEFF 		bl	sin
 1252 02ba 0246     		mov	r2, r0
 1253 02bc 0B46     		mov	r3, r1
 1254 02be 2046     		mov	r0, r4
 1255 02c0 2946     		mov	r1, r5
 1256 02c2 FFF7FEFF 		bl	__aeabi_dmul
 1257 02c6 0346     		mov	r3, r0
 1258 02c8 0C46     		mov	r4, r1
 1259 02ca 2546     		mov	r5, r4
 1260 02cc 1C46     		mov	r4, r3
ARM GAS  /var/folders/kh/x4vltyy52lbg7p4pcyglc5080000gp/T//cc33Oc7n.s 			page 29


 1261 02ce 7869     		ldr	r0, [r7, #20]	@ float
 1262 02d0 FFF7FEFF 		bl	__aeabi_f2d
 1263 02d4 26A3     		adr	r3, .L40+16
 1264 02d6 D3E90023 		ldrd	r2, [r3]
 1265 02da FFF7FEFF 		bl	__aeabi_dmul
 1266 02de 0246     		mov	r2, r0
 1267 02e0 0B46     		mov	r3, r1
 1268 02e2 2046     		mov	r0, r4
 1269 02e4 2946     		mov	r1, r5
 1270 02e6 FFF7FEFF 		bl	__aeabi_ddiv
 1271 02ea 0346     		mov	r3, r0
 1272 02ec 0C46     		mov	r4, r1
 1273 02ee 2546     		mov	r5, r4
 1274 02f0 1C46     		mov	r4, r3
 1275 02f2 B868     		ldr	r0, [r7, #8]	@ float
 1276 02f4 FFF7FEFF 		bl	__aeabi_f2d
 1277 02f8 0246     		mov	r2, r0
 1278 02fa 0B46     		mov	r3, r1
 1279 02fc FFF7FEFF 		bl	__aeabi_dadd
 1280 0300 0246     		mov	r2, r0
 1281 0302 0B46     		mov	r3, r1
 1282 0304 9046     		mov	r8, r2
 1283 0306 9946     		mov	r9, r3
 1284 0308 7868     		ldr	r0, [r7, #4]
 1285 030a FFF7FEFF 		bl	__aeabi_i2d
 1286 030e 0246     		mov	r2, r0
 1287 0310 0B46     		mov	r3, r1
 1288 0312 4046     		mov	r0, r8
 1289 0314 4946     		mov	r1, r9
 1290 0316 FFF7FEFF 		bl	__aeabi_ddiv
 1291 031a 0246     		mov	r2, r0
 1292 031c 0B46     		mov	r3, r1
 1293 031e 1046     		mov	r0, r2
 1294 0320 1946     		mov	r1, r3
 1295 0322 FFF7FEFF 		bl	__aeabi_d2f
 1296 0326 0346     		mov	r3, r0
 1297 0328 23F00043 		bic	r3, r3, #-2147483648
 1298 032c 3968     		ldr	r1, [r7]
 1299 032e 1846     		mov	r0, r3
 1300 0330 FFF7FEFF 		bl	compute_func
 1301 0334 0246     		mov	r2, r0
 1302 0336 0B46     		mov	r3, r1
 1303 0338 2046     		mov	r0, r4
 1304 033a 2946     		mov	r1, r5
 1305 033c FFF7FEFF 		bl	__aeabi_dmul
 1306 0340 0346     		mov	r3, r0
 1307 0342 0C46     		mov	r4, r1
 1308 0344 1846     		mov	r0, r3
 1309 0346 2146     		mov	r1, r4
 1310 0348 FFF7FEFF 		bl	__aeabi_d2iz
 1311 034c 0346     		mov	r3, r0
 1312 034e 1BB2     		sxth	r3, r3
 1313              	.L19:
 282:STM32F10x_Speex_Lib/libspeex/resample.c **** }
 1314              		.loc 2 282 0 is_stmt 1
 1315 0350 1846     		mov	r0, r3
 1316 0352 1837     		adds	r7, r7, #24
ARM GAS  /var/folders/kh/x4vltyy52lbg7p4pcyglc5080000gp/T//cc33Oc7n.s 			page 30


 1317              	.LCFI23:
 1318              		.cfi_def_cfa_offset 24
 1319 0354 BD46     		mov	sp, r7
 1320              	.LCFI24:
 1321              		.cfi_def_cfa_register 13
 1322              		@ sp needed
 1323 0356 BDE8B083 		pop	{r4, r5, r7, r8, r9, pc}
 1324              	.L41:
 1325 035a 00BFAFF3 		.align	3
 1325      0080
 1326              	.L40:
 1327 0360 00000000 		.word	0
 1328 0364 C0FFDFC0 		.word	-1059061824
 1329 0368 00000000 		.word	0
 1330 036c 80FFDF40 		.word	1088421760
 1331 0370 14A31951 		.word	1360634644
 1332 0374 FB210940 		.word	1074340347
 1333 0378 BD378635 		.word	897988541
 1334 037c 0000E040 		.word	1088421888
 1335 0380 0080FFFF 		.word	-32768
 1336              		.cfi_endproc
 1337              	.LFE10:
 1339              		.section	.text.cubic_coef,"ax",%progbits
 1340              		.align	2
 1341              		.thumb
 1342              		.thumb_func
 1344              	cubic_coef:
 1345              	.LFB11:
 283:STM32F10x_Speex_Lib/libspeex/resample.c **** #else
 284:STM32F10x_Speex_Lib/libspeex/resample.c **** /* The slow way of computing a sinc for the table. Should improve that some day */
 285:STM32F10x_Speex_Lib/libspeex/resample.c **** static spx_word16_t sinc(float cutoff, float x, int N, struct FuncDef *window_func)
 286:STM32F10x_Speex_Lib/libspeex/resample.c **** {
 287:STM32F10x_Speex_Lib/libspeex/resample.c ****    /*fprintf (stderr, "%f ", x);*/
 288:STM32F10x_Speex_Lib/libspeex/resample.c ****    float xx = x * cutoff;
 289:STM32F10x_Speex_Lib/libspeex/resample.c ****    if (fabs(x)<1e-6)
 290:STM32F10x_Speex_Lib/libspeex/resample.c ****       return cutoff;
 291:STM32F10x_Speex_Lib/libspeex/resample.c ****    else if (fabs(x) > .5*N)
 292:STM32F10x_Speex_Lib/libspeex/resample.c ****       return 0;
 293:STM32F10x_Speex_Lib/libspeex/resample.c ****    /*FIXME: Can it really be any slower than this? */
 294:STM32F10x_Speex_Lib/libspeex/resample.c ****    return cutoff*sin(M_PI*xx)/(M_PI*xx) * compute_func(fabs(2.*x/N), window_func);
 295:STM32F10x_Speex_Lib/libspeex/resample.c **** }
 296:STM32F10x_Speex_Lib/libspeex/resample.c **** #endif
 297:STM32F10x_Speex_Lib/libspeex/resample.c **** 
 298:STM32F10x_Speex_Lib/libspeex/resample.c **** #ifdef FIXED_POINT
 299:STM32F10x_Speex_Lib/libspeex/resample.c **** static void cubic_coef(spx_word16_t x, spx_word16_t interp[4])
 300:STM32F10x_Speex_Lib/libspeex/resample.c **** {
 1346              		.loc 2 300 0
 1347              		.cfi_startproc
 1348              		@ args = 0, pretend = 0, frame = 16
 1349              		@ frame_needed = 1, uses_anonymous_args = 0
 1350              		@ link register save eliminated.
 1351 0000 80B4     		push	{r7}
 1352              	.LCFI25:
 1353              		.cfi_def_cfa_offset 4
 1354              		.cfi_offset 7, -4
 1355 0002 85B0     		sub	sp, sp, #20
 1356              	.LCFI26:
ARM GAS  /var/folders/kh/x4vltyy52lbg7p4pcyglc5080000gp/T//cc33Oc7n.s 			page 31


 1357              		.cfi_def_cfa_offset 24
 1358 0004 00AF     		add	r7, sp, #0
 1359              	.LCFI27:
 1360              		.cfi_def_cfa_register 7
 1361 0006 0346     		mov	r3, r0
 1362 0008 3960     		str	r1, [r7]
 1363 000a FB80     		strh	r3, [r7, #6]	@ movhi
 301:STM32F10x_Speex_Lib/libspeex/resample.c ****    /* Compute interpolation coefficients. I'm not sure whether this corresponds to cubic interpolat
 302:STM32F10x_Speex_Lib/libspeex/resample.c ****    but I know it's MMSE-optimal on a sinc */
 303:STM32F10x_Speex_Lib/libspeex/resample.c ****    spx_word16_t x2, x3;
 304:STM32F10x_Speex_Lib/libspeex/resample.c ****    x2 = MULT16_16_P15(x, x);
 1364              		.loc 2 304 0
 1365 000c B7F90630 		ldrsh	r3, [r7, #6]
 1366 0010 B7F90620 		ldrsh	r2, [r7, #6]
 1367 0014 02FB03F3 		mul	r3, r2, r3
 1368 0018 03F58043 		add	r3, r3, #16384
 1369 001c DB13     		asrs	r3, r3, #15
 1370 001e FB81     		strh	r3, [r7, #14]	@ movhi
 305:STM32F10x_Speex_Lib/libspeex/resample.c ****    x3 = MULT16_16_P15(x, x2);
 1371              		.loc 2 305 0
 1372 0020 B7F90630 		ldrsh	r3, [r7, #6]
 1373 0024 B7F90E20 		ldrsh	r2, [r7, #14]
 1374 0028 02FB03F3 		mul	r3, r2, r3
 1375 002c 03F58043 		add	r3, r3, #16384
 1376 0030 DB13     		asrs	r3, r3, #15
 1377 0032 BB81     		strh	r3, [r7, #12]	@ movhi
 306:STM32F10x_Speex_Lib/libspeex/resample.c ****    interp[0] = PSHR32(MULT16_16(QCONST16(-0.16667f, 15),x) + MULT16_16(QCONST16(0.16667f, 15),x3),1
 1378              		.loc 2 306 0
 1379 0034 B7F90630 		ldrsh	r3, [r7, #6]
 1380 0038 334A     		ldr	r2, .L45
 1381 003a 02FB03F2 		mul	r2, r2, r3
 1382 003e B7F90C30 		ldrsh	r3, [r7, #12]
 1383 0042 41F25551 		movw	r1, #5461
 1384 0046 01FB03F3 		mul	r3, r1, r3
 1385 004a 1344     		add	r3, r3, r2
 1386 004c 03F58043 		add	r3, r3, #16384
 1387 0050 DB13     		asrs	r3, r3, #15
 1388 0052 1AB2     		sxth	r2, r3
 1389 0054 3B68     		ldr	r3, [r7]
 1390 0056 1A80     		strh	r2, [r3]	@ movhi
 307:STM32F10x_Speex_Lib/libspeex/resample.c ****    interp[1] = EXTRACT16(EXTEND32(x) + SHR32(SUB32(EXTEND32(x2),EXTEND32(x3)),1));
 1391              		.loc 2 307 0
 1392 0058 3B68     		ldr	r3, [r7]
 1393 005a 0233     		adds	r3, r3, #2
 1394 005c B7F90E10 		ldrsh	r1, [r7, #14]
 1395 0060 B7F90C20 		ldrsh	r2, [r7, #12]
 1396 0064 8A1A     		subs	r2, r1, r2
 1397 0066 5210     		asrs	r2, r2, #1
 1398 0068 91B2     		uxth	r1, r2
 1399 006a FA88     		ldrh	r2, [r7, #6]
 1400 006c 0A44     		add	r2, r2, r1
 1401 006e 92B2     		uxth	r2, r2
 1402 0070 12B2     		sxth	r2, r2
 1403 0072 1A80     		strh	r2, [r3]	@ movhi
 308:STM32F10x_Speex_Lib/libspeex/resample.c ****    interp[3] = PSHR32(MULT16_16(QCONST16(-0.33333f, 15),x) + MULT16_16(QCONST16(.5f,15),x2) - MULT1
 1404              		.loc 2 308 0
 1405 0074 3B68     		ldr	r3, [r7]
ARM GAS  /var/folders/kh/x4vltyy52lbg7p4pcyglc5080000gp/T//cc33Oc7n.s 			page 32


 1406 0076 0633     		adds	r3, r3, #6
 1407 0078 B7F90620 		ldrsh	r2, [r7, #6]
 1408 007c 2349     		ldr	r1, .L45+4
 1409 007e 01FB02F1 		mul	r1, r1, r2
 1410 0082 B7F90E20 		ldrsh	r2, [r7, #14]
 1411 0086 9203     		lsls	r2, r2, #14
 1412 0088 1144     		add	r1, r1, r2
 1413 008a B7F90C20 		ldrsh	r2, [r7, #12]
 1414 008e 2048     		ldr	r0, .L45+8
 1415 0090 00FB02F2 		mul	r2, r0, r2
 1416 0094 0A44     		add	r2, r2, r1
 1417 0096 02F58042 		add	r2, r2, #16384
 1418 009a D213     		asrs	r2, r2, #15
 1419 009c 12B2     		sxth	r2, r2
 1420 009e 1A80     		strh	r2, [r3]	@ movhi
 309:STM32F10x_Speex_Lib/libspeex/resample.c ****    /* Just to make sure we don't have rounding problems */
 310:STM32F10x_Speex_Lib/libspeex/resample.c ****    interp[2] = Q15_ONE-interp[0]-interp[1]-interp[3];
 1421              		.loc 2 310 0
 1422 00a0 3B68     		ldr	r3, [r7]
 1423 00a2 1A1D     		adds	r2, r3, #4
 1424 00a4 3B68     		ldr	r3, [r7]
 1425 00a6 B3F90030 		ldrsh	r3, [r3]
 1426 00aa 9BB2     		uxth	r3, r3
 1427 00ac 5B42     		negs	r3, r3
 1428 00ae 99B2     		uxth	r1, r3
 1429 00b0 3B68     		ldr	r3, [r7]
 1430 00b2 0233     		adds	r3, r3, #2
 1431 00b4 B3F90030 		ldrsh	r3, [r3]
 1432 00b8 9BB2     		uxth	r3, r3
 1433 00ba CB1A     		subs	r3, r1, r3
 1434 00bc 99B2     		uxth	r1, r3
 1435 00be 3B68     		ldr	r3, [r7]
 1436 00c0 0633     		adds	r3, r3, #6
 1437 00c2 B3F90030 		ldrsh	r3, [r3]
 1438 00c6 9BB2     		uxth	r3, r3
 1439 00c8 CB1A     		subs	r3, r1, r3
 1440 00ca 9BB2     		uxth	r3, r3
 1441 00cc 03F5FF43 		add	r3, r3, #32640
 1442 00d0 7F33     		adds	r3, r3, #127
 1443 00d2 9BB2     		uxth	r3, r3
 1444 00d4 1BB2     		sxth	r3, r3
 1445 00d6 1380     		strh	r3, [r2]	@ movhi
 311:STM32F10x_Speex_Lib/libspeex/resample.c ****    if (interp[2]<32767)
 1446              		.loc 2 311 0
 1447 00d8 3B68     		ldr	r3, [r7]
 1448 00da 0433     		adds	r3, r3, #4
 1449 00dc B3F90030 		ldrsh	r3, [r3]
 1450 00e0 47F6FF72 		movw	r2, #32767
 1451 00e4 9342     		cmp	r3, r2
 1452 00e6 0AD0     		beq	.L44
 312:STM32F10x_Speex_Lib/libspeex/resample.c ****       interp[2]+=1;
 1453              		.loc 2 312 0
 1454 00e8 3B68     		ldr	r3, [r7]
 1455 00ea 0433     		adds	r3, r3, #4
 1456 00ec 3A68     		ldr	r2, [r7]
 1457 00ee 0432     		adds	r2, r2, #4
 1458 00f0 B2F90020 		ldrsh	r2, [r2]
ARM GAS  /var/folders/kh/x4vltyy52lbg7p4pcyglc5080000gp/T//cc33Oc7n.s 			page 33


 1459 00f4 92B2     		uxth	r2, r2
 1460 00f6 0132     		adds	r2, r2, #1
 1461 00f8 92B2     		uxth	r2, r2
 1462 00fa 12B2     		sxth	r2, r2
 1463 00fc 1A80     		strh	r2, [r3]	@ movhi
 1464              	.L44:
 313:STM32F10x_Speex_Lib/libspeex/resample.c **** }
 1465              		.loc 2 313 0
 1466 00fe 00BF     		nop
 1467 0100 1437     		adds	r7, r7, #20
 1468              	.LCFI28:
 1469              		.cfi_def_cfa_offset 4
 1470 0102 BD46     		mov	sp, r7
 1471              	.LCFI29:
 1472              		.cfi_def_cfa_register 13
 1473              		@ sp needed
 1474 0104 80BC     		pop	{r7}
 1475              	.LCFI30:
 1476              		.cfi_restore 7
 1477              		.cfi_def_cfa_offset 0
 1478 0106 7047     		bx	lr
 1479              	.L46:
 1480              		.align	2
 1481              	.L45:
 1482 0108 ACEAFFFF 		.word	-5460
 1483 010c 56D5FFFF 		.word	-10922
 1484 0110 ABEAFFFF 		.word	-5461
 1485              		.cfi_endproc
 1486              	.LFE11:
 1488              		.global	__aeabi_fadd
 1489              		.global	__aeabi_f2iz
 1490              		.section	.text.resampler_basic_direct_single,"ax",%progbits
 1491              		.align	2
 1492              		.thumb
 1493              		.thumb_func
 1495              	resampler_basic_direct_single:
 1496              	.LFB12:
 314:STM32F10x_Speex_Lib/libspeex/resample.c **** #else
 315:STM32F10x_Speex_Lib/libspeex/resample.c **** static void cubic_coef(spx_word16_t frac, spx_word16_t interp[4])
 316:STM32F10x_Speex_Lib/libspeex/resample.c **** {
 317:STM32F10x_Speex_Lib/libspeex/resample.c ****    /* Compute interpolation coefficients. I'm not sure whether this corresponds to cubic interpolat
 318:STM32F10x_Speex_Lib/libspeex/resample.c ****    but I know it's MMSE-optimal on a sinc */
 319:STM32F10x_Speex_Lib/libspeex/resample.c ****    interp[0] =  -0.16667f*frac + 0.16667f*frac*frac*frac;
 320:STM32F10x_Speex_Lib/libspeex/resample.c ****    interp[1] = frac + 0.5f*frac*frac - 0.5f*frac*frac*frac;
 321:STM32F10x_Speex_Lib/libspeex/resample.c ****    /*interp[2] = 1.f - 0.5f*frac - frac*frac + 0.5f*frac*frac*frac;*/
 322:STM32F10x_Speex_Lib/libspeex/resample.c ****    interp[3] = -0.33333f*frac + 0.5f*frac*frac - 0.16667f*frac*frac*frac;
 323:STM32F10x_Speex_Lib/libspeex/resample.c ****    /* Just to make sure we don't have rounding problems */
 324:STM32F10x_Speex_Lib/libspeex/resample.c ****    interp[2] = 1.-interp[0]-interp[1]-interp[3];
 325:STM32F10x_Speex_Lib/libspeex/resample.c **** }
 326:STM32F10x_Speex_Lib/libspeex/resample.c **** #endif
 327:STM32F10x_Speex_Lib/libspeex/resample.c **** 
 328:STM32F10x_Speex_Lib/libspeex/resample.c **** static int resampler_basic_direct_single(SpeexResamplerState *st, spx_uint32_t channel_index, const
 329:STM32F10x_Speex_Lib/libspeex/resample.c **** {
 1497              		.loc 2 329 0
 1498              		.cfi_startproc
 1499              		@ args = 8, pretend = 0, frame = 88
 1500              		@ frame_needed = 1, uses_anonymous_args = 0
ARM GAS  /var/folders/kh/x4vltyy52lbg7p4pcyglc5080000gp/T//cc33Oc7n.s 			page 34


 1501 0000 90B5     		push	{r4, r7, lr}
 1502              	.LCFI31:
 1503              		.cfi_def_cfa_offset 12
 1504              		.cfi_offset 4, -12
 1505              		.cfi_offset 7, -8
 1506              		.cfi_offset 14, -4
 1507 0002 97B0     		sub	sp, sp, #92
 1508              	.LCFI32:
 1509              		.cfi_def_cfa_offset 104
 1510 0004 00AF     		add	r7, sp, #0
 1511              	.LCFI33:
 1512              		.cfi_def_cfa_register 7
 1513 0006 F860     		str	r0, [r7, #12]
 1514 0008 B960     		str	r1, [r7, #8]
 1515 000a 7A60     		str	r2, [r7, #4]
 1516 000c 3B60     		str	r3, [r7]
 330:STM32F10x_Speex_Lib/libspeex/resample.c ****    const int N = st->filt_len;
 1517              		.loc 2 330 0
 1518 000e FB68     		ldr	r3, [r7, #12]
 1519 0010 9B69     		ldr	r3, [r3, #24]
 1520 0012 7B64     		str	r3, [r7, #68]
 331:STM32F10x_Speex_Lib/libspeex/resample.c ****    int out_sample = 0;
 1521              		.loc 2 331 0
 1522 0014 0023     		movs	r3, #0
 1523 0016 7B65     		str	r3, [r7, #84]
 332:STM32F10x_Speex_Lib/libspeex/resample.c ****    int last_sample = st->last_sample[channel_index];
 1524              		.loc 2 332 0
 1525 0018 FB68     		ldr	r3, [r7, #12]
 1526 001a DA6B     		ldr	r2, [r3, #60]
 1527 001c BB68     		ldr	r3, [r7, #8]
 1528 001e 9B00     		lsls	r3, r3, #2
 1529 0020 1344     		add	r3, r3, r2
 1530 0022 1B68     		ldr	r3, [r3]
 1531 0024 3B65     		str	r3, [r7, #80]
 333:STM32F10x_Speex_Lib/libspeex/resample.c ****    spx_uint32_t samp_frac_num = st->samp_frac_num[channel_index];
 1532              		.loc 2 333 0
 1533 0026 FB68     		ldr	r3, [r7, #12]
 1534 0028 1A6C     		ldr	r2, [r3, #64]
 1535 002a BB68     		ldr	r3, [r7, #8]
 1536 002c 9B00     		lsls	r3, r3, #2
 1537 002e 1344     		add	r3, r3, r2
 1538 0030 1B68     		ldr	r3, [r3]
 1539 0032 FB64     		str	r3, [r7, #76]
 334:STM32F10x_Speex_Lib/libspeex/resample.c ****    const spx_word16_t *sinc_table = st->sinc_table;
 1540              		.loc 2 334 0
 1541 0034 FB68     		ldr	r3, [r7, #12]
 1542 0036 DB6C     		ldr	r3, [r3, #76]
 1543 0038 3B64     		str	r3, [r7, #64]
 335:STM32F10x_Speex_Lib/libspeex/resample.c ****    const int out_stride = st->out_stride;
 1544              		.loc 2 335 0
 1545 003a FB68     		ldr	r3, [r7, #12]
 1546 003c DB6D     		ldr	r3, [r3, #92]
 1547 003e FB63     		str	r3, [r7, #60]
 336:STM32F10x_Speex_Lib/libspeex/resample.c ****    const int int_advance = st->int_advance;
 1548              		.loc 2 336 0
 1549 0040 FB68     		ldr	r3, [r7, #12]
 1550 0042 5B6A     		ldr	r3, [r3, #36]
ARM GAS  /var/folders/kh/x4vltyy52lbg7p4pcyglc5080000gp/T//cc33Oc7n.s 			page 35


 1551 0044 BB63     		str	r3, [r7, #56]
 337:STM32F10x_Speex_Lib/libspeex/resample.c ****    const int frac_advance = st->frac_advance;
 1552              		.loc 2 337 0
 1553 0046 FB68     		ldr	r3, [r7, #12]
 1554 0048 9B6A     		ldr	r3, [r3, #40]
 1555 004a 7B63     		str	r3, [r7, #52]
 338:STM32F10x_Speex_Lib/libspeex/resample.c ****    const spx_uint32_t den_rate = st->den_rate;
 1556              		.loc 2 338 0
 1557 004c FB68     		ldr	r3, [r7, #12]
 1558 004e DB68     		ldr	r3, [r3, #12]
 1559 0050 3B63     		str	r3, [r7, #48]
 339:STM32F10x_Speex_Lib/libspeex/resample.c ****    spx_word32_t sum;
 340:STM32F10x_Speex_Lib/libspeex/resample.c ****    int j;
 341:STM32F10x_Speex_Lib/libspeex/resample.c **** 
 342:STM32F10x_Speex_Lib/libspeex/resample.c ****    while (!(last_sample >= (spx_int32_t)*in_len || out_sample >= (spx_int32_t)*out_len))
 1560              		.loc 2 342 0
 1561 0052 C7E0     		b	.L48
 1562              	.L53:
 1563              	.LBB2:
 343:STM32F10x_Speex_Lib/libspeex/resample.c ****    {
 344:STM32F10x_Speex_Lib/libspeex/resample.c ****       const spx_word16_t *sinc = & sinc_table[samp_frac_num*N];
 1564              		.loc 2 344 0
 1565 0054 7B6C     		ldr	r3, [r7, #68]
 1566 0056 FA6C     		ldr	r2, [r7, #76]
 1567 0058 02FB03F3 		mul	r3, r2, r3
 1568 005c 5B00     		lsls	r3, r3, #1
 1569 005e 3A6C     		ldr	r2, [r7, #64]
 1570 0060 1344     		add	r3, r3, r2
 1571 0062 FB62     		str	r3, [r7, #44]
 345:STM32F10x_Speex_Lib/libspeex/resample.c ****       const spx_word16_t *iptr = & in[last_sample];
 1572              		.loc 2 345 0
 1573 0064 3B6D     		ldr	r3, [r7, #80]
 1574 0066 5B00     		lsls	r3, r3, #1
 1575 0068 7A68     		ldr	r2, [r7, #4]
 1576 006a 1344     		add	r3, r3, r2
 1577 006c BB62     		str	r3, [r7, #40]
 346:STM32F10x_Speex_Lib/libspeex/resample.c **** 
 347:STM32F10x_Speex_Lib/libspeex/resample.c **** #ifndef OVERRIDE_INNER_PRODUCT_SINGLE
 348:STM32F10x_Speex_Lib/libspeex/resample.c ****       float accum[4] = {0,0,0,0};
 1578              		.loc 2 348 0
 1579 006e 07F11403 		add	r3, r7, #20
 1580 0072 0022     		movs	r2, #0
 1581 0074 1A60     		str	r2, [r3]
 1582 0076 5A60     		str	r2, [r3, #4]
 1583 0078 9A60     		str	r2, [r3, #8]
 1584 007a DA60     		str	r2, [r3, #12]
 349:STM32F10x_Speex_Lib/libspeex/resample.c **** 
 350:STM32F10x_Speex_Lib/libspeex/resample.c ****       for(j=0;j<N;j+=4) {
 1585              		.loc 2 350 0
 1586 007c 0023     		movs	r3, #0
 1587 007e BB64     		str	r3, [r7, #72]
 1588 0080 70E0     		b	.L49
 1589              	.L50:
 351:STM32F10x_Speex_Lib/libspeex/resample.c ****         accum[0] += sinc[j]*iptr[j];
 1590              		.loc 2 351 0 discriminator 3
 1591 0082 7C69     		ldr	r4, [r7, #20]	@ float
 1592 0084 BB6C     		ldr	r3, [r7, #72]
ARM GAS  /var/folders/kh/x4vltyy52lbg7p4pcyglc5080000gp/T//cc33Oc7n.s 			page 36


 1593 0086 5B00     		lsls	r3, r3, #1
 1594 0088 FA6A     		ldr	r2, [r7, #44]
 1595 008a 1344     		add	r3, r3, r2
 1596 008c B3F90030 		ldrsh	r3, [r3]
 1597 0090 1946     		mov	r1, r3
 1598 0092 BB6C     		ldr	r3, [r7, #72]
 1599 0094 5B00     		lsls	r3, r3, #1
 1600 0096 BA6A     		ldr	r2, [r7, #40]
 1601 0098 1344     		add	r3, r3, r2
 1602 009a B3F90030 		ldrsh	r3, [r3]
 1603 009e 03FB01F3 		mul	r3, r3, r1
 1604 00a2 1846     		mov	r0, r3
 1605 00a4 FFF7FEFF 		bl	__aeabi_i2f
 1606 00a8 0346     		mov	r3, r0
 1607 00aa 1946     		mov	r1, r3
 1608 00ac 2046     		mov	r0, r4
 1609 00ae FFF7FEFF 		bl	__aeabi_fadd
 1610 00b2 0346     		mov	r3, r0
 1611 00b4 7B61     		str	r3, [r7, #20]	@ float
 352:STM32F10x_Speex_Lib/libspeex/resample.c ****         accum[1] += sinc[j+1]*iptr[j+1];
 1612              		.loc 2 352 0 discriminator 3
 1613 00b6 BC69     		ldr	r4, [r7, #24]	@ float
 1614 00b8 BB6C     		ldr	r3, [r7, #72]
 1615 00ba 0133     		adds	r3, r3, #1
 1616 00bc 5B00     		lsls	r3, r3, #1
 1617 00be FA6A     		ldr	r2, [r7, #44]
 1618 00c0 1344     		add	r3, r3, r2
 1619 00c2 B3F90030 		ldrsh	r3, [r3]
 1620 00c6 1946     		mov	r1, r3
 1621 00c8 BB6C     		ldr	r3, [r7, #72]
 1622 00ca 0133     		adds	r3, r3, #1
 1623 00cc 5B00     		lsls	r3, r3, #1
 1624 00ce BA6A     		ldr	r2, [r7, #40]
 1625 00d0 1344     		add	r3, r3, r2
 1626 00d2 B3F90030 		ldrsh	r3, [r3]
 1627 00d6 03FB01F3 		mul	r3, r3, r1
 1628 00da 1846     		mov	r0, r3
 1629 00dc FFF7FEFF 		bl	__aeabi_i2f
 1630 00e0 0346     		mov	r3, r0
 1631 00e2 1946     		mov	r1, r3
 1632 00e4 2046     		mov	r0, r4
 1633 00e6 FFF7FEFF 		bl	__aeabi_fadd
 1634 00ea 0346     		mov	r3, r0
 1635 00ec BB61     		str	r3, [r7, #24]	@ float
 353:STM32F10x_Speex_Lib/libspeex/resample.c ****         accum[2] += sinc[j+2]*iptr[j+2];
 1636              		.loc 2 353 0 discriminator 3
 1637 00ee FC69     		ldr	r4, [r7, #28]	@ float
 1638 00f0 BB6C     		ldr	r3, [r7, #72]
 1639 00f2 0233     		adds	r3, r3, #2
 1640 00f4 5B00     		lsls	r3, r3, #1
 1641 00f6 FA6A     		ldr	r2, [r7, #44]
 1642 00f8 1344     		add	r3, r3, r2
 1643 00fa B3F90030 		ldrsh	r3, [r3]
 1644 00fe 1946     		mov	r1, r3
 1645 0100 BB6C     		ldr	r3, [r7, #72]
 1646 0102 0233     		adds	r3, r3, #2
 1647 0104 5B00     		lsls	r3, r3, #1
ARM GAS  /var/folders/kh/x4vltyy52lbg7p4pcyglc5080000gp/T//cc33Oc7n.s 			page 37


 1648 0106 BA6A     		ldr	r2, [r7, #40]
 1649 0108 1344     		add	r3, r3, r2
 1650 010a B3F90030 		ldrsh	r3, [r3]
 1651 010e 03FB01F3 		mul	r3, r3, r1
 1652 0112 1846     		mov	r0, r3
 1653 0114 FFF7FEFF 		bl	__aeabi_i2f
 1654 0118 0346     		mov	r3, r0
 1655 011a 1946     		mov	r1, r3
 1656 011c 2046     		mov	r0, r4
 1657 011e FFF7FEFF 		bl	__aeabi_fadd
 1658 0122 0346     		mov	r3, r0
 1659 0124 FB61     		str	r3, [r7, #28]	@ float
 354:STM32F10x_Speex_Lib/libspeex/resample.c ****         accum[3] += sinc[j+3]*iptr[j+3];
 1660              		.loc 2 354 0 discriminator 3
 1661 0126 3C6A     		ldr	r4, [r7, #32]	@ float
 1662 0128 BB6C     		ldr	r3, [r7, #72]
 1663 012a 0333     		adds	r3, r3, #3
 1664 012c 5B00     		lsls	r3, r3, #1
 1665 012e FA6A     		ldr	r2, [r7, #44]
 1666 0130 1344     		add	r3, r3, r2
 1667 0132 B3F90030 		ldrsh	r3, [r3]
 1668 0136 1946     		mov	r1, r3
 1669 0138 BB6C     		ldr	r3, [r7, #72]
 1670 013a 0333     		adds	r3, r3, #3
 1671 013c 5B00     		lsls	r3, r3, #1
 1672 013e BA6A     		ldr	r2, [r7, #40]
 1673 0140 1344     		add	r3, r3, r2
 1674 0142 B3F90030 		ldrsh	r3, [r3]
 1675 0146 03FB01F3 		mul	r3, r3, r1
 1676 014a 1846     		mov	r0, r3
 1677 014c FFF7FEFF 		bl	__aeabi_i2f
 1678 0150 0346     		mov	r3, r0
 1679 0152 1946     		mov	r1, r3
 1680 0154 2046     		mov	r0, r4
 1681 0156 FFF7FEFF 		bl	__aeabi_fadd
 1682 015a 0346     		mov	r3, r0
 1683 015c 3B62     		str	r3, [r7, #32]	@ float
 350:STM32F10x_Speex_Lib/libspeex/resample.c ****         accum[0] += sinc[j]*iptr[j];
 1684              		.loc 2 350 0 discriminator 3
 1685 015e BB6C     		ldr	r3, [r7, #72]
 1686 0160 0433     		adds	r3, r3, #4
 1687 0162 BB64     		str	r3, [r7, #72]
 1688              	.L49:
 350:STM32F10x_Speex_Lib/libspeex/resample.c ****         accum[0] += sinc[j]*iptr[j];
 1689              		.loc 2 350 0 is_stmt 0 discriminator 1
 1690 0164 BA6C     		ldr	r2, [r7, #72]
 1691 0166 7B6C     		ldr	r3, [r7, #68]
 1692 0168 9A42     		cmp	r2, r3
 1693 016a 8ADB     		blt	.L50
 355:STM32F10x_Speex_Lib/libspeex/resample.c ****       }
 356:STM32F10x_Speex_Lib/libspeex/resample.c ****       sum = accum[0] + accum[1] + accum[2] + accum[3];
 1694              		.loc 2 356 0 is_stmt 1
 1695 016c 7B69     		ldr	r3, [r7, #20]	@ float
 1696 016e BA69     		ldr	r2, [r7, #24]	@ float
 1697 0170 1146     		mov	r1, r2
 1698 0172 1846     		mov	r0, r3
 1699 0174 FFF7FEFF 		bl	__aeabi_fadd
ARM GAS  /var/folders/kh/x4vltyy52lbg7p4pcyglc5080000gp/T//cc33Oc7n.s 			page 38


 1700 0178 0346     		mov	r3, r0
 1701 017a 1A46     		mov	r2, r3
 1702 017c FB69     		ldr	r3, [r7, #28]	@ float
 1703 017e 1946     		mov	r1, r3
 1704 0180 1046     		mov	r0, r2
 1705 0182 FFF7FEFF 		bl	__aeabi_fadd
 1706 0186 0346     		mov	r3, r0
 1707 0188 1A46     		mov	r2, r3
 1708 018a 3B6A     		ldr	r3, [r7, #32]	@ float
 1709 018c 1946     		mov	r1, r3
 1710 018e 1046     		mov	r0, r2
 1711 0190 FFF7FEFF 		bl	__aeabi_fadd
 1712 0194 0346     		mov	r3, r0
 1713 0196 1846     		mov	r0, r3
 1714 0198 FFF7FEFF 		bl	__aeabi_f2iz
 1715 019c 0346     		mov	r3, r0
 1716 019e 7B62     		str	r3, [r7, #36]
 357:STM32F10x_Speex_Lib/libspeex/resample.c **** #else
 358:STM32F10x_Speex_Lib/libspeex/resample.c ****       sum = inner_product_single(sinc, iptr, N);
 359:STM32F10x_Speex_Lib/libspeex/resample.c **** #endif
 360:STM32F10x_Speex_Lib/libspeex/resample.c **** 
 361:STM32F10x_Speex_Lib/libspeex/resample.c ****       out[out_stride * out_sample++] = PSHR32(sum, 15);
 1717              		.loc 2 361 0
 1718 01a0 7B6D     		ldr	r3, [r7, #84]
 1719 01a2 5A1C     		adds	r2, r3, #1
 1720 01a4 7A65     		str	r2, [r7, #84]
 1721 01a6 FA6B     		ldr	r2, [r7, #60]
 1722 01a8 02FB03F3 		mul	r3, r2, r3
 1723 01ac 5B00     		lsls	r3, r3, #1
 1724 01ae BA6E     		ldr	r2, [r7, #104]
 1725 01b0 1344     		add	r3, r3, r2
 1726 01b2 7A6A     		ldr	r2, [r7, #36]
 1727 01b4 02F58042 		add	r2, r2, #16384
 1728 01b8 D213     		asrs	r2, r2, #15
 1729 01ba 12B2     		sxth	r2, r2
 1730 01bc 1A80     		strh	r2, [r3]	@ movhi
 362:STM32F10x_Speex_Lib/libspeex/resample.c ****       last_sample += int_advance;
 1731              		.loc 2 362 0
 1732 01be 3A6D     		ldr	r2, [r7, #80]
 1733 01c0 BB6B     		ldr	r3, [r7, #56]
 1734 01c2 1344     		add	r3, r3, r2
 1735 01c4 3B65     		str	r3, [r7, #80]
 363:STM32F10x_Speex_Lib/libspeex/resample.c ****       samp_frac_num += frac_advance;
 1736              		.loc 2 363 0
 1737 01c6 7B6B     		ldr	r3, [r7, #52]
 1738 01c8 FA6C     		ldr	r2, [r7, #76]
 1739 01ca 1344     		add	r3, r3, r2
 1740 01cc FB64     		str	r3, [r7, #76]
 364:STM32F10x_Speex_Lib/libspeex/resample.c ****       if (samp_frac_num >= den_rate)
 1741              		.loc 2 364 0
 1742 01ce FA6C     		ldr	r2, [r7, #76]
 1743 01d0 3B6B     		ldr	r3, [r7, #48]
 1744 01d2 9A42     		cmp	r2, r3
 1745 01d4 06D3     		bcc	.L48
 365:STM32F10x_Speex_Lib/libspeex/resample.c ****       {
 366:STM32F10x_Speex_Lib/libspeex/resample.c ****          samp_frac_num -= den_rate;
 1746              		.loc 2 366 0
ARM GAS  /var/folders/kh/x4vltyy52lbg7p4pcyglc5080000gp/T//cc33Oc7n.s 			page 39


 1747 01d6 FA6C     		ldr	r2, [r7, #76]
 1748 01d8 3B6B     		ldr	r3, [r7, #48]
 1749 01da D31A     		subs	r3, r2, r3
 1750 01dc FB64     		str	r3, [r7, #76]
 367:STM32F10x_Speex_Lib/libspeex/resample.c ****          last_sample++;
 1751              		.loc 2 367 0
 1752 01de 3B6D     		ldr	r3, [r7, #80]
 1753 01e0 0133     		adds	r3, r3, #1
 1754 01e2 3B65     		str	r3, [r7, #80]
 1755              	.L48:
 1756              	.LBE2:
 342:STM32F10x_Speex_Lib/libspeex/resample.c ****    {
 1757              		.loc 2 342 0
 1758 01e4 3B68     		ldr	r3, [r7]
 1759 01e6 1B68     		ldr	r3, [r3]
 1760 01e8 1A46     		mov	r2, r3
 1761 01ea 3B6D     		ldr	r3, [r7, #80]
 1762 01ec 9A42     		cmp	r2, r3
 1763 01ee 06DD     		ble	.L52
 342:STM32F10x_Speex_Lib/libspeex/resample.c ****    {
 1764              		.loc 2 342 0 is_stmt 0 discriminator 1
 1765 01f0 FB6E     		ldr	r3, [r7, #108]
 1766 01f2 1B68     		ldr	r3, [r3]
 1767 01f4 1A46     		mov	r2, r3
 1768 01f6 7B6D     		ldr	r3, [r7, #84]
 1769 01f8 9A42     		cmp	r2, r3
 1770 01fa 3FF72BAF 		bgt	.L53
 1771              	.L52:
 368:STM32F10x_Speex_Lib/libspeex/resample.c ****       }
 369:STM32F10x_Speex_Lib/libspeex/resample.c ****    }
 370:STM32F10x_Speex_Lib/libspeex/resample.c **** 
 371:STM32F10x_Speex_Lib/libspeex/resample.c ****    st->last_sample[channel_index] = last_sample;
 1772              		.loc 2 371 0 is_stmt 1
 1773 01fe FB68     		ldr	r3, [r7, #12]
 1774 0200 DA6B     		ldr	r2, [r3, #60]
 1775 0202 BB68     		ldr	r3, [r7, #8]
 1776 0204 9B00     		lsls	r3, r3, #2
 1777 0206 1344     		add	r3, r3, r2
 1778 0208 3A6D     		ldr	r2, [r7, #80]
 1779 020a 1A60     		str	r2, [r3]
 372:STM32F10x_Speex_Lib/libspeex/resample.c ****    st->samp_frac_num[channel_index] = samp_frac_num;
 1780              		.loc 2 372 0
 1781 020c FB68     		ldr	r3, [r7, #12]
 1782 020e 1A6C     		ldr	r2, [r3, #64]
 1783 0210 BB68     		ldr	r3, [r7, #8]
 1784 0212 9B00     		lsls	r3, r3, #2
 1785 0214 1344     		add	r3, r3, r2
 1786 0216 FA6C     		ldr	r2, [r7, #76]
 1787 0218 1A60     		str	r2, [r3]
 373:STM32F10x_Speex_Lib/libspeex/resample.c ****    return out_sample;
 1788              		.loc 2 373 0
 1789 021a 7B6D     		ldr	r3, [r7, #84]
 374:STM32F10x_Speex_Lib/libspeex/resample.c **** }
 1790              		.loc 2 374 0
 1791 021c 1846     		mov	r0, r3
 1792 021e 5C37     		adds	r7, r7, #92
 1793              	.LCFI34:
ARM GAS  /var/folders/kh/x4vltyy52lbg7p4pcyglc5080000gp/T//cc33Oc7n.s 			page 40


 1794              		.cfi_def_cfa_offset 12
 1795 0220 BD46     		mov	sp, r7
 1796              	.LCFI35:
 1797              		.cfi_def_cfa_register 13
 1798              		@ sp needed
 1799 0222 90BD     		pop	{r4, r7, pc}
 1800              		.cfi_endproc
 1801              	.LFE12:
 1803              		.section	.text.resampler_basic_interpolate_single,"ax",%progbits
 1804              		.align	2
 1805              		.thumb
 1806              		.thumb_func
 1808              	resampler_basic_interpolate_single:
 1809              	.LFB13:
 375:STM32F10x_Speex_Lib/libspeex/resample.c **** 
 376:STM32F10x_Speex_Lib/libspeex/resample.c **** #ifdef FIXED_POINT
 377:STM32F10x_Speex_Lib/libspeex/resample.c **** #else
 378:STM32F10x_Speex_Lib/libspeex/resample.c **** /* This is the same as the previous function, except with a double-precision accumulator */
 379:STM32F10x_Speex_Lib/libspeex/resample.c **** static int resampler_basic_direct_double(SpeexResamplerState *st, spx_uint32_t channel_index, const
 380:STM32F10x_Speex_Lib/libspeex/resample.c **** {
 381:STM32F10x_Speex_Lib/libspeex/resample.c ****    const int N = st->filt_len;
 382:STM32F10x_Speex_Lib/libspeex/resample.c ****    int out_sample = 0;
 383:STM32F10x_Speex_Lib/libspeex/resample.c ****    int last_sample = st->last_sample[channel_index];
 384:STM32F10x_Speex_Lib/libspeex/resample.c ****    spx_uint32_t samp_frac_num = st->samp_frac_num[channel_index];
 385:STM32F10x_Speex_Lib/libspeex/resample.c ****    const spx_word16_t *sinc_table = st->sinc_table;
 386:STM32F10x_Speex_Lib/libspeex/resample.c ****    const int out_stride = st->out_stride;
 387:STM32F10x_Speex_Lib/libspeex/resample.c ****    const int int_advance = st->int_advance;
 388:STM32F10x_Speex_Lib/libspeex/resample.c ****    const int frac_advance = st->frac_advance;
 389:STM32F10x_Speex_Lib/libspeex/resample.c ****    const spx_uint32_t den_rate = st->den_rate;
 390:STM32F10x_Speex_Lib/libspeex/resample.c ****    double sum;
 391:STM32F10x_Speex_Lib/libspeex/resample.c ****    int j;
 392:STM32F10x_Speex_Lib/libspeex/resample.c **** 
 393:STM32F10x_Speex_Lib/libspeex/resample.c ****    while (!(last_sample >= (spx_int32_t)*in_len || out_sample >= (spx_int32_t)*out_len))
 394:STM32F10x_Speex_Lib/libspeex/resample.c ****    {
 395:STM32F10x_Speex_Lib/libspeex/resample.c ****       const spx_word16_t *sinc = & sinc_table[samp_frac_num*N];
 396:STM32F10x_Speex_Lib/libspeex/resample.c ****       const spx_word16_t *iptr = & in[last_sample];
 397:STM32F10x_Speex_Lib/libspeex/resample.c **** 
 398:STM32F10x_Speex_Lib/libspeex/resample.c **** #ifndef OVERRIDE_INNER_PRODUCT_DOUBLE
 399:STM32F10x_Speex_Lib/libspeex/resample.c ****       double accum[4] = {0,0,0,0};
 400:STM32F10x_Speex_Lib/libspeex/resample.c **** 
 401:STM32F10x_Speex_Lib/libspeex/resample.c ****       for(j=0;j<N;j+=4) {
 402:STM32F10x_Speex_Lib/libspeex/resample.c ****         accum[0] += sinc[j]*iptr[j];
 403:STM32F10x_Speex_Lib/libspeex/resample.c ****         accum[1] += sinc[j+1]*iptr[j+1];
 404:STM32F10x_Speex_Lib/libspeex/resample.c ****         accum[2] += sinc[j+2]*iptr[j+2];
 405:STM32F10x_Speex_Lib/libspeex/resample.c ****         accum[3] += sinc[j+3]*iptr[j+3];
 406:STM32F10x_Speex_Lib/libspeex/resample.c ****       }
 407:STM32F10x_Speex_Lib/libspeex/resample.c ****       sum = accum[0] + accum[1] + accum[2] + accum[3];
 408:STM32F10x_Speex_Lib/libspeex/resample.c **** #else
 409:STM32F10x_Speex_Lib/libspeex/resample.c ****       sum = inner_product_double(sinc, iptr, N);
 410:STM32F10x_Speex_Lib/libspeex/resample.c **** #endif
 411:STM32F10x_Speex_Lib/libspeex/resample.c **** 
 412:STM32F10x_Speex_Lib/libspeex/resample.c ****       out[out_stride * out_sample++] = PSHR32(sum, 15);
 413:STM32F10x_Speex_Lib/libspeex/resample.c ****       last_sample += int_advance;
 414:STM32F10x_Speex_Lib/libspeex/resample.c ****       samp_frac_num += frac_advance;
 415:STM32F10x_Speex_Lib/libspeex/resample.c ****       if (samp_frac_num >= den_rate)
 416:STM32F10x_Speex_Lib/libspeex/resample.c ****       {
 417:STM32F10x_Speex_Lib/libspeex/resample.c ****          samp_frac_num -= den_rate;
ARM GAS  /var/folders/kh/x4vltyy52lbg7p4pcyglc5080000gp/T//cc33Oc7n.s 			page 41


 418:STM32F10x_Speex_Lib/libspeex/resample.c ****          last_sample++;
 419:STM32F10x_Speex_Lib/libspeex/resample.c ****       }
 420:STM32F10x_Speex_Lib/libspeex/resample.c ****    }
 421:STM32F10x_Speex_Lib/libspeex/resample.c **** 
 422:STM32F10x_Speex_Lib/libspeex/resample.c ****    st->last_sample[channel_index] = last_sample;
 423:STM32F10x_Speex_Lib/libspeex/resample.c ****    st->samp_frac_num[channel_index] = samp_frac_num;
 424:STM32F10x_Speex_Lib/libspeex/resample.c ****    return out_sample;
 425:STM32F10x_Speex_Lib/libspeex/resample.c **** }
 426:STM32F10x_Speex_Lib/libspeex/resample.c **** #endif
 427:STM32F10x_Speex_Lib/libspeex/resample.c **** 
 428:STM32F10x_Speex_Lib/libspeex/resample.c **** static int resampler_basic_interpolate_single(SpeexResamplerState *st, spx_uint32_t channel_index, 
 429:STM32F10x_Speex_Lib/libspeex/resample.c **** {
 1810              		.loc 2 429 0
 1811              		.cfi_startproc
 1812              		@ args = 8, pretend = 0, frame = 96
 1813              		@ frame_needed = 1, uses_anonymous_args = 0
 1814 0000 90B5     		push	{r4, r7, lr}
 1815              	.LCFI36:
 1816              		.cfi_def_cfa_offset 12
 1817              		.cfi_offset 4, -12
 1818              		.cfi_offset 7, -8
 1819              		.cfi_offset 14, -4
 1820 0002 99B0     		sub	sp, sp, #100
 1821              	.LCFI37:
 1822              		.cfi_def_cfa_offset 112
 1823 0004 00AF     		add	r7, sp, #0
 1824              	.LCFI38:
 1825              		.cfi_def_cfa_register 7
 1826 0006 F860     		str	r0, [r7, #12]
 1827 0008 B960     		str	r1, [r7, #8]
 1828 000a 7A60     		str	r2, [r7, #4]
 1829 000c 3B60     		str	r3, [r7]
 430:STM32F10x_Speex_Lib/libspeex/resample.c ****    const int N = st->filt_len;
 1830              		.loc 2 430 0
 1831 000e FB68     		ldr	r3, [r7, #12]
 1832 0010 9B69     		ldr	r3, [r3, #24]
 1833 0012 FB64     		str	r3, [r7, #76]
 431:STM32F10x_Speex_Lib/libspeex/resample.c ****    int out_sample = 0;
 1834              		.loc 2 431 0
 1835 0014 0023     		movs	r3, #0
 1836 0016 FB65     		str	r3, [r7, #92]
 432:STM32F10x_Speex_Lib/libspeex/resample.c ****    int last_sample = st->last_sample[channel_index];
 1837              		.loc 2 432 0
 1838 0018 FB68     		ldr	r3, [r7, #12]
 1839 001a DA6B     		ldr	r2, [r3, #60]
 1840 001c BB68     		ldr	r3, [r7, #8]
 1841 001e 9B00     		lsls	r3, r3, #2
 1842 0020 1344     		add	r3, r3, r2
 1843 0022 1B68     		ldr	r3, [r3]
 1844 0024 BB65     		str	r3, [r7, #88]
 433:STM32F10x_Speex_Lib/libspeex/resample.c ****    spx_uint32_t samp_frac_num = st->samp_frac_num[channel_index];
 1845              		.loc 2 433 0
 1846 0026 FB68     		ldr	r3, [r7, #12]
 1847 0028 1A6C     		ldr	r2, [r3, #64]
 1848 002a BB68     		ldr	r3, [r7, #8]
 1849 002c 9B00     		lsls	r3, r3, #2
 1850 002e 1344     		add	r3, r3, r2
ARM GAS  /var/folders/kh/x4vltyy52lbg7p4pcyglc5080000gp/T//cc33Oc7n.s 			page 42


 1851 0030 1B68     		ldr	r3, [r3]
 1852 0032 7B65     		str	r3, [r7, #84]
 434:STM32F10x_Speex_Lib/libspeex/resample.c ****    const int out_stride = st->out_stride;
 1853              		.loc 2 434 0
 1854 0034 FB68     		ldr	r3, [r7, #12]
 1855 0036 DB6D     		ldr	r3, [r3, #92]
 1856 0038 BB64     		str	r3, [r7, #72]
 435:STM32F10x_Speex_Lib/libspeex/resample.c ****    const int int_advance = st->int_advance;
 1857              		.loc 2 435 0
 1858 003a FB68     		ldr	r3, [r7, #12]
 1859 003c 5B6A     		ldr	r3, [r3, #36]
 1860 003e 7B64     		str	r3, [r7, #68]
 436:STM32F10x_Speex_Lib/libspeex/resample.c ****    const int frac_advance = st->frac_advance;
 1861              		.loc 2 436 0
 1862 0040 FB68     		ldr	r3, [r7, #12]
 1863 0042 9B6A     		ldr	r3, [r3, #40]
 1864 0044 3B64     		str	r3, [r7, #64]
 437:STM32F10x_Speex_Lib/libspeex/resample.c ****    const spx_uint32_t den_rate = st->den_rate;
 1865              		.loc 2 437 0
 1866 0046 FB68     		ldr	r3, [r7, #12]
 1867 0048 DB68     		ldr	r3, [r3, #12]
 1868 004a FB63     		str	r3, [r7, #60]
 438:STM32F10x_Speex_Lib/libspeex/resample.c ****    int j;
 439:STM32F10x_Speex_Lib/libspeex/resample.c ****    spx_word32_t sum;
 440:STM32F10x_Speex_Lib/libspeex/resample.c **** 
 441:STM32F10x_Speex_Lib/libspeex/resample.c ****    while (!(last_sample >= (spx_int32_t)*in_len || out_sample >= (spx_int32_t)*out_len))
 1869              		.loc 2 441 0
 1870 004c 10E1     		b	.L56
 1871              	.L61:
 1872              	.LBB3:
 442:STM32F10x_Speex_Lib/libspeex/resample.c ****    {
 443:STM32F10x_Speex_Lib/libspeex/resample.c ****       const spx_word16_t *iptr = & in[last_sample];
 1873              		.loc 2 443 0
 1874 004e BB6D     		ldr	r3, [r7, #88]
 1875 0050 5B00     		lsls	r3, r3, #1
 1876 0052 7A68     		ldr	r2, [r7, #4]
 1877 0054 1344     		add	r3, r3, r2
 1878 0056 BB63     		str	r3, [r7, #56]
 444:STM32F10x_Speex_Lib/libspeex/resample.c **** 
 445:STM32F10x_Speex_Lib/libspeex/resample.c ****       const int offset = samp_frac_num*st->oversample/st->den_rate;
 1879              		.loc 2 445 0
 1880 0058 FB68     		ldr	r3, [r7, #12]
 1881 005a 1B6B     		ldr	r3, [r3, #48]
 1882 005c 7A6D     		ldr	r2, [r7, #84]
 1883 005e 02FB03F2 		mul	r2, r2, r3
 1884 0062 FB68     		ldr	r3, [r7, #12]
 1885 0064 DB68     		ldr	r3, [r3, #12]
 1886 0066 B2FBF3F3 		udiv	r3, r2, r3
 1887 006a 7B63     		str	r3, [r7, #52]
 446:STM32F10x_Speex_Lib/libspeex/resample.c **** #ifdef FIXED_POINT
 447:STM32F10x_Speex_Lib/libspeex/resample.c ****       const spx_word16_t frac = PDIV32(SHL32((samp_frac_num*st->oversample) % st->den_rate,15),st->
 1888              		.loc 2 447 0
 1889 006c FB68     		ldr	r3, [r7, #12]
 1890 006e 1B6B     		ldr	r3, [r3, #48]
 1891 0070 7A6D     		ldr	r2, [r7, #84]
 1892 0072 02FB03F3 		mul	r3, r2, r3
 1893 0076 FA68     		ldr	r2, [r7, #12]
ARM GAS  /var/folders/kh/x4vltyy52lbg7p4pcyglc5080000gp/T//cc33Oc7n.s 			page 43


 1894 0078 D268     		ldr	r2, [r2, #12]
 1895 007a B3FBF2F1 		udiv	r1, r3, r2
 1896 007e 02FB01F2 		mul	r2, r2, r1
 1897 0082 9B1A     		subs	r3, r3, r2
 1898 0084 DB03     		lsls	r3, r3, #15
 1899 0086 1A46     		mov	r2, r3
 1900 0088 FB68     		ldr	r3, [r7, #12]
 1901 008a DB68     		ldr	r3, [r3, #12]
 1902 008c 1BB2     		sxth	r3, r3
 1903 008e 5B10     		asrs	r3, r3, #1
 1904 0090 1BB2     		sxth	r3, r3
 1905 0092 1344     		add	r3, r3, r2
 1906 0094 FA68     		ldr	r2, [r7, #12]
 1907 0096 D268     		ldr	r2, [r2, #12]
 1908 0098 93FBF2F3 		sdiv	r3, r3, r2
 1909 009c 7B86     		strh	r3, [r7, #50]	@ movhi
 448:STM32F10x_Speex_Lib/libspeex/resample.c **** #else
 449:STM32F10x_Speex_Lib/libspeex/resample.c ****       const spx_word16_t frac = ((float)((samp_frac_num*st->oversample) % st->den_rate))/st->den_ra
 450:STM32F10x_Speex_Lib/libspeex/resample.c **** #endif
 451:STM32F10x_Speex_Lib/libspeex/resample.c ****       spx_word16_t interp[4];
 452:STM32F10x_Speex_Lib/libspeex/resample.c **** 
 453:STM32F10x_Speex_Lib/libspeex/resample.c **** 
 454:STM32F10x_Speex_Lib/libspeex/resample.c **** #ifndef OVERRIDE_INTERPOLATE_PRODUCT_SINGLE
 455:STM32F10x_Speex_Lib/libspeex/resample.c ****       spx_word32_t accum[4] = {0,0,0,0};
 1910              		.loc 2 455 0
 1911 009e 07F11403 		add	r3, r7, #20
 1912 00a2 0022     		movs	r2, #0
 1913 00a4 1A60     		str	r2, [r3]
 1914 00a6 5A60     		str	r2, [r3, #4]
 1915 00a8 9A60     		str	r2, [r3, #8]
 1916 00aa DA60     		str	r2, [r3, #12]
 456:STM32F10x_Speex_Lib/libspeex/resample.c **** 
 457:STM32F10x_Speex_Lib/libspeex/resample.c ****       for(j=0;j<N;j++) {
 1917              		.loc 2 457 0
 1918 00ac 0023     		movs	r3, #0
 1919 00ae 3B65     		str	r3, [r7, #80]
 1920 00b0 64E0     		b	.L57
 1921              	.L58:
 1922              	.LBB4:
 458:STM32F10x_Speex_Lib/libspeex/resample.c ****         const spx_word16_t curr_in=iptr[j];
 1923              		.loc 2 458 0 discriminator 3
 1924 00b2 3B6D     		ldr	r3, [r7, #80]
 1925 00b4 5B00     		lsls	r3, r3, #1
 1926 00b6 BA6B     		ldr	r2, [r7, #56]
 1927 00b8 1344     		add	r3, r3, r2
 1928 00ba 1B88     		ldrh	r3, [r3]	@ movhi
 1929 00bc 3B86     		strh	r3, [r7, #48]	@ movhi
 459:STM32F10x_Speex_Lib/libspeex/resample.c ****         accum[0] += MULT16_16(curr_in,st->sinc_table[4+(j+1)*st->oversample-offset-2]);
 1930              		.loc 2 459 0 discriminator 3
 1931 00be 7A69     		ldr	r2, [r7, #20]
 1932 00c0 B7F93030 		ldrsh	r3, [r7, #48]
 1933 00c4 F968     		ldr	r1, [r7, #12]
 1934 00c6 C86C     		ldr	r0, [r1, #76]
 1935 00c8 396D     		ldr	r1, [r7, #80]
 1936 00ca 0131     		adds	r1, r1, #1
 1937 00cc 0C46     		mov	r4, r1
 1938 00ce F968     		ldr	r1, [r7, #12]
ARM GAS  /var/folders/kh/x4vltyy52lbg7p4pcyglc5080000gp/T//cc33Oc7n.s 			page 44


 1939 00d0 096B     		ldr	r1, [r1, #48]
 1940 00d2 01FB04F4 		mul	r4, r1, r4
 1941 00d6 796B     		ldr	r1, [r7, #52]
 1942 00d8 611A     		subs	r1, r4, r1
 1943 00da 0231     		adds	r1, r1, #2
 1944 00dc 4900     		lsls	r1, r1, #1
 1945 00de 0144     		add	r1, r1, r0
 1946 00e0 B1F90010 		ldrsh	r1, [r1]
 1947 00e4 01FB03F3 		mul	r3, r1, r3
 1948 00e8 1344     		add	r3, r3, r2
 1949 00ea 7B61     		str	r3, [r7, #20]
 460:STM32F10x_Speex_Lib/libspeex/resample.c ****         accum[1] += MULT16_16(curr_in,st->sinc_table[4+(j+1)*st->oversample-offset-1]);
 1950              		.loc 2 460 0 discriminator 3
 1951 00ec BA69     		ldr	r2, [r7, #24]
 1952 00ee B7F93030 		ldrsh	r3, [r7, #48]
 1953 00f2 F968     		ldr	r1, [r7, #12]
 1954 00f4 C86C     		ldr	r0, [r1, #76]
 1955 00f6 396D     		ldr	r1, [r7, #80]
 1956 00f8 0131     		adds	r1, r1, #1
 1957 00fa 0C46     		mov	r4, r1
 1958 00fc F968     		ldr	r1, [r7, #12]
 1959 00fe 096B     		ldr	r1, [r1, #48]
 1960 0100 01FB04F4 		mul	r4, r1, r4
 1961 0104 796B     		ldr	r1, [r7, #52]
 1962 0106 611A     		subs	r1, r4, r1
 1963 0108 0331     		adds	r1, r1, #3
 1964 010a 4900     		lsls	r1, r1, #1
 1965 010c 0144     		add	r1, r1, r0
 1966 010e B1F90010 		ldrsh	r1, [r1]
 1967 0112 01FB03F3 		mul	r3, r1, r3
 1968 0116 1344     		add	r3, r3, r2
 1969 0118 BB61     		str	r3, [r7, #24]
 461:STM32F10x_Speex_Lib/libspeex/resample.c ****         accum[2] += MULT16_16(curr_in,st->sinc_table[4+(j+1)*st->oversample-offset]);
 1970              		.loc 2 461 0 discriminator 3
 1971 011a FA69     		ldr	r2, [r7, #28]
 1972 011c B7F93030 		ldrsh	r3, [r7, #48]
 1973 0120 F968     		ldr	r1, [r7, #12]
 1974 0122 C86C     		ldr	r0, [r1, #76]
 1975 0124 396D     		ldr	r1, [r7, #80]
 1976 0126 0131     		adds	r1, r1, #1
 1977 0128 0C46     		mov	r4, r1
 1978 012a F968     		ldr	r1, [r7, #12]
 1979 012c 096B     		ldr	r1, [r1, #48]
 1980 012e 01FB04F4 		mul	r4, r1, r4
 1981 0132 796B     		ldr	r1, [r7, #52]
 1982 0134 611A     		subs	r1, r4, r1
 1983 0136 0431     		adds	r1, r1, #4
 1984 0138 4900     		lsls	r1, r1, #1
 1985 013a 0144     		add	r1, r1, r0
 1986 013c B1F90010 		ldrsh	r1, [r1]
 1987 0140 01FB03F3 		mul	r3, r1, r3
 1988 0144 1344     		add	r3, r3, r2
 1989 0146 FB61     		str	r3, [r7, #28]
 462:STM32F10x_Speex_Lib/libspeex/resample.c ****         accum[3] += MULT16_16(curr_in,st->sinc_table[4+(j+1)*st->oversample-offset+1]);
 1990              		.loc 2 462 0 discriminator 3
 1991 0148 3A6A     		ldr	r2, [r7, #32]
 1992 014a B7F93030 		ldrsh	r3, [r7, #48]
ARM GAS  /var/folders/kh/x4vltyy52lbg7p4pcyglc5080000gp/T//cc33Oc7n.s 			page 45


 1993 014e F968     		ldr	r1, [r7, #12]
 1994 0150 C86C     		ldr	r0, [r1, #76]
 1995 0152 396D     		ldr	r1, [r7, #80]
 1996 0154 0131     		adds	r1, r1, #1
 1997 0156 0C46     		mov	r4, r1
 1998 0158 F968     		ldr	r1, [r7, #12]
 1999 015a 096B     		ldr	r1, [r1, #48]
 2000 015c 01FB04F4 		mul	r4, r1, r4
 2001 0160 796B     		ldr	r1, [r7, #52]
 2002 0162 611A     		subs	r1, r4, r1
 2003 0164 0531     		adds	r1, r1, #5
 2004 0166 4900     		lsls	r1, r1, #1
 2005 0168 0144     		add	r1, r1, r0
 2006 016a B1F90010 		ldrsh	r1, [r1]
 2007 016e 01FB03F3 		mul	r3, r1, r3
 2008 0172 1344     		add	r3, r3, r2
 2009 0174 3B62     		str	r3, [r7, #32]
 2010              	.LBE4:
 457:STM32F10x_Speex_Lib/libspeex/resample.c ****         const spx_word16_t curr_in=iptr[j];
 2011              		.loc 2 457 0 discriminator 3
 2012 0176 3B6D     		ldr	r3, [r7, #80]
 2013 0178 0133     		adds	r3, r3, #1
 2014 017a 3B65     		str	r3, [r7, #80]
 2015              	.L57:
 457:STM32F10x_Speex_Lib/libspeex/resample.c ****         const spx_word16_t curr_in=iptr[j];
 2016              		.loc 2 457 0 is_stmt 0 discriminator 1
 2017 017c 3A6D     		ldr	r2, [r7, #80]
 2018 017e FB6C     		ldr	r3, [r7, #76]
 2019 0180 9A42     		cmp	r2, r3
 2020 0182 96DB     		blt	.L58
 463:STM32F10x_Speex_Lib/libspeex/resample.c ****       }
 464:STM32F10x_Speex_Lib/libspeex/resample.c **** 
 465:STM32F10x_Speex_Lib/libspeex/resample.c ****       cubic_coef(frac, interp);
 2021              		.loc 2 465 0 is_stmt 1
 2022 0184 07F12402 		add	r2, r7, #36
 2023 0188 B7F93230 		ldrsh	r3, [r7, #50]
 2024 018c 1146     		mov	r1, r2
 2025 018e 1846     		mov	r0, r3
 2026 0190 FFF7FEFF 		bl	cubic_coef
 466:STM32F10x_Speex_Lib/libspeex/resample.c ****       sum = MULT16_32_Q15(interp[0],accum[0]) + MULT16_32_Q15(interp[1],accum[1]) + MULT16_32_Q15(i
 2027              		.loc 2 466 0
 2028 0194 B7F92430 		ldrsh	r3, [r7, #36]
 2029 0198 1A46     		mov	r2, r3
 2030 019a 7B69     		ldr	r3, [r7, #20]
 2031 019c DB13     		asrs	r3, r3, #15
 2032 019e 1BB2     		sxth	r3, r3
 2033 01a0 03FB02F2 		mul	r2, r3, r2
 2034 01a4 B7F92430 		ldrsh	r3, [r7, #36]
 2035 01a8 1946     		mov	r1, r3
 2036 01aa 7B69     		ldr	r3, [r7, #20]
 2037 01ac C3F30E03 		ubfx	r3, r3, #0, #15
 2038 01b0 03FB01F3 		mul	r3, r3, r1
 2039 01b4 DB13     		asrs	r3, r3, #15
 2040 01b6 1A44     		add	r2, r2, r3
 2041 01b8 B7F92630 		ldrsh	r3, [r7, #38]
 2042 01bc 1946     		mov	r1, r3
 2043 01be BB69     		ldr	r3, [r7, #24]
ARM GAS  /var/folders/kh/x4vltyy52lbg7p4pcyglc5080000gp/T//cc33Oc7n.s 			page 46


 2044 01c0 DB13     		asrs	r3, r3, #15
 2045 01c2 1BB2     		sxth	r3, r3
 2046 01c4 03FB01F1 		mul	r1, r3, r1
 2047 01c8 B7F92630 		ldrsh	r3, [r7, #38]
 2048 01cc 1846     		mov	r0, r3
 2049 01ce BB69     		ldr	r3, [r7, #24]
 2050 01d0 C3F30E03 		ubfx	r3, r3, #0, #15
 2051 01d4 03FB00F3 		mul	r3, r3, r0
 2052 01d8 DB13     		asrs	r3, r3, #15
 2053 01da 0B44     		add	r3, r3, r1
 2054 01dc 1A44     		add	r2, r2, r3
 2055 01de B7F92830 		ldrsh	r3, [r7, #40]
 2056 01e2 1946     		mov	r1, r3
 2057 01e4 FB69     		ldr	r3, [r7, #28]
 2058 01e6 DB13     		asrs	r3, r3, #15
 2059 01e8 1BB2     		sxth	r3, r3
 2060 01ea 03FB01F1 		mul	r1, r3, r1
 2061 01ee B7F92830 		ldrsh	r3, [r7, #40]
 2062 01f2 1846     		mov	r0, r3
 2063 01f4 FB69     		ldr	r3, [r7, #28]
 2064 01f6 C3F30E03 		ubfx	r3, r3, #0, #15
 2065 01fa 03FB00F3 		mul	r3, r3, r0
 2066 01fe DB13     		asrs	r3, r3, #15
 2067 0200 0B44     		add	r3, r3, r1
 2068 0202 1A44     		add	r2, r2, r3
 2069 0204 B7F92A30 		ldrsh	r3, [r7, #42]
 2070 0208 1946     		mov	r1, r3
 2071 020a 3B6A     		ldr	r3, [r7, #32]
 2072 020c DB13     		asrs	r3, r3, #15
 2073 020e 1BB2     		sxth	r3, r3
 2074 0210 03FB01F1 		mul	r1, r3, r1
 2075 0214 B7F92A30 		ldrsh	r3, [r7, #42]
 2076 0218 1846     		mov	r0, r3
 2077 021a 3B6A     		ldr	r3, [r7, #32]
 2078 021c C3F30E03 		ubfx	r3, r3, #0, #15
 2079 0220 03FB00F3 		mul	r3, r3, r0
 2080 0224 DB13     		asrs	r3, r3, #15
 2081 0226 0B44     		add	r3, r3, r1
 2082 0228 1344     		add	r3, r3, r2
 2083 022a FB62     		str	r3, [r7, #44]
 467:STM32F10x_Speex_Lib/libspeex/resample.c **** #else
 468:STM32F10x_Speex_Lib/libspeex/resample.c ****       cubic_coef(frac, interp);
 469:STM32F10x_Speex_Lib/libspeex/resample.c ****       sum = interpolate_product_single(iptr, st->sinc_table + st->oversample + 4 - offset - 2, N, s
 470:STM32F10x_Speex_Lib/libspeex/resample.c **** #endif
 471:STM32F10x_Speex_Lib/libspeex/resample.c ****       
 472:STM32F10x_Speex_Lib/libspeex/resample.c ****       out[out_stride * out_sample++] = PSHR32(sum,15);
 2084              		.loc 2 472 0
 2085 022c FB6D     		ldr	r3, [r7, #92]
 2086 022e 5A1C     		adds	r2, r3, #1
 2087 0230 FA65     		str	r2, [r7, #92]
 2088 0232 BA6C     		ldr	r2, [r7, #72]
 2089 0234 02FB03F3 		mul	r3, r2, r3
 2090 0238 5B00     		lsls	r3, r3, #1
 2091 023a 3A6F     		ldr	r2, [r7, #112]
 2092 023c 1344     		add	r3, r3, r2
 2093 023e FA6A     		ldr	r2, [r7, #44]
 2094 0240 02F58042 		add	r2, r2, #16384
ARM GAS  /var/folders/kh/x4vltyy52lbg7p4pcyglc5080000gp/T//cc33Oc7n.s 			page 47


 2095 0244 D213     		asrs	r2, r2, #15
 2096 0246 12B2     		sxth	r2, r2
 2097 0248 1A80     		strh	r2, [r3]	@ movhi
 473:STM32F10x_Speex_Lib/libspeex/resample.c ****       last_sample += int_advance;
 2098              		.loc 2 473 0
 2099 024a BA6D     		ldr	r2, [r7, #88]
 2100 024c 7B6C     		ldr	r3, [r7, #68]
 2101 024e 1344     		add	r3, r3, r2
 2102 0250 BB65     		str	r3, [r7, #88]
 474:STM32F10x_Speex_Lib/libspeex/resample.c ****       samp_frac_num += frac_advance;
 2103              		.loc 2 474 0
 2104 0252 3B6C     		ldr	r3, [r7, #64]
 2105 0254 7A6D     		ldr	r2, [r7, #84]
 2106 0256 1344     		add	r3, r3, r2
 2107 0258 7B65     		str	r3, [r7, #84]
 475:STM32F10x_Speex_Lib/libspeex/resample.c ****       if (samp_frac_num >= den_rate)
 2108              		.loc 2 475 0
 2109 025a 7A6D     		ldr	r2, [r7, #84]
 2110 025c FB6B     		ldr	r3, [r7, #60]
 2111 025e 9A42     		cmp	r2, r3
 2112 0260 06D3     		bcc	.L56
 476:STM32F10x_Speex_Lib/libspeex/resample.c ****       {
 477:STM32F10x_Speex_Lib/libspeex/resample.c ****          samp_frac_num -= den_rate;
 2113              		.loc 2 477 0
 2114 0262 7A6D     		ldr	r2, [r7, #84]
 2115 0264 FB6B     		ldr	r3, [r7, #60]
 2116 0266 D31A     		subs	r3, r2, r3
 2117 0268 7B65     		str	r3, [r7, #84]
 478:STM32F10x_Speex_Lib/libspeex/resample.c ****          last_sample++;
 2118              		.loc 2 478 0
 2119 026a BB6D     		ldr	r3, [r7, #88]
 2120 026c 0133     		adds	r3, r3, #1
 2121 026e BB65     		str	r3, [r7, #88]
 2122              	.L56:
 2123              	.LBE3:
 441:STM32F10x_Speex_Lib/libspeex/resample.c ****    {
 2124              		.loc 2 441 0
 2125 0270 3B68     		ldr	r3, [r7]
 2126 0272 1B68     		ldr	r3, [r3]
 2127 0274 1A46     		mov	r2, r3
 2128 0276 BB6D     		ldr	r3, [r7, #88]
 2129 0278 9A42     		cmp	r2, r3
 2130 027a 06DD     		ble	.L60
 441:STM32F10x_Speex_Lib/libspeex/resample.c ****    {
 2131              		.loc 2 441 0 is_stmt 0 discriminator 1
 2132 027c 7B6F     		ldr	r3, [r7, #116]
 2133 027e 1B68     		ldr	r3, [r3]
 2134 0280 1A46     		mov	r2, r3
 2135 0282 FB6D     		ldr	r3, [r7, #92]
 2136 0284 9A42     		cmp	r2, r3
 2137 0286 3FF7E2AE 		bgt	.L61
 2138              	.L60:
 479:STM32F10x_Speex_Lib/libspeex/resample.c ****       }
 480:STM32F10x_Speex_Lib/libspeex/resample.c ****    }
 481:STM32F10x_Speex_Lib/libspeex/resample.c **** 
 482:STM32F10x_Speex_Lib/libspeex/resample.c ****    st->last_sample[channel_index] = last_sample;
 2139              		.loc 2 482 0 is_stmt 1
ARM GAS  /var/folders/kh/x4vltyy52lbg7p4pcyglc5080000gp/T//cc33Oc7n.s 			page 48


 2140 028a FB68     		ldr	r3, [r7, #12]
 2141 028c DA6B     		ldr	r2, [r3, #60]
 2142 028e BB68     		ldr	r3, [r7, #8]
 2143 0290 9B00     		lsls	r3, r3, #2
 2144 0292 1344     		add	r3, r3, r2
 2145 0294 BA6D     		ldr	r2, [r7, #88]
 2146 0296 1A60     		str	r2, [r3]
 483:STM32F10x_Speex_Lib/libspeex/resample.c ****    st->samp_frac_num[channel_index] = samp_frac_num;
 2147              		.loc 2 483 0
 2148 0298 FB68     		ldr	r3, [r7, #12]
 2149 029a 1A6C     		ldr	r2, [r3, #64]
 2150 029c BB68     		ldr	r3, [r7, #8]
 2151 029e 9B00     		lsls	r3, r3, #2
 2152 02a0 1344     		add	r3, r3, r2
 2153 02a2 7A6D     		ldr	r2, [r7, #84]
 2154 02a4 1A60     		str	r2, [r3]
 484:STM32F10x_Speex_Lib/libspeex/resample.c ****    return out_sample;
 2155              		.loc 2 484 0
 2156 02a6 FB6D     		ldr	r3, [r7, #92]
 485:STM32F10x_Speex_Lib/libspeex/resample.c **** }
 2157              		.loc 2 485 0
 2158 02a8 1846     		mov	r0, r3
 2159 02aa 6437     		adds	r7, r7, #100
 2160              	.LCFI39:
 2161              		.cfi_def_cfa_offset 12
 2162 02ac BD46     		mov	sp, r7
 2163              	.LCFI40:
 2164              		.cfi_def_cfa_register 13
 2165              		@ sp needed
 2166 02ae 90BD     		pop	{r4, r7, pc}
 2167              		.cfi_endproc
 2168              	.LFE13:
 2170              		.global	__aeabi_ui2f
 2171              		.global	__aeabi_fdiv
 2172              		.section	.text.update_filter,"ax",%progbits
 2173              		.align	2
 2174              		.thumb
 2175              		.thumb_func
 2177              	update_filter:
 2178              	.LFB14:
 486:STM32F10x_Speex_Lib/libspeex/resample.c **** 
 487:STM32F10x_Speex_Lib/libspeex/resample.c **** #ifdef FIXED_POINT
 488:STM32F10x_Speex_Lib/libspeex/resample.c **** #else
 489:STM32F10x_Speex_Lib/libspeex/resample.c **** /* This is the same as the previous function, except with a double-precision accumulator */
 490:STM32F10x_Speex_Lib/libspeex/resample.c **** static int resampler_basic_interpolate_double(SpeexResamplerState *st, spx_uint32_t channel_index, 
 491:STM32F10x_Speex_Lib/libspeex/resample.c **** {
 492:STM32F10x_Speex_Lib/libspeex/resample.c ****    const int N = st->filt_len;
 493:STM32F10x_Speex_Lib/libspeex/resample.c ****    int out_sample = 0;
 494:STM32F10x_Speex_Lib/libspeex/resample.c ****    int last_sample = st->last_sample[channel_index];
 495:STM32F10x_Speex_Lib/libspeex/resample.c ****    spx_uint32_t samp_frac_num = st->samp_frac_num[channel_index];
 496:STM32F10x_Speex_Lib/libspeex/resample.c ****    const int out_stride = st->out_stride;
 497:STM32F10x_Speex_Lib/libspeex/resample.c ****    const int int_advance = st->int_advance;
 498:STM32F10x_Speex_Lib/libspeex/resample.c ****    const int frac_advance = st->frac_advance;
 499:STM32F10x_Speex_Lib/libspeex/resample.c ****    const spx_uint32_t den_rate = st->den_rate;
 500:STM32F10x_Speex_Lib/libspeex/resample.c ****    int j;
 501:STM32F10x_Speex_Lib/libspeex/resample.c ****    spx_word32_t sum;
 502:STM32F10x_Speex_Lib/libspeex/resample.c **** 
ARM GAS  /var/folders/kh/x4vltyy52lbg7p4pcyglc5080000gp/T//cc33Oc7n.s 			page 49


 503:STM32F10x_Speex_Lib/libspeex/resample.c ****    while (!(last_sample >= (spx_int32_t)*in_len || out_sample >= (spx_int32_t)*out_len))
 504:STM32F10x_Speex_Lib/libspeex/resample.c ****    {
 505:STM32F10x_Speex_Lib/libspeex/resample.c ****       const spx_word16_t *iptr = & in[last_sample];
 506:STM32F10x_Speex_Lib/libspeex/resample.c **** 
 507:STM32F10x_Speex_Lib/libspeex/resample.c ****       const int offset = samp_frac_num*st->oversample/st->den_rate;
 508:STM32F10x_Speex_Lib/libspeex/resample.c **** #ifdef FIXED_POINT
 509:STM32F10x_Speex_Lib/libspeex/resample.c ****       const spx_word16_t frac = PDIV32(SHL32((samp_frac_num*st->oversample) % st->den_rate,15),st->
 510:STM32F10x_Speex_Lib/libspeex/resample.c **** #else
 511:STM32F10x_Speex_Lib/libspeex/resample.c ****       const spx_word16_t frac = ((float)((samp_frac_num*st->oversample) % st->den_rate))/st->den_ra
 512:STM32F10x_Speex_Lib/libspeex/resample.c **** #endif
 513:STM32F10x_Speex_Lib/libspeex/resample.c ****       spx_word16_t interp[4];
 514:STM32F10x_Speex_Lib/libspeex/resample.c **** 
 515:STM32F10x_Speex_Lib/libspeex/resample.c **** 
 516:STM32F10x_Speex_Lib/libspeex/resample.c **** #ifndef OVERRIDE_INTERPOLATE_PRODUCT_DOUBLE
 517:STM32F10x_Speex_Lib/libspeex/resample.c ****       double accum[4] = {0,0,0,0};
 518:STM32F10x_Speex_Lib/libspeex/resample.c **** 
 519:STM32F10x_Speex_Lib/libspeex/resample.c ****       for(j=0;j<N;j++) {
 520:STM32F10x_Speex_Lib/libspeex/resample.c ****         const double curr_in=iptr[j];
 521:STM32F10x_Speex_Lib/libspeex/resample.c ****         accum[0] += MULT16_16(curr_in,st->sinc_table[4+(j+1)*st->oversample-offset-2]);
 522:STM32F10x_Speex_Lib/libspeex/resample.c ****         accum[1] += MULT16_16(curr_in,st->sinc_table[4+(j+1)*st->oversample-offset-1]);
 523:STM32F10x_Speex_Lib/libspeex/resample.c ****         accum[2] += MULT16_16(curr_in,st->sinc_table[4+(j+1)*st->oversample-offset]);
 524:STM32F10x_Speex_Lib/libspeex/resample.c ****         accum[3] += MULT16_16(curr_in,st->sinc_table[4+(j+1)*st->oversample-offset+1]);
 525:STM32F10x_Speex_Lib/libspeex/resample.c ****       }
 526:STM32F10x_Speex_Lib/libspeex/resample.c **** 
 527:STM32F10x_Speex_Lib/libspeex/resample.c ****       cubic_coef(frac, interp);
 528:STM32F10x_Speex_Lib/libspeex/resample.c ****       sum = MULT16_32_Q15(interp[0],accum[0]) + MULT16_32_Q15(interp[1],accum[1]) + MULT16_32_Q15(i
 529:STM32F10x_Speex_Lib/libspeex/resample.c **** #else
 530:STM32F10x_Speex_Lib/libspeex/resample.c ****       cubic_coef(frac, interp);
 531:STM32F10x_Speex_Lib/libspeex/resample.c ****       sum = interpolate_product_double(iptr, st->sinc_table + st->oversample + 4 - offset - 2, N, s
 532:STM32F10x_Speex_Lib/libspeex/resample.c **** #endif
 533:STM32F10x_Speex_Lib/libspeex/resample.c ****       
 534:STM32F10x_Speex_Lib/libspeex/resample.c ****       out[out_stride * out_sample++] = PSHR32(sum,15);
 535:STM32F10x_Speex_Lib/libspeex/resample.c ****       last_sample += int_advance;
 536:STM32F10x_Speex_Lib/libspeex/resample.c ****       samp_frac_num += frac_advance;
 537:STM32F10x_Speex_Lib/libspeex/resample.c ****       if (samp_frac_num >= den_rate)
 538:STM32F10x_Speex_Lib/libspeex/resample.c ****       {
 539:STM32F10x_Speex_Lib/libspeex/resample.c ****          samp_frac_num -= den_rate;
 540:STM32F10x_Speex_Lib/libspeex/resample.c ****          last_sample++;
 541:STM32F10x_Speex_Lib/libspeex/resample.c ****       }
 542:STM32F10x_Speex_Lib/libspeex/resample.c ****    }
 543:STM32F10x_Speex_Lib/libspeex/resample.c **** 
 544:STM32F10x_Speex_Lib/libspeex/resample.c ****    st->last_sample[channel_index] = last_sample;
 545:STM32F10x_Speex_Lib/libspeex/resample.c ****    st->samp_frac_num[channel_index] = samp_frac_num;
 546:STM32F10x_Speex_Lib/libspeex/resample.c ****    return out_sample;
 547:STM32F10x_Speex_Lib/libspeex/resample.c **** }
 548:STM32F10x_Speex_Lib/libspeex/resample.c **** #endif
 549:STM32F10x_Speex_Lib/libspeex/resample.c **** 
 550:STM32F10x_Speex_Lib/libspeex/resample.c **** static void update_filter(SpeexResamplerState *st)
 551:STM32F10x_Speex_Lib/libspeex/resample.c **** {
 2179              		.loc 2 551 0
 2180              		.cfi_startproc
 2181              		@ args = 0, pretend = 0, frame = 64
 2182              		@ frame_needed = 1, uses_anonymous_args = 0
 2183 0000 2DE9F041 		push	{r4, r5, r6, r7, r8, lr}
 2184              	.LCFI41:
 2185              		.cfi_def_cfa_offset 24
 2186              		.cfi_offset 4, -24
ARM GAS  /var/folders/kh/x4vltyy52lbg7p4pcyglc5080000gp/T//cc33Oc7n.s 			page 50


 2187              		.cfi_offset 5, -20
 2188              		.cfi_offset 6, -16
 2189              		.cfi_offset 7, -12
 2190              		.cfi_offset 8, -8
 2191              		.cfi_offset 14, -4
 2192 0004 90B0     		sub	sp, sp, #64
 2193              	.LCFI42:
 2194              		.cfi_def_cfa_offset 88
 2195 0006 00AF     		add	r7, sp, #0
 2196              	.LCFI43:
 2197              		.cfi_def_cfa_register 7
 2198 0008 7860     		str	r0, [r7, #4]
 552:STM32F10x_Speex_Lib/libspeex/resample.c ****    spx_uint32_t old_length;
 553:STM32F10x_Speex_Lib/libspeex/resample.c ****    
 554:STM32F10x_Speex_Lib/libspeex/resample.c ****    old_length = st->filt_len;
 2199              		.loc 2 554 0
 2200 000a 7B68     		ldr	r3, [r7, #4]
 2201 000c 9B69     		ldr	r3, [r3, #24]
 2202 000e BB61     		str	r3, [r7, #24]
 555:STM32F10x_Speex_Lib/libspeex/resample.c ****    st->oversample = quality_map[st->quality].oversample;
 2203              		.loc 2 555 0
 2204 0010 7B68     		ldr	r3, [r7, #4]
 2205 0012 1A69     		ldr	r2, [r3, #16]
 2206 0014 9649     		ldr	r1, .L111
 2207 0016 1346     		mov	r3, r2
 2208 0018 9B00     		lsls	r3, r3, #2
 2209 001a 1344     		add	r3, r3, r2
 2210 001c 9B00     		lsls	r3, r3, #2
 2211 001e 0B44     		add	r3, r3, r1
 2212 0020 0433     		adds	r3, r3, #4
 2213 0022 1B68     		ldr	r3, [r3]
 2214 0024 1A46     		mov	r2, r3
 2215 0026 7B68     		ldr	r3, [r7, #4]
 2216 0028 1A63     		str	r2, [r3, #48]
 556:STM32F10x_Speex_Lib/libspeex/resample.c ****    st->filt_len = quality_map[st->quality].base_length;
 2217              		.loc 2 556 0
 2218 002a 7B68     		ldr	r3, [r7, #4]
 2219 002c 1A69     		ldr	r2, [r3, #16]
 2220 002e 9049     		ldr	r1, .L111
 2221 0030 1346     		mov	r3, r2
 2222 0032 9B00     		lsls	r3, r3, #2
 2223 0034 1344     		add	r3, r3, r2
 2224 0036 9B00     		lsls	r3, r3, #2
 2225 0038 0B44     		add	r3, r3, r1
 2226 003a 1B68     		ldr	r3, [r3]
 2227 003c 1A46     		mov	r2, r3
 2228 003e 7B68     		ldr	r3, [r7, #4]
 2229 0040 9A61     		str	r2, [r3, #24]
 557:STM32F10x_Speex_Lib/libspeex/resample.c ****    
 558:STM32F10x_Speex_Lib/libspeex/resample.c ****    if (st->num_rate > st->den_rate)
 2230              		.loc 2 558 0
 2231 0042 7B68     		ldr	r3, [r7, #4]
 2232 0044 9A68     		ldr	r2, [r3, #8]
 2233 0046 7B68     		ldr	r3, [r7, #4]
 2234 0048 DB68     		ldr	r3, [r3, #12]
 2235 004a 9A42     		cmp	r2, r3
 2236 004c 6DD9     		bls	.L64
ARM GAS  /var/folders/kh/x4vltyy52lbg7p4pcyglc5080000gp/T//cc33Oc7n.s 			page 51


 559:STM32F10x_Speex_Lib/libspeex/resample.c ****    {
 560:STM32F10x_Speex_Lib/libspeex/resample.c ****       /* down-sampling */
 561:STM32F10x_Speex_Lib/libspeex/resample.c ****       st->cutoff = quality_map[st->quality].downsample_bandwidth * st->den_rate / st->num_rate;
 2237              		.loc 2 561 0
 2238 004e 7B68     		ldr	r3, [r7, #4]
 2239 0050 1A69     		ldr	r2, [r3, #16]
 2240 0052 8749     		ldr	r1, .L111
 2241 0054 1346     		mov	r3, r2
 2242 0056 9B00     		lsls	r3, r3, #2
 2243 0058 1344     		add	r3, r3, r2
 2244 005a 9B00     		lsls	r3, r3, #2
 2245 005c 0B44     		add	r3, r3, r1
 2246 005e 0833     		adds	r3, r3, #8
 2247 0060 1C68     		ldr	r4, [r3]	@ float
 2248 0062 7B68     		ldr	r3, [r7, #4]
 2249 0064 DB68     		ldr	r3, [r3, #12]
 2250 0066 1846     		mov	r0, r3
 2251 0068 FFF7FEFF 		bl	__aeabi_ui2f
 2252 006c 0346     		mov	r3, r0
 2253 006e 1946     		mov	r1, r3
 2254 0070 2046     		mov	r0, r4
 2255 0072 FFF7FEFF 		bl	__aeabi_fmul
 2256 0076 0346     		mov	r3, r0
 2257 0078 1C46     		mov	r4, r3
 2258 007a 7B68     		ldr	r3, [r7, #4]
 2259 007c 9B68     		ldr	r3, [r3, #8]
 2260 007e 1846     		mov	r0, r3
 2261 0080 FFF7FEFF 		bl	__aeabi_ui2f
 2262 0084 0346     		mov	r3, r0
 2263 0086 1946     		mov	r1, r3
 2264 0088 2046     		mov	r0, r4
 2265 008a FFF7FEFF 		bl	__aeabi_fdiv
 2266 008e 0346     		mov	r3, r0
 2267 0090 1A46     		mov	r2, r3
 2268 0092 7B68     		ldr	r3, [r7, #4]
 2269 0094 DA62     		str	r2, [r3, #44]	@ float
 562:STM32F10x_Speex_Lib/libspeex/resample.c ****       /* FIXME: divide the numerator and denominator by a certain amount if they're too large */
 563:STM32F10x_Speex_Lib/libspeex/resample.c ****       st->filt_len = st->filt_len*st->num_rate / st->den_rate;
 2270              		.loc 2 563 0
 2271 0096 7B68     		ldr	r3, [r7, #4]
 2272 0098 9B69     		ldr	r3, [r3, #24]
 2273 009a 7A68     		ldr	r2, [r7, #4]
 2274 009c 9268     		ldr	r2, [r2, #8]
 2275 009e 02FB03F2 		mul	r2, r2, r3
 2276 00a2 7B68     		ldr	r3, [r7, #4]
 2277 00a4 DB68     		ldr	r3, [r3, #12]
 2278 00a6 B2FBF3F2 		udiv	r2, r2, r3
 2279 00aa 7B68     		ldr	r3, [r7, #4]
 2280 00ac 9A61     		str	r2, [r3, #24]
 564:STM32F10x_Speex_Lib/libspeex/resample.c ****       /* Round down to make sure we have a multiple of 4 */
 565:STM32F10x_Speex_Lib/libspeex/resample.c ****       st->filt_len &= (~0x3);
 2281              		.loc 2 565 0
 2282 00ae 7B68     		ldr	r3, [r7, #4]
 2283 00b0 9B69     		ldr	r3, [r3, #24]
 2284 00b2 23F00302 		bic	r2, r3, #3
 2285 00b6 7B68     		ldr	r3, [r7, #4]
 2286 00b8 9A61     		str	r2, [r3, #24]
ARM GAS  /var/folders/kh/x4vltyy52lbg7p4pcyglc5080000gp/T//cc33Oc7n.s 			page 52


 566:STM32F10x_Speex_Lib/libspeex/resample.c ****       if (2*st->den_rate < st->num_rate)
 2287              		.loc 2 566 0
 2288 00ba 7B68     		ldr	r3, [r7, #4]
 2289 00bc DB68     		ldr	r3, [r3, #12]
 2290 00be 5A00     		lsls	r2, r3, #1
 2291 00c0 7B68     		ldr	r3, [r7, #4]
 2292 00c2 9B68     		ldr	r3, [r3, #8]
 2293 00c4 9A42     		cmp	r2, r3
 2294 00c6 04D2     		bcs	.L65
 567:STM32F10x_Speex_Lib/libspeex/resample.c ****          st->oversample >>= 1;
 2295              		.loc 2 567 0
 2296 00c8 7B68     		ldr	r3, [r7, #4]
 2297 00ca 1B6B     		ldr	r3, [r3, #48]
 2298 00cc 5A08     		lsrs	r2, r3, #1
 2299 00ce 7B68     		ldr	r3, [r7, #4]
 2300 00d0 1A63     		str	r2, [r3, #48]
 2301              	.L65:
 568:STM32F10x_Speex_Lib/libspeex/resample.c ****       if (4*st->den_rate < st->num_rate)
 2302              		.loc 2 568 0
 2303 00d2 7B68     		ldr	r3, [r7, #4]
 2304 00d4 DB68     		ldr	r3, [r3, #12]
 2305 00d6 9A00     		lsls	r2, r3, #2
 2306 00d8 7B68     		ldr	r3, [r7, #4]
 2307 00da 9B68     		ldr	r3, [r3, #8]
 2308 00dc 9A42     		cmp	r2, r3
 2309 00de 04D2     		bcs	.L66
 569:STM32F10x_Speex_Lib/libspeex/resample.c ****          st->oversample >>= 1;
 2310              		.loc 2 569 0
 2311 00e0 7B68     		ldr	r3, [r7, #4]
 2312 00e2 1B6B     		ldr	r3, [r3, #48]
 2313 00e4 5A08     		lsrs	r2, r3, #1
 2314 00e6 7B68     		ldr	r3, [r7, #4]
 2315 00e8 1A63     		str	r2, [r3, #48]
 2316              	.L66:
 570:STM32F10x_Speex_Lib/libspeex/resample.c ****       if (8*st->den_rate < st->num_rate)
 2317              		.loc 2 570 0
 2318 00ea 7B68     		ldr	r3, [r7, #4]
 2319 00ec DB68     		ldr	r3, [r3, #12]
 2320 00ee DA00     		lsls	r2, r3, #3
 2321 00f0 7B68     		ldr	r3, [r7, #4]
 2322 00f2 9B68     		ldr	r3, [r3, #8]
 2323 00f4 9A42     		cmp	r2, r3
 2324 00f6 04D2     		bcs	.L67
 571:STM32F10x_Speex_Lib/libspeex/resample.c ****          st->oversample >>= 1;
 2325              		.loc 2 571 0
 2326 00f8 7B68     		ldr	r3, [r7, #4]
 2327 00fa 1B6B     		ldr	r3, [r3, #48]
 2328 00fc 5A08     		lsrs	r2, r3, #1
 2329 00fe 7B68     		ldr	r3, [r7, #4]
 2330 0100 1A63     		str	r2, [r3, #48]
 2331              	.L67:
 572:STM32F10x_Speex_Lib/libspeex/resample.c ****       if (16*st->den_rate < st->num_rate)
 2332              		.loc 2 572 0
 2333 0102 7B68     		ldr	r3, [r7, #4]
 2334 0104 DB68     		ldr	r3, [r3, #12]
 2335 0106 1A01     		lsls	r2, r3, #4
 2336 0108 7B68     		ldr	r3, [r7, #4]
ARM GAS  /var/folders/kh/x4vltyy52lbg7p4pcyglc5080000gp/T//cc33Oc7n.s 			page 53


 2337 010a 9B68     		ldr	r3, [r3, #8]
 2338 010c 9A42     		cmp	r2, r3
 2339 010e 04D2     		bcs	.L68
 573:STM32F10x_Speex_Lib/libspeex/resample.c ****          st->oversample >>= 1;
 2340              		.loc 2 573 0
 2341 0110 7B68     		ldr	r3, [r7, #4]
 2342 0112 1B6B     		ldr	r3, [r3, #48]
 2343 0114 5A08     		lsrs	r2, r3, #1
 2344 0116 7B68     		ldr	r3, [r7, #4]
 2345 0118 1A63     		str	r2, [r3, #48]
 2346              	.L68:
 574:STM32F10x_Speex_Lib/libspeex/resample.c ****       if (st->oversample < 1)
 2347              		.loc 2 574 0
 2348 011a 7B68     		ldr	r3, [r7, #4]
 2349 011c 1B6B     		ldr	r3, [r3, #48]
 2350 011e 002B     		cmp	r3, #0
 2351 0120 0FD1     		bne	.L70
 575:STM32F10x_Speex_Lib/libspeex/resample.c ****          st->oversample = 1;
 2352              		.loc 2 575 0
 2353 0122 7B68     		ldr	r3, [r7, #4]
 2354 0124 0122     		movs	r2, #1
 2355 0126 1A63     		str	r2, [r3, #48]
 2356 0128 0BE0     		b	.L70
 2357              	.L64:
 576:STM32F10x_Speex_Lib/libspeex/resample.c ****    } else {
 577:STM32F10x_Speex_Lib/libspeex/resample.c ****       /* up-sampling */
 578:STM32F10x_Speex_Lib/libspeex/resample.c ****       st->cutoff = quality_map[st->quality].upsample_bandwidth;
 2358              		.loc 2 578 0
 2359 012a 7B68     		ldr	r3, [r7, #4]
 2360 012c 1A69     		ldr	r2, [r3, #16]
 2361 012e 5049     		ldr	r1, .L111
 2362 0130 1346     		mov	r3, r2
 2363 0132 9B00     		lsls	r3, r3, #2
 2364 0134 1344     		add	r3, r3, r2
 2365 0136 9B00     		lsls	r3, r3, #2
 2366 0138 0B44     		add	r3, r3, r1
 2367 013a 0C33     		adds	r3, r3, #12
 2368 013c 1A68     		ldr	r2, [r3]	@ float
 2369 013e 7B68     		ldr	r3, [r7, #4]
 2370 0140 DA62     		str	r2, [r3, #44]	@ float
 2371              	.L70:
 579:STM32F10x_Speex_Lib/libspeex/resample.c ****    }
 580:STM32F10x_Speex_Lib/libspeex/resample.c ****    
 581:STM32F10x_Speex_Lib/libspeex/resample.c ****    /* Choose the resampling type that requires the least amount of memory */
 582:STM32F10x_Speex_Lib/libspeex/resample.c ****    if (st->den_rate <= st->oversample)
 2372              		.loc 2 582 0
 2373 0142 7B68     		ldr	r3, [r7, #4]
 2374 0144 DA68     		ldr	r2, [r3, #12]
 2375 0146 7B68     		ldr	r3, [r7, #4]
 2376 0148 1B6B     		ldr	r3, [r3, #48]
 2377 014a 9A42     		cmp	r2, r3
 2378 014c 00F29480 		bhi	.L71
 2379              	.LBB5:
 583:STM32F10x_Speex_Lib/libspeex/resample.c ****    {
 584:STM32F10x_Speex_Lib/libspeex/resample.c ****       spx_uint32_t i;
 585:STM32F10x_Speex_Lib/libspeex/resample.c ****       if (!st->sinc_table)
 2380              		.loc 2 585 0
ARM GAS  /var/folders/kh/x4vltyy52lbg7p4pcyglc5080000gp/T//cc33Oc7n.s 			page 54


 2381 0150 7B68     		ldr	r3, [r7, #4]
 2382 0152 DB6C     		ldr	r3, [r3, #76]
 2383 0154 002B     		cmp	r3, #0
 2384 0156 0DD1     		bne	.L72
 586:STM32F10x_Speex_Lib/libspeex/resample.c ****          st->sinc_table = (spx_word16_t *)speex_alloc(st->filt_len*st->den_rate*sizeof(spx_word16_t
 2385              		.loc 2 586 0
 2386 0158 7B68     		ldr	r3, [r7, #4]
 2387 015a 9B69     		ldr	r3, [r3, #24]
 2388 015c 7A68     		ldr	r2, [r7, #4]
 2389 015e D268     		ldr	r2, [r2, #12]
 2390 0160 02FB03F3 		mul	r3, r2, r3
 2391 0164 5B00     		lsls	r3, r3, #1
 2392 0166 1846     		mov	r0, r3
 2393 0168 FFF7FEFF 		bl	speex_alloc
 2394 016c 0246     		mov	r2, r0
 2395 016e 7B68     		ldr	r3, [r7, #4]
 2396 0170 DA64     		str	r2, [r3, #76]
 2397 0172 20E0     		b	.L73
 2398              	.L72:
 587:STM32F10x_Speex_Lib/libspeex/resample.c ****       else if (st->sinc_table_length < st->filt_len*st->den_rate)
 2399              		.loc 2 587 0
 2400 0174 7B68     		ldr	r3, [r7, #4]
 2401 0176 1A6D     		ldr	r2, [r3, #80]
 2402 0178 7B68     		ldr	r3, [r7, #4]
 2403 017a 9B69     		ldr	r3, [r3, #24]
 2404 017c 7968     		ldr	r1, [r7, #4]
 2405 017e C968     		ldr	r1, [r1, #12]
 2406 0180 01FB03F3 		mul	r3, r1, r3
 2407 0184 9A42     		cmp	r2, r3
 2408 0186 16D2     		bcs	.L73
 588:STM32F10x_Speex_Lib/libspeex/resample.c ****       {
 589:STM32F10x_Speex_Lib/libspeex/resample.c ****          st->sinc_table = (spx_word16_t *)speex_realloc(st->sinc_table,st->filt_len*st->den_rate*si
 2409              		.loc 2 589 0
 2410 0188 7B68     		ldr	r3, [r7, #4]
 2411 018a D86C     		ldr	r0, [r3, #76]
 2412 018c 7B68     		ldr	r3, [r7, #4]
 2413 018e 9B69     		ldr	r3, [r3, #24]
 2414 0190 7A68     		ldr	r2, [r7, #4]
 2415 0192 D268     		ldr	r2, [r2, #12]
 2416 0194 02FB03F3 		mul	r3, r2, r3
 2417 0198 5B00     		lsls	r3, r3, #1
 2418 019a 1946     		mov	r1, r3
 2419 019c FFF7FEFF 		bl	speex_realloc
 2420 01a0 0246     		mov	r2, r0
 2421 01a2 7B68     		ldr	r3, [r7, #4]
 2422 01a4 DA64     		str	r2, [r3, #76]
 590:STM32F10x_Speex_Lib/libspeex/resample.c ****          st->sinc_table_length = st->filt_len*st->den_rate;
 2423              		.loc 2 590 0
 2424 01a6 7B68     		ldr	r3, [r7, #4]
 2425 01a8 9B69     		ldr	r3, [r3, #24]
 2426 01aa 7A68     		ldr	r2, [r7, #4]
 2427 01ac D268     		ldr	r2, [r2, #12]
 2428 01ae 02FB03F2 		mul	r2, r2, r3
 2429 01b2 7B68     		ldr	r3, [r7, #4]
 2430 01b4 1A65     		str	r2, [r3, #80]
 2431              	.L73:
 591:STM32F10x_Speex_Lib/libspeex/resample.c ****       }
ARM GAS  /var/folders/kh/x4vltyy52lbg7p4pcyglc5080000gp/T//cc33Oc7n.s 			page 55


 592:STM32F10x_Speex_Lib/libspeex/resample.c ****       for (i=0;i<st->den_rate;i++)
 2432              		.loc 2 592 0
 2433 01b6 0023     		movs	r3, #0
 2434 01b8 FB63     		str	r3, [r7, #60]
 2435 01ba 50E0     		b	.L74
 2436              	.L77:
 2437              	.LBB6:
 593:STM32F10x_Speex_Lib/libspeex/resample.c ****       {
 594:STM32F10x_Speex_Lib/libspeex/resample.c ****          spx_int32_t j;
 595:STM32F10x_Speex_Lib/libspeex/resample.c ****          for (j=0;j<st->filt_len;j++)
 2438              		.loc 2 595 0
 2439 01bc 0023     		movs	r3, #0
 2440 01be BB63     		str	r3, [r7, #56]
 2441 01c0 45E0     		b	.L75
 2442              	.L76:
 596:STM32F10x_Speex_Lib/libspeex/resample.c ****          {
 597:STM32F10x_Speex_Lib/libspeex/resample.c ****             st->sinc_table[i*st->filt_len+j] = sinc(st->cutoff,((j-(spx_int32_t)st->filt_len/2+1)-(
 2443              		.loc 2 597 0 discriminator 3
 2444 01c2 7B68     		ldr	r3, [r7, #4]
 2445 01c4 DA6C     		ldr	r2, [r3, #76]
 2446 01c6 7B68     		ldr	r3, [r7, #4]
 2447 01c8 9B69     		ldr	r3, [r3, #24]
 2448 01ca F96B     		ldr	r1, [r7, #60]
 2449 01cc 01FB03F1 		mul	r1, r1, r3
 2450 01d0 BB6B     		ldr	r3, [r7, #56]
 2451 01d2 0B44     		add	r3, r3, r1
 2452 01d4 5B00     		lsls	r3, r3, #1
 2453 01d6 D418     		adds	r4, r2, r3
 2454 01d8 7B68     		ldr	r3, [r7, #4]
 2455 01da DD6A     		ldr	r5, [r3, #44]	@ float
 2456 01dc 7B68     		ldr	r3, [r7, #4]
 2457 01de 9B69     		ldr	r3, [r3, #24]
 2458 01e0 DA0F     		lsrs	r2, r3, #31
 2459 01e2 1344     		add	r3, r3, r2
 2460 01e4 5B10     		asrs	r3, r3, #1
 2461 01e6 1A46     		mov	r2, r3
 2462 01e8 BB6B     		ldr	r3, [r7, #56]
 2463 01ea 9B1A     		subs	r3, r3, r2
 2464 01ec 0133     		adds	r3, r3, #1
 2465 01ee 1846     		mov	r0, r3
 2466 01f0 FFF7FEFF 		bl	__aeabi_i2f
 2467 01f4 0646     		mov	r6, r0
 2468 01f6 F86B     		ldr	r0, [r7, #60]
 2469 01f8 FFF7FEFF 		bl	__aeabi_ui2f
 2470 01fc 8046     		mov	r8, r0
 2471 01fe 7B68     		ldr	r3, [r7, #4]
 2472 0200 DB68     		ldr	r3, [r3, #12]
 2473 0202 1846     		mov	r0, r3
 2474 0204 FFF7FEFF 		bl	__aeabi_ui2f
 2475 0208 0346     		mov	r3, r0
 2476 020a 1946     		mov	r1, r3
 2477 020c 4046     		mov	r0, r8
 2478 020e FFF7FEFF 		bl	__aeabi_fdiv
 2479 0212 0346     		mov	r3, r0
 2480 0214 1946     		mov	r1, r3
 2481 0216 3046     		mov	r0, r6
 2482 0218 FFF7FEFF 		bl	__aeabi_fsub
ARM GAS  /var/folders/kh/x4vltyy52lbg7p4pcyglc5080000gp/T//cc33Oc7n.s 			page 56


 2483 021c 0346     		mov	r3, r0
 2484 021e 1846     		mov	r0, r3
 2485 0220 7B68     		ldr	r3, [r7, #4]
 2486 0222 9B69     		ldr	r3, [r3, #24]
 2487 0224 1E46     		mov	r6, r3
 2488 0226 7B68     		ldr	r3, [r7, #4]
 2489 0228 1A69     		ldr	r2, [r3, #16]
 2490 022a 1149     		ldr	r1, .L111
 2491 022c 1346     		mov	r3, r2
 2492 022e 9B00     		lsls	r3, r3, #2
 2493 0230 1344     		add	r3, r3, r2
 2494 0232 9B00     		lsls	r3, r3, #2
 2495 0234 0B44     		add	r3, r3, r1
 2496 0236 1033     		adds	r3, r3, #16
 2497 0238 1B68     		ldr	r3, [r3]
 2498 023a 3246     		mov	r2, r6
 2499 023c 0146     		mov	r1, r0
 2500 023e 2846     		mov	r0, r5
 2501 0240 FFF7FEFF 		bl	sinc
 2502 0244 0346     		mov	r3, r0
 2503 0246 2380     		strh	r3, [r4]	@ movhi
 595:STM32F10x_Speex_Lib/libspeex/resample.c ****          {
 2504              		.loc 2 595 0 discriminator 3
 2505 0248 BB6B     		ldr	r3, [r7, #56]
 2506 024a 0133     		adds	r3, r3, #1
 2507 024c BB63     		str	r3, [r7, #56]
 2508              	.L75:
 595:STM32F10x_Speex_Lib/libspeex/resample.c ****          {
 2509              		.loc 2 595 0 is_stmt 0 discriminator 1
 2510 024e 7B68     		ldr	r3, [r7, #4]
 2511 0250 9A69     		ldr	r2, [r3, #24]
 2512 0252 BB6B     		ldr	r3, [r7, #56]
 2513 0254 9A42     		cmp	r2, r3
 2514 0256 B4D8     		bhi	.L76
 2515              	.LBE6:
 592:STM32F10x_Speex_Lib/libspeex/resample.c ****       {
 2516              		.loc 2 592 0 is_stmt 1 discriminator 2
 2517 0258 FB6B     		ldr	r3, [r7, #60]
 2518 025a 0133     		adds	r3, r3, #1
 2519 025c FB63     		str	r3, [r7, #60]
 2520              	.L74:
 592:STM32F10x_Speex_Lib/libspeex/resample.c ****       {
 2521              		.loc 2 592 0 is_stmt 0 discriminator 1
 2522 025e 7B68     		ldr	r3, [r7, #4]
 2523 0260 DA68     		ldr	r2, [r3, #12]
 2524 0262 FB6B     		ldr	r3, [r7, #60]
 2525 0264 9A42     		cmp	r2, r3
 2526 0266 A9D8     		bhi	.L77
 598:STM32F10x_Speex_Lib/libspeex/resample.c ****          }
 599:STM32F10x_Speex_Lib/libspeex/resample.c ****       }
 600:STM32F10x_Speex_Lib/libspeex/resample.c **** #ifdef FIXED_POINT
 601:STM32F10x_Speex_Lib/libspeex/resample.c ****       st->resampler_ptr = resampler_basic_direct_single;
 2527              		.loc 2 601 0 is_stmt 1
 2528 0268 7B68     		ldr	r3, [r7, #4]
 2529 026a 024A     		ldr	r2, .L111+4
 2530 026c 5A65     		str	r2, [r3, #84]
 2531              	.LBE5:
ARM GAS  /var/folders/kh/x4vltyy52lbg7p4pcyglc5080000gp/T//cc33Oc7n.s 			page 57


 2532 026e 89E0     		b	.L78
 2533              	.L112:
 2534              		.align	2
 2535              	.L111:
 2536 0270 00000000 		.word	quality_map
 2537 0274 00000000 		.word	resampler_basic_direct_single
 2538              	.L71:
 2539              	.LBB7:
 602:STM32F10x_Speex_Lib/libspeex/resample.c **** #else
 603:STM32F10x_Speex_Lib/libspeex/resample.c ****       if (st->quality>8)
 604:STM32F10x_Speex_Lib/libspeex/resample.c ****          st->resampler_ptr = resampler_basic_direct_double;
 605:STM32F10x_Speex_Lib/libspeex/resample.c ****       else
 606:STM32F10x_Speex_Lib/libspeex/resample.c ****          st->resampler_ptr = resampler_basic_direct_single;
 607:STM32F10x_Speex_Lib/libspeex/resample.c **** #endif
 608:STM32F10x_Speex_Lib/libspeex/resample.c ****       /*fprintf (stderr, "resampler uses direct sinc table and normalised cutoff %f\n", cutoff);*/
 609:STM32F10x_Speex_Lib/libspeex/resample.c ****    } else {
 610:STM32F10x_Speex_Lib/libspeex/resample.c ****       spx_int32_t i;
 611:STM32F10x_Speex_Lib/libspeex/resample.c ****       if (!st->sinc_table)
 2540              		.loc 2 611 0
 2541 0278 7B68     		ldr	r3, [r7, #4]
 2542 027a DB6C     		ldr	r3, [r3, #76]
 2543 027c 002B     		cmp	r3, #0
 2544 027e 0ED1     		bne	.L79
 612:STM32F10x_Speex_Lib/libspeex/resample.c ****          st->sinc_table = (spx_word16_t *)speex_alloc((st->filt_len*st->oversample+8)*sizeof(spx_wo
 2545              		.loc 2 612 0
 2546 0280 7B68     		ldr	r3, [r7, #4]
 2547 0282 9B69     		ldr	r3, [r3, #24]
 2548 0284 7A68     		ldr	r2, [r7, #4]
 2549 0286 126B     		ldr	r2, [r2, #48]
 2550 0288 02FB03F3 		mul	r3, r2, r3
 2551 028c 0833     		adds	r3, r3, #8
 2552 028e 5B00     		lsls	r3, r3, #1
 2553 0290 1846     		mov	r0, r3
 2554 0292 FFF7FEFF 		bl	speex_alloc
 2555 0296 0246     		mov	r2, r0
 2556 0298 7B68     		ldr	r3, [r7, #4]
 2557 029a DA64     		str	r2, [r3, #76]
 2558 029c 24E0     		b	.L80
 2559              	.L79:
 613:STM32F10x_Speex_Lib/libspeex/resample.c ****       else if (st->sinc_table_length < st->filt_len*st->oversample+8)
 2560              		.loc 2 613 0
 2561 029e 7B68     		ldr	r3, [r7, #4]
 2562 02a0 1A6D     		ldr	r2, [r3, #80]
 2563 02a2 7B68     		ldr	r3, [r7, #4]
 2564 02a4 9B69     		ldr	r3, [r3, #24]
 2565 02a6 7968     		ldr	r1, [r7, #4]
 2566 02a8 096B     		ldr	r1, [r1, #48]
 2567 02aa 01FB03F3 		mul	r3, r1, r3
 2568 02ae 0833     		adds	r3, r3, #8
 2569 02b0 9A42     		cmp	r2, r3
 2570 02b2 19D2     		bcs	.L80
 614:STM32F10x_Speex_Lib/libspeex/resample.c ****       {
 615:STM32F10x_Speex_Lib/libspeex/resample.c ****          st->sinc_table = (spx_word16_t *)speex_realloc(st->sinc_table,(st->filt_len*st->oversample
 2571              		.loc 2 615 0
 2572 02b4 7B68     		ldr	r3, [r7, #4]
 2573 02b6 D86C     		ldr	r0, [r3, #76]
 2574 02b8 7B68     		ldr	r3, [r7, #4]
ARM GAS  /var/folders/kh/x4vltyy52lbg7p4pcyglc5080000gp/T//cc33Oc7n.s 			page 58


 2575 02ba 9B69     		ldr	r3, [r3, #24]
 2576 02bc 7A68     		ldr	r2, [r7, #4]
 2577 02be 126B     		ldr	r2, [r2, #48]
 2578 02c0 02FB03F3 		mul	r3, r2, r3
 2579 02c4 0833     		adds	r3, r3, #8
 2580 02c6 5B00     		lsls	r3, r3, #1
 2581 02c8 1946     		mov	r1, r3
 2582 02ca FFF7FEFF 		bl	speex_realloc
 2583 02ce 0246     		mov	r2, r0
 2584 02d0 7B68     		ldr	r3, [r7, #4]
 2585 02d2 DA64     		str	r2, [r3, #76]
 616:STM32F10x_Speex_Lib/libspeex/resample.c ****          st->sinc_table_length = st->filt_len*st->oversample+8;
 2586              		.loc 2 616 0
 2587 02d4 7B68     		ldr	r3, [r7, #4]
 2588 02d6 9B69     		ldr	r3, [r3, #24]
 2589 02d8 7A68     		ldr	r2, [r7, #4]
 2590 02da 126B     		ldr	r2, [r2, #48]
 2591 02dc 02FB03F3 		mul	r3, r2, r3
 2592 02e0 03F10802 		add	r2, r3, #8
 2593 02e4 7B68     		ldr	r3, [r7, #4]
 2594 02e6 1A65     		str	r2, [r3, #80]
 2595              	.L80:
 617:STM32F10x_Speex_Lib/libspeex/resample.c ****       }
 618:STM32F10x_Speex_Lib/libspeex/resample.c ****       for (i=-4;i<(spx_int32_t)(st->oversample*st->filt_len+4);i++)
 2596              		.loc 2 618 0
 2597 02e8 6FF00303 		mvn	r3, #3
 2598 02ec 7B63     		str	r3, [r7, #52]
 2599 02ee 3BE0     		b	.L81
 2600              	.L82:
 619:STM32F10x_Speex_Lib/libspeex/resample.c ****          st->sinc_table[i+4] = sinc(st->cutoff,(i/(float)st->oversample - st->filt_len/2), st->filt
 2601              		.loc 2 619 0 discriminator 3
 2602 02f0 7B68     		ldr	r3, [r7, #4]
 2603 02f2 DA6C     		ldr	r2, [r3, #76]
 2604 02f4 7B6B     		ldr	r3, [r7, #52]
 2605 02f6 0433     		adds	r3, r3, #4
 2606 02f8 5B00     		lsls	r3, r3, #1
 2607 02fa D418     		adds	r4, r2, r3
 2608 02fc 7B68     		ldr	r3, [r7, #4]
 2609 02fe DD6A     		ldr	r5, [r3, #44]	@ float
 2610 0300 786B     		ldr	r0, [r7, #52]
 2611 0302 FFF7FEFF 		bl	__aeabi_i2f
 2612 0306 0646     		mov	r6, r0
 2613 0308 7B68     		ldr	r3, [r7, #4]
 2614 030a 1B6B     		ldr	r3, [r3, #48]
 2615 030c 1846     		mov	r0, r3
 2616 030e FFF7FEFF 		bl	__aeabi_ui2f
 2617 0312 0346     		mov	r3, r0
 2618 0314 1946     		mov	r1, r3
 2619 0316 3046     		mov	r0, r6
 2620 0318 FFF7FEFF 		bl	__aeabi_fdiv
 2621 031c 0346     		mov	r3, r0
 2622 031e 1E46     		mov	r6, r3
 2623 0320 7B68     		ldr	r3, [r7, #4]
 2624 0322 9B69     		ldr	r3, [r3, #24]
 2625 0324 5B08     		lsrs	r3, r3, #1
 2626 0326 1846     		mov	r0, r3
 2627 0328 FFF7FEFF 		bl	__aeabi_ui2f
ARM GAS  /var/folders/kh/x4vltyy52lbg7p4pcyglc5080000gp/T//cc33Oc7n.s 			page 59


 2628 032c 0346     		mov	r3, r0
 2629 032e 1946     		mov	r1, r3
 2630 0330 3046     		mov	r0, r6
 2631 0332 FFF7FEFF 		bl	__aeabi_fsub
 2632 0336 0346     		mov	r3, r0
 2633 0338 1846     		mov	r0, r3
 2634 033a 7B68     		ldr	r3, [r7, #4]
 2635 033c 9B69     		ldr	r3, [r3, #24]
 2636 033e 1E46     		mov	r6, r3
 2637 0340 7B68     		ldr	r3, [r7, #4]
 2638 0342 1A69     		ldr	r2, [r3, #16]
 2639 0344 9649     		ldr	r1, .L113
 2640 0346 1346     		mov	r3, r2
 2641 0348 9B00     		lsls	r3, r3, #2
 2642 034a 1344     		add	r3, r3, r2
 2643 034c 9B00     		lsls	r3, r3, #2
 2644 034e 0B44     		add	r3, r3, r1
 2645 0350 1033     		adds	r3, r3, #16
 2646 0352 1B68     		ldr	r3, [r3]
 2647 0354 3246     		mov	r2, r6
 2648 0356 0146     		mov	r1, r0
 2649 0358 2846     		mov	r0, r5
 2650 035a FFF7FEFF 		bl	sinc
 2651 035e 0346     		mov	r3, r0
 2652 0360 2380     		strh	r3, [r4]	@ movhi
 618:STM32F10x_Speex_Lib/libspeex/resample.c ****          st->sinc_table[i+4] = sinc(st->cutoff,(i/(float)st->oversample - st->filt_len/2), st->filt
 2653              		.loc 2 618 0 discriminator 3
 2654 0362 7B6B     		ldr	r3, [r7, #52]
 2655 0364 0133     		adds	r3, r3, #1
 2656 0366 7B63     		str	r3, [r7, #52]
 2657              	.L81:
 618:STM32F10x_Speex_Lib/libspeex/resample.c ****          st->sinc_table[i+4] = sinc(st->cutoff,(i/(float)st->oversample - st->filt_len/2), st->filt
 2658              		.loc 2 618 0 is_stmt 0 discriminator 1
 2659 0368 7B68     		ldr	r3, [r7, #4]
 2660 036a 1B6B     		ldr	r3, [r3, #48]
 2661 036c 7A68     		ldr	r2, [r7, #4]
 2662 036e 9269     		ldr	r2, [r2, #24]
 2663 0370 02FB03F3 		mul	r3, r2, r3
 2664 0374 0433     		adds	r3, r3, #4
 2665 0376 1A46     		mov	r2, r3
 2666 0378 7B6B     		ldr	r3, [r7, #52]
 2667 037a 9A42     		cmp	r2, r3
 2668 037c B8DC     		bgt	.L82
 620:STM32F10x_Speex_Lib/libspeex/resample.c **** #ifdef FIXED_POINT
 621:STM32F10x_Speex_Lib/libspeex/resample.c ****       st->resampler_ptr = resampler_basic_interpolate_single;
 2669              		.loc 2 621 0 is_stmt 1
 2670 037e 7B68     		ldr	r3, [r7, #4]
 2671 0380 884A     		ldr	r2, .L113+4
 2672 0382 5A65     		str	r2, [r3, #84]
 2673              	.L78:
 2674              	.LBE7:
 622:STM32F10x_Speex_Lib/libspeex/resample.c **** #else
 623:STM32F10x_Speex_Lib/libspeex/resample.c ****       if (st->quality>8)
 624:STM32F10x_Speex_Lib/libspeex/resample.c ****          st->resampler_ptr = resampler_basic_interpolate_double;
 625:STM32F10x_Speex_Lib/libspeex/resample.c ****       else
 626:STM32F10x_Speex_Lib/libspeex/resample.c ****          st->resampler_ptr = resampler_basic_interpolate_single;
 627:STM32F10x_Speex_Lib/libspeex/resample.c **** #endif
ARM GAS  /var/folders/kh/x4vltyy52lbg7p4pcyglc5080000gp/T//cc33Oc7n.s 			page 60


 628:STM32F10x_Speex_Lib/libspeex/resample.c ****       /*fprintf (stderr, "resampler uses interpolated sinc table and normalised cutoff %f\n", cutof
 629:STM32F10x_Speex_Lib/libspeex/resample.c ****    }
 630:STM32F10x_Speex_Lib/libspeex/resample.c ****    st->int_advance = st->num_rate/st->den_rate;
 2675              		.loc 2 630 0
 2676 0384 7B68     		ldr	r3, [r7, #4]
 2677 0386 9A68     		ldr	r2, [r3, #8]
 2678 0388 7B68     		ldr	r3, [r7, #4]
 2679 038a DB68     		ldr	r3, [r3, #12]
 2680 038c B2FBF3F3 		udiv	r3, r2, r3
 2681 0390 1A46     		mov	r2, r3
 2682 0392 7B68     		ldr	r3, [r7, #4]
 2683 0394 5A62     		str	r2, [r3, #36]
 631:STM32F10x_Speex_Lib/libspeex/resample.c ****    st->frac_advance = st->num_rate%st->den_rate;
 2684              		.loc 2 631 0
 2685 0396 7B68     		ldr	r3, [r7, #4]
 2686 0398 9B68     		ldr	r3, [r3, #8]
 2687 039a 7A68     		ldr	r2, [r7, #4]
 2688 039c D268     		ldr	r2, [r2, #12]
 2689 039e B3FBF2F1 		udiv	r1, r3, r2
 2690 03a2 02FB01F2 		mul	r2, r2, r1
 2691 03a6 9B1A     		subs	r3, r3, r2
 2692 03a8 1A46     		mov	r2, r3
 2693 03aa 7B68     		ldr	r3, [r7, #4]
 2694 03ac 9A62     		str	r2, [r3, #40]
 632:STM32F10x_Speex_Lib/libspeex/resample.c **** 
 633:STM32F10x_Speex_Lib/libspeex/resample.c ****    
 634:STM32F10x_Speex_Lib/libspeex/resample.c ****    /* Here's the place where we update the filter memory to take into account
 635:STM32F10x_Speex_Lib/libspeex/resample.c ****       the change in filter length. It's probably the messiest part of the code
 636:STM32F10x_Speex_Lib/libspeex/resample.c ****       due to handling of lots of corner cases. */
 637:STM32F10x_Speex_Lib/libspeex/resample.c ****    if (!st->mem)
 2695              		.loc 2 637 0
 2696 03ae 7B68     		ldr	r3, [r7, #4]
 2697 03b0 9B6C     		ldr	r3, [r3, #72]
 2698 03b2 002B     		cmp	r3, #0
 2699 03b4 2BD1     		bne	.L83
 2700              	.LBB8:
 638:STM32F10x_Speex_Lib/libspeex/resample.c ****    {
 639:STM32F10x_Speex_Lib/libspeex/resample.c ****       spx_uint32_t i;
 640:STM32F10x_Speex_Lib/libspeex/resample.c ****       st->mem_alloc_size = st->filt_len-1 + st->buffer_size;
 2701              		.loc 2 640 0
 2702 03b6 7B68     		ldr	r3, [r7, #4]
 2703 03b8 9A69     		ldr	r2, [r3, #24]
 2704 03ba 7B68     		ldr	r3, [r7, #4]
 2705 03bc 1B6A     		ldr	r3, [r3, #32]
 2706 03be 1344     		add	r3, r3, r2
 2707 03c0 5A1E     		subs	r2, r3, #1
 2708 03c2 7B68     		ldr	r3, [r7, #4]
 2709 03c4 DA61     		str	r2, [r3, #28]
 641:STM32F10x_Speex_Lib/libspeex/resample.c ****       st->mem = (spx_word16_t*)speex_alloc(st->nb_channels*st->mem_alloc_size * sizeof(spx_word16_t
 2710              		.loc 2 641 0
 2711 03c6 7B68     		ldr	r3, [r7, #4]
 2712 03c8 5B69     		ldr	r3, [r3, #20]
 2713 03ca 7A68     		ldr	r2, [r7, #4]
 2714 03cc D269     		ldr	r2, [r2, #28]
 2715 03ce 02FB03F3 		mul	r3, r2, r3
 2716 03d2 5B00     		lsls	r3, r3, #1
 2717 03d4 1846     		mov	r0, r3
ARM GAS  /var/folders/kh/x4vltyy52lbg7p4pcyglc5080000gp/T//cc33Oc7n.s 			page 61


 2718 03d6 FFF7FEFF 		bl	speex_alloc
 2719 03da 0246     		mov	r2, r0
 2720 03dc 7B68     		ldr	r3, [r7, #4]
 2721 03de 9A64     		str	r2, [r3, #72]
 642:STM32F10x_Speex_Lib/libspeex/resample.c ****       for (i=0;i<st->nb_channels*st->mem_alloc_size;i++)
 2722              		.loc 2 642 0
 2723 03e0 0023     		movs	r3, #0
 2724 03e2 3B63     		str	r3, [r7, #48]
 2725 03e4 09E0     		b	.L84
 2726              	.L85:
 643:STM32F10x_Speex_Lib/libspeex/resample.c ****          st->mem[i] = 0;
 2727              		.loc 2 643 0 discriminator 3
 2728 03e6 7B68     		ldr	r3, [r7, #4]
 2729 03e8 9A6C     		ldr	r2, [r3, #72]
 2730 03ea 3B6B     		ldr	r3, [r7, #48]
 2731 03ec 5B00     		lsls	r3, r3, #1
 2732 03ee 1344     		add	r3, r3, r2
 2733 03f0 0022     		movs	r2, #0
 2734 03f2 1A80     		strh	r2, [r3]	@ movhi
 642:STM32F10x_Speex_Lib/libspeex/resample.c ****       for (i=0;i<st->nb_channels*st->mem_alloc_size;i++)
 2735              		.loc 2 642 0 discriminator 3
 2736 03f4 3B6B     		ldr	r3, [r7, #48]
 2737 03f6 0133     		adds	r3, r3, #1
 2738 03f8 3B63     		str	r3, [r7, #48]
 2739              	.L84:
 642:STM32F10x_Speex_Lib/libspeex/resample.c ****       for (i=0;i<st->nb_channels*st->mem_alloc_size;i++)
 2740              		.loc 2 642 0 is_stmt 0 discriminator 1
 2741 03fa 7B68     		ldr	r3, [r7, #4]
 2742 03fc 5B69     		ldr	r3, [r3, #20]
 2743 03fe 7A68     		ldr	r2, [r7, #4]
 2744 0400 D269     		ldr	r2, [r2, #28]
 2745 0402 02FB03F2 		mul	r2, r2, r3
 2746 0406 3B6B     		ldr	r3, [r7, #48]
 2747 0408 9A42     		cmp	r2, r3
 2748 040a ECD8     		bhi	.L85
 2749              	.LBE8:
 644:STM32F10x_Speex_Lib/libspeex/resample.c ****       /*speex_warning("init filter");*/
 645:STM32F10x_Speex_Lib/libspeex/resample.c ****    } else if (!st->started)
 646:STM32F10x_Speex_Lib/libspeex/resample.c ****    {
 647:STM32F10x_Speex_Lib/libspeex/resample.c ****       spx_uint32_t i;
 648:STM32F10x_Speex_Lib/libspeex/resample.c ****       st->mem_alloc_size = st->filt_len-1 + st->buffer_size;
 649:STM32F10x_Speex_Lib/libspeex/resample.c ****       st->mem = (spx_word16_t*)speex_realloc(st->mem, st->nb_channels*st->mem_alloc_size * sizeof(s
 650:STM32F10x_Speex_Lib/libspeex/resample.c ****       for (i=0;i<st->nb_channels*st->mem_alloc_size;i++)
 651:STM32F10x_Speex_Lib/libspeex/resample.c ****          st->mem[i] = 0;
 652:STM32F10x_Speex_Lib/libspeex/resample.c ****       /*speex_warning("reinit filter");*/
 653:STM32F10x_Speex_Lib/libspeex/resample.c ****    } else if (st->filt_len > old_length)
 654:STM32F10x_Speex_Lib/libspeex/resample.c ****    {
 655:STM32F10x_Speex_Lib/libspeex/resample.c ****       spx_int32_t i;
 656:STM32F10x_Speex_Lib/libspeex/resample.c ****       /* Increase the filter length */
 657:STM32F10x_Speex_Lib/libspeex/resample.c ****       /*speex_warning("increase filter size");*/
 658:STM32F10x_Speex_Lib/libspeex/resample.c ****       int old_alloc_size = st->mem_alloc_size;
 659:STM32F10x_Speex_Lib/libspeex/resample.c ****       if ((st->filt_len-1 + st->buffer_size) > st->mem_alloc_size)
 660:STM32F10x_Speex_Lib/libspeex/resample.c ****       {
 661:STM32F10x_Speex_Lib/libspeex/resample.c ****          st->mem_alloc_size = st->filt_len-1 + st->buffer_size;
 662:STM32F10x_Speex_Lib/libspeex/resample.c ****          st->mem = (spx_word16_t*)speex_realloc(st->mem, st->nb_channels*st->mem_alloc_size * sizeo
 663:STM32F10x_Speex_Lib/libspeex/resample.c ****       }
 664:STM32F10x_Speex_Lib/libspeex/resample.c ****       for (i=st->nb_channels-1;i>=0;i--)
ARM GAS  /var/folders/kh/x4vltyy52lbg7p4pcyglc5080000gp/T//cc33Oc7n.s 			page 62


 665:STM32F10x_Speex_Lib/libspeex/resample.c ****       {
 666:STM32F10x_Speex_Lib/libspeex/resample.c ****          spx_int32_t j;
 667:STM32F10x_Speex_Lib/libspeex/resample.c ****          spx_uint32_t olen = old_length;
 668:STM32F10x_Speex_Lib/libspeex/resample.c ****          /*if (st->magic_samples[i])*/
 669:STM32F10x_Speex_Lib/libspeex/resample.c ****          {
 670:STM32F10x_Speex_Lib/libspeex/resample.c ****             /* Try and remove the magic samples as if nothing had happened */
 671:STM32F10x_Speex_Lib/libspeex/resample.c ****             
 672:STM32F10x_Speex_Lib/libspeex/resample.c ****             /* FIXME: This is wrong but for now we need it to avoid going over the array bounds */
 673:STM32F10x_Speex_Lib/libspeex/resample.c ****             olen = old_length + 2*st->magic_samples[i];
 674:STM32F10x_Speex_Lib/libspeex/resample.c ****             for (j=old_length-2+st->magic_samples[i];j>=0;j--)
 675:STM32F10x_Speex_Lib/libspeex/resample.c ****                st->mem[i*st->mem_alloc_size+j+st->magic_samples[i]] = st->mem[i*old_alloc_size+j];
 676:STM32F10x_Speex_Lib/libspeex/resample.c ****             for (j=0;j<st->magic_samples[i];j++)
 677:STM32F10x_Speex_Lib/libspeex/resample.c ****                st->mem[i*st->mem_alloc_size+j] = 0;
 678:STM32F10x_Speex_Lib/libspeex/resample.c ****             st->magic_samples[i] = 0;
 679:STM32F10x_Speex_Lib/libspeex/resample.c ****          }
 680:STM32F10x_Speex_Lib/libspeex/resample.c ****          if (st->filt_len > olen)
 681:STM32F10x_Speex_Lib/libspeex/resample.c ****          {
 682:STM32F10x_Speex_Lib/libspeex/resample.c ****             /* If the new filter length is still bigger than the "augmented" length */
 683:STM32F10x_Speex_Lib/libspeex/resample.c ****             /* Copy data going backward */
 684:STM32F10x_Speex_Lib/libspeex/resample.c ****             for (j=0;j<olen-1;j++)
 685:STM32F10x_Speex_Lib/libspeex/resample.c ****                st->mem[i*st->mem_alloc_size+(st->filt_len-2-j)] = st->mem[i*st->mem_alloc_size+(ole
 686:STM32F10x_Speex_Lib/libspeex/resample.c ****             /* Then put zeros for lack of anything better */
 687:STM32F10x_Speex_Lib/libspeex/resample.c ****             for (;j<st->filt_len-1;j++)
 688:STM32F10x_Speex_Lib/libspeex/resample.c ****                st->mem[i*st->mem_alloc_size+(st->filt_len-2-j)] = 0;
 689:STM32F10x_Speex_Lib/libspeex/resample.c ****             /* Adjust last_sample */
 690:STM32F10x_Speex_Lib/libspeex/resample.c ****             st->last_sample[i] += (st->filt_len - olen)/2;
 691:STM32F10x_Speex_Lib/libspeex/resample.c ****          } else {
 692:STM32F10x_Speex_Lib/libspeex/resample.c ****             /* Put back some of the magic! */
 693:STM32F10x_Speex_Lib/libspeex/resample.c ****             st->magic_samples[i] = (olen - st->filt_len)/2;
 694:STM32F10x_Speex_Lib/libspeex/resample.c ****             for (j=0;j<st->filt_len-1+st->magic_samples[i];j++)
 695:STM32F10x_Speex_Lib/libspeex/resample.c ****                st->mem[i*st->mem_alloc_size+j] = st->mem[i*st->mem_alloc_size+j+st->magic_samples[i
 696:STM32F10x_Speex_Lib/libspeex/resample.c ****          }
 697:STM32F10x_Speex_Lib/libspeex/resample.c ****       }
 698:STM32F10x_Speex_Lib/libspeex/resample.c ****    } else if (st->filt_len < old_length)
 699:STM32F10x_Speex_Lib/libspeex/resample.c ****    {
 700:STM32F10x_Speex_Lib/libspeex/resample.c ****       spx_uint32_t i;
 701:STM32F10x_Speex_Lib/libspeex/resample.c ****       /* Reduce filter length, this a bit tricky. We need to store some of the memory as "magic"
 702:STM32F10x_Speex_Lib/libspeex/resample.c ****          samples so they can be used directly as input the next time(s) */
 703:STM32F10x_Speex_Lib/libspeex/resample.c ****       for (i=0;i<st->nb_channels;i++)
 704:STM32F10x_Speex_Lib/libspeex/resample.c ****       {
 705:STM32F10x_Speex_Lib/libspeex/resample.c ****          spx_uint32_t j;
 706:STM32F10x_Speex_Lib/libspeex/resample.c ****          spx_uint32_t old_magic = st->magic_samples[i];
 707:STM32F10x_Speex_Lib/libspeex/resample.c ****          st->magic_samples[i] = (old_length - st->filt_len)/2;
 708:STM32F10x_Speex_Lib/libspeex/resample.c ****          /* We must copy some of the memory that's no longer used */
 709:STM32F10x_Speex_Lib/libspeex/resample.c ****          /* Copy data going backward */
 710:STM32F10x_Speex_Lib/libspeex/resample.c ****          for (j=0;j<st->filt_len-1+st->magic_samples[i]+old_magic;j++)
 711:STM32F10x_Speex_Lib/libspeex/resample.c ****             st->mem[i*st->mem_alloc_size+j] = st->mem[i*st->mem_alloc_size+j+st->magic_samples[i]];
 712:STM32F10x_Speex_Lib/libspeex/resample.c ****          st->magic_samples[i] += old_magic;
 713:STM32F10x_Speex_Lib/libspeex/resample.c ****       }
 714:STM32F10x_Speex_Lib/libspeex/resample.c ****    }
 715:STM32F10x_Speex_Lib/libspeex/resample.c **** 
 716:STM32F10x_Speex_Lib/libspeex/resample.c **** }
 2750              		.loc 2 716 0 is_stmt 1
 2751 040c D4E1     		b	.L110
 2752              	.L83:
 645:STM32F10x_Speex_Lib/libspeex/resample.c ****    {
 2753              		.loc 2 645 0
ARM GAS  /var/folders/kh/x4vltyy52lbg7p4pcyglc5080000gp/T//cc33Oc7n.s 			page 63


 2754 040e 7B68     		ldr	r3, [r7, #4]
 2755 0410 9B6B     		ldr	r3, [r3, #56]
 2756 0412 002B     		cmp	r3, #0
 2757 0414 2DD1     		bne	.L87
 2758              	.LBB9:
 648:STM32F10x_Speex_Lib/libspeex/resample.c ****       st->mem = (spx_word16_t*)speex_realloc(st->mem, st->nb_channels*st->mem_alloc_size * sizeof(s
 2759              		.loc 2 648 0
 2760 0416 7B68     		ldr	r3, [r7, #4]
 2761 0418 9A69     		ldr	r2, [r3, #24]
 2762 041a 7B68     		ldr	r3, [r7, #4]
 2763 041c 1B6A     		ldr	r3, [r3, #32]
 2764 041e 1344     		add	r3, r3, r2
 2765 0420 5A1E     		subs	r2, r3, #1
 2766 0422 7B68     		ldr	r3, [r7, #4]
 2767 0424 DA61     		str	r2, [r3, #28]
 649:STM32F10x_Speex_Lib/libspeex/resample.c ****       for (i=0;i<st->nb_channels*st->mem_alloc_size;i++)
 2768              		.loc 2 649 0
 2769 0426 7B68     		ldr	r3, [r7, #4]
 2770 0428 986C     		ldr	r0, [r3, #72]
 2771 042a 7B68     		ldr	r3, [r7, #4]
 2772 042c 5B69     		ldr	r3, [r3, #20]
 2773 042e 7A68     		ldr	r2, [r7, #4]
 2774 0430 D269     		ldr	r2, [r2, #28]
 2775 0432 02FB03F3 		mul	r3, r2, r3
 2776 0436 5B00     		lsls	r3, r3, #1
 2777 0438 1946     		mov	r1, r3
 2778 043a FFF7FEFF 		bl	speex_realloc
 2779 043e 0246     		mov	r2, r0
 2780 0440 7B68     		ldr	r3, [r7, #4]
 2781 0442 9A64     		str	r2, [r3, #72]
 650:STM32F10x_Speex_Lib/libspeex/resample.c ****          st->mem[i] = 0;
 2782              		.loc 2 650 0
 2783 0444 0023     		movs	r3, #0
 2784 0446 FB62     		str	r3, [r7, #44]
 2785 0448 09E0     		b	.L88
 2786              	.L89:
 651:STM32F10x_Speex_Lib/libspeex/resample.c ****       /*speex_warning("reinit filter");*/
 2787              		.loc 2 651 0 discriminator 3
 2788 044a 7B68     		ldr	r3, [r7, #4]
 2789 044c 9A6C     		ldr	r2, [r3, #72]
 2790 044e FB6A     		ldr	r3, [r7, #44]
 2791 0450 5B00     		lsls	r3, r3, #1
 2792 0452 1344     		add	r3, r3, r2
 2793 0454 0022     		movs	r2, #0
 2794 0456 1A80     		strh	r2, [r3]	@ movhi
 650:STM32F10x_Speex_Lib/libspeex/resample.c ****          st->mem[i] = 0;
 2795              		.loc 2 650 0 discriminator 3
 2796 0458 FB6A     		ldr	r3, [r7, #44]
 2797 045a 0133     		adds	r3, r3, #1
 2798 045c FB62     		str	r3, [r7, #44]
 2799              	.L88:
 650:STM32F10x_Speex_Lib/libspeex/resample.c ****          st->mem[i] = 0;
 2800              		.loc 2 650 0 is_stmt 0 discriminator 1
 2801 045e 7B68     		ldr	r3, [r7, #4]
 2802 0460 5B69     		ldr	r3, [r3, #20]
 2803 0462 7A68     		ldr	r2, [r7, #4]
 2804 0464 D269     		ldr	r2, [r2, #28]
ARM GAS  /var/folders/kh/x4vltyy52lbg7p4pcyglc5080000gp/T//cc33Oc7n.s 			page 64


 2805 0466 02FB03F2 		mul	r2, r2, r3
 2806 046a FB6A     		ldr	r3, [r7, #44]
 2807 046c 9A42     		cmp	r2, r3
 2808 046e ECD8     		bhi	.L89
 2809              	.LBE9:
 2810              		.loc 2 716 0 is_stmt 1
 2811 0470 A2E1     		b	.L110
 2812              	.L87:
 653:STM32F10x_Speex_Lib/libspeex/resample.c ****    {
 2813              		.loc 2 653 0
 2814 0472 7B68     		ldr	r3, [r7, #4]
 2815 0474 9A69     		ldr	r2, [r3, #24]
 2816 0476 BB69     		ldr	r3, [r7, #24]
 2817 0478 9A42     		cmp	r2, r3
 2818 047a 40F23881 		bls	.L90
 2819              	.LBB10:
 658:STM32F10x_Speex_Lib/libspeex/resample.c ****       if ((st->filt_len-1 + st->buffer_size) > st->mem_alloc_size)
 2820              		.loc 2 658 0
 2821 047e 7B68     		ldr	r3, [r7, #4]
 2822 0480 DB69     		ldr	r3, [r3, #28]
 2823 0482 7B61     		str	r3, [r7, #20]
 659:STM32F10x_Speex_Lib/libspeex/resample.c ****       {
 2824              		.loc 2 659 0
 2825 0484 7B68     		ldr	r3, [r7, #4]
 2826 0486 9A69     		ldr	r2, [r3, #24]
 2827 0488 7B68     		ldr	r3, [r7, #4]
 2828 048a 1B6A     		ldr	r3, [r3, #32]
 2829 048c 1344     		add	r3, r3, r2
 2830 048e 5A1E     		subs	r2, r3, #1
 2831 0490 7B68     		ldr	r3, [r7, #4]
 2832 0492 DB69     		ldr	r3, [r3, #28]
 2833 0494 9A42     		cmp	r2, r3
 2834 0496 16D9     		bls	.L91
 661:STM32F10x_Speex_Lib/libspeex/resample.c ****          st->mem = (spx_word16_t*)speex_realloc(st->mem, st->nb_channels*st->mem_alloc_size * sizeo
 2835              		.loc 2 661 0
 2836 0498 7B68     		ldr	r3, [r7, #4]
 2837 049a 9A69     		ldr	r2, [r3, #24]
 2838 049c 7B68     		ldr	r3, [r7, #4]
 2839 049e 1B6A     		ldr	r3, [r3, #32]
 2840 04a0 1344     		add	r3, r3, r2
 2841 04a2 5A1E     		subs	r2, r3, #1
 2842 04a4 7B68     		ldr	r3, [r7, #4]
 2843 04a6 DA61     		str	r2, [r3, #28]
 662:STM32F10x_Speex_Lib/libspeex/resample.c ****       }
 2844              		.loc 2 662 0
 2845 04a8 7B68     		ldr	r3, [r7, #4]
 2846 04aa 986C     		ldr	r0, [r3, #72]
 2847 04ac 7B68     		ldr	r3, [r7, #4]
 2848 04ae 5B69     		ldr	r3, [r3, #20]
 2849 04b0 7A68     		ldr	r2, [r7, #4]
 2850 04b2 D269     		ldr	r2, [r2, #28]
 2851 04b4 02FB03F3 		mul	r3, r2, r3
 2852 04b8 5B00     		lsls	r3, r3, #1
 2853 04ba 1946     		mov	r1, r3
 2854 04bc FFF7FEFF 		bl	speex_realloc
 2855 04c0 0246     		mov	r2, r0
 2856 04c2 7B68     		ldr	r3, [r7, #4]
ARM GAS  /var/folders/kh/x4vltyy52lbg7p4pcyglc5080000gp/T//cc33Oc7n.s 			page 65


 2857 04c4 9A64     		str	r2, [r3, #72]
 2858              	.L91:
 664:STM32F10x_Speex_Lib/libspeex/resample.c ****       {
 2859              		.loc 2 664 0
 2860 04c6 7B68     		ldr	r3, [r7, #4]
 2861 04c8 5B69     		ldr	r3, [r3, #20]
 2862 04ca 013B     		subs	r3, r3, #1
 2863 04cc BB62     		str	r3, [r7, #40]
 2864 04ce 09E1     		b	.L92
 2865              	.L105:
 2866              	.LBB11:
 667:STM32F10x_Speex_Lib/libspeex/resample.c ****          /*if (st->magic_samples[i])*/
 2867              		.loc 2 667 0
 2868 04d0 BB69     		ldr	r3, [r7, #24]
 2869 04d2 3B61     		str	r3, [r7, #16]
 673:STM32F10x_Speex_Lib/libspeex/resample.c ****             for (j=old_length-2+st->magic_samples[i];j>=0;j--)
 2870              		.loc 2 673 0
 2871 04d4 7B68     		ldr	r3, [r7, #4]
 2872 04d6 5A6C     		ldr	r2, [r3, #68]
 2873 04d8 BB6A     		ldr	r3, [r7, #40]
 2874 04da 9B00     		lsls	r3, r3, #2
 2875 04dc 1344     		add	r3, r3, r2
 2876 04de 1B68     		ldr	r3, [r3]
 2877 04e0 5A00     		lsls	r2, r3, #1
 2878 04e2 BB69     		ldr	r3, [r7, #24]
 2879 04e4 1344     		add	r3, r3, r2
 2880 04e6 3B61     		str	r3, [r7, #16]
 674:STM32F10x_Speex_Lib/libspeex/resample.c ****                st->mem[i*st->mem_alloc_size+j+st->magic_samples[i]] = st->mem[i*old_alloc_size+j];
 2881              		.loc 2 674 0
 2882 04e8 7B68     		ldr	r3, [r7, #4]
 2883 04ea 5A6C     		ldr	r2, [r3, #68]
 2884 04ec BB6A     		ldr	r3, [r7, #40]
 2885 04ee 9B00     		lsls	r3, r3, #2
 2886 04f0 1344     		add	r3, r3, r2
 2887 04f2 1A68     		ldr	r2, [r3]
 2888 04f4 BB69     		ldr	r3, [r7, #24]
 2889 04f6 1344     		add	r3, r3, r2
 2890 04f8 023B     		subs	r3, r3, #2
 2891 04fa 7B62     		str	r3, [r7, #36]
 2892 04fc 21E0     		b	.L93
 2893              	.L94:
 675:STM32F10x_Speex_Lib/libspeex/resample.c ****             for (j=0;j<st->magic_samples[i];j++)
 2894              		.loc 2 675 0 discriminator 3
 2895 04fe 7B68     		ldr	r3, [r7, #4]
 2896 0500 9A6C     		ldr	r2, [r3, #72]
 2897 0502 7B68     		ldr	r3, [r7, #4]
 2898 0504 DB69     		ldr	r3, [r3, #28]
 2899 0506 B96A     		ldr	r1, [r7, #40]
 2900 0508 01FB03F1 		mul	r1, r1, r3
 2901 050c 7B6A     		ldr	r3, [r7, #36]
 2902 050e 1944     		add	r1, r1, r3
 2903 0510 7B68     		ldr	r3, [r7, #4]
 2904 0512 586C     		ldr	r0, [r3, #68]
 2905 0514 BB6A     		ldr	r3, [r7, #40]
 2906 0516 9B00     		lsls	r3, r3, #2
 2907 0518 0344     		add	r3, r3, r0
 2908 051a 1B68     		ldr	r3, [r3]
ARM GAS  /var/folders/kh/x4vltyy52lbg7p4pcyglc5080000gp/T//cc33Oc7n.s 			page 66


 2909 051c 0B44     		add	r3, r3, r1
 2910 051e 5B00     		lsls	r3, r3, #1
 2911 0520 1344     		add	r3, r3, r2
 2912 0522 7A68     		ldr	r2, [r7, #4]
 2913 0524 916C     		ldr	r1, [r2, #72]
 2914 0526 BA6A     		ldr	r2, [r7, #40]
 2915 0528 7869     		ldr	r0, [r7, #20]
 2916 052a 00FB02F0 		mul	r0, r0, r2
 2917 052e 7A6A     		ldr	r2, [r7, #36]
 2918 0530 0244     		add	r2, r2, r0
 2919 0532 5200     		lsls	r2, r2, #1
 2920 0534 0A44     		add	r2, r2, r1
 2921 0536 B2F90020 		ldrsh	r2, [r2]
 2922 053a 1A80     		strh	r2, [r3]	@ movhi
 674:STM32F10x_Speex_Lib/libspeex/resample.c ****                st->mem[i*st->mem_alloc_size+j+st->magic_samples[i]] = st->mem[i*old_alloc_size+j];
 2923              		.loc 2 674 0 discriminator 3
 2924 053c 7B6A     		ldr	r3, [r7, #36]
 2925 053e 013B     		subs	r3, r3, #1
 2926 0540 7B62     		str	r3, [r7, #36]
 2927              	.L93:
 674:STM32F10x_Speex_Lib/libspeex/resample.c ****                st->mem[i*st->mem_alloc_size+j+st->magic_samples[i]] = st->mem[i*old_alloc_size+j];
 2928              		.loc 2 674 0 is_stmt 0 discriminator 1
 2929 0542 7B6A     		ldr	r3, [r7, #36]
 2930 0544 002B     		cmp	r3, #0
 2931 0546 DADA     		bge	.L94
 676:STM32F10x_Speex_Lib/libspeex/resample.c ****                st->mem[i*st->mem_alloc_size+j] = 0;
 2932              		.loc 2 676 0 is_stmt 1
 2933 0548 0023     		movs	r3, #0
 2934 054a 7B62     		str	r3, [r7, #36]
 2935 054c 0FE0     		b	.L95
 2936              	.L96:
 677:STM32F10x_Speex_Lib/libspeex/resample.c ****             st->magic_samples[i] = 0;
 2937              		.loc 2 677 0 discriminator 3
 2938 054e 7B68     		ldr	r3, [r7, #4]
 2939 0550 9A6C     		ldr	r2, [r3, #72]
 2940 0552 7B68     		ldr	r3, [r7, #4]
 2941 0554 DB69     		ldr	r3, [r3, #28]
 2942 0556 B96A     		ldr	r1, [r7, #40]
 2943 0558 01FB03F1 		mul	r1, r1, r3
 2944 055c 7B6A     		ldr	r3, [r7, #36]
 2945 055e 0B44     		add	r3, r3, r1
 2946 0560 5B00     		lsls	r3, r3, #1
 2947 0562 1344     		add	r3, r3, r2
 2948 0564 0022     		movs	r2, #0
 2949 0566 1A80     		strh	r2, [r3]	@ movhi
 676:STM32F10x_Speex_Lib/libspeex/resample.c ****                st->mem[i*st->mem_alloc_size+j] = 0;
 2950              		.loc 2 676 0 discriminator 3
 2951 0568 7B6A     		ldr	r3, [r7, #36]
 2952 056a 0133     		adds	r3, r3, #1
 2953 056c 7B62     		str	r3, [r7, #36]
 2954              	.L95:
 676:STM32F10x_Speex_Lib/libspeex/resample.c ****                st->mem[i*st->mem_alloc_size+j] = 0;
 2955              		.loc 2 676 0 is_stmt 0 discriminator 1
 2956 056e 7B68     		ldr	r3, [r7, #4]
 2957 0570 5A6C     		ldr	r2, [r3, #68]
 2958 0572 BB6A     		ldr	r3, [r7, #40]
 2959 0574 9B00     		lsls	r3, r3, #2
ARM GAS  /var/folders/kh/x4vltyy52lbg7p4pcyglc5080000gp/T//cc33Oc7n.s 			page 67


 2960 0576 1344     		add	r3, r3, r2
 2961 0578 1A68     		ldr	r2, [r3]
 2962 057a 7B6A     		ldr	r3, [r7, #36]
 2963 057c 9A42     		cmp	r2, r3
 2964 057e E6D8     		bhi	.L96
 678:STM32F10x_Speex_Lib/libspeex/resample.c ****          }
 2965              		.loc 2 678 0 is_stmt 1
 2966 0580 7B68     		ldr	r3, [r7, #4]
 2967 0582 5A6C     		ldr	r2, [r3, #68]
 2968 0584 BB6A     		ldr	r3, [r7, #40]
 2969 0586 9B00     		lsls	r3, r3, #2
 2970 0588 1344     		add	r3, r3, r2
 2971 058a 0022     		movs	r2, #0
 2972 058c 1A60     		str	r2, [r3]
 680:STM32F10x_Speex_Lib/libspeex/resample.c ****          {
 2973              		.loc 2 680 0
 2974 058e 7B68     		ldr	r3, [r7, #4]
 2975 0590 9A69     		ldr	r2, [r3, #24]
 2976 0592 3B69     		ldr	r3, [r7, #16]
 2977 0594 9A42     		cmp	r2, r3
 2978 0596 64D9     		bls	.L97
 684:STM32F10x_Speex_Lib/libspeex/resample.c ****                st->mem[i*st->mem_alloc_size+(st->filt_len-2-j)] = st->mem[i*st->mem_alloc_size+(ole
 2979              		.loc 2 684 0
 2980 0598 0023     		movs	r3, #0
 2981 059a 7B62     		str	r3, [r7, #36]
 2982 059c 2BE0     		b	.L98
 2983              	.L114:
 2984 059e 00BF     		.align	2
 2985              	.L113:
 2986 05a0 00000000 		.word	quality_map
 2987 05a4 00000000 		.word	resampler_basic_interpolate_single
 2988              	.L99:
 685:STM32F10x_Speex_Lib/libspeex/resample.c ****             /* Then put zeros for lack of anything better */
 2989              		.loc 2 685 0 discriminator 3
 2990 05a8 7B68     		ldr	r3, [r7, #4]
 2991 05aa 9A6C     		ldr	r2, [r3, #72]
 2992 05ac 7B68     		ldr	r3, [r7, #4]
 2993 05ae DB69     		ldr	r3, [r3, #28]
 2994 05b0 B96A     		ldr	r1, [r7, #40]
 2995 05b2 01FB03F1 		mul	r1, r1, r3
 2996 05b6 7B68     		ldr	r3, [r7, #4]
 2997 05b8 9869     		ldr	r0, [r3, #24]
 2998 05ba 7B6A     		ldr	r3, [r7, #36]
 2999 05bc C31A     		subs	r3, r0, r3
 3000 05be 0B44     		add	r3, r3, r1
 3001 05c0 03F10043 		add	r3, r3, #-2147483648
 3002 05c4 023B     		subs	r3, r3, #2
 3003 05c6 5B00     		lsls	r3, r3, #1
 3004 05c8 1A44     		add	r2, r2, r3
 3005 05ca 7B68     		ldr	r3, [r7, #4]
 3006 05cc 996C     		ldr	r1, [r3, #72]
 3007 05ce 7B68     		ldr	r3, [r7, #4]
 3008 05d0 DB69     		ldr	r3, [r3, #28]
 3009 05d2 B86A     		ldr	r0, [r7, #40]
 3010 05d4 00FB03F0 		mul	r0, r0, r3
 3011 05d8 7B6A     		ldr	r3, [r7, #36]
 3012 05da 3C69     		ldr	r4, [r7, #16]
ARM GAS  /var/folders/kh/x4vltyy52lbg7p4pcyglc5080000gp/T//cc33Oc7n.s 			page 68


 3013 05dc E31A     		subs	r3, r4, r3
 3014 05de 0344     		add	r3, r3, r0
 3015 05e0 03F10043 		add	r3, r3, #-2147483648
 3016 05e4 023B     		subs	r3, r3, #2
 3017 05e6 5B00     		lsls	r3, r3, #1
 3018 05e8 0B44     		add	r3, r3, r1
 3019 05ea B3F90030 		ldrsh	r3, [r3]
 3020 05ee 1380     		strh	r3, [r2]	@ movhi
 684:STM32F10x_Speex_Lib/libspeex/resample.c ****                st->mem[i*st->mem_alloc_size+(st->filt_len-2-j)] = st->mem[i*st->mem_alloc_size+(ole
 3021              		.loc 2 684 0 discriminator 3
 3022 05f0 7B6A     		ldr	r3, [r7, #36]
 3023 05f2 0133     		adds	r3, r3, #1
 3024 05f4 7B62     		str	r3, [r7, #36]
 3025              	.L98:
 684:STM32F10x_Speex_Lib/libspeex/resample.c ****                st->mem[i*st->mem_alloc_size+(st->filt_len-2-j)] = st->mem[i*st->mem_alloc_size+(ole
 3026              		.loc 2 684 0 is_stmt 0 discriminator 1
 3027 05f6 3B69     		ldr	r3, [r7, #16]
 3028 05f8 5A1E     		subs	r2, r3, #1
 3029 05fa 7B6A     		ldr	r3, [r7, #36]
 3030 05fc 9A42     		cmp	r2, r3
 3031 05fe D3D8     		bhi	.L99
 687:STM32F10x_Speex_Lib/libspeex/resample.c ****                st->mem[i*st->mem_alloc_size+(st->filt_len-2-j)] = 0;
 3032              		.loc 2 687 0 is_stmt 1
 3033 0600 15E0     		b	.L100
 3034              	.L101:
 688:STM32F10x_Speex_Lib/libspeex/resample.c ****             /* Adjust last_sample */
 3035              		.loc 2 688 0 discriminator 2
 3036 0602 7B68     		ldr	r3, [r7, #4]
 3037 0604 9A6C     		ldr	r2, [r3, #72]
 3038 0606 7B68     		ldr	r3, [r7, #4]
 3039 0608 DB69     		ldr	r3, [r3, #28]
 3040 060a B96A     		ldr	r1, [r7, #40]
 3041 060c 01FB03F1 		mul	r1, r1, r3
 3042 0610 7B68     		ldr	r3, [r7, #4]
 3043 0612 9869     		ldr	r0, [r3, #24]
 3044 0614 7B6A     		ldr	r3, [r7, #36]
 3045 0616 C31A     		subs	r3, r0, r3
 3046 0618 0B44     		add	r3, r3, r1
 3047 061a 03F10043 		add	r3, r3, #-2147483648
 3048 061e 023B     		subs	r3, r3, #2
 3049 0620 5B00     		lsls	r3, r3, #1
 3050 0622 1344     		add	r3, r3, r2
 3051 0624 0022     		movs	r2, #0
 3052 0626 1A80     		strh	r2, [r3]	@ movhi
 687:STM32F10x_Speex_Lib/libspeex/resample.c ****                st->mem[i*st->mem_alloc_size+(st->filt_len-2-j)] = 0;
 3053              		.loc 2 687 0 discriminator 2
 3054 0628 7B6A     		ldr	r3, [r7, #36]
 3055 062a 0133     		adds	r3, r3, #1
 3056 062c 7B62     		str	r3, [r7, #36]
 3057              	.L100:
 687:STM32F10x_Speex_Lib/libspeex/resample.c ****                st->mem[i*st->mem_alloc_size+(st->filt_len-2-j)] = 0;
 3058              		.loc 2 687 0 is_stmt 0 discriminator 1
 3059 062e 7B68     		ldr	r3, [r7, #4]
 3060 0630 9B69     		ldr	r3, [r3, #24]
 3061 0632 5A1E     		subs	r2, r3, #1
 3062 0634 7B6A     		ldr	r3, [r7, #36]
 3063 0636 9A42     		cmp	r2, r3
ARM GAS  /var/folders/kh/x4vltyy52lbg7p4pcyglc5080000gp/T//cc33Oc7n.s 			page 69


 3064 0638 E3D8     		bhi	.L101
 690:STM32F10x_Speex_Lib/libspeex/resample.c ****          } else {
 3065              		.loc 2 690 0 is_stmt 1
 3066 063a 7B68     		ldr	r3, [r7, #4]
 3067 063c DA6B     		ldr	r2, [r3, #60]
 3068 063e BB6A     		ldr	r3, [r7, #40]
 3069 0640 9B00     		lsls	r3, r3, #2
 3070 0642 1344     		add	r3, r3, r2
 3071 0644 7A68     		ldr	r2, [r7, #4]
 3072 0646 D16B     		ldr	r1, [r2, #60]
 3073 0648 BA6A     		ldr	r2, [r7, #40]
 3074 064a 9200     		lsls	r2, r2, #2
 3075 064c 0A44     		add	r2, r2, r1
 3076 064e 1268     		ldr	r2, [r2]
 3077 0650 1046     		mov	r0, r2
 3078 0652 7A68     		ldr	r2, [r7, #4]
 3079 0654 9169     		ldr	r1, [r2, #24]
 3080 0656 3A69     		ldr	r2, [r7, #16]
 3081 0658 8A1A     		subs	r2, r1, r2
 3082 065a 5208     		lsrs	r2, r2, #1
 3083 065c 0244     		add	r2, r2, r0
 3084 065e 1A60     		str	r2, [r3]
 3085 0660 3DE0     		b	.L102
 3086              	.L97:
 693:STM32F10x_Speex_Lib/libspeex/resample.c ****             for (j=0;j<st->filt_len-1+st->magic_samples[i];j++)
 3087              		.loc 2 693 0
 3088 0662 7B68     		ldr	r3, [r7, #4]
 3089 0664 5A6C     		ldr	r2, [r3, #68]
 3090 0666 BB6A     		ldr	r3, [r7, #40]
 3091 0668 9B00     		lsls	r3, r3, #2
 3092 066a 1344     		add	r3, r3, r2
 3093 066c 7A68     		ldr	r2, [r7, #4]
 3094 066e 9269     		ldr	r2, [r2, #24]
 3095 0670 3969     		ldr	r1, [r7, #16]
 3096 0672 8A1A     		subs	r2, r1, r2
 3097 0674 5208     		lsrs	r2, r2, #1
 3098 0676 1A60     		str	r2, [r3]
 694:STM32F10x_Speex_Lib/libspeex/resample.c ****                st->mem[i*st->mem_alloc_size+j] = st->mem[i*st->mem_alloc_size+j+st->magic_samples[i
 3099              		.loc 2 694 0
 3100 0678 0023     		movs	r3, #0
 3101 067a 7B62     		str	r3, [r7, #36]
 3102 067c 22E0     		b	.L103
 3103              	.L104:
 695:STM32F10x_Speex_Lib/libspeex/resample.c ****          }
 3104              		.loc 2 695 0 discriminator 3
 3105 067e 7B68     		ldr	r3, [r7, #4]
 3106 0680 9A6C     		ldr	r2, [r3, #72]
 3107 0682 7B68     		ldr	r3, [r7, #4]
 3108 0684 DB69     		ldr	r3, [r3, #28]
 3109 0686 B96A     		ldr	r1, [r7, #40]
 3110 0688 01FB03F1 		mul	r1, r1, r3
 3111 068c 7B6A     		ldr	r3, [r7, #36]
 3112 068e 0B44     		add	r3, r3, r1
 3113 0690 5B00     		lsls	r3, r3, #1
 3114 0692 1344     		add	r3, r3, r2
 3115 0694 7A68     		ldr	r2, [r7, #4]
 3116 0696 916C     		ldr	r1, [r2, #72]
ARM GAS  /var/folders/kh/x4vltyy52lbg7p4pcyglc5080000gp/T//cc33Oc7n.s 			page 70


 3117 0698 7A68     		ldr	r2, [r7, #4]
 3118 069a D269     		ldr	r2, [r2, #28]
 3119 069c B86A     		ldr	r0, [r7, #40]
 3120 069e 00FB02F0 		mul	r0, r0, r2
 3121 06a2 7A6A     		ldr	r2, [r7, #36]
 3122 06a4 1044     		add	r0, r0, r2
 3123 06a6 7A68     		ldr	r2, [r7, #4]
 3124 06a8 546C     		ldr	r4, [r2, #68]
 3125 06aa BA6A     		ldr	r2, [r7, #40]
 3126 06ac 9200     		lsls	r2, r2, #2
 3127 06ae 2244     		add	r2, r2, r4
 3128 06b0 1268     		ldr	r2, [r2]
 3129 06b2 0244     		add	r2, r2, r0
 3130 06b4 5200     		lsls	r2, r2, #1
 3131 06b6 0A44     		add	r2, r2, r1
 3132 06b8 B2F90020 		ldrsh	r2, [r2]
 3133 06bc 1A80     		strh	r2, [r3]	@ movhi
 694:STM32F10x_Speex_Lib/libspeex/resample.c ****                st->mem[i*st->mem_alloc_size+j] = st->mem[i*st->mem_alloc_size+j+st->magic_samples[i
 3134              		.loc 2 694 0 discriminator 3
 3135 06be 7B6A     		ldr	r3, [r7, #36]
 3136 06c0 0133     		adds	r3, r3, #1
 3137 06c2 7B62     		str	r3, [r7, #36]
 3138              	.L103:
 694:STM32F10x_Speex_Lib/libspeex/resample.c ****                st->mem[i*st->mem_alloc_size+j] = st->mem[i*st->mem_alloc_size+j+st->magic_samples[i
 3139              		.loc 2 694 0 is_stmt 0 discriminator 1
 3140 06c4 7B68     		ldr	r3, [r7, #4]
 3141 06c6 9A69     		ldr	r2, [r3, #24]
 3142 06c8 7B68     		ldr	r3, [r7, #4]
 3143 06ca 596C     		ldr	r1, [r3, #68]
 3144 06cc BB6A     		ldr	r3, [r7, #40]
 3145 06ce 9B00     		lsls	r3, r3, #2
 3146 06d0 0B44     		add	r3, r3, r1
 3147 06d2 1B68     		ldr	r3, [r3]
 3148 06d4 1344     		add	r3, r3, r2
 3149 06d6 5A1E     		subs	r2, r3, #1
 3150 06d8 7B6A     		ldr	r3, [r7, #36]
 3151 06da 9A42     		cmp	r2, r3
 3152 06dc CFD8     		bhi	.L104
 3153              	.L102:
 3154              	.LBE11:
 664:STM32F10x_Speex_Lib/libspeex/resample.c ****       {
 3155              		.loc 2 664 0 is_stmt 1 discriminator 2
 3156 06de BB6A     		ldr	r3, [r7, #40]
 3157 06e0 013B     		subs	r3, r3, #1
 3158 06e2 BB62     		str	r3, [r7, #40]
 3159              	.L92:
 664:STM32F10x_Speex_Lib/libspeex/resample.c ****       {
 3160              		.loc 2 664 0 is_stmt 0 discriminator 1
 3161 06e4 BB6A     		ldr	r3, [r7, #40]
 3162 06e6 002B     		cmp	r3, #0
 3163 06e8 BFF6F2AE 		bge	.L105
 3164              	.LBE10:
 3165              		.loc 2 716 0 is_stmt 1
 3166 06ec 64E0     		b	.L110
 3167              	.L90:
 698:STM32F10x_Speex_Lib/libspeex/resample.c ****    {
 3168              		.loc 2 698 0
ARM GAS  /var/folders/kh/x4vltyy52lbg7p4pcyglc5080000gp/T//cc33Oc7n.s 			page 71


 3169 06ee 7B68     		ldr	r3, [r7, #4]
 3170 06f0 9A69     		ldr	r2, [r3, #24]
 3171 06f2 BB69     		ldr	r3, [r7, #24]
 3172 06f4 9A42     		cmp	r2, r3
 3173 06f6 5FD2     		bcs	.L110
 3174              	.LBB12:
 703:STM32F10x_Speex_Lib/libspeex/resample.c ****       {
 3175              		.loc 2 703 0
 3176 06f8 0023     		movs	r3, #0
 3177 06fa 3B62     		str	r3, [r7, #32]
 3178 06fc 57E0     		b	.L106
 3179              	.L109:
 3180              	.LBB13:
 706:STM32F10x_Speex_Lib/libspeex/resample.c ****          st->magic_samples[i] = (old_length - st->filt_len)/2;
 3181              		.loc 2 706 0
 3182 06fe 7B68     		ldr	r3, [r7, #4]
 3183 0700 5A6C     		ldr	r2, [r3, #68]
 3184 0702 3B6A     		ldr	r3, [r7, #32]
 3185 0704 9B00     		lsls	r3, r3, #2
 3186 0706 1344     		add	r3, r3, r2
 3187 0708 1B68     		ldr	r3, [r3]
 3188 070a FB60     		str	r3, [r7, #12]
 707:STM32F10x_Speex_Lib/libspeex/resample.c ****          /* We must copy some of the memory that's no longer used */
 3189              		.loc 2 707 0
 3190 070c 7B68     		ldr	r3, [r7, #4]
 3191 070e 5A6C     		ldr	r2, [r3, #68]
 3192 0710 3B6A     		ldr	r3, [r7, #32]
 3193 0712 9B00     		lsls	r3, r3, #2
 3194 0714 1344     		add	r3, r3, r2
 3195 0716 7A68     		ldr	r2, [r7, #4]
 3196 0718 9269     		ldr	r2, [r2, #24]
 3197 071a B969     		ldr	r1, [r7, #24]
 3198 071c 8A1A     		subs	r2, r1, r2
 3199 071e 5208     		lsrs	r2, r2, #1
 3200 0720 1A60     		str	r2, [r3]
 710:STM32F10x_Speex_Lib/libspeex/resample.c ****             st->mem[i*st->mem_alloc_size+j] = st->mem[i*st->mem_alloc_size+j+st->magic_samples[i]];
 3201              		.loc 2 710 0
 3202 0722 0023     		movs	r3, #0
 3203 0724 FB61     		str	r3, [r7, #28]
 3204 0726 22E0     		b	.L107
 3205              	.L108:
 711:STM32F10x_Speex_Lib/libspeex/resample.c ****          st->magic_samples[i] += old_magic;
 3206              		.loc 2 711 0 discriminator 3
 3207 0728 7B68     		ldr	r3, [r7, #4]
 3208 072a 9A6C     		ldr	r2, [r3, #72]
 3209 072c 7B68     		ldr	r3, [r7, #4]
 3210 072e DB69     		ldr	r3, [r3, #28]
 3211 0730 396A     		ldr	r1, [r7, #32]
 3212 0732 01FB03F1 		mul	r1, r1, r3
 3213 0736 FB69     		ldr	r3, [r7, #28]
 3214 0738 0B44     		add	r3, r3, r1
 3215 073a 5B00     		lsls	r3, r3, #1
 3216 073c 1344     		add	r3, r3, r2
 3217 073e 7A68     		ldr	r2, [r7, #4]
 3218 0740 916C     		ldr	r1, [r2, #72]
 3219 0742 7A68     		ldr	r2, [r7, #4]
 3220 0744 D269     		ldr	r2, [r2, #28]
ARM GAS  /var/folders/kh/x4vltyy52lbg7p4pcyglc5080000gp/T//cc33Oc7n.s 			page 72


 3221 0746 386A     		ldr	r0, [r7, #32]
 3222 0748 00FB02F0 		mul	r0, r0, r2
 3223 074c FA69     		ldr	r2, [r7, #28]
 3224 074e 1044     		add	r0, r0, r2
 3225 0750 7A68     		ldr	r2, [r7, #4]
 3226 0752 546C     		ldr	r4, [r2, #68]
 3227 0754 3A6A     		ldr	r2, [r7, #32]
 3228 0756 9200     		lsls	r2, r2, #2
 3229 0758 2244     		add	r2, r2, r4
 3230 075a 1268     		ldr	r2, [r2]
 3231 075c 0244     		add	r2, r2, r0
 3232 075e 5200     		lsls	r2, r2, #1
 3233 0760 0A44     		add	r2, r2, r1
 3234 0762 B2F90020 		ldrsh	r2, [r2]
 3235 0766 1A80     		strh	r2, [r3]	@ movhi
 710:STM32F10x_Speex_Lib/libspeex/resample.c ****             st->mem[i*st->mem_alloc_size+j] = st->mem[i*st->mem_alloc_size+j+st->magic_samples[i]];
 3236              		.loc 2 710 0 discriminator 3
 3237 0768 FB69     		ldr	r3, [r7, #28]
 3238 076a 0133     		adds	r3, r3, #1
 3239 076c FB61     		str	r3, [r7, #28]
 3240              	.L107:
 710:STM32F10x_Speex_Lib/libspeex/resample.c ****             st->mem[i*st->mem_alloc_size+j] = st->mem[i*st->mem_alloc_size+j+st->magic_samples[i]];
 3241              		.loc 2 710 0 is_stmt 0 discriminator 1
 3242 076e 7B68     		ldr	r3, [r7, #4]
 3243 0770 9A69     		ldr	r2, [r3, #24]
 3244 0772 7B68     		ldr	r3, [r7, #4]
 3245 0774 596C     		ldr	r1, [r3, #68]
 3246 0776 3B6A     		ldr	r3, [r7, #32]
 3247 0778 9B00     		lsls	r3, r3, #2
 3248 077a 0B44     		add	r3, r3, r1
 3249 077c 1B68     		ldr	r3, [r3]
 3250 077e 1A44     		add	r2, r2, r3
 3251 0780 FB68     		ldr	r3, [r7, #12]
 3252 0782 1344     		add	r3, r3, r2
 3253 0784 5A1E     		subs	r2, r3, #1
 3254 0786 FB69     		ldr	r3, [r7, #28]
 3255 0788 9A42     		cmp	r2, r3
 3256 078a CDD8     		bhi	.L108
 712:STM32F10x_Speex_Lib/libspeex/resample.c ****       }
 3257              		.loc 2 712 0 is_stmt 1 discriminator 2
 3258 078c 7B68     		ldr	r3, [r7, #4]
 3259 078e 5A6C     		ldr	r2, [r3, #68]
 3260 0790 3B6A     		ldr	r3, [r7, #32]
 3261 0792 9B00     		lsls	r3, r3, #2
 3262 0794 1344     		add	r3, r3, r2
 3263 0796 7A68     		ldr	r2, [r7, #4]
 3264 0798 516C     		ldr	r1, [r2, #68]
 3265 079a 3A6A     		ldr	r2, [r7, #32]
 3266 079c 9200     		lsls	r2, r2, #2
 3267 079e 0A44     		add	r2, r2, r1
 3268 07a0 1168     		ldr	r1, [r2]
 3269 07a2 FA68     		ldr	r2, [r7, #12]
 3270 07a4 0A44     		add	r2, r2, r1
 3271 07a6 1A60     		str	r2, [r3]
 3272              	.LBE13:
 703:STM32F10x_Speex_Lib/libspeex/resample.c ****       {
 3273              		.loc 2 703 0 discriminator 2
ARM GAS  /var/folders/kh/x4vltyy52lbg7p4pcyglc5080000gp/T//cc33Oc7n.s 			page 73


 3274 07a8 3B6A     		ldr	r3, [r7, #32]
 3275 07aa 0133     		adds	r3, r3, #1
 3276 07ac 3B62     		str	r3, [r7, #32]
 3277              	.L106:
 703:STM32F10x_Speex_Lib/libspeex/resample.c ****       {
 3278              		.loc 2 703 0 is_stmt 0 discriminator 1
 3279 07ae 7B68     		ldr	r3, [r7, #4]
 3280 07b0 5A69     		ldr	r2, [r3, #20]
 3281 07b2 3B6A     		ldr	r3, [r7, #32]
 3282 07b4 9A42     		cmp	r2, r3
 3283 07b6 A2D8     		bhi	.L109
 3284              	.L110:
 3285              	.LBE12:
 3286              		.loc 2 716 0 is_stmt 1
 3287 07b8 00BF     		nop
 3288 07ba 4037     		adds	r7, r7, #64
 3289              	.LCFI44:
 3290              		.cfi_def_cfa_offset 24
 3291 07bc BD46     		mov	sp, r7
 3292              	.LCFI45:
 3293              		.cfi_def_cfa_register 13
 3294              		@ sp needed
 3295 07be BDE8F081 		pop	{r4, r5, r6, r7, r8, pc}
 3296              		.cfi_endproc
 3297              	.LFE14:
 3299 07c2 00BF     		.section	.text.speex_resampler_init,"ax",%progbits
 3300              		.align	2
 3301              		.global	speex_resampler_init
 3302              		.thumb
 3303              		.thumb_func
 3305              	speex_resampler_init:
 3306              	.LFB15:
 717:STM32F10x_Speex_Lib/libspeex/resample.c **** 
 718:STM32F10x_Speex_Lib/libspeex/resample.c **** EXPORT SpeexResamplerState *speex_resampler_init(spx_uint32_t nb_channels, spx_uint32_t in_rate, sp
 719:STM32F10x_Speex_Lib/libspeex/resample.c **** {
 3307              		.loc 2 719 0
 3308              		.cfi_startproc
 3309              		@ args = 4, pretend = 0, frame = 16
 3310              		@ frame_needed = 1, uses_anonymous_args = 0
 3311 0000 80B5     		push	{r7, lr}
 3312              	.LCFI46:
 3313              		.cfi_def_cfa_offset 8
 3314              		.cfi_offset 7, -8
 3315              		.cfi_offset 14, -4
 3316 0002 88B0     		sub	sp, sp, #32
 3317              	.LCFI47:
 3318              		.cfi_def_cfa_offset 40
 3319 0004 04AF     		add	r7, sp, #16
 3320              	.LCFI48:
 3321              		.cfi_def_cfa 7, 24
 3322 0006 F860     		str	r0, [r7, #12]
 3323 0008 B960     		str	r1, [r7, #8]
 3324 000a 7A60     		str	r2, [r7, #4]
 3325 000c 3B60     		str	r3, [r7]
 720:STM32F10x_Speex_Lib/libspeex/resample.c ****    return speex_resampler_init_frac(nb_channels, in_rate, out_rate, in_rate, out_rate, quality, err
 3326              		.loc 2 720 0
 3327 000e BB69     		ldr	r3, [r7, #24]
ARM GAS  /var/folders/kh/x4vltyy52lbg7p4pcyglc5080000gp/T//cc33Oc7n.s 			page 74


 3328 0010 0293     		str	r3, [sp, #8]
 3329 0012 3B68     		ldr	r3, [r7]
 3330 0014 0193     		str	r3, [sp, #4]
 3331 0016 7B68     		ldr	r3, [r7, #4]
 3332 0018 0093     		str	r3, [sp]
 3333 001a BB68     		ldr	r3, [r7, #8]
 3334 001c 7A68     		ldr	r2, [r7, #4]
 3335 001e B968     		ldr	r1, [r7, #8]
 3336 0020 F868     		ldr	r0, [r7, #12]
 3337 0022 FFF7FEFF 		bl	speex_resampler_init_frac
 3338 0026 0346     		mov	r3, r0
 721:STM32F10x_Speex_Lib/libspeex/resample.c **** }
 3339              		.loc 2 721 0
 3340 0028 1846     		mov	r0, r3
 3341 002a 1037     		adds	r7, r7, #16
 3342              	.LCFI49:
 3343              		.cfi_def_cfa_offset 8
 3344 002c BD46     		mov	sp, r7
 3345              	.LCFI50:
 3346              		.cfi_def_cfa_register 13
 3347              		@ sp needed
 3348 002e 80BD     		pop	{r7, pc}
 3349              		.cfi_endproc
 3350              	.LFE15:
 3352              		.section	.text.speex_resampler_init_frac,"ax",%progbits
 3353              		.align	2
 3354              		.global	speex_resampler_init_frac
 3355              		.thumb
 3356              		.thumb_func
 3358              	speex_resampler_init_frac:
 3359              	.LFB16:
 722:STM32F10x_Speex_Lib/libspeex/resample.c **** 
 723:STM32F10x_Speex_Lib/libspeex/resample.c **** EXPORT SpeexResamplerState *speex_resampler_init_frac(spx_uint32_t nb_channels, spx_uint32_t ratio_
 724:STM32F10x_Speex_Lib/libspeex/resample.c **** {
 3360              		.loc 2 724 0
 3361              		.cfi_startproc
 3362              		@ args = 12, pretend = 0, frame = 24
 3363              		@ frame_needed = 1, uses_anonymous_args = 0
 3364 0000 80B5     		push	{r7, lr}
 3365              	.LCFI51:
 3366              		.cfi_def_cfa_offset 8
 3367              		.cfi_offset 7, -8
 3368              		.cfi_offset 14, -4
 3369 0002 88B0     		sub	sp, sp, #32
 3370              	.LCFI52:
 3371              		.cfi_def_cfa_offset 40
 3372 0004 02AF     		add	r7, sp, #8
 3373              	.LCFI53:
 3374              		.cfi_def_cfa 7, 32
 3375 0006 F860     		str	r0, [r7, #12]
 3376 0008 B960     		str	r1, [r7, #8]
 3377 000a 7A60     		str	r2, [r7, #4]
 3378 000c 3B60     		str	r3, [r7]
 725:STM32F10x_Speex_Lib/libspeex/resample.c ****    spx_uint32_t i;
 726:STM32F10x_Speex_Lib/libspeex/resample.c ****    SpeexResamplerState *st;
 727:STM32F10x_Speex_Lib/libspeex/resample.c ****    if (quality > 10 || quality < 0)
 3379              		.loc 2 727 0
ARM GAS  /var/folders/kh/x4vltyy52lbg7p4pcyglc5080000gp/T//cc33Oc7n.s 			page 75


 3380 000e 7B6A     		ldr	r3, [r7, #36]
 3381 0010 0A2B     		cmp	r3, #10
 3382 0012 02DC     		bgt	.L118
 3383              		.loc 2 727 0 is_stmt 0 discriminator 1
 3384 0014 7B6A     		ldr	r3, [r7, #36]
 3385 0016 002B     		cmp	r3, #0
 3386 0018 07DA     		bge	.L119
 3387              	.L118:
 728:STM32F10x_Speex_Lib/libspeex/resample.c ****    {
 729:STM32F10x_Speex_Lib/libspeex/resample.c ****       if (err)
 3388              		.loc 2 729 0 is_stmt 1
 3389 001a BB6A     		ldr	r3, [r7, #40]
 3390 001c 002B     		cmp	r3, #0
 3391 001e 02D0     		beq	.L120
 730:STM32F10x_Speex_Lib/libspeex/resample.c ****          *err = RESAMPLER_ERR_INVALID_ARG;
 3392              		.loc 2 730 0
 3393 0020 BB6A     		ldr	r3, [r7, #40]
 3394 0022 0322     		movs	r2, #3
 3395 0024 1A60     		str	r2, [r3]
 3396              	.L120:
 731:STM32F10x_Speex_Lib/libspeex/resample.c ****       return NULL;
 3397              		.loc 2 731 0
 3398 0026 0023     		movs	r3, #0
 3399 0028 88E0     		b	.L121
 3400              	.L119:
 732:STM32F10x_Speex_Lib/libspeex/resample.c ****    }
 733:STM32F10x_Speex_Lib/libspeex/resample.c ****    st = (SpeexResamplerState *)speex_alloc(sizeof(SpeexResamplerState));
 3401              		.loc 2 733 0
 3402 002a 6020     		movs	r0, #96
 3403 002c FFF7FEFF 		bl	speex_alloc
 3404 0030 3861     		str	r0, [r7, #16]
 734:STM32F10x_Speex_Lib/libspeex/resample.c ****    st->initialised = 0;
 3405              		.loc 2 734 0
 3406 0032 3B69     		ldr	r3, [r7, #16]
 3407 0034 0022     		movs	r2, #0
 3408 0036 5A63     		str	r2, [r3, #52]
 735:STM32F10x_Speex_Lib/libspeex/resample.c ****    st->started = 0;
 3409              		.loc 2 735 0
 3410 0038 3B69     		ldr	r3, [r7, #16]
 3411 003a 0022     		movs	r2, #0
 3412 003c 9A63     		str	r2, [r3, #56]
 736:STM32F10x_Speex_Lib/libspeex/resample.c ****    st->in_rate = 0;
 3413              		.loc 2 736 0
 3414 003e 3B69     		ldr	r3, [r7, #16]
 3415 0040 0022     		movs	r2, #0
 3416 0042 1A60     		str	r2, [r3]
 737:STM32F10x_Speex_Lib/libspeex/resample.c ****    st->out_rate = 0;
 3417              		.loc 2 737 0
 3418 0044 3B69     		ldr	r3, [r7, #16]
 3419 0046 0022     		movs	r2, #0
 3420 0048 5A60     		str	r2, [r3, #4]
 738:STM32F10x_Speex_Lib/libspeex/resample.c ****    st->num_rate = 0;
 3421              		.loc 2 738 0
 3422 004a 3B69     		ldr	r3, [r7, #16]
 3423 004c 0022     		movs	r2, #0
 3424 004e 9A60     		str	r2, [r3, #8]
 739:STM32F10x_Speex_Lib/libspeex/resample.c ****    st->den_rate = 0;
ARM GAS  /var/folders/kh/x4vltyy52lbg7p4pcyglc5080000gp/T//cc33Oc7n.s 			page 76


 3425              		.loc 2 739 0
 3426 0050 3B69     		ldr	r3, [r7, #16]
 3427 0052 0022     		movs	r2, #0
 3428 0054 DA60     		str	r2, [r3, #12]
 740:STM32F10x_Speex_Lib/libspeex/resample.c ****    st->quality = -1;
 3429              		.loc 2 740 0
 3430 0056 3B69     		ldr	r3, [r7, #16]
 3431 0058 4FF0FF32 		mov	r2, #-1
 3432 005c 1A61     		str	r2, [r3, #16]
 741:STM32F10x_Speex_Lib/libspeex/resample.c ****    st->sinc_table_length = 0;
 3433              		.loc 2 741 0
 3434 005e 3B69     		ldr	r3, [r7, #16]
 3435 0060 0022     		movs	r2, #0
 3436 0062 1A65     		str	r2, [r3, #80]
 742:STM32F10x_Speex_Lib/libspeex/resample.c ****    st->mem_alloc_size = 0;
 3437              		.loc 2 742 0
 3438 0064 3B69     		ldr	r3, [r7, #16]
 3439 0066 0022     		movs	r2, #0
 3440 0068 DA61     		str	r2, [r3, #28]
 743:STM32F10x_Speex_Lib/libspeex/resample.c ****    st->filt_len = 0;
 3441              		.loc 2 743 0
 3442 006a 3B69     		ldr	r3, [r7, #16]
 3443 006c 0022     		movs	r2, #0
 3444 006e 9A61     		str	r2, [r3, #24]
 744:STM32F10x_Speex_Lib/libspeex/resample.c ****    st->mem = 0;
 3445              		.loc 2 744 0
 3446 0070 3B69     		ldr	r3, [r7, #16]
 3447 0072 0022     		movs	r2, #0
 3448 0074 9A64     		str	r2, [r3, #72]
 745:STM32F10x_Speex_Lib/libspeex/resample.c ****    st->resampler_ptr = 0;
 3449              		.loc 2 745 0
 3450 0076 3B69     		ldr	r3, [r7, #16]
 3451 0078 0022     		movs	r2, #0
 3452 007a 5A65     		str	r2, [r3, #84]
 746:STM32F10x_Speex_Lib/libspeex/resample.c ****          
 747:STM32F10x_Speex_Lib/libspeex/resample.c ****    st->cutoff = 1.f;
 3453              		.loc 2 747 0
 3454 007c 3B69     		ldr	r3, [r7, #16]
 3455 007e 4FF07E52 		mov	r2, #1065353216
 3456 0082 DA62     		str	r2, [r3, #44]	@ float
 748:STM32F10x_Speex_Lib/libspeex/resample.c ****    st->nb_channels = nb_channels;
 3457              		.loc 2 748 0
 3458 0084 3B69     		ldr	r3, [r7, #16]
 3459 0086 FA68     		ldr	r2, [r7, #12]
 3460 0088 5A61     		str	r2, [r3, #20]
 749:STM32F10x_Speex_Lib/libspeex/resample.c ****    st->in_stride = 1;
 3461              		.loc 2 749 0
 3462 008a 3B69     		ldr	r3, [r7, #16]
 3463 008c 0122     		movs	r2, #1
 3464 008e 9A65     		str	r2, [r3, #88]
 750:STM32F10x_Speex_Lib/libspeex/resample.c ****    st->out_stride = 1;
 3465              		.loc 2 750 0
 3466 0090 3B69     		ldr	r3, [r7, #16]
 3467 0092 0122     		movs	r2, #1
 3468 0094 DA65     		str	r2, [r3, #92]
 751:STM32F10x_Speex_Lib/libspeex/resample.c ****    
 752:STM32F10x_Speex_Lib/libspeex/resample.c **** #ifdef FIXED_POINT
ARM GAS  /var/folders/kh/x4vltyy52lbg7p4pcyglc5080000gp/T//cc33Oc7n.s 			page 77


 753:STM32F10x_Speex_Lib/libspeex/resample.c ****    st->buffer_size = 160;
 3469              		.loc 2 753 0
 3470 0096 3B69     		ldr	r3, [r7, #16]
 3471 0098 A022     		movs	r2, #160
 3472 009a 1A62     		str	r2, [r3, #32]
 754:STM32F10x_Speex_Lib/libspeex/resample.c **** #else
 755:STM32F10x_Speex_Lib/libspeex/resample.c ****    st->buffer_size = 160;
 756:STM32F10x_Speex_Lib/libspeex/resample.c **** #endif
 757:STM32F10x_Speex_Lib/libspeex/resample.c ****    
 758:STM32F10x_Speex_Lib/libspeex/resample.c ****    /* Per channel data */
 759:STM32F10x_Speex_Lib/libspeex/resample.c ****    st->last_sample = (spx_int32_t*)speex_alloc(nb_channels*sizeof(int));
 3473              		.loc 2 759 0
 3474 009c FB68     		ldr	r3, [r7, #12]
 3475 009e 9B00     		lsls	r3, r3, #2
 3476 00a0 1846     		mov	r0, r3
 3477 00a2 FFF7FEFF 		bl	speex_alloc
 3478 00a6 0246     		mov	r2, r0
 3479 00a8 3B69     		ldr	r3, [r7, #16]
 3480 00aa DA63     		str	r2, [r3, #60]
 760:STM32F10x_Speex_Lib/libspeex/resample.c ****    st->magic_samples = (spx_uint32_t*)speex_alloc(nb_channels*sizeof(int));
 3481              		.loc 2 760 0
 3482 00ac FB68     		ldr	r3, [r7, #12]
 3483 00ae 9B00     		lsls	r3, r3, #2
 3484 00b0 1846     		mov	r0, r3
 3485 00b2 FFF7FEFF 		bl	speex_alloc
 3486 00b6 0246     		mov	r2, r0
 3487 00b8 3B69     		ldr	r3, [r7, #16]
 3488 00ba 5A64     		str	r2, [r3, #68]
 761:STM32F10x_Speex_Lib/libspeex/resample.c ****    st->samp_frac_num = (spx_uint32_t*)speex_alloc(nb_channels*sizeof(int));
 3489              		.loc 2 761 0
 3490 00bc FB68     		ldr	r3, [r7, #12]
 3491 00be 9B00     		lsls	r3, r3, #2
 3492 00c0 1846     		mov	r0, r3
 3493 00c2 FFF7FEFF 		bl	speex_alloc
 3494 00c6 0246     		mov	r2, r0
 3495 00c8 3B69     		ldr	r3, [r7, #16]
 3496 00ca 1A64     		str	r2, [r3, #64]
 762:STM32F10x_Speex_Lib/libspeex/resample.c ****    for (i=0;i<nb_channels;i++)
 3497              		.loc 2 762 0
 3498 00cc 0023     		movs	r3, #0
 3499 00ce 7B61     		str	r3, [r7, #20]
 3500 00d0 17E0     		b	.L122
 3501              	.L123:
 763:STM32F10x_Speex_Lib/libspeex/resample.c ****    {
 764:STM32F10x_Speex_Lib/libspeex/resample.c ****       st->last_sample[i] = 0;
 3502              		.loc 2 764 0 discriminator 3
 3503 00d2 3B69     		ldr	r3, [r7, #16]
 3504 00d4 DA6B     		ldr	r2, [r3, #60]
 3505 00d6 7B69     		ldr	r3, [r7, #20]
 3506 00d8 9B00     		lsls	r3, r3, #2
 3507 00da 1344     		add	r3, r3, r2
 3508 00dc 0022     		movs	r2, #0
 3509 00de 1A60     		str	r2, [r3]
 765:STM32F10x_Speex_Lib/libspeex/resample.c ****       st->magic_samples[i] = 0;
 3510              		.loc 2 765 0 discriminator 3
 3511 00e0 3B69     		ldr	r3, [r7, #16]
 3512 00e2 5A6C     		ldr	r2, [r3, #68]
ARM GAS  /var/folders/kh/x4vltyy52lbg7p4pcyglc5080000gp/T//cc33Oc7n.s 			page 78


 3513 00e4 7B69     		ldr	r3, [r7, #20]
 3514 00e6 9B00     		lsls	r3, r3, #2
 3515 00e8 1344     		add	r3, r3, r2
 3516 00ea 0022     		movs	r2, #0
 3517 00ec 1A60     		str	r2, [r3]
 766:STM32F10x_Speex_Lib/libspeex/resample.c ****       st->samp_frac_num[i] = 0;
 3518              		.loc 2 766 0 discriminator 3
 3519 00ee 3B69     		ldr	r3, [r7, #16]
 3520 00f0 1A6C     		ldr	r2, [r3, #64]
 3521 00f2 7B69     		ldr	r3, [r7, #20]
 3522 00f4 9B00     		lsls	r3, r3, #2
 3523 00f6 1344     		add	r3, r3, r2
 3524 00f8 0022     		movs	r2, #0
 3525 00fa 1A60     		str	r2, [r3]
 762:STM32F10x_Speex_Lib/libspeex/resample.c ****    {
 3526              		.loc 2 762 0 discriminator 3
 3527 00fc 7B69     		ldr	r3, [r7, #20]
 3528 00fe 0133     		adds	r3, r3, #1
 3529 0100 7B61     		str	r3, [r7, #20]
 3530              	.L122:
 762:STM32F10x_Speex_Lib/libspeex/resample.c ****    {
 3531              		.loc 2 762 0 is_stmt 0 discriminator 1
 3532 0102 7A69     		ldr	r2, [r7, #20]
 3533 0104 FB68     		ldr	r3, [r7, #12]
 3534 0106 9A42     		cmp	r2, r3
 3535 0108 E3D3     		bcc	.L123
 767:STM32F10x_Speex_Lib/libspeex/resample.c ****    }
 768:STM32F10x_Speex_Lib/libspeex/resample.c **** 
 769:STM32F10x_Speex_Lib/libspeex/resample.c ****    speex_resampler_set_quality(st, quality);
 3536              		.loc 2 769 0 is_stmt 1
 3537 010a 796A     		ldr	r1, [r7, #36]
 3538 010c 3869     		ldr	r0, [r7, #16]
 3539 010e FFF7FEFF 		bl	speex_resampler_set_quality
 770:STM32F10x_Speex_Lib/libspeex/resample.c ****    speex_resampler_set_rate_frac(st, ratio_num, ratio_den, in_rate, out_rate);
 3540              		.loc 2 770 0
 3541 0112 3B6A     		ldr	r3, [r7, #32]
 3542 0114 0093     		str	r3, [sp]
 3543 0116 3B68     		ldr	r3, [r7]
 3544 0118 7A68     		ldr	r2, [r7, #4]
 3545 011a B968     		ldr	r1, [r7, #8]
 3546 011c 3869     		ldr	r0, [r7, #16]
 3547 011e FFF7FEFF 		bl	speex_resampler_set_rate_frac
 771:STM32F10x_Speex_Lib/libspeex/resample.c **** 
 772:STM32F10x_Speex_Lib/libspeex/resample.c ****    
 773:STM32F10x_Speex_Lib/libspeex/resample.c ****    update_filter(st);
 3548              		.loc 2 773 0
 3549 0122 3869     		ldr	r0, [r7, #16]
 3550 0124 FFF7FEFF 		bl	update_filter
 774:STM32F10x_Speex_Lib/libspeex/resample.c ****    
 775:STM32F10x_Speex_Lib/libspeex/resample.c ****    st->initialised = 1;
 3551              		.loc 2 775 0
 3552 0128 3B69     		ldr	r3, [r7, #16]
 3553 012a 0122     		movs	r2, #1
 3554 012c 5A63     		str	r2, [r3, #52]
 776:STM32F10x_Speex_Lib/libspeex/resample.c ****    if (err)
 3555              		.loc 2 776 0
 3556 012e BB6A     		ldr	r3, [r7, #40]
ARM GAS  /var/folders/kh/x4vltyy52lbg7p4pcyglc5080000gp/T//cc33Oc7n.s 			page 79


 3557 0130 002B     		cmp	r3, #0
 3558 0132 02D0     		beq	.L124
 777:STM32F10x_Speex_Lib/libspeex/resample.c ****       *err = RESAMPLER_ERR_SUCCESS;
 3559              		.loc 2 777 0
 3560 0134 BB6A     		ldr	r3, [r7, #40]
 3561 0136 0022     		movs	r2, #0
 3562 0138 1A60     		str	r2, [r3]
 3563              	.L124:
 778:STM32F10x_Speex_Lib/libspeex/resample.c **** 
 779:STM32F10x_Speex_Lib/libspeex/resample.c ****    return st;
 3564              		.loc 2 779 0
 3565 013a 3B69     		ldr	r3, [r7, #16]
 3566              	.L121:
 780:STM32F10x_Speex_Lib/libspeex/resample.c **** }
 3567              		.loc 2 780 0
 3568 013c 1846     		mov	r0, r3
 3569 013e 1837     		adds	r7, r7, #24
 3570              	.LCFI54:
 3571              		.cfi_def_cfa_offset 8
 3572 0140 BD46     		mov	sp, r7
 3573              	.LCFI55:
 3574              		.cfi_def_cfa_register 13
 3575              		@ sp needed
 3576 0142 80BD     		pop	{r7, pc}
 3577              		.cfi_endproc
 3578              	.LFE16:
 3580              		.section	.text.speex_resampler_destroy,"ax",%progbits
 3581              		.align	2
 3582              		.global	speex_resampler_destroy
 3583              		.thumb
 3584              		.thumb_func
 3586              	speex_resampler_destroy:
 3587              	.LFB17:
 781:STM32F10x_Speex_Lib/libspeex/resample.c **** 
 782:STM32F10x_Speex_Lib/libspeex/resample.c **** EXPORT void speex_resampler_destroy(SpeexResamplerState *st)
 783:STM32F10x_Speex_Lib/libspeex/resample.c **** {
 3588              		.loc 2 783 0
 3589              		.cfi_startproc
 3590              		@ args = 0, pretend = 0, frame = 8
 3591              		@ frame_needed = 1, uses_anonymous_args = 0
 3592 0000 80B5     		push	{r7, lr}
 3593              	.LCFI56:
 3594              		.cfi_def_cfa_offset 8
 3595              		.cfi_offset 7, -8
 3596              		.cfi_offset 14, -4
 3597 0002 82B0     		sub	sp, sp, #8
 3598              	.LCFI57:
 3599              		.cfi_def_cfa_offset 16
 3600 0004 00AF     		add	r7, sp, #0
 3601              	.LCFI58:
 3602              		.cfi_def_cfa_register 7
 3603 0006 7860     		str	r0, [r7, #4]
 784:STM32F10x_Speex_Lib/libspeex/resample.c ****    speex_free(st->mem);
 3604              		.loc 2 784 0
 3605 0008 7B68     		ldr	r3, [r7, #4]
 3606 000a 9B6C     		ldr	r3, [r3, #72]
 3607 000c 1846     		mov	r0, r3
ARM GAS  /var/folders/kh/x4vltyy52lbg7p4pcyglc5080000gp/T//cc33Oc7n.s 			page 80


 3608 000e FFF7FEFF 		bl	speex_free
 785:STM32F10x_Speex_Lib/libspeex/resample.c ****    speex_free(st->sinc_table);
 3609              		.loc 2 785 0
 3610 0012 7B68     		ldr	r3, [r7, #4]
 3611 0014 DB6C     		ldr	r3, [r3, #76]
 3612 0016 1846     		mov	r0, r3
 3613 0018 FFF7FEFF 		bl	speex_free
 786:STM32F10x_Speex_Lib/libspeex/resample.c ****    speex_free(st->last_sample);
 3614              		.loc 2 786 0
 3615 001c 7B68     		ldr	r3, [r7, #4]
 3616 001e DB6B     		ldr	r3, [r3, #60]
 3617 0020 1846     		mov	r0, r3
 3618 0022 FFF7FEFF 		bl	speex_free
 787:STM32F10x_Speex_Lib/libspeex/resample.c ****    speex_free(st->magic_samples);
 3619              		.loc 2 787 0
 3620 0026 7B68     		ldr	r3, [r7, #4]
 3621 0028 5B6C     		ldr	r3, [r3, #68]
 3622 002a 1846     		mov	r0, r3
 3623 002c FFF7FEFF 		bl	speex_free
 788:STM32F10x_Speex_Lib/libspeex/resample.c ****    speex_free(st->samp_frac_num);
 3624              		.loc 2 788 0
 3625 0030 7B68     		ldr	r3, [r7, #4]
 3626 0032 1B6C     		ldr	r3, [r3, #64]
 3627 0034 1846     		mov	r0, r3
 3628 0036 FFF7FEFF 		bl	speex_free
 789:STM32F10x_Speex_Lib/libspeex/resample.c ****    speex_free(st);
 3629              		.loc 2 789 0
 3630 003a 7868     		ldr	r0, [r7, #4]
 3631 003c FFF7FEFF 		bl	speex_free
 790:STM32F10x_Speex_Lib/libspeex/resample.c **** }
 3632              		.loc 2 790 0
 3633 0040 00BF     		nop
 3634 0042 0837     		adds	r7, r7, #8
 3635              	.LCFI59:
 3636              		.cfi_def_cfa_offset 8
 3637 0044 BD46     		mov	sp, r7
 3638              	.LCFI60:
 3639              		.cfi_def_cfa_register 13
 3640              		@ sp needed
 3641 0046 80BD     		pop	{r7, pc}
 3642              		.cfi_endproc
 3643              	.LFE17:
 3645              		.section	.text.speex_resampler_process_native,"ax",%progbits
 3646              		.align	2
 3647              		.thumb
 3648              		.thumb_func
 3650              	speex_resampler_process_native:
 3651              	.LFB18:
 791:STM32F10x_Speex_Lib/libspeex/resample.c **** 
 792:STM32F10x_Speex_Lib/libspeex/resample.c **** static int speex_resampler_process_native(SpeexResamplerState *st, spx_uint32_t channel_index, spx_
 793:STM32F10x_Speex_Lib/libspeex/resample.c **** {
 3652              		.loc 2 793 0
 3653              		.cfi_startproc
 3654              		@ args = 4, pretend = 0, frame = 40
 3655              		@ frame_needed = 1, uses_anonymous_args = 0
 3656 0000 90B5     		push	{r4, r7, lr}
 3657              	.LCFI61:
ARM GAS  /var/folders/kh/x4vltyy52lbg7p4pcyglc5080000gp/T//cc33Oc7n.s 			page 81


 3658              		.cfi_def_cfa_offset 12
 3659              		.cfi_offset 4, -12
 3660              		.cfi_offset 7, -8
 3661              		.cfi_offset 14, -4
 3662 0002 8DB0     		sub	sp, sp, #52
 3663              	.LCFI62:
 3664              		.cfi_def_cfa_offset 64
 3665 0004 02AF     		add	r7, sp, #8
 3666              	.LCFI63:
 3667              		.cfi_def_cfa 7, 56
 3668 0006 F860     		str	r0, [r7, #12]
 3669 0008 B960     		str	r1, [r7, #8]
 3670 000a 7A60     		str	r2, [r7, #4]
 3671 000c 3B60     		str	r3, [r7]
 794:STM32F10x_Speex_Lib/libspeex/resample.c ****    int j=0;
 3672              		.loc 2 794 0
 3673 000e 0023     		movs	r3, #0
 3674 0010 7B62     		str	r3, [r7, #36]
 795:STM32F10x_Speex_Lib/libspeex/resample.c ****    const int N = st->filt_len;
 3675              		.loc 2 795 0
 3676 0012 FB68     		ldr	r3, [r7, #12]
 3677 0014 9B69     		ldr	r3, [r3, #24]
 3678 0016 3B62     		str	r3, [r7, #32]
 796:STM32F10x_Speex_Lib/libspeex/resample.c ****    int out_sample = 0;
 3679              		.loc 2 796 0
 3680 0018 0023     		movs	r3, #0
 3681 001a FB61     		str	r3, [r7, #28]
 797:STM32F10x_Speex_Lib/libspeex/resample.c ****    spx_word16_t *mem = st->mem + channel_index * st->mem_alloc_size;
 3682              		.loc 2 797 0
 3683 001c FB68     		ldr	r3, [r7, #12]
 3684 001e 9A6C     		ldr	r2, [r3, #72]
 3685 0020 FB68     		ldr	r3, [r7, #12]
 3686 0022 DB69     		ldr	r3, [r3, #28]
 3687 0024 B968     		ldr	r1, [r7, #8]
 3688 0026 01FB03F3 		mul	r3, r1, r3
 3689 002a 5B00     		lsls	r3, r3, #1
 3690 002c 1344     		add	r3, r3, r2
 3691 002e BB61     		str	r3, [r7, #24]
 798:STM32F10x_Speex_Lib/libspeex/resample.c ****    spx_uint32_t ilen;
 799:STM32F10x_Speex_Lib/libspeex/resample.c ****    
 800:STM32F10x_Speex_Lib/libspeex/resample.c ****    st->started = 1;
 3692              		.loc 2 800 0
 3693 0030 FB68     		ldr	r3, [r7, #12]
 3694 0032 0122     		movs	r2, #1
 3695 0034 9A63     		str	r2, [r3, #56]
 801:STM32F10x_Speex_Lib/libspeex/resample.c ****    
 802:STM32F10x_Speex_Lib/libspeex/resample.c ****    /* Call the right resampler through the function ptr */
 803:STM32F10x_Speex_Lib/libspeex/resample.c ****    out_sample = st->resampler_ptr(st, channel_index, mem, in_len, out, out_len);
 3696              		.loc 2 803 0
 3697 0036 FB68     		ldr	r3, [r7, #12]
 3698 0038 5C6D     		ldr	r4, [r3, #84]
 3699 003a BB6B     		ldr	r3, [r7, #56]
 3700 003c 0193     		str	r3, [sp, #4]
 3701 003e 3B68     		ldr	r3, [r7]
 3702 0040 0093     		str	r3, [sp]
 3703 0042 7B68     		ldr	r3, [r7, #4]
 3704 0044 BA69     		ldr	r2, [r7, #24]
ARM GAS  /var/folders/kh/x4vltyy52lbg7p4pcyglc5080000gp/T//cc33Oc7n.s 			page 82


 3705 0046 B968     		ldr	r1, [r7, #8]
 3706 0048 F868     		ldr	r0, [r7, #12]
 3707 004a A047     		blx	r4
 3708 004c F861     		str	r0, [r7, #28]
 804:STM32F10x_Speex_Lib/libspeex/resample.c ****    
 805:STM32F10x_Speex_Lib/libspeex/resample.c ****    if (st->last_sample[channel_index] < (spx_int32_t)*in_len)
 3709              		.loc 2 805 0
 3710 004e FB68     		ldr	r3, [r7, #12]
 3711 0050 DA6B     		ldr	r2, [r3, #60]
 3712 0052 BB68     		ldr	r3, [r7, #8]
 3713 0054 9B00     		lsls	r3, r3, #2
 3714 0056 1344     		add	r3, r3, r2
 3715 0058 1B68     		ldr	r3, [r3]
 3716 005a 7A68     		ldr	r2, [r7, #4]
 3717 005c 1268     		ldr	r2, [r2]
 3718 005e 9342     		cmp	r3, r2
 3719 0060 08DA     		bge	.L127
 806:STM32F10x_Speex_Lib/libspeex/resample.c ****       *in_len = st->last_sample[channel_index];
 3720              		.loc 2 806 0
 3721 0062 FB68     		ldr	r3, [r7, #12]
 3722 0064 DA6B     		ldr	r2, [r3, #60]
 3723 0066 BB68     		ldr	r3, [r7, #8]
 3724 0068 9B00     		lsls	r3, r3, #2
 3725 006a 1344     		add	r3, r3, r2
 3726 006c 1B68     		ldr	r3, [r3]
 3727 006e 1A46     		mov	r2, r3
 3728 0070 7B68     		ldr	r3, [r7, #4]
 3729 0072 1A60     		str	r2, [r3]
 3730              	.L127:
 807:STM32F10x_Speex_Lib/libspeex/resample.c ****    *out_len = out_sample;
 3731              		.loc 2 807 0
 3732 0074 FA69     		ldr	r2, [r7, #28]
 3733 0076 BB6B     		ldr	r3, [r7, #56]
 3734 0078 1A60     		str	r2, [r3]
 808:STM32F10x_Speex_Lib/libspeex/resample.c ****    st->last_sample[channel_index] -= *in_len;
 3735              		.loc 2 808 0
 3736 007a FB68     		ldr	r3, [r7, #12]
 3737 007c DA6B     		ldr	r2, [r3, #60]
 3738 007e BB68     		ldr	r3, [r7, #8]
 3739 0080 9B00     		lsls	r3, r3, #2
 3740 0082 1344     		add	r3, r3, r2
 3741 0084 FA68     		ldr	r2, [r7, #12]
 3742 0086 D16B     		ldr	r1, [r2, #60]
 3743 0088 BA68     		ldr	r2, [r7, #8]
 3744 008a 9200     		lsls	r2, r2, #2
 3745 008c 0A44     		add	r2, r2, r1
 3746 008e 1268     		ldr	r2, [r2]
 3747 0090 1146     		mov	r1, r2
 3748 0092 7A68     		ldr	r2, [r7, #4]
 3749 0094 1268     		ldr	r2, [r2]
 3750 0096 8A1A     		subs	r2, r1, r2
 3751 0098 1A60     		str	r2, [r3]
 809:STM32F10x_Speex_Lib/libspeex/resample.c ****    
 810:STM32F10x_Speex_Lib/libspeex/resample.c ****    ilen = *in_len;
 3752              		.loc 2 810 0
 3753 009a 7B68     		ldr	r3, [r7, #4]
 3754 009c 1B68     		ldr	r3, [r3]
ARM GAS  /var/folders/kh/x4vltyy52lbg7p4pcyglc5080000gp/T//cc33Oc7n.s 			page 83


 3755 009e 7B61     		str	r3, [r7, #20]
 811:STM32F10x_Speex_Lib/libspeex/resample.c **** 
 812:STM32F10x_Speex_Lib/libspeex/resample.c ****    for(j=0;j<N-1;++j)
 3756              		.loc 2 812 0
 3757 00a0 0023     		movs	r3, #0
 3758 00a2 7B62     		str	r3, [r7, #36]
 3759 00a4 0FE0     		b	.L128
 3760              	.L129:
 813:STM32F10x_Speex_Lib/libspeex/resample.c ****      mem[j] = mem[j+ilen];
 3761              		.loc 2 813 0 discriminator 3
 3762 00a6 7B6A     		ldr	r3, [r7, #36]
 3763 00a8 5B00     		lsls	r3, r3, #1
 3764 00aa BA69     		ldr	r2, [r7, #24]
 3765 00ac 1344     		add	r3, r3, r2
 3766 00ae 796A     		ldr	r1, [r7, #36]
 3767 00b0 7A69     		ldr	r2, [r7, #20]
 3768 00b2 0A44     		add	r2, r2, r1
 3769 00b4 5200     		lsls	r2, r2, #1
 3770 00b6 B969     		ldr	r1, [r7, #24]
 3771 00b8 0A44     		add	r2, r2, r1
 3772 00ba B2F90020 		ldrsh	r2, [r2]
 3773 00be 1A80     		strh	r2, [r3]	@ movhi
 812:STM32F10x_Speex_Lib/libspeex/resample.c ****      mem[j] = mem[j+ilen];
 3774              		.loc 2 812 0 discriminator 3
 3775 00c0 7B6A     		ldr	r3, [r7, #36]
 3776 00c2 0133     		adds	r3, r3, #1
 3777 00c4 7B62     		str	r3, [r7, #36]
 3778              	.L128:
 812:STM32F10x_Speex_Lib/libspeex/resample.c ****      mem[j] = mem[j+ilen];
 3779              		.loc 2 812 0 is_stmt 0 discriminator 1
 3780 00c6 3B6A     		ldr	r3, [r7, #32]
 3781 00c8 5A1E     		subs	r2, r3, #1
 3782 00ca 7B6A     		ldr	r3, [r7, #36]
 3783 00cc 9A42     		cmp	r2, r3
 3784 00ce EADC     		bgt	.L129
 814:STM32F10x_Speex_Lib/libspeex/resample.c **** 
 815:STM32F10x_Speex_Lib/libspeex/resample.c ****    return RESAMPLER_ERR_SUCCESS;
 3785              		.loc 2 815 0 is_stmt 1
 3786 00d0 0023     		movs	r3, #0
 816:STM32F10x_Speex_Lib/libspeex/resample.c **** }
 3787              		.loc 2 816 0
 3788 00d2 1846     		mov	r0, r3
 3789 00d4 2C37     		adds	r7, r7, #44
 3790              	.LCFI64:
 3791              		.cfi_def_cfa_offset 12
 3792 00d6 BD46     		mov	sp, r7
 3793              	.LCFI65:
 3794              		.cfi_def_cfa_register 13
 3795              		@ sp needed
 3796 00d8 90BD     		pop	{r4, r7, pc}
 3797              		.cfi_endproc
 3798              	.LFE18:
 3800 00da 00BF     		.section	.text.speex_resampler_magic,"ax",%progbits
 3801              		.align	2
 3802              		.thumb
 3803              		.thumb_func
 3805              	speex_resampler_magic:
ARM GAS  /var/folders/kh/x4vltyy52lbg7p4pcyglc5080000gp/T//cc33Oc7n.s 			page 84


 3806              	.LFB19:
 817:STM32F10x_Speex_Lib/libspeex/resample.c **** 
 818:STM32F10x_Speex_Lib/libspeex/resample.c **** static int speex_resampler_magic(SpeexResamplerState *st, spx_uint32_t channel_index, spx_word16_t 
 3807              		.loc 2 818 0
 3808              		.cfi_startproc
 3809              		@ args = 0, pretend = 0, frame = 32
 3810              		@ frame_needed = 1, uses_anonymous_args = 0
 3811 0000 80B5     		push	{r7, lr}
 3812              	.LCFI66:
 3813              		.cfi_def_cfa_offset 8
 3814              		.cfi_offset 7, -8
 3815              		.cfi_offset 14, -4
 3816 0002 8AB0     		sub	sp, sp, #40
 3817              	.LCFI67:
 3818              		.cfi_def_cfa_offset 48
 3819 0004 02AF     		add	r7, sp, #8
 3820              	.LCFI68:
 3821              		.cfi_def_cfa 7, 40
 3822 0006 F860     		str	r0, [r7, #12]
 3823 0008 B960     		str	r1, [r7, #8]
 3824 000a 7A60     		str	r2, [r7, #4]
 3825 000c 3B60     		str	r3, [r7]
 819:STM32F10x_Speex_Lib/libspeex/resample.c ****    spx_uint32_t tmp_in_len = st->magic_samples[channel_index];
 3826              		.loc 2 819 0
 3827 000e FB68     		ldr	r3, [r7, #12]
 3828 0010 5A6C     		ldr	r2, [r3, #68]
 3829 0012 BB68     		ldr	r3, [r7, #8]
 3830 0014 9B00     		lsls	r3, r3, #2
 3831 0016 1344     		add	r3, r3, r2
 3832 0018 1B68     		ldr	r3, [r3]
 3833 001a 3B61     		str	r3, [r7, #16]
 820:STM32F10x_Speex_Lib/libspeex/resample.c ****    spx_word16_t *mem = st->mem + channel_index * st->mem_alloc_size;
 3834              		.loc 2 820 0
 3835 001c FB68     		ldr	r3, [r7, #12]
 3836 001e 9A6C     		ldr	r2, [r3, #72]
 3837 0020 FB68     		ldr	r3, [r7, #12]
 3838 0022 DB69     		ldr	r3, [r3, #28]
 3839 0024 B968     		ldr	r1, [r7, #8]
 3840 0026 01FB03F3 		mul	r3, r1, r3
 3841 002a 5B00     		lsls	r3, r3, #1
 3842 002c 1344     		add	r3, r3, r2
 3843 002e BB61     		str	r3, [r7, #24]
 821:STM32F10x_Speex_Lib/libspeex/resample.c ****    const int N = st->filt_len;
 3844              		.loc 2 821 0
 3845 0030 FB68     		ldr	r3, [r7, #12]
 3846 0032 9B69     		ldr	r3, [r3, #24]
 3847 0034 7B61     		str	r3, [r7, #20]
 822:STM32F10x_Speex_Lib/libspeex/resample.c ****    
 823:STM32F10x_Speex_Lib/libspeex/resample.c ****    speex_resampler_process_native(st, channel_index, &tmp_in_len, *out, &out_len);
 3848              		.loc 2 823 0
 3849 0036 7B68     		ldr	r3, [r7, #4]
 3850 0038 1968     		ldr	r1, [r3]
 3851 003a 07F11002 		add	r2, r7, #16
 3852 003e 3B46     		mov	r3, r7
 3853 0040 0093     		str	r3, [sp]
 3854 0042 0B46     		mov	r3, r1
 3855 0044 B968     		ldr	r1, [r7, #8]
ARM GAS  /var/folders/kh/x4vltyy52lbg7p4pcyglc5080000gp/T//cc33Oc7n.s 			page 85


 3856 0046 F868     		ldr	r0, [r7, #12]
 3857 0048 FFF7FEFF 		bl	speex_resampler_process_native
 824:STM32F10x_Speex_Lib/libspeex/resample.c **** 
 825:STM32F10x_Speex_Lib/libspeex/resample.c ****    st->magic_samples[channel_index] -= tmp_in_len;
 3858              		.loc 2 825 0
 3859 004c FB68     		ldr	r3, [r7, #12]
 3860 004e 5A6C     		ldr	r2, [r3, #68]
 3861 0050 BB68     		ldr	r3, [r7, #8]
 3862 0052 9B00     		lsls	r3, r3, #2
 3863 0054 1344     		add	r3, r3, r2
 3864 0056 FA68     		ldr	r2, [r7, #12]
 3865 0058 516C     		ldr	r1, [r2, #68]
 3866 005a BA68     		ldr	r2, [r7, #8]
 3867 005c 9200     		lsls	r2, r2, #2
 3868 005e 0A44     		add	r2, r2, r1
 3869 0060 1168     		ldr	r1, [r2]
 3870 0062 3A69     		ldr	r2, [r7, #16]
 3871 0064 8A1A     		subs	r2, r1, r2
 3872 0066 1A60     		str	r2, [r3]
 826:STM32F10x_Speex_Lib/libspeex/resample.c ****    
 827:STM32F10x_Speex_Lib/libspeex/resample.c ****    /* If we couldn't process all "magic" input samples, save the rest for next time */
 828:STM32F10x_Speex_Lib/libspeex/resample.c ****    if (st->magic_samples[channel_index])
 3873              		.loc 2 828 0
 3874 0068 FB68     		ldr	r3, [r7, #12]
 3875 006a 5A6C     		ldr	r2, [r3, #68]
 3876 006c BB68     		ldr	r3, [r7, #8]
 3877 006e 9B00     		lsls	r3, r3, #2
 3878 0070 1344     		add	r3, r3, r2
 3879 0072 1B68     		ldr	r3, [r3]
 3880 0074 002B     		cmp	r3, #0
 3881 0076 25D0     		beq	.L132
 3882              	.LBB14:
 829:STM32F10x_Speex_Lib/libspeex/resample.c ****    {
 830:STM32F10x_Speex_Lib/libspeex/resample.c ****       spx_uint32_t i;
 831:STM32F10x_Speex_Lib/libspeex/resample.c ****       for (i=0;i<st->magic_samples[channel_index];i++)
 3883              		.loc 2 831 0
 3884 0078 0023     		movs	r3, #0
 3885 007a FB61     		str	r3, [r7, #28]
 3886 007c 19E0     		b	.L133
 3887              	.L134:
 832:STM32F10x_Speex_Lib/libspeex/resample.c ****          mem[N-1+i]=mem[N-1+i+tmp_in_len];
 3888              		.loc 2 832 0 discriminator 3
 3889 007e 7A69     		ldr	r2, [r7, #20]
 3890 0080 FB69     		ldr	r3, [r7, #28]
 3891 0082 1344     		add	r3, r3, r2
 3892 0084 03F10043 		add	r3, r3, #-2147483648
 3893 0088 013B     		subs	r3, r3, #1
 3894 008a 5B00     		lsls	r3, r3, #1
 3895 008c BA69     		ldr	r2, [r7, #24]
 3896 008e 1A44     		add	r2, r2, r3
 3897 0090 7969     		ldr	r1, [r7, #20]
 3898 0092 FB69     		ldr	r3, [r7, #28]
 3899 0094 1944     		add	r1, r1, r3
 3900 0096 3B69     		ldr	r3, [r7, #16]
 3901 0098 0B44     		add	r3, r3, r1
 3902 009a 03F10043 		add	r3, r3, #-2147483648
 3903 009e 013B     		subs	r3, r3, #1
ARM GAS  /var/folders/kh/x4vltyy52lbg7p4pcyglc5080000gp/T//cc33Oc7n.s 			page 86


 3904 00a0 5B00     		lsls	r3, r3, #1
 3905 00a2 B969     		ldr	r1, [r7, #24]
 3906 00a4 0B44     		add	r3, r3, r1
 3907 00a6 B3F90030 		ldrsh	r3, [r3]
 3908 00aa 1380     		strh	r3, [r2]	@ movhi
 831:STM32F10x_Speex_Lib/libspeex/resample.c ****          mem[N-1+i]=mem[N-1+i+tmp_in_len];
 3909              		.loc 2 831 0 discriminator 3
 3910 00ac FB69     		ldr	r3, [r7, #28]
 3911 00ae 0133     		adds	r3, r3, #1
 3912 00b0 FB61     		str	r3, [r7, #28]
 3913              	.L133:
 831:STM32F10x_Speex_Lib/libspeex/resample.c ****          mem[N-1+i]=mem[N-1+i+tmp_in_len];
 3914              		.loc 2 831 0 is_stmt 0 discriminator 1
 3915 00b2 FB68     		ldr	r3, [r7, #12]
 3916 00b4 5A6C     		ldr	r2, [r3, #68]
 3917 00b6 BB68     		ldr	r3, [r7, #8]
 3918 00b8 9B00     		lsls	r3, r3, #2
 3919 00ba 1344     		add	r3, r3, r2
 3920 00bc 1A68     		ldr	r2, [r3]
 3921 00be FB69     		ldr	r3, [r7, #28]
 3922 00c0 9A42     		cmp	r2, r3
 3923 00c2 DCD8     		bhi	.L134
 3924              	.L132:
 3925              	.LBE14:
 833:STM32F10x_Speex_Lib/libspeex/resample.c ****    }
 834:STM32F10x_Speex_Lib/libspeex/resample.c ****    *out += out_len*st->out_stride;
 3926              		.loc 2 834 0 is_stmt 1
 3927 00c4 7B68     		ldr	r3, [r7, #4]
 3928 00c6 1A68     		ldr	r2, [r3]
 3929 00c8 FB68     		ldr	r3, [r7, #12]
 3930 00ca DB6D     		ldr	r3, [r3, #92]
 3931 00cc 1946     		mov	r1, r3
 3932 00ce 3B68     		ldr	r3, [r7]
 3933 00d0 03FB01F3 		mul	r3, r3, r1
 3934 00d4 5B00     		lsls	r3, r3, #1
 3935 00d6 1A44     		add	r2, r2, r3
 3936 00d8 7B68     		ldr	r3, [r7, #4]
 3937 00da 1A60     		str	r2, [r3]
 835:STM32F10x_Speex_Lib/libspeex/resample.c ****    return out_len;
 3938              		.loc 2 835 0
 3939 00dc 3B68     		ldr	r3, [r7]
 836:STM32F10x_Speex_Lib/libspeex/resample.c **** }
 3940              		.loc 2 836 0
 3941 00de 1846     		mov	r0, r3
 3942 00e0 2037     		adds	r7, r7, #32
 3943              	.LCFI69:
 3944              		.cfi_def_cfa_offset 8
 3945 00e2 BD46     		mov	sp, r7
 3946              	.LCFI70:
 3947              		.cfi_def_cfa_register 13
 3948              		@ sp needed
 3949 00e4 80BD     		pop	{r7, pc}
 3950              		.cfi_endproc
 3951              	.LFE19:
 3953 00e6 00BF     		.section	.text.speex_resampler_process_int,"ax",%progbits
 3954              		.align	2
 3955              		.global	speex_resampler_process_int
ARM GAS  /var/folders/kh/x4vltyy52lbg7p4pcyglc5080000gp/T//cc33Oc7n.s 			page 87


 3956              		.thumb
 3957              		.thumb_func
 3959              	speex_resampler_process_int:
 3960              	.LFB20:
 837:STM32F10x_Speex_Lib/libspeex/resample.c **** 
 838:STM32F10x_Speex_Lib/libspeex/resample.c **** #ifdef FIXED_POINT
 839:STM32F10x_Speex_Lib/libspeex/resample.c **** EXPORT int speex_resampler_process_int(SpeexResamplerState *st, spx_uint32_t channel_index, const s
 840:STM32F10x_Speex_Lib/libspeex/resample.c **** #else
 841:STM32F10x_Speex_Lib/libspeex/resample.c **** EXPORT int speex_resampler_process_float(SpeexResamplerState *st, spx_uint32_t channel_index, const
 842:STM32F10x_Speex_Lib/libspeex/resample.c **** #endif
 843:STM32F10x_Speex_Lib/libspeex/resample.c **** {
 3961              		.loc 2 843 0
 3962              		.cfi_startproc
 3963              		@ args = 8, pretend = 0, frame = 56
 3964              		@ frame_needed = 1, uses_anonymous_args = 0
 3965 0000 80B5     		push	{r7, lr}
 3966              	.LCFI71:
 3967              		.cfi_def_cfa_offset 8
 3968              		.cfi_offset 7, -8
 3969              		.cfi_offset 14, -4
 3970 0002 90B0     		sub	sp, sp, #64
 3971              	.LCFI72:
 3972              		.cfi_def_cfa_offset 72
 3973 0004 02AF     		add	r7, sp, #8
 3974              	.LCFI73:
 3975              		.cfi_def_cfa 7, 64
 3976 0006 F860     		str	r0, [r7, #12]
 3977 0008 B960     		str	r1, [r7, #8]
 3978 000a 7A60     		str	r2, [r7, #4]
 3979 000c 3B60     		str	r3, [r7]
 844:STM32F10x_Speex_Lib/libspeex/resample.c ****    int j;
 845:STM32F10x_Speex_Lib/libspeex/resample.c ****    spx_uint32_t ilen = *in_len;
 3980              		.loc 2 845 0
 3981 000e 3B68     		ldr	r3, [r7]
 3982 0010 1B68     		ldr	r3, [r3]
 3983 0012 3B63     		str	r3, [r7, #48]
 846:STM32F10x_Speex_Lib/libspeex/resample.c ****    spx_uint32_t olen = *out_len;
 3984              		.loc 2 846 0
 3985 0014 7B6C     		ldr	r3, [r7, #68]
 3986 0016 1B68     		ldr	r3, [r3]
 3987 0018 FB62     		str	r3, [r7, #44]
 847:STM32F10x_Speex_Lib/libspeex/resample.c ****    spx_word16_t *x = st->mem + channel_index * st->mem_alloc_size;
 3988              		.loc 2 847 0
 3989 001a FB68     		ldr	r3, [r7, #12]
 3990 001c 9A6C     		ldr	r2, [r3, #72]
 3991 001e FB68     		ldr	r3, [r7, #12]
 3992 0020 DB69     		ldr	r3, [r3, #28]
 3993 0022 B968     		ldr	r1, [r7, #8]
 3994 0024 01FB03F3 		mul	r3, r1, r3
 3995 0028 5B00     		lsls	r3, r3, #1
 3996 002a 1344     		add	r3, r3, r2
 3997 002c BB62     		str	r3, [r7, #40]
 848:STM32F10x_Speex_Lib/libspeex/resample.c ****    const int filt_offs = st->filt_len - 1;
 3998              		.loc 2 848 0
 3999 002e FB68     		ldr	r3, [r7, #12]
 4000 0030 9B69     		ldr	r3, [r3, #24]
 4001 0032 013B     		subs	r3, r3, #1
ARM GAS  /var/folders/kh/x4vltyy52lbg7p4pcyglc5080000gp/T//cc33Oc7n.s 			page 88


 4002 0034 7B62     		str	r3, [r7, #36]
 849:STM32F10x_Speex_Lib/libspeex/resample.c ****    const spx_uint32_t xlen = st->mem_alloc_size - filt_offs;
 4003              		.loc 2 849 0
 4004 0036 FB68     		ldr	r3, [r7, #12]
 4005 0038 DA69     		ldr	r2, [r3, #28]
 4006 003a 7B6A     		ldr	r3, [r7, #36]
 4007 003c D31A     		subs	r3, r2, r3
 4008 003e 3B62     		str	r3, [r7, #32]
 850:STM32F10x_Speex_Lib/libspeex/resample.c ****    const int istride = st->in_stride;
 4009              		.loc 2 850 0
 4010 0040 FB68     		ldr	r3, [r7, #12]
 4011 0042 9B6D     		ldr	r3, [r3, #88]
 4012 0044 FB61     		str	r3, [r7, #28]
 851:STM32F10x_Speex_Lib/libspeex/resample.c **** 
 852:STM32F10x_Speex_Lib/libspeex/resample.c ****    if (st->magic_samples[channel_index]) 
 4013              		.loc 2 852 0
 4014 0046 FB68     		ldr	r3, [r7, #12]
 4015 0048 5A6C     		ldr	r2, [r3, #68]
 4016 004a BB68     		ldr	r3, [r7, #8]
 4017 004c 9B00     		lsls	r3, r3, #2
 4018 004e 1344     		add	r3, r3, r2
 4019 0050 1B68     		ldr	r3, [r3]
 4020 0052 002B     		cmp	r3, #0
 4021 0054 0BD0     		beq	.L137
 853:STM32F10x_Speex_Lib/libspeex/resample.c ****       olen -= speex_resampler_magic(st, channel_index, &out, olen);
 4022              		.loc 2 853 0
 4023 0056 FB6A     		ldr	r3, [r7, #44]
 4024 0058 07F14002 		add	r2, r7, #64
 4025 005c B968     		ldr	r1, [r7, #8]
 4026 005e F868     		ldr	r0, [r7, #12]
 4027 0060 FFF7FEFF 		bl	speex_resampler_magic
 4028 0064 0346     		mov	r3, r0
 4029 0066 1A46     		mov	r2, r3
 4030 0068 FB6A     		ldr	r3, [r7, #44]
 4031 006a 9B1A     		subs	r3, r3, r2
 4032 006c FB62     		str	r3, [r7, #44]
 4033              	.L137:
 854:STM32F10x_Speex_Lib/libspeex/resample.c ****    if (! st->magic_samples[channel_index]) {
 4034              		.loc 2 854 0
 4035 006e FB68     		ldr	r3, [r7, #12]
 4036 0070 5A6C     		ldr	r2, [r3, #68]
 4037 0072 BB68     		ldr	r3, [r7, #8]
 4038 0074 9B00     		lsls	r3, r3, #2
 4039 0076 1344     		add	r3, r3, r2
 4040 0078 1B68     		ldr	r3, [r3]
 4041 007a 002B     		cmp	r3, #0
 4042 007c 66D1     		bne	.L138
 855:STM32F10x_Speex_Lib/libspeex/resample.c ****       while (ilen && olen) {
 4043              		.loc 2 855 0
 4044 007e 5FE0     		b	.L139
 4045              	.L147:
 4046              	.LBB15:
 856:STM32F10x_Speex_Lib/libspeex/resample.c ****         spx_uint32_t ichunk = (ilen > xlen) ? xlen : ilen;
 4047              		.loc 2 856 0
 4048 0080 3A6B     		ldr	r2, [r7, #48]
 4049 0082 3B6A     		ldr	r3, [r7, #32]
 4050 0084 9342     		cmp	r3, r2
ARM GAS  /var/folders/kh/x4vltyy52lbg7p4pcyglc5080000gp/T//cc33Oc7n.s 			page 89


 4051 0086 28BF     		it	cs
 4052 0088 1346     		movcs	r3, r2
 4053 008a BB61     		str	r3, [r7, #24]
 857:STM32F10x_Speex_Lib/libspeex/resample.c ****         spx_uint32_t ochunk = olen;
 4054              		.loc 2 857 0
 4055 008c FB6A     		ldr	r3, [r7, #44]
 4056 008e 7B61     		str	r3, [r7, #20]
 858:STM32F10x_Speex_Lib/libspeex/resample.c ****  
 859:STM32F10x_Speex_Lib/libspeex/resample.c ****         if (in) {
 4057              		.loc 2 859 0
 4058 0090 7B68     		ldr	r3, [r7, #4]
 4059 0092 002B     		cmp	r3, #0
 4060 0094 1AD0     		beq	.L140
 860:STM32F10x_Speex_Lib/libspeex/resample.c ****            for(j=0;j<ichunk;++j)
 4061              		.loc 2 860 0
 4062 0096 0023     		movs	r3, #0
 4063 0098 7B63     		str	r3, [r7, #52]
 4064 009a 12E0     		b	.L141
 4065              	.L142:
 861:STM32F10x_Speex_Lib/libspeex/resample.c ****               x[j+filt_offs]=in[j*istride];
 4066              		.loc 2 861 0 discriminator 3
 4067 009c 7A6B     		ldr	r2, [r7, #52]
 4068 009e 7B6A     		ldr	r3, [r7, #36]
 4069 00a0 1344     		add	r3, r3, r2
 4070 00a2 5B00     		lsls	r3, r3, #1
 4071 00a4 BA6A     		ldr	r2, [r7, #40]
 4072 00a6 1344     		add	r3, r3, r2
 4073 00a8 7A6B     		ldr	r2, [r7, #52]
 4074 00aa F969     		ldr	r1, [r7, #28]
 4075 00ac 01FB02F2 		mul	r2, r1, r2
 4076 00b0 5200     		lsls	r2, r2, #1
 4077 00b2 7968     		ldr	r1, [r7, #4]
 4078 00b4 0A44     		add	r2, r2, r1
 4079 00b6 B2F90020 		ldrsh	r2, [r2]
 4080 00ba 1A80     		strh	r2, [r3]	@ movhi
 860:STM32F10x_Speex_Lib/libspeex/resample.c ****            for(j=0;j<ichunk;++j)
 4081              		.loc 2 860 0 discriminator 3
 4082 00bc 7B6B     		ldr	r3, [r7, #52]
 4083 00be 0133     		adds	r3, r3, #1
 4084 00c0 7B63     		str	r3, [r7, #52]
 4085              	.L141:
 860:STM32F10x_Speex_Lib/libspeex/resample.c ****            for(j=0;j<ichunk;++j)
 4086              		.loc 2 860 0 is_stmt 0 discriminator 1
 4087 00c2 7A6B     		ldr	r2, [r7, #52]
 4088 00c4 BB69     		ldr	r3, [r7, #24]
 4089 00c6 9A42     		cmp	r2, r3
 4090 00c8 E8D3     		bcc	.L142
 4091 00ca 11E0     		b	.L143
 4092              	.L140:
 862:STM32F10x_Speex_Lib/libspeex/resample.c ****         } else {
 863:STM32F10x_Speex_Lib/libspeex/resample.c ****           for(j=0;j<ichunk;++j)
 4093              		.loc 2 863 0 is_stmt 1
 4094 00cc 0023     		movs	r3, #0
 4095 00ce 7B63     		str	r3, [r7, #52]
 4096 00d0 0AE0     		b	.L144
 4097              	.L145:
 864:STM32F10x_Speex_Lib/libspeex/resample.c ****             x[j+filt_offs]=0;
ARM GAS  /var/folders/kh/x4vltyy52lbg7p4pcyglc5080000gp/T//cc33Oc7n.s 			page 90


 4098              		.loc 2 864 0 discriminator 3
 4099 00d2 7A6B     		ldr	r2, [r7, #52]
 4100 00d4 7B6A     		ldr	r3, [r7, #36]
 4101 00d6 1344     		add	r3, r3, r2
 4102 00d8 5B00     		lsls	r3, r3, #1
 4103 00da BA6A     		ldr	r2, [r7, #40]
 4104 00dc 1344     		add	r3, r3, r2
 4105 00de 0022     		movs	r2, #0
 4106 00e0 1A80     		strh	r2, [r3]	@ movhi
 863:STM32F10x_Speex_Lib/libspeex/resample.c ****             x[j+filt_offs]=0;
 4107              		.loc 2 863 0 discriminator 3
 4108 00e2 7B6B     		ldr	r3, [r7, #52]
 4109 00e4 0133     		adds	r3, r3, #1
 4110 00e6 7B63     		str	r3, [r7, #52]
 4111              	.L144:
 863:STM32F10x_Speex_Lib/libspeex/resample.c ****             x[j+filt_offs]=0;
 4112              		.loc 2 863 0 is_stmt 0 discriminator 1
 4113 00e8 7A6B     		ldr	r2, [r7, #52]
 4114 00ea BB69     		ldr	r3, [r7, #24]
 4115 00ec 9A42     		cmp	r2, r3
 4116 00ee F0D3     		bcc	.L145
 4117              	.L143:
 865:STM32F10x_Speex_Lib/libspeex/resample.c ****         }
 866:STM32F10x_Speex_Lib/libspeex/resample.c ****         speex_resampler_process_native(st, channel_index, &ichunk, out, &ochunk);
 4118              		.loc 2 866 0 is_stmt 1
 4119 00f0 396C     		ldr	r1, [r7, #64]
 4120 00f2 07F11802 		add	r2, r7, #24
 4121 00f6 07F11403 		add	r3, r7, #20
 4122 00fa 0093     		str	r3, [sp]
 4123 00fc 0B46     		mov	r3, r1
 4124 00fe B968     		ldr	r1, [r7, #8]
 4125 0100 F868     		ldr	r0, [r7, #12]
 4126 0102 FFF7FEFF 		bl	speex_resampler_process_native
 867:STM32F10x_Speex_Lib/libspeex/resample.c ****         ilen -= ichunk;
 4127              		.loc 2 867 0
 4128 0106 BB69     		ldr	r3, [r7, #24]
 4129 0108 3A6B     		ldr	r2, [r7, #48]
 4130 010a D31A     		subs	r3, r2, r3
 4131 010c 3B63     		str	r3, [r7, #48]
 868:STM32F10x_Speex_Lib/libspeex/resample.c ****         olen -= ochunk;
 4132              		.loc 2 868 0
 4133 010e 7B69     		ldr	r3, [r7, #20]
 4134 0110 FA6A     		ldr	r2, [r7, #44]
 4135 0112 D31A     		subs	r3, r2, r3
 4136 0114 FB62     		str	r3, [r7, #44]
 869:STM32F10x_Speex_Lib/libspeex/resample.c ****         out += ochunk * st->out_stride;
 4137              		.loc 2 869 0
 4138 0116 3A6C     		ldr	r2, [r7, #64]
 4139 0118 FB68     		ldr	r3, [r7, #12]
 4140 011a DB6D     		ldr	r3, [r3, #92]
