ARM GAS  /var/folders/kh/x4vltyy52lbg7p4pcyglc5080000gp/T//ccKDo44O.s 			page 1


   1              		.syntax unified
   2              		.cpu cortex-m3
   3              		.fpu softvfp
   4              		.eabi_attribute 20, 1
   5              		.eabi_attribute 21, 1
   6              		.eabi_attribute 23, 3
   7              		.eabi_attribute 24, 1
   8              		.eabi_attribute 25, 1
   9              		.eabi_attribute 26, 1
  10              		.eabi_attribute 30, 6
  11              		.eabi_attribute 34, 1
  12              		.eabi_attribute 18, 4
  13              		.thumb
  14              		.syntax unified
  15              		.file	"smallft.c"
  16              		.text
  17              	.Ltext0:
  18              		.cfi_sections	.debug_frame
  19              		.section	.text.speex_alloc,"ax",%progbits
  20              		.align	2
  21              		.thumb
  22              		.thumb_func
  24              	speex_alloc:
  25              	.LFB1:
  26              		.file 1 "STM32F10x_Speex_Lib/libspeex/os_support.h"
   1:STM32F10x_Speex_Lib/libspeex/os_support.h **** /* Copyright (C) 2007 Jean-Marc Valin
   2:STM32F10x_Speex_Lib/libspeex/os_support.h ****       
   3:STM32F10x_Speex_Lib/libspeex/os_support.h ****    File: os_support.h
   4:STM32F10x_Speex_Lib/libspeex/os_support.h ****    This is the (tiny) OS abstraction layer. Aside from math.h, this is the
   5:STM32F10x_Speex_Lib/libspeex/os_support.h ****    only place where system headers are allowed.
   6:STM32F10x_Speex_Lib/libspeex/os_support.h **** 
   7:STM32F10x_Speex_Lib/libspeex/os_support.h ****    Redistribution and use in source and binary forms, with or without
   8:STM32F10x_Speex_Lib/libspeex/os_support.h ****    modification, are permitted provided that the following conditions are
   9:STM32F10x_Speex_Lib/libspeex/os_support.h ****    met:
  10:STM32F10x_Speex_Lib/libspeex/os_support.h **** 
  11:STM32F10x_Speex_Lib/libspeex/os_support.h ****    1. Redistributions of source code must retain the above copyright notice,
  12:STM32F10x_Speex_Lib/libspeex/os_support.h ****    this list of conditions and the following disclaimer.
  13:STM32F10x_Speex_Lib/libspeex/os_support.h **** 
  14:STM32F10x_Speex_Lib/libspeex/os_support.h ****    2. Redistributions in binary form must reproduce the above copyright
  15:STM32F10x_Speex_Lib/libspeex/os_support.h ****    notice, this list of conditions and the following disclaimer in the
  16:STM32F10x_Speex_Lib/libspeex/os_support.h ****    documentation and/or other materials provided with the distribution.
  17:STM32F10x_Speex_Lib/libspeex/os_support.h **** 
  18:STM32F10x_Speex_Lib/libspeex/os_support.h ****    3. The name of the author may not be used to endorse or promote products
  19:STM32F10x_Speex_Lib/libspeex/os_support.h ****    derived from this software without specific prior written permission.
  20:STM32F10x_Speex_Lib/libspeex/os_support.h **** 
  21:STM32F10x_Speex_Lib/libspeex/os_support.h ****    THIS SOFTWARE IS PROVIDED BY THE AUTHOR ``AS IS'' AND ANY EXPRESS OR
  22:STM32F10x_Speex_Lib/libspeex/os_support.h ****    IMPLIED WARRANTIES, INCLUDING, BUT NOT LIMITED TO, THE IMPLIED WARRANTIES
  23:STM32F10x_Speex_Lib/libspeex/os_support.h ****    OF MERCHANTABILITY AND FITNESS FOR A PARTICULAR PURPOSE ARE
  24:STM32F10x_Speex_Lib/libspeex/os_support.h ****    DISCLAIMED. IN NO EVENT SHALL THE AUTHOR BE LIABLE FOR ANY DIRECT,
  25:STM32F10x_Speex_Lib/libspeex/os_support.h ****    INDIRECT, INCIDENTAL, SPECIAL, EXEMPLARY, OR CONSEQUENTIAL DAMAGES
  26:STM32F10x_Speex_Lib/libspeex/os_support.h ****    (INCLUDING, BUT NOT LIMITED TO, PROCUREMENT OF SUBSTITUTE GOODS OR
  27:STM32F10x_Speex_Lib/libspeex/os_support.h ****    SERVICES; LOSS OF USE, DATA, OR PROFITS; OR BUSINESS INTERRUPTION)
  28:STM32F10x_Speex_Lib/libspeex/os_support.h ****    HOWEVER CAUSED AND ON ANY THEORY OF LIABILITY, WHETHER IN CONTRACT,
  29:STM32F10x_Speex_Lib/libspeex/os_support.h ****    STRICT LIABILITY, OR TORT (INCLUDING NEGLIGENCE OR OTHERWISE) ARISING IN
  30:STM32F10x_Speex_Lib/libspeex/os_support.h ****    ANY WAY OUT OF THE USE OF THIS SOFTWARE, EVEN IF ADVISED OF THE
  31:STM32F10x_Speex_Lib/libspeex/os_support.h ****    POSSIBILITY OF SUCH DAMAGE.
  32:STM32F10x_Speex_Lib/libspeex/os_support.h **** */
ARM GAS  /var/folders/kh/x4vltyy52lbg7p4pcyglc5080000gp/T//ccKDo44O.s 			page 2


  33:STM32F10x_Speex_Lib/libspeex/os_support.h **** 
  34:STM32F10x_Speex_Lib/libspeex/os_support.h **** #ifndef OS_SUPPORT_H
  35:STM32F10x_Speex_Lib/libspeex/os_support.h **** #define OS_SUPPORT_H
  36:STM32F10x_Speex_Lib/libspeex/os_support.h **** 
  37:STM32F10x_Speex_Lib/libspeex/os_support.h **** #include <string.h>
  38:STM32F10x_Speex_Lib/libspeex/os_support.h **** #include <stdio.h>
  39:STM32F10x_Speex_Lib/libspeex/os_support.h **** #include <stdlib.h>
  40:STM32F10x_Speex_Lib/libspeex/os_support.h **** 
  41:STM32F10x_Speex_Lib/libspeex/os_support.h **** // #ifdef HAVE_CONFIG_H
  42:STM32F10x_Speex_Lib/libspeex/os_support.h **** #include "config.h"
  43:STM32F10x_Speex_Lib/libspeex/os_support.h **** // #endif
  44:STM32F10x_Speex_Lib/libspeex/os_support.h **** #ifdef OS_SUPPORT_CUSTOM
  45:STM32F10x_Speex_Lib/libspeex/os_support.h **** #include "os_support_custom.h"
  46:STM32F10x_Speex_Lib/libspeex/os_support.h **** #endif
  47:STM32F10x_Speex_Lib/libspeex/os_support.h **** 
  48:STM32F10x_Speex_Lib/libspeex/os_support.h **** /** Speex wrapper for calloc. To do your own dynamic allocation, all you need to do is replace this
  49:STM32F10x_Speex_Lib/libspeex/os_support.h ****     NOTE: speex_alloc needs to CLEAR THE MEMORY */
  50:STM32F10x_Speex_Lib/libspeex/os_support.h **** #ifndef OVERRIDE_SPEEX_ALLOC
  51:STM32F10x_Speex_Lib/libspeex/os_support.h **** static inline void *speex_alloc (int size)
  52:STM32F10x_Speex_Lib/libspeex/os_support.h **** {
  27              		.loc 1 52 0
  28              		.cfi_startproc
  29              		@ args = 0, pretend = 0, frame = 8
  30              		@ frame_needed = 1, uses_anonymous_args = 0
  31 0000 80B5     		push	{r7, lr}
  32              	.LCFI0:
  33              		.cfi_def_cfa_offset 8
  34              		.cfi_offset 7, -8
  35              		.cfi_offset 14, -4
  36 0002 82B0     		sub	sp, sp, #8
  37              	.LCFI1:
  38              		.cfi_def_cfa_offset 16
  39 0004 00AF     		add	r7, sp, #0
  40              	.LCFI2:
  41              		.cfi_def_cfa_register 7
  42 0006 7860     		str	r0, [r7, #4]
  53:STM32F10x_Speex_Lib/libspeex/os_support.h ****    /* WARNING: this is not equivalent to malloc(). If you want to use malloc() 
  54:STM32F10x_Speex_Lib/libspeex/os_support.h ****       or your own allocator, YOU NEED TO CLEAR THE MEMORY ALLOCATED. Otherwise
  55:STM32F10x_Speex_Lib/libspeex/os_support.h ****       you will experience strange bugs */
  56:STM32F10x_Speex_Lib/libspeex/os_support.h ****    return calloc(size,1);
  43              		.loc 1 56 0
  44 0008 7B68     		ldr	r3, [r7, #4]
  45 000a 0121     		movs	r1, #1
  46 000c 1846     		mov	r0, r3
  47 000e FFF7FEFF 		bl	calloc
  48 0012 0346     		mov	r3, r0
  57:STM32F10x_Speex_Lib/libspeex/os_support.h **** }
  49              		.loc 1 57 0
  50 0014 1846     		mov	r0, r3
  51 0016 0837     		adds	r7, r7, #8
  52              	.LCFI3:
  53              		.cfi_def_cfa_offset 8
  54 0018 BD46     		mov	sp, r7
  55              	.LCFI4:
  56              		.cfi_def_cfa_register 13
  57              		@ sp needed
  58 001a 80BD     		pop	{r7, pc}
ARM GAS  /var/folders/kh/x4vltyy52lbg7p4pcyglc5080000gp/T//ccKDo44O.s 			page 3


  59              		.cfi_endproc
  60              	.LFE1:
  62              		.section	.text.speex_free,"ax",%progbits
  63              		.align	2
  64              		.thumb
  65              		.thumb_func
  67              	speex_free:
  68              	.LFB4:
  58:STM32F10x_Speex_Lib/libspeex/os_support.h **** #endif
  59:STM32F10x_Speex_Lib/libspeex/os_support.h **** 
  60:STM32F10x_Speex_Lib/libspeex/os_support.h **** /** Same as speex_alloc, except that the area is only needed inside a Speex call (might cause probl
  61:STM32F10x_Speex_Lib/libspeex/os_support.h **** #ifndef OVERRIDE_SPEEX_ALLOC_SCRATCH
  62:STM32F10x_Speex_Lib/libspeex/os_support.h **** static inline void *speex_alloc_scratch (int size)
  63:STM32F10x_Speex_Lib/libspeex/os_support.h **** {
  64:STM32F10x_Speex_Lib/libspeex/os_support.h ****    /* Scratch space doesn't need to be cleared */
  65:STM32F10x_Speex_Lib/libspeex/os_support.h ****    return calloc(size,1);
  66:STM32F10x_Speex_Lib/libspeex/os_support.h **** }
  67:STM32F10x_Speex_Lib/libspeex/os_support.h **** #endif
  68:STM32F10x_Speex_Lib/libspeex/os_support.h **** 
  69:STM32F10x_Speex_Lib/libspeex/os_support.h **** /** Speex wrapper for realloc. To do your own dynamic allocation, all you need to do is replace thi
  70:STM32F10x_Speex_Lib/libspeex/os_support.h **** #ifndef OVERRIDE_SPEEX_REALLOC
  71:STM32F10x_Speex_Lib/libspeex/os_support.h **** static inline void *speex_realloc (void *ptr, int size)
  72:STM32F10x_Speex_Lib/libspeex/os_support.h **** {
  73:STM32F10x_Speex_Lib/libspeex/os_support.h ****    return realloc(ptr, size);
  74:STM32F10x_Speex_Lib/libspeex/os_support.h **** }
  75:STM32F10x_Speex_Lib/libspeex/os_support.h **** #endif
  76:STM32F10x_Speex_Lib/libspeex/os_support.h **** 
  77:STM32F10x_Speex_Lib/libspeex/os_support.h **** /** Speex wrapper for calloc. To do your own dynamic allocation, all you need to do is replace this
  78:STM32F10x_Speex_Lib/libspeex/os_support.h **** #ifndef OVERRIDE_SPEEX_FREE
  79:STM32F10x_Speex_Lib/libspeex/os_support.h **** static inline void speex_free (void *ptr)
  80:STM32F10x_Speex_Lib/libspeex/os_support.h **** {
  69              		.loc 1 80 0
  70              		.cfi_startproc
  71              		@ args = 0, pretend = 0, frame = 8
  72              		@ frame_needed = 1, uses_anonymous_args = 0
  73 0000 80B5     		push	{r7, lr}
  74              	.LCFI5:
  75              		.cfi_def_cfa_offset 8
  76              		.cfi_offset 7, -8
  77              		.cfi_offset 14, -4
  78 0002 82B0     		sub	sp, sp, #8
  79              	.LCFI6:
  80              		.cfi_def_cfa_offset 16
  81 0004 00AF     		add	r7, sp, #0
  82              	.LCFI7:
  83              		.cfi_def_cfa_register 7
  84 0006 7860     		str	r0, [r7, #4]
  81:STM32F10x_Speex_Lib/libspeex/os_support.h ****    free(ptr);
  85              		.loc 1 81 0
  86 0008 7868     		ldr	r0, [r7, #4]
  87 000a FFF7FEFF 		bl	free
  82:STM32F10x_Speex_Lib/libspeex/os_support.h **** }
  88              		.loc 1 82 0
  89 000e 00BF     		nop
  90 0010 0837     		adds	r7, r7, #8
  91              	.LCFI8:
  92              		.cfi_def_cfa_offset 8
ARM GAS  /var/folders/kh/x4vltyy52lbg7p4pcyglc5080000gp/T//ccKDo44O.s 			page 4


  93 0012 BD46     		mov	sp, r7
  94              	.LCFI9:
  95              		.cfi_def_cfa_register 13
  96              		@ sp needed
  97 0014 80BD     		pop	{r7, pc}
  98              		.cfi_endproc
  99              	.LFE4:
 101              		.global	__aeabi_i2f
 102              		.global	__aeabi_fdiv
 103              		.global	__aeabi_fmul
 104              		.global	__aeabi_fadd
 105              		.global	__aeabi_f2d
 106              		.global	__aeabi_d2f
 107 0016 00BF     		.section	.text.drfti1,"ax",%progbits
 108              		.align	2
 109              		.thumb
 110              		.thumb_func
 112              	drfti1:
 113              	.LFB9:
 114              		.file 2 "STM32F10x_Speex_Lib/libspeex/smallft.c"
   1:STM32F10x_Speex_Lib/libspeex/smallft.c **** /********************************************************************
   2:STM32F10x_Speex_Lib/libspeex/smallft.c ****  *                                                                  *
   3:STM32F10x_Speex_Lib/libspeex/smallft.c ****  * THIS FILE IS PART OF THE OggVorbis SOFTWARE CODEC SOURCE CODE.   *
   4:STM32F10x_Speex_Lib/libspeex/smallft.c ****  * USE, DISTRIBUTION AND REPRODUCTION OF THIS LIBRARY SOURCE IS     *
   5:STM32F10x_Speex_Lib/libspeex/smallft.c ****  * GOVERNED BY A BSD-STYLE SOURCE LICENSE INCLUDED WITH THIS SOURCE *
   6:STM32F10x_Speex_Lib/libspeex/smallft.c ****  * IN 'COPYING'. PLEASE READ THESE TERMS BEFORE DISTRIBUTING.       *
   7:STM32F10x_Speex_Lib/libspeex/smallft.c ****  *                                                                  *
   8:STM32F10x_Speex_Lib/libspeex/smallft.c ****  * THE OggVorbis SOURCE CODE IS (C) COPYRIGHT 1994-2001             *
   9:STM32F10x_Speex_Lib/libspeex/smallft.c ****  * by the XIPHOPHORUS Company http://www.xiph.org/                  *
  10:STM32F10x_Speex_Lib/libspeex/smallft.c ****  *                                                                  *
  11:STM32F10x_Speex_Lib/libspeex/smallft.c ****  ********************************************************************
  12:STM32F10x_Speex_Lib/libspeex/smallft.c **** 
  13:STM32F10x_Speex_Lib/libspeex/smallft.c ****  function: *unnormalized* fft transform
  14:STM32F10x_Speex_Lib/libspeex/smallft.c ****  last mod: $Id: smallft.c,v 1.19 2003/10/08 05:12:37 jm Exp $
  15:STM32F10x_Speex_Lib/libspeex/smallft.c **** 
  16:STM32F10x_Speex_Lib/libspeex/smallft.c ****  ********************************************************************/
  17:STM32F10x_Speex_Lib/libspeex/smallft.c **** 
  18:STM32F10x_Speex_Lib/libspeex/smallft.c **** /* FFT implementation from OggSquish, minus cosine transforms,
  19:STM32F10x_Speex_Lib/libspeex/smallft.c ****  * minus all but radix 2/4 case.  In Vorbis we only need this
  20:STM32F10x_Speex_Lib/libspeex/smallft.c ****  * cut-down version.
  21:STM32F10x_Speex_Lib/libspeex/smallft.c ****  *
  22:STM32F10x_Speex_Lib/libspeex/smallft.c ****  * To do more than just power-of-two sized vectors, see the full
  23:STM32F10x_Speex_Lib/libspeex/smallft.c ****  * version I wrote for NetLib.
  24:STM32F10x_Speex_Lib/libspeex/smallft.c ****  *
  25:STM32F10x_Speex_Lib/libspeex/smallft.c ****  * Note that the packing is a little strange; rather than the FFT r/i
  26:STM32F10x_Speex_Lib/libspeex/smallft.c ****  * packing following R_0, I_n, R_1, I_1, R_2, I_2 ... R_n-1, I_n-1,
  27:STM32F10x_Speex_Lib/libspeex/smallft.c ****  * it follows R_0, R_1, I_1, R_2, I_2 ... R_n-1, I_n-1, I_n like the
  28:STM32F10x_Speex_Lib/libspeex/smallft.c ****  * FORTRAN version
  29:STM32F10x_Speex_Lib/libspeex/smallft.c ****  */
  30:STM32F10x_Speex_Lib/libspeex/smallft.c **** 
  31:STM32F10x_Speex_Lib/libspeex/smallft.c **** // #ifdef HAVE_CONFIG_H
  32:STM32F10x_Speex_Lib/libspeex/smallft.c **** #include "config.h"
  33:STM32F10x_Speex_Lib/libspeex/smallft.c **** // #endif
  34:STM32F10x_Speex_Lib/libspeex/smallft.c **** 
  35:STM32F10x_Speex_Lib/libspeex/smallft.c **** #include <math.h>
  36:STM32F10x_Speex_Lib/libspeex/smallft.c **** #include "smallft.h"
  37:STM32F10x_Speex_Lib/libspeex/smallft.c **** #include "arch.h"
ARM GAS  /var/folders/kh/x4vltyy52lbg7p4pcyglc5080000gp/T//ccKDo44O.s 			page 5


  38:STM32F10x_Speex_Lib/libspeex/smallft.c **** #include "os_support.h"
  39:STM32F10x_Speex_Lib/libspeex/smallft.c **** 
  40:STM32F10x_Speex_Lib/libspeex/smallft.c **** static void drfti1(int n, float *wa, int *ifac){
 115              		.loc 2 40 0
 116              		.cfi_startproc
 117              		@ args = 0, pretend = 0, frame = 104
 118              		@ frame_needed = 1, uses_anonymous_args = 0
 119 0000 90B5     		push	{r4, r7, lr}
 120              	.LCFI10:
 121              		.cfi_def_cfa_offset 12
 122              		.cfi_offset 4, -12
 123              		.cfi_offset 7, -8
 124              		.cfi_offset 14, -4
 125 0002 9BB0     		sub	sp, sp, #108
 126              	.LCFI11:
 127              		.cfi_def_cfa_offset 120
 128 0004 00AF     		add	r7, sp, #0
 129              	.LCFI12:
 130              		.cfi_def_cfa_register 7
 131 0006 F860     		str	r0, [r7, #12]
 132 0008 B960     		str	r1, [r7, #8]
 133 000a 7A60     		str	r2, [r7, #4]
  41:STM32F10x_Speex_Lib/libspeex/smallft.c ****   static int ntryh[4] = { 4,2,3,5 };
  42:STM32F10x_Speex_Lib/libspeex/smallft.c ****   static float tpi = 6.28318530717958648f;
  43:STM32F10x_Speex_Lib/libspeex/smallft.c ****   float arg,argh,argld,fi;
  44:STM32F10x_Speex_Lib/libspeex/smallft.c ****   int ntry=0,i,j=-1;
 134              		.loc 2 44 0
 135 000c 0023     		movs	r3, #0
 136 000e 3B66     		str	r3, [r7, #96]
 137 0010 4FF0FF33 		mov	r3, #-1
 138 0014 BB65     		str	r3, [r7, #88]
  45:STM32F10x_Speex_Lib/libspeex/smallft.c ****   int k1, l1, l2, ib;
  46:STM32F10x_Speex_Lib/libspeex/smallft.c ****   int ld, ii, ip, is, nq, nr;
  47:STM32F10x_Speex_Lib/libspeex/smallft.c ****   int ido, ipm, nfm1;
  48:STM32F10x_Speex_Lib/libspeex/smallft.c ****   int nl=n;
 139              		.loc 2 48 0
 140 0016 FB68     		ldr	r3, [r7, #12]
 141 0018 3B64     		str	r3, [r7, #64]
  49:STM32F10x_Speex_Lib/libspeex/smallft.c ****   int nf=0;
 142              		.loc 2 49 0
 143 001a 0023     		movs	r3, #0
 144 001c FB63     		str	r3, [r7, #60]
 145              	.L5:
  50:STM32F10x_Speex_Lib/libspeex/smallft.c **** 
  51:STM32F10x_Speex_Lib/libspeex/smallft.c ****  L101:
  52:STM32F10x_Speex_Lib/libspeex/smallft.c ****   j++;
 146              		.loc 2 52 0
 147 001e BB6D     		ldr	r3, [r7, #88]
 148 0020 0133     		adds	r3, r3, #1
 149 0022 BB65     		str	r3, [r7, #88]
  53:STM32F10x_Speex_Lib/libspeex/smallft.c ****   if (j < 4)
 150              		.loc 2 53 0
 151 0024 BB6D     		ldr	r3, [r7, #88]
 152 0026 032B     		cmp	r3, #3
 153 0028 05DC     		bgt	.L6
  54:STM32F10x_Speex_Lib/libspeex/smallft.c ****     ntry=ntryh[j];
 154              		.loc 2 54 0
ARM GAS  /var/folders/kh/x4vltyy52lbg7p4pcyglc5080000gp/T//ccKDo44O.s 			page 6


 155 002a 7E4A     		ldr	r2, .L26
 156 002c BB6D     		ldr	r3, [r7, #88]
 157 002e 52F82330 		ldr	r3, [r2, r3, lsl #2]
 158 0032 3B66     		str	r3, [r7, #96]
 159 0034 02E0     		b	.L7
 160              	.L6:
  55:STM32F10x_Speex_Lib/libspeex/smallft.c ****   else
  56:STM32F10x_Speex_Lib/libspeex/smallft.c ****     ntry+=2;
 161              		.loc 2 56 0
 162 0036 3B6E     		ldr	r3, [r7, #96]
 163 0038 0233     		adds	r3, r3, #2
 164 003a 3B66     		str	r3, [r7, #96]
 165              	.L7:
  57:STM32F10x_Speex_Lib/libspeex/smallft.c **** 
  58:STM32F10x_Speex_Lib/libspeex/smallft.c ****  L104:
  59:STM32F10x_Speex_Lib/libspeex/smallft.c ****   nq=nl/ntry;
 166              		.loc 2 59 0
 167 003c 3A6C     		ldr	r2, [r7, #64]
 168 003e 3B6E     		ldr	r3, [r7, #96]
 169 0040 92FBF3F3 		sdiv	r3, r2, r3
 170 0044 BB63     		str	r3, [r7, #56]
  60:STM32F10x_Speex_Lib/libspeex/smallft.c ****   nr=nl-ntry*nq;
 171              		.loc 2 60 0
 172 0046 3B6E     		ldr	r3, [r7, #96]
 173 0048 BA6B     		ldr	r2, [r7, #56]
 174 004a 02FB03F3 		mul	r3, r2, r3
 175 004e 3A6C     		ldr	r2, [r7, #64]
 176 0050 D31A     		subs	r3, r2, r3
 177 0052 7B63     		str	r3, [r7, #52]
  61:STM32F10x_Speex_Lib/libspeex/smallft.c ****   if (nr!=0) goto L101;
 178              		.loc 2 61 0
 179 0054 7B6B     		ldr	r3, [r7, #52]
 180 0056 002B     		cmp	r3, #0
 181 0058 00D0     		beq	.L8
 182 005a E0E7     		b	.L5
 183              	.L8:
  62:STM32F10x_Speex_Lib/libspeex/smallft.c **** 
  63:STM32F10x_Speex_Lib/libspeex/smallft.c ****   nf++;
 184              		.loc 2 63 0
 185 005c FB6B     		ldr	r3, [r7, #60]
 186 005e 0133     		adds	r3, r3, #1
 187 0060 FB63     		str	r3, [r7, #60]
  64:STM32F10x_Speex_Lib/libspeex/smallft.c ****   ifac[nf+1]=ntry;
 188              		.loc 2 64 0
 189 0062 FB6B     		ldr	r3, [r7, #60]
 190 0064 0133     		adds	r3, r3, #1
 191 0066 9B00     		lsls	r3, r3, #2
 192 0068 7A68     		ldr	r2, [r7, #4]
 193 006a 1344     		add	r3, r3, r2
 194 006c 3A6E     		ldr	r2, [r7, #96]
 195 006e 1A60     		str	r2, [r3]
  65:STM32F10x_Speex_Lib/libspeex/smallft.c ****   nl=nq;
 196              		.loc 2 65 0
 197 0070 BB6B     		ldr	r3, [r7, #56]
 198 0072 3B64     		str	r3, [r7, #64]
  66:STM32F10x_Speex_Lib/libspeex/smallft.c ****   if(ntry!=2)goto L107;
 199              		.loc 2 66 0
ARM GAS  /var/folders/kh/x4vltyy52lbg7p4pcyglc5080000gp/T//ccKDo44O.s 			page 7


 200 0074 3B6E     		ldr	r3, [r7, #96]
 201 0076 022B     		cmp	r3, #2
 202 0078 21D1     		bne	.L23
  67:STM32F10x_Speex_Lib/libspeex/smallft.c ****   if(nf==1)goto L107;
 203              		.loc 2 67 0
 204 007a FB6B     		ldr	r3, [r7, #60]
 205 007c 012B     		cmp	r3, #1
 206 007e 20D0     		beq	.L24
  68:STM32F10x_Speex_Lib/libspeex/smallft.c **** 
  69:STM32F10x_Speex_Lib/libspeex/smallft.c ****   for (i=1;i<nf;i++){
 207              		.loc 2 69 0
 208 0080 0123     		movs	r3, #1
 209 0082 FB65     		str	r3, [r7, #92]
 210 0084 12E0     		b	.L12
 211              	.L13:
  70:STM32F10x_Speex_Lib/libspeex/smallft.c ****     ib=nf-i+1;
 212              		.loc 2 70 0 discriminator 3
 213 0086 FA6B     		ldr	r2, [r7, #60]
 214 0088 FB6D     		ldr	r3, [r7, #92]
 215 008a D31A     		subs	r3, r2, r3
 216 008c 0133     		adds	r3, r3, #1
 217 008e 3B63     		str	r3, [r7, #48]
  71:STM32F10x_Speex_Lib/libspeex/smallft.c ****     ifac[ib+1]=ifac[ib];
 218              		.loc 2 71 0 discriminator 3
 219 0090 3B6B     		ldr	r3, [r7, #48]
 220 0092 0133     		adds	r3, r3, #1
 221 0094 9B00     		lsls	r3, r3, #2
 222 0096 7A68     		ldr	r2, [r7, #4]
 223 0098 1344     		add	r3, r3, r2
 224 009a 3A6B     		ldr	r2, [r7, #48]
 225 009c 9200     		lsls	r2, r2, #2
 226 009e 7968     		ldr	r1, [r7, #4]
 227 00a0 0A44     		add	r2, r2, r1
 228 00a2 1268     		ldr	r2, [r2]
 229 00a4 1A60     		str	r2, [r3]
  69:STM32F10x_Speex_Lib/libspeex/smallft.c ****     ib=nf-i+1;
 230              		.loc 2 69 0 discriminator 3
 231 00a6 FB6D     		ldr	r3, [r7, #92]
 232 00a8 0133     		adds	r3, r3, #1
 233 00aa FB65     		str	r3, [r7, #92]
 234              	.L12:
  69:STM32F10x_Speex_Lib/libspeex/smallft.c ****     ib=nf-i+1;
 235              		.loc 2 69 0 is_stmt 0 discriminator 1
 236 00ac FA6D     		ldr	r2, [r7, #92]
 237 00ae FB6B     		ldr	r3, [r7, #60]
 238 00b0 9A42     		cmp	r2, r3
 239 00b2 E8DB     		blt	.L13
  72:STM32F10x_Speex_Lib/libspeex/smallft.c ****   }
  73:STM32F10x_Speex_Lib/libspeex/smallft.c ****   ifac[2] = 2;
 240              		.loc 2 73 0 is_stmt 1
 241 00b4 7B68     		ldr	r3, [r7, #4]
 242 00b6 0833     		adds	r3, r3, #8
 243 00b8 0222     		movs	r2, #2
 244 00ba 1A60     		str	r2, [r3]
 245 00bc 02E0     		b	.L10
 246              	.L23:
  66:STM32F10x_Speex_Lib/libspeex/smallft.c ****   if(nf==1)goto L107;
ARM GAS  /var/folders/kh/x4vltyy52lbg7p4pcyglc5080000gp/T//ccKDo44O.s 			page 8


 247              		.loc 2 66 0
 248 00be 00BF     		nop
 249 00c0 00E0     		b	.L10
 250              	.L24:
  67:STM32F10x_Speex_Lib/libspeex/smallft.c **** 
 251              		.loc 2 67 0
 252 00c2 00BF     		nop
 253              	.L10:
  74:STM32F10x_Speex_Lib/libspeex/smallft.c **** 
  75:STM32F10x_Speex_Lib/libspeex/smallft.c ****  L107:
  76:STM32F10x_Speex_Lib/libspeex/smallft.c ****   if(nl!=1)goto L104;
 254              		.loc 2 76 0
 255 00c4 3B6C     		ldr	r3, [r7, #64]
 256 00c6 012B     		cmp	r3, #1
 257 00c8 00D0     		beq	.L14
 258 00ca B7E7     		b	.L7
 259              	.L14:
  77:STM32F10x_Speex_Lib/libspeex/smallft.c ****   ifac[0]=n;
 260              		.loc 2 77 0
 261 00cc 7B68     		ldr	r3, [r7, #4]
 262 00ce FA68     		ldr	r2, [r7, #12]
 263 00d0 1A60     		str	r2, [r3]
  78:STM32F10x_Speex_Lib/libspeex/smallft.c ****   ifac[1]=nf;
 264              		.loc 2 78 0
 265 00d2 7B68     		ldr	r3, [r7, #4]
 266 00d4 0433     		adds	r3, r3, #4
 267 00d6 FA6B     		ldr	r2, [r7, #60]
 268 00d8 1A60     		str	r2, [r3]
  79:STM32F10x_Speex_Lib/libspeex/smallft.c ****   argh=tpi/n;
 269              		.loc 2 79 0
 270 00da 534B     		ldr	r3, .L26+4
 271 00dc 1C68     		ldr	r4, [r3]	@ float
 272 00de F868     		ldr	r0, [r7, #12]
 273 00e0 FFF7FEFF 		bl	__aeabi_i2f
 274 00e4 0346     		mov	r3, r0
 275 00e6 1946     		mov	r1, r3
 276 00e8 2046     		mov	r0, r4
 277 00ea FFF7FEFF 		bl	__aeabi_fdiv
 278 00ee 0346     		mov	r3, r0
 279 00f0 FB62     		str	r3, [r7, #44]	@ float
  80:STM32F10x_Speex_Lib/libspeex/smallft.c ****   is=0;
 280              		.loc 2 80 0
 281 00f2 0023     		movs	r3, #0
 282 00f4 7B64     		str	r3, [r7, #68]
  81:STM32F10x_Speex_Lib/libspeex/smallft.c ****   nfm1=nf-1;
 283              		.loc 2 81 0
 284 00f6 FB6B     		ldr	r3, [r7, #60]
 285 00f8 013B     		subs	r3, r3, #1
 286 00fa BB62     		str	r3, [r7, #40]
  82:STM32F10x_Speex_Lib/libspeex/smallft.c ****   l1=1;
 287              		.loc 2 82 0
 288 00fc 0123     		movs	r3, #1
 289 00fe 3B65     		str	r3, [r7, #80]
  83:STM32F10x_Speex_Lib/libspeex/smallft.c **** 
  84:STM32F10x_Speex_Lib/libspeex/smallft.c ****   if(nfm1==0)return;
 290              		.loc 2 84 0
 291 0100 BB6A     		ldr	r3, [r7, #40]
ARM GAS  /var/folders/kh/x4vltyy52lbg7p4pcyglc5080000gp/T//ccKDo44O.s 			page 9


 292 0102 002B     		cmp	r3, #0
 293 0104 00F08A80 		beq	.L25
  85:STM32F10x_Speex_Lib/libspeex/smallft.c **** 
  86:STM32F10x_Speex_Lib/libspeex/smallft.c ****   for (k1=0;k1<nfm1;k1++){
 294              		.loc 2 86 0
 295 0108 0023     		movs	r3, #0
 296 010a 7B65     		str	r3, [r7, #84]
 297 010c 80E0     		b	.L17
 298              	.L22:
  87:STM32F10x_Speex_Lib/libspeex/smallft.c ****     ip=ifac[k1+2];
 299              		.loc 2 87 0
 300 010e 7B6D     		ldr	r3, [r7, #84]
 301 0110 0233     		adds	r3, r3, #2
 302 0112 9B00     		lsls	r3, r3, #2
 303 0114 7A68     		ldr	r2, [r7, #4]
 304 0116 1344     		add	r3, r3, r2
 305 0118 1B68     		ldr	r3, [r3]
 306 011a 7B62     		str	r3, [r7, #36]
  88:STM32F10x_Speex_Lib/libspeex/smallft.c ****     ld=0;
 307              		.loc 2 88 0
 308 011c 0023     		movs	r3, #0
 309 011e FB64     		str	r3, [r7, #76]
  89:STM32F10x_Speex_Lib/libspeex/smallft.c ****     l2=l1*ip;
 310              		.loc 2 89 0
 311 0120 3B6D     		ldr	r3, [r7, #80]
 312 0122 7A6A     		ldr	r2, [r7, #36]
 313 0124 02FB03F3 		mul	r3, r2, r3
 314 0128 3B62     		str	r3, [r7, #32]
  90:STM32F10x_Speex_Lib/libspeex/smallft.c ****     ido=n/l2;
 315              		.loc 2 90 0
 316 012a FA68     		ldr	r2, [r7, #12]
 317 012c 3B6A     		ldr	r3, [r7, #32]
 318 012e 92FBF3F3 		sdiv	r3, r2, r3
 319 0132 FB61     		str	r3, [r7, #28]
  91:STM32F10x_Speex_Lib/libspeex/smallft.c ****     ipm=ip-1;
 320              		.loc 2 91 0
 321 0134 7B6A     		ldr	r3, [r7, #36]
 322 0136 013B     		subs	r3, r3, #1
 323 0138 BB61     		str	r3, [r7, #24]
  92:STM32F10x_Speex_Lib/libspeex/smallft.c **** 
  93:STM32F10x_Speex_Lib/libspeex/smallft.c ****     for (j=0;j<ipm;j++){
 324              		.loc 2 93 0
 325 013a 0023     		movs	r3, #0
 326 013c BB65     		str	r3, [r7, #88]
 327 013e 5EE0     		b	.L18
 328              	.L21:
  94:STM32F10x_Speex_Lib/libspeex/smallft.c ****       ld+=l1;
 329              		.loc 2 94 0
 330 0140 FA6C     		ldr	r2, [r7, #76]
 331 0142 3B6D     		ldr	r3, [r7, #80]
 332 0144 1344     		add	r3, r3, r2
 333 0146 FB64     		str	r3, [r7, #76]
  95:STM32F10x_Speex_Lib/libspeex/smallft.c ****       i=is;
 334              		.loc 2 95 0
 335 0148 7B6C     		ldr	r3, [r7, #68]
 336 014a FB65     		str	r3, [r7, #92]
  96:STM32F10x_Speex_Lib/libspeex/smallft.c ****       argld=(float)ld*argh;
ARM GAS  /var/folders/kh/x4vltyy52lbg7p4pcyglc5080000gp/T//ccKDo44O.s 			page 10


 337              		.loc 2 96 0
 338 014c F86C     		ldr	r0, [r7, #76]
 339 014e FFF7FEFF 		bl	__aeabi_i2f
 340 0152 0346     		mov	r3, r0
 341 0154 F96A     		ldr	r1, [r7, #44]	@ float
 342 0156 1846     		mov	r0, r3
 343 0158 FFF7FEFF 		bl	__aeabi_fmul
 344 015c 0346     		mov	r3, r0
 345 015e 7B61     		str	r3, [r7, #20]	@ float
  97:STM32F10x_Speex_Lib/libspeex/smallft.c ****       fi=0.f;
 346              		.loc 2 97 0
 347 0160 4FF00003 		mov	r3, #0
 348 0164 7B66     		str	r3, [r7, #100]	@ float
  98:STM32F10x_Speex_Lib/libspeex/smallft.c ****       for (ii=2;ii<ido;ii+=2){
 349              		.loc 2 98 0
 350 0166 0223     		movs	r3, #2
 351 0168 BB64     		str	r3, [r7, #72]
 352 016a 3DE0     		b	.L19
 353              	.L20:
  99:STM32F10x_Speex_Lib/libspeex/smallft.c **** 	fi+=1.f;
 354              		.loc 2 99 0 discriminator 3
 355 016c 4FF07E51 		mov	r1, #1065353216
 356 0170 786E     		ldr	r0, [r7, #100]	@ float
 357 0172 FFF7FEFF 		bl	__aeabi_fadd
 358 0176 0346     		mov	r3, r0
 359 0178 7B66     		str	r3, [r7, #100]	@ float
 100:STM32F10x_Speex_Lib/libspeex/smallft.c **** 	arg=fi*argld;
 360              		.loc 2 100 0 discriminator 3
 361 017a 7969     		ldr	r1, [r7, #20]	@ float
 362 017c 786E     		ldr	r0, [r7, #100]	@ float
 363 017e FFF7FEFF 		bl	__aeabi_fmul
 364 0182 0346     		mov	r3, r0
 365 0184 3B61     		str	r3, [r7, #16]	@ float
 101:STM32F10x_Speex_Lib/libspeex/smallft.c **** 	wa[i++]=cos(arg);
 366              		.loc 2 101 0 discriminator 3
 367 0186 FB6D     		ldr	r3, [r7, #92]
 368 0188 5A1C     		adds	r2, r3, #1
 369 018a FA65     		str	r2, [r7, #92]
 370 018c 9B00     		lsls	r3, r3, #2
 371 018e BA68     		ldr	r2, [r7, #8]
 372 0190 D418     		adds	r4, r2, r3
 373 0192 3869     		ldr	r0, [r7, #16]	@ float
 374 0194 FFF7FEFF 		bl	__aeabi_f2d
 375 0198 0246     		mov	r2, r0
 376 019a 0B46     		mov	r3, r1
 377 019c 1046     		mov	r0, r2
 378 019e 1946     		mov	r1, r3
 379 01a0 FFF7FEFF 		bl	cos
 380 01a4 0246     		mov	r2, r0
 381 01a6 0B46     		mov	r3, r1
 382 01a8 1046     		mov	r0, r2
 383 01aa 1946     		mov	r1, r3
 384 01ac FFF7FEFF 		bl	__aeabi_d2f
 385 01b0 0346     		mov	r3, r0
 386 01b2 2360     		str	r3, [r4]	@ float
 102:STM32F10x_Speex_Lib/libspeex/smallft.c **** 	wa[i++]=sin(arg);
 387              		.loc 2 102 0 discriminator 3
ARM GAS  /var/folders/kh/x4vltyy52lbg7p4pcyglc5080000gp/T//ccKDo44O.s 			page 11


 388 01b4 FB6D     		ldr	r3, [r7, #92]
 389 01b6 5A1C     		adds	r2, r3, #1
 390 01b8 FA65     		str	r2, [r7, #92]
 391 01ba 9B00     		lsls	r3, r3, #2
 392 01bc BA68     		ldr	r2, [r7, #8]
 393 01be D418     		adds	r4, r2, r3
 394 01c0 3869     		ldr	r0, [r7, #16]	@ float
 395 01c2 FFF7FEFF 		bl	__aeabi_f2d
 396 01c6 0246     		mov	r2, r0
 397 01c8 0B46     		mov	r3, r1
 398 01ca 1046     		mov	r0, r2
 399 01cc 1946     		mov	r1, r3
 400 01ce FFF7FEFF 		bl	sin
 401 01d2 0246     		mov	r2, r0
 402 01d4 0B46     		mov	r3, r1
 403 01d6 1046     		mov	r0, r2
 404 01d8 1946     		mov	r1, r3
 405 01da FFF7FEFF 		bl	__aeabi_d2f
 406 01de 0346     		mov	r3, r0
 407 01e0 2360     		str	r3, [r4]	@ float
  98:STM32F10x_Speex_Lib/libspeex/smallft.c **** 	fi+=1.f;
 408              		.loc 2 98 0 discriminator 3
 409 01e2 BB6C     		ldr	r3, [r7, #72]
 410 01e4 0233     		adds	r3, r3, #2
 411 01e6 BB64     		str	r3, [r7, #72]
 412              	.L19:
  98:STM32F10x_Speex_Lib/libspeex/smallft.c **** 	fi+=1.f;
 413              		.loc 2 98 0 is_stmt 0 discriminator 1
 414 01e8 BA6C     		ldr	r2, [r7, #72]
 415 01ea FB69     		ldr	r3, [r7, #28]
 416 01ec 9A42     		cmp	r2, r3
 417 01ee BDDB     		blt	.L20
 103:STM32F10x_Speex_Lib/libspeex/smallft.c ****       }
 104:STM32F10x_Speex_Lib/libspeex/smallft.c ****       is+=ido;
 418              		.loc 2 104 0 is_stmt 1 discriminator 2
 419 01f0 7A6C     		ldr	r2, [r7, #68]
 420 01f2 FB69     		ldr	r3, [r7, #28]
 421 01f4 1344     		add	r3, r3, r2
 422 01f6 7B64     		str	r3, [r7, #68]
  93:STM32F10x_Speex_Lib/libspeex/smallft.c ****       ld+=l1;
 423              		.loc 2 93 0 discriminator 2
 424 01f8 BB6D     		ldr	r3, [r7, #88]
 425 01fa 0133     		adds	r3, r3, #1
 426 01fc BB65     		str	r3, [r7, #88]
 427              	.L18:
  93:STM32F10x_Speex_Lib/libspeex/smallft.c ****       ld+=l1;
 428              		.loc 2 93 0 is_stmt 0 discriminator 1
 429 01fe BA6D     		ldr	r2, [r7, #88]
 430 0200 BB69     		ldr	r3, [r7, #24]
 431 0202 9A42     		cmp	r2, r3
 432 0204 9CDB     		blt	.L21
 105:STM32F10x_Speex_Lib/libspeex/smallft.c ****     }
 106:STM32F10x_Speex_Lib/libspeex/smallft.c ****     l1=l2;
 433              		.loc 2 106 0 is_stmt 1 discriminator 2
 434 0206 3B6A     		ldr	r3, [r7, #32]
 435 0208 3B65     		str	r3, [r7, #80]
  86:STM32F10x_Speex_Lib/libspeex/smallft.c ****     ip=ifac[k1+2];
ARM GAS  /var/folders/kh/x4vltyy52lbg7p4pcyglc5080000gp/T//ccKDo44O.s 			page 12


 436              		.loc 2 86 0 discriminator 2
 437 020a 7B6D     		ldr	r3, [r7, #84]
 438 020c 0133     		adds	r3, r3, #1
 439 020e 7B65     		str	r3, [r7, #84]
 440              	.L17:
  86:STM32F10x_Speex_Lib/libspeex/smallft.c ****     ip=ifac[k1+2];
 441              		.loc 2 86 0 is_stmt 0 discriminator 1
 442 0210 7A6D     		ldr	r2, [r7, #84]
 443 0212 BB6A     		ldr	r3, [r7, #40]
 444 0214 9A42     		cmp	r2, r3
 445 0216 FFF67AAF 		blt	.L22
 446 021a 00E0     		b	.L4
 447              	.L25:
  84:STM32F10x_Speex_Lib/libspeex/smallft.c **** 
 448              		.loc 2 84 0 is_stmt 1
 449 021c 00BF     		nop
 450              	.L4:
 107:STM32F10x_Speex_Lib/libspeex/smallft.c ****   }
 108:STM32F10x_Speex_Lib/libspeex/smallft.c **** }
 451              		.loc 2 108 0
 452 021e 6C37     		adds	r7, r7, #108
 453              	.LCFI13:
 454              		.cfi_def_cfa_offset 12
 455 0220 BD46     		mov	sp, r7
 456              	.LCFI14:
 457              		.cfi_def_cfa_register 13
 458              		@ sp needed
 459 0222 90BD     		pop	{r4, r7, pc}
 460              	.L27:
 461              		.align	2
 462              	.L26:
 463 0224 00000000 		.word	ntryh.5646
 464 0228 00000000 		.word	tpi.5647
 465              		.cfi_endproc
 466              	.LFE9:
 468              		.section	.text.fdrffti,"ax",%progbits
 469              		.align	2
 470              		.thumb
 471              		.thumb_func
 473              	fdrffti:
 474              	.LFB10:
 109:STM32F10x_Speex_Lib/libspeex/smallft.c **** 
 110:STM32F10x_Speex_Lib/libspeex/smallft.c **** static void fdrffti(int n, float *wsave, int *ifac){
 475              		.loc 2 110 0
 476              		.cfi_startproc
 477              		@ args = 0, pretend = 0, frame = 16
 478              		@ frame_needed = 1, uses_anonymous_args = 0
 479 0000 80B5     		push	{r7, lr}
 480              	.LCFI15:
 481              		.cfi_def_cfa_offset 8
 482              		.cfi_offset 7, -8
 483              		.cfi_offset 14, -4
 484 0002 84B0     		sub	sp, sp, #16
 485              	.LCFI16:
 486              		.cfi_def_cfa_offset 24
 487 0004 00AF     		add	r7, sp, #0
 488              	.LCFI17:
ARM GAS  /var/folders/kh/x4vltyy52lbg7p4pcyglc5080000gp/T//ccKDo44O.s 			page 13


 489              		.cfi_def_cfa_register 7
 490 0006 F860     		str	r0, [r7, #12]
 491 0008 B960     		str	r1, [r7, #8]
 492 000a 7A60     		str	r2, [r7, #4]
 111:STM32F10x_Speex_Lib/libspeex/smallft.c **** 
 112:STM32F10x_Speex_Lib/libspeex/smallft.c ****   if (n == 1) return;
 493              		.loc 2 112 0
 494 000c FB68     		ldr	r3, [r7, #12]
 495 000e 012B     		cmp	r3, #1
 496 0010 09D0     		beq	.L31
 113:STM32F10x_Speex_Lib/libspeex/smallft.c ****   drfti1(n, wsave+n, ifac);
 497              		.loc 2 113 0
 498 0012 FB68     		ldr	r3, [r7, #12]
 499 0014 9B00     		lsls	r3, r3, #2
 500 0016 BA68     		ldr	r2, [r7, #8]
 501 0018 1344     		add	r3, r3, r2
 502 001a 7A68     		ldr	r2, [r7, #4]
 503 001c 1946     		mov	r1, r3
 504 001e F868     		ldr	r0, [r7, #12]
 505 0020 FFF7FEFF 		bl	drfti1
 506 0024 00E0     		b	.L28
 507              	.L31:
 112:STM32F10x_Speex_Lib/libspeex/smallft.c ****   drfti1(n, wsave+n, ifac);
 508              		.loc 2 112 0
 509 0026 00BF     		nop
 510              	.L28:
 114:STM32F10x_Speex_Lib/libspeex/smallft.c **** }
 511              		.loc 2 114 0
 512 0028 1037     		adds	r7, r7, #16
 513              	.LCFI18:
 514              		.cfi_def_cfa_offset 8
 515 002a BD46     		mov	sp, r7
 516              	.LCFI19:
 517              		.cfi_def_cfa_register 13
 518              		@ sp needed
 519 002c 80BD     		pop	{r7, pc}
 520              		.cfi_endproc
 521              	.LFE10:
 523              		.global	__aeabi_fsub
 524 002e 00BF     		.section	.text.dradf2,"ax",%progbits
 525              		.align	2
 526              		.thumb
 527              		.thumb_func
 529              	dradf2:
 530              	.LFB11:
 115:STM32F10x_Speex_Lib/libspeex/smallft.c **** 
 116:STM32F10x_Speex_Lib/libspeex/smallft.c **** static void dradf2(int ido,int l1,float *cc,float *ch,float *wa1){
 531              		.loc 2 116 0
 532              		.cfi_startproc
 533              		@ args = 4, pretend = 0, frame = 64
 534              		@ frame_needed = 1, uses_anonymous_args = 0
 535 0000 90B5     		push	{r4, r7, lr}
 536              	.LCFI20:
 537              		.cfi_def_cfa_offset 12
 538              		.cfi_offset 4, -12
 539              		.cfi_offset 7, -8
 540              		.cfi_offset 14, -4
ARM GAS  /var/folders/kh/x4vltyy52lbg7p4pcyglc5080000gp/T//ccKDo44O.s 			page 14


 541 0002 91B0     		sub	sp, sp, #68
 542              	.LCFI21:
 543              		.cfi_def_cfa_offset 80
 544 0004 00AF     		add	r7, sp, #0
 545              	.LCFI22:
 546              		.cfi_def_cfa_register 7
 547 0006 F860     		str	r0, [r7, #12]
 548 0008 B960     		str	r1, [r7, #8]
 549 000a 7A60     		str	r2, [r7, #4]
 550 000c 3B60     		str	r3, [r7]
 117:STM32F10x_Speex_Lib/libspeex/smallft.c ****   int i,k;
 118:STM32F10x_Speex_Lib/libspeex/smallft.c ****   float ti2,tr2;
 119:STM32F10x_Speex_Lib/libspeex/smallft.c ****   int t0,t1,t2,t3,t4,t5,t6;
 120:STM32F10x_Speex_Lib/libspeex/smallft.c **** 
 121:STM32F10x_Speex_Lib/libspeex/smallft.c ****   t1=0;
 551              		.loc 2 121 0
 552 000e 0023     		movs	r3, #0
 553 0010 7B63     		str	r3, [r7, #52]
 122:STM32F10x_Speex_Lib/libspeex/smallft.c ****   t0=(t2=l1*ido);
 554              		.loc 2 122 0
 555 0012 BB68     		ldr	r3, [r7, #8]
 556 0014 FA68     		ldr	r2, [r7, #12]
 557 0016 02FB03F3 		mul	r3, r2, r3
 558 001a 3B63     		str	r3, [r7, #48]
 559 001c 3B6B     		ldr	r3, [r7, #48]
 560 001e FB61     		str	r3, [r7, #28]
 123:STM32F10x_Speex_Lib/libspeex/smallft.c ****   t3=ido<<1;
 561              		.loc 2 123 0
 562 0020 FB68     		ldr	r3, [r7, #12]
 563 0022 5B00     		lsls	r3, r3, #1
 564 0024 FB62     		str	r3, [r7, #44]
 124:STM32F10x_Speex_Lib/libspeex/smallft.c ****   for(k=0;k<l1;k++){
 565              		.loc 2 124 0
 566 0026 0023     		movs	r3, #0
 567 0028 BB63     		str	r3, [r7, #56]
 568 002a 37E0     		b	.L33
 569              	.L34:
 125:STM32F10x_Speex_Lib/libspeex/smallft.c ****     ch[t1<<1]=cc[t1]+cc[t2];
 570              		.loc 2 125 0 discriminator 3
 571 002c 7B6B     		ldr	r3, [r7, #52]
 572 002e 5B00     		lsls	r3, r3, #1
 573 0030 9B00     		lsls	r3, r3, #2
 574 0032 3A68     		ldr	r2, [r7]
 575 0034 D418     		adds	r4, r2, r3
 576 0036 7B6B     		ldr	r3, [r7, #52]
 577 0038 9B00     		lsls	r3, r3, #2
 578 003a 7A68     		ldr	r2, [r7, #4]
 579 003c 1344     		add	r3, r3, r2
 580 003e 1868     		ldr	r0, [r3]	@ float
 581 0040 3B6B     		ldr	r3, [r7, #48]
 582 0042 9B00     		lsls	r3, r3, #2
 583 0044 7A68     		ldr	r2, [r7, #4]
 584 0046 1344     		add	r3, r3, r2
 585 0048 1B68     		ldr	r3, [r3]	@ float
 586 004a 1946     		mov	r1, r3
 587 004c FFF7FEFF 		bl	__aeabi_fadd
 588 0050 0346     		mov	r3, r0
ARM GAS  /var/folders/kh/x4vltyy52lbg7p4pcyglc5080000gp/T//ccKDo44O.s 			page 15


 589 0052 2360     		str	r3, [r4]	@ float
 126:STM32F10x_Speex_Lib/libspeex/smallft.c ****     ch[(t1<<1)+t3-1]=cc[t1]-cc[t2];
 590              		.loc 2 126 0 discriminator 3
 591 0054 7B6B     		ldr	r3, [r7, #52]
 592 0056 5A00     		lsls	r2, r3, #1
 593 0058 FB6A     		ldr	r3, [r7, #44]
 594 005a 1344     		add	r3, r3, r2
 595 005c 03F18043 		add	r3, r3, #1073741824
 596 0060 013B     		subs	r3, r3, #1
 597 0062 9B00     		lsls	r3, r3, #2
 598 0064 3A68     		ldr	r2, [r7]
 599 0066 D418     		adds	r4, r2, r3
 600 0068 7B6B     		ldr	r3, [r7, #52]
 601 006a 9B00     		lsls	r3, r3, #2
 602 006c 7A68     		ldr	r2, [r7, #4]
 603 006e 1344     		add	r3, r3, r2
 604 0070 1868     		ldr	r0, [r3]	@ float
 605 0072 3B6B     		ldr	r3, [r7, #48]
 606 0074 9B00     		lsls	r3, r3, #2
 607 0076 7A68     		ldr	r2, [r7, #4]
 608 0078 1344     		add	r3, r3, r2
 609 007a 1B68     		ldr	r3, [r3]	@ float
 610 007c 1946     		mov	r1, r3
 611 007e FFF7FEFF 		bl	__aeabi_fsub
 612 0082 0346     		mov	r3, r0
 613 0084 2360     		str	r3, [r4]	@ float
 127:STM32F10x_Speex_Lib/libspeex/smallft.c ****     t1+=ido;
 614              		.loc 2 127 0 discriminator 3
 615 0086 7A6B     		ldr	r2, [r7, #52]
 616 0088 FB68     		ldr	r3, [r7, #12]
 617 008a 1344     		add	r3, r3, r2
 618 008c 7B63     		str	r3, [r7, #52]
 128:STM32F10x_Speex_Lib/libspeex/smallft.c ****     t2+=ido;
 619              		.loc 2 128 0 discriminator 3
 620 008e 3A6B     		ldr	r2, [r7, #48]
 621 0090 FB68     		ldr	r3, [r7, #12]
 622 0092 1344     		add	r3, r3, r2
 623 0094 3B63     		str	r3, [r7, #48]
 124:STM32F10x_Speex_Lib/libspeex/smallft.c ****     ch[t1<<1]=cc[t1]+cc[t2];
 624              		.loc 2 124 0 discriminator 3
 625 0096 BB6B     		ldr	r3, [r7, #56]
 626 0098 0133     		adds	r3, r3, #1
 627 009a BB63     		str	r3, [r7, #56]
 628              	.L33:
 124:STM32F10x_Speex_Lib/libspeex/smallft.c ****     ch[t1<<1]=cc[t1]+cc[t2];
 629              		.loc 2 124 0 is_stmt 0 discriminator 1
 630 009c BA6B     		ldr	r2, [r7, #56]
 631 009e BB68     		ldr	r3, [r7, #8]
 632 00a0 9A42     		cmp	r2, r3
 633 00a2 C3DB     		blt	.L34
 129:STM32F10x_Speex_Lib/libspeex/smallft.c ****   }
 130:STM32F10x_Speex_Lib/libspeex/smallft.c ****     
 131:STM32F10x_Speex_Lib/libspeex/smallft.c ****   if(ido<2)return;
 634              		.loc 2 131 0 is_stmt 1
 635 00a4 FB68     		ldr	r3, [r7, #12]
 636 00a6 012B     		cmp	r3, #1
 637 00a8 40F32981 		ble	.L46
ARM GAS  /var/folders/kh/x4vltyy52lbg7p4pcyglc5080000gp/T//ccKDo44O.s 			page 16


 132:STM32F10x_Speex_Lib/libspeex/smallft.c ****   if(ido==2)goto L105;
 638              		.loc 2 132 0
 639 00ac FB68     		ldr	r3, [r7, #12]
 640 00ae 022B     		cmp	r3, #2
 641 00b0 00F0E880 		beq	.L47
 133:STM32F10x_Speex_Lib/libspeex/smallft.c **** 
 134:STM32F10x_Speex_Lib/libspeex/smallft.c ****   t1=0;
 642              		.loc 2 134 0
 643 00b4 0023     		movs	r3, #0
 644 00b6 7B63     		str	r3, [r7, #52]
 135:STM32F10x_Speex_Lib/libspeex/smallft.c ****   t2=t0;
 645              		.loc 2 135 0
 646 00b8 FB69     		ldr	r3, [r7, #28]
 647 00ba 3B63     		str	r3, [r7, #48]
 136:STM32F10x_Speex_Lib/libspeex/smallft.c ****   for(k=0;k<l1;k++){
 648              		.loc 2 136 0
 649 00bc 0023     		movs	r3, #0
 650 00be BB63     		str	r3, [r7, #56]
 651 00c0 CFE0     		b	.L39
 652              	.L42:
 137:STM32F10x_Speex_Lib/libspeex/smallft.c ****     t3=t2;
 653              		.loc 2 137 0
 654 00c2 3B6B     		ldr	r3, [r7, #48]
 655 00c4 FB62     		str	r3, [r7, #44]
 138:STM32F10x_Speex_Lib/libspeex/smallft.c ****     t4=(t1<<1)+(ido<<1);
 656              		.loc 2 138 0
 657 00c6 7B6B     		ldr	r3, [r7, #52]
 658 00c8 5A00     		lsls	r2, r3, #1
 659 00ca FB68     		ldr	r3, [r7, #12]
 660 00cc 5B00     		lsls	r3, r3, #1
 661 00ce 1344     		add	r3, r3, r2
 662 00d0 BB62     		str	r3, [r7, #40]
 139:STM32F10x_Speex_Lib/libspeex/smallft.c ****     t5=t1;
 663              		.loc 2 139 0
 664 00d2 7B6B     		ldr	r3, [r7, #52]
 665 00d4 7B62     		str	r3, [r7, #36]
 140:STM32F10x_Speex_Lib/libspeex/smallft.c ****     t6=t1+t1;
 666              		.loc 2 140 0
 667 00d6 7A6B     		ldr	r2, [r7, #52]
 668 00d8 7B6B     		ldr	r3, [r7, #52]
 669 00da 1344     		add	r3, r3, r2
 670 00dc 3B62     		str	r3, [r7, #32]
 141:STM32F10x_Speex_Lib/libspeex/smallft.c ****     for(i=2;i<ido;i+=2){
 671              		.loc 2 141 0
 672 00de 0223     		movs	r3, #2
 673 00e0 FB63     		str	r3, [r7, #60]
 674 00e2 AEE0     		b	.L40
 675              	.L41:
 142:STM32F10x_Speex_Lib/libspeex/smallft.c ****       t3+=2;
 676              		.loc 2 142 0 discriminator 3
 677 00e4 FB6A     		ldr	r3, [r7, #44]
 678 00e6 0233     		adds	r3, r3, #2
 679 00e8 FB62     		str	r3, [r7, #44]
 143:STM32F10x_Speex_Lib/libspeex/smallft.c ****       t4-=2;
 680              		.loc 2 143 0 discriminator 3
 681 00ea BB6A     		ldr	r3, [r7, #40]
 682 00ec 023B     		subs	r3, r3, #2
ARM GAS  /var/folders/kh/x4vltyy52lbg7p4pcyglc5080000gp/T//ccKDo44O.s 			page 17


 683 00ee BB62     		str	r3, [r7, #40]
 144:STM32F10x_Speex_Lib/libspeex/smallft.c ****       t5+=2;
 684              		.loc 2 144 0 discriminator 3
 685 00f0 7B6A     		ldr	r3, [r7, #36]
 686 00f2 0233     		adds	r3, r3, #2
 687 00f4 7B62     		str	r3, [r7, #36]
 145:STM32F10x_Speex_Lib/libspeex/smallft.c ****       t6+=2;
 688              		.loc 2 145 0 discriminator 3
 689 00f6 3B6A     		ldr	r3, [r7, #32]
 690 00f8 0233     		adds	r3, r3, #2
 691 00fa 3B62     		str	r3, [r7, #32]
 146:STM32F10x_Speex_Lib/libspeex/smallft.c ****       tr2=wa1[i-2]*cc[t3-1]+wa1[i-1]*cc[t3];
 692              		.loc 2 146 0 discriminator 3
 693 00fc FB6B     		ldr	r3, [r7, #60]
 694 00fe 03F18043 		add	r3, r3, #1073741824
 695 0102 023B     		subs	r3, r3, #2
 696 0104 9B00     		lsls	r3, r3, #2
 697 0106 3A6D     		ldr	r2, [r7, #80]
 698 0108 1344     		add	r3, r3, r2
 699 010a 1868     		ldr	r0, [r3]	@ float
 700 010c FB6A     		ldr	r3, [r7, #44]
 701 010e 03F18043 		add	r3, r3, #1073741824
 702 0112 013B     		subs	r3, r3, #1
 703 0114 9B00     		lsls	r3, r3, #2
 704 0116 7A68     		ldr	r2, [r7, #4]
 705 0118 1344     		add	r3, r3, r2
 706 011a 1B68     		ldr	r3, [r3]	@ float
 707 011c 1946     		mov	r1, r3
 708 011e FFF7FEFF 		bl	__aeabi_fmul
 709 0122 0346     		mov	r3, r0
 710 0124 1C46     		mov	r4, r3
 711 0126 FB6B     		ldr	r3, [r7, #60]
 712 0128 03F18043 		add	r3, r3, #1073741824
 713 012c 013B     		subs	r3, r3, #1
 714 012e 9B00     		lsls	r3, r3, #2
 715 0130 3A6D     		ldr	r2, [r7, #80]
 716 0132 1344     		add	r3, r3, r2
 717 0134 1868     		ldr	r0, [r3]	@ float
 718 0136 FB6A     		ldr	r3, [r7, #44]
 719 0138 9B00     		lsls	r3, r3, #2
 720 013a 7A68     		ldr	r2, [r7, #4]
 721 013c 1344     		add	r3, r3, r2
 722 013e 1B68     		ldr	r3, [r3]	@ float
 723 0140 1946     		mov	r1, r3
 724 0142 FFF7FEFF 		bl	__aeabi_fmul
 725 0146 0346     		mov	r3, r0
 726 0148 1946     		mov	r1, r3
 727 014a 2046     		mov	r0, r4
 728 014c FFF7FEFF 		bl	__aeabi_fadd
 729 0150 0346     		mov	r3, r0
 730 0152 BB61     		str	r3, [r7, #24]	@ float
 147:STM32F10x_Speex_Lib/libspeex/smallft.c ****       ti2=wa1[i-2]*cc[t3]-wa1[i-1]*cc[t3-1];
 731              		.loc 2 147 0 discriminator 3
 732 0154 FB6B     		ldr	r3, [r7, #60]
 733 0156 03F18043 		add	r3, r3, #1073741824
 734 015a 023B     		subs	r3, r3, #2
 735 015c 9B00     		lsls	r3, r3, #2
ARM GAS  /var/folders/kh/x4vltyy52lbg7p4pcyglc5080000gp/T//ccKDo44O.s 			page 18


 736 015e 3A6D     		ldr	r2, [r7, #80]
 737 0160 1344     		add	r3, r3, r2
 738 0162 1868     		ldr	r0, [r3]	@ float
 739 0164 FB6A     		ldr	r3, [r7, #44]
 740 0166 9B00     		lsls	r3, r3, #2
 741 0168 7A68     		ldr	r2, [r7, #4]
 742 016a 1344     		add	r3, r3, r2
 743 016c 1B68     		ldr	r3, [r3]	@ float
 744 016e 1946     		mov	r1, r3
 745 0170 FFF7FEFF 		bl	__aeabi_fmul
 746 0174 0346     		mov	r3, r0
 747 0176 1C46     		mov	r4, r3
 748 0178 FB6B     		ldr	r3, [r7, #60]
 749 017a 03F18043 		add	r3, r3, #1073741824
 750 017e 013B     		subs	r3, r3, #1
 751 0180 9B00     		lsls	r3, r3, #2
 752 0182 3A6D     		ldr	r2, [r7, #80]
 753 0184 1344     		add	r3, r3, r2
 754 0186 1868     		ldr	r0, [r3]	@ float
 755 0188 FB6A     		ldr	r3, [r7, #44]
 756 018a 03F18043 		add	r3, r3, #1073741824
 757 018e 013B     		subs	r3, r3, #1
 758 0190 9B00     		lsls	r3, r3, #2
 759 0192 7A68     		ldr	r2, [r7, #4]
 760 0194 1344     		add	r3, r3, r2
 761 0196 1B68     		ldr	r3, [r3]	@ float
 762 0198 1946     		mov	r1, r3
 763 019a FFF7FEFF 		bl	__aeabi_fmul
 764 019e 0346     		mov	r3, r0
 765 01a0 1946     		mov	r1, r3
 766 01a2 2046     		mov	r0, r4
 767 01a4 FFF7FEFF 		bl	__aeabi_fsub
 768 01a8 0346     		mov	r3, r0
 769 01aa 7B61     		str	r3, [r7, #20]	@ float
 148:STM32F10x_Speex_Lib/libspeex/smallft.c ****       ch[t6]=cc[t5]+ti2;
 770              		.loc 2 148 0 discriminator 3
 771 01ac 3B6A     		ldr	r3, [r7, #32]
 772 01ae 9B00     		lsls	r3, r3, #2
 773 01b0 3A68     		ldr	r2, [r7]
 774 01b2 D418     		adds	r4, r2, r3
 775 01b4 7B6A     		ldr	r3, [r7, #36]
 776 01b6 9B00     		lsls	r3, r3, #2
 777 01b8 7A68     		ldr	r2, [r7, #4]
 778 01ba 1344     		add	r3, r3, r2
 779 01bc 1B68     		ldr	r3, [r3]	@ float
 780 01be 7969     		ldr	r1, [r7, #20]	@ float
 781 01c0 1846     		mov	r0, r3
 782 01c2 FFF7FEFF 		bl	__aeabi_fadd
 783 01c6 0346     		mov	r3, r0
 784 01c8 2360     		str	r3, [r4]	@ float
 149:STM32F10x_Speex_Lib/libspeex/smallft.c ****       ch[t4]=ti2-cc[t5];
 785              		.loc 2 149 0 discriminator 3
 786 01ca BB6A     		ldr	r3, [r7, #40]
 787 01cc 9B00     		lsls	r3, r3, #2
 788 01ce 3A68     		ldr	r2, [r7]
 789 01d0 D418     		adds	r4, r2, r3
 790 01d2 7B6A     		ldr	r3, [r7, #36]
ARM GAS  /var/folders/kh/x4vltyy52lbg7p4pcyglc5080000gp/T//ccKDo44O.s 			page 19


 791 01d4 9B00     		lsls	r3, r3, #2
 792 01d6 7A68     		ldr	r2, [r7, #4]
 793 01d8 1344     		add	r3, r3, r2
 794 01da 1B68     		ldr	r3, [r3]	@ float
 795 01dc 1946     		mov	r1, r3
 796 01de 7869     		ldr	r0, [r7, #20]	@ float
 797 01e0 FFF7FEFF 		bl	__aeabi_fsub
 798 01e4 0346     		mov	r3, r0
 799 01e6 2360     		str	r3, [r4]	@ float
 150:STM32F10x_Speex_Lib/libspeex/smallft.c ****       ch[t6-1]=cc[t5-1]+tr2;
 800              		.loc 2 150 0 discriminator 3
 801 01e8 3B6A     		ldr	r3, [r7, #32]
 802 01ea 03F18043 		add	r3, r3, #1073741824
 803 01ee 013B     		subs	r3, r3, #1
 804 01f0 9B00     		lsls	r3, r3, #2
 805 01f2 3A68     		ldr	r2, [r7]
 806 01f4 D418     		adds	r4, r2, r3
 807 01f6 7B6A     		ldr	r3, [r7, #36]
 808 01f8 03F18043 		add	r3, r3, #1073741824
 809 01fc 013B     		subs	r3, r3, #1
 810 01fe 9B00     		lsls	r3, r3, #2
 811 0200 7A68     		ldr	r2, [r7, #4]
 812 0202 1344     		add	r3, r3, r2
 813 0204 1B68     		ldr	r3, [r3]	@ float
 814 0206 B969     		ldr	r1, [r7, #24]	@ float
 815 0208 1846     		mov	r0, r3
 816 020a FFF7FEFF 		bl	__aeabi_fadd
 817 020e 0346     		mov	r3, r0
 818 0210 2360     		str	r3, [r4]	@ float
 151:STM32F10x_Speex_Lib/libspeex/smallft.c ****       ch[t4-1]=cc[t5-1]-tr2;
 819              		.loc 2 151 0 discriminator 3
 820 0212 BB6A     		ldr	r3, [r7, #40]
 821 0214 03F18043 		add	r3, r3, #1073741824
 822 0218 013B     		subs	r3, r3, #1
 823 021a 9B00     		lsls	r3, r3, #2
 824 021c 3A68     		ldr	r2, [r7]
 825 021e D418     		adds	r4, r2, r3
 826 0220 7B6A     		ldr	r3, [r7, #36]
 827 0222 03F18043 		add	r3, r3, #1073741824
 828 0226 013B     		subs	r3, r3, #1
 829 0228 9B00     		lsls	r3, r3, #2
 830 022a 7A68     		ldr	r2, [r7, #4]
 831 022c 1344     		add	r3, r3, r2
 832 022e 1B68     		ldr	r3, [r3]	@ float
 833 0230 B969     		ldr	r1, [r7, #24]	@ float
 834 0232 1846     		mov	r0, r3
 835 0234 FFF7FEFF 		bl	__aeabi_fsub
 836 0238 0346     		mov	r3, r0
 837 023a 2360     		str	r3, [r4]	@ float
 141:STM32F10x_Speex_Lib/libspeex/smallft.c ****       t3+=2;
 838              		.loc 2 141 0 discriminator 3
 839 023c FB6B     		ldr	r3, [r7, #60]
 840 023e 0233     		adds	r3, r3, #2
 841 0240 FB63     		str	r3, [r7, #60]
 842              	.L40:
 141:STM32F10x_Speex_Lib/libspeex/smallft.c ****       t3+=2;
 843              		.loc 2 141 0 is_stmt 0 discriminator 1
ARM GAS  /var/folders/kh/x4vltyy52lbg7p4pcyglc5080000gp/T//ccKDo44O.s 			page 20


 844 0242 FA6B     		ldr	r2, [r7, #60]
 845 0244 FB68     		ldr	r3, [r7, #12]
 846 0246 9A42     		cmp	r2, r3
 847 0248 FFF64CAF 		blt	.L41
 152:STM32F10x_Speex_Lib/libspeex/smallft.c ****     }
 153:STM32F10x_Speex_Lib/libspeex/smallft.c ****     t1+=ido;
 848              		.loc 2 153 0 is_stmt 1 discriminator 2
 849 024c 7A6B     		ldr	r2, [r7, #52]
 850 024e FB68     		ldr	r3, [r7, #12]
 851 0250 1344     		add	r3, r3, r2
 852 0252 7B63     		str	r3, [r7, #52]
 154:STM32F10x_Speex_Lib/libspeex/smallft.c ****     t2+=ido;
 853              		.loc 2 154 0 discriminator 2
 854 0254 3A6B     		ldr	r2, [r7, #48]
 855 0256 FB68     		ldr	r3, [r7, #12]
 856 0258 1344     		add	r3, r3, r2
 857 025a 3B63     		str	r3, [r7, #48]
 136:STM32F10x_Speex_Lib/libspeex/smallft.c ****     t3=t2;
 858              		.loc 2 136 0 discriminator 2
 859 025c BB6B     		ldr	r3, [r7, #56]
 860 025e 0133     		adds	r3, r3, #1
 861 0260 BB63     		str	r3, [r7, #56]
 862              	.L39:
 136:STM32F10x_Speex_Lib/libspeex/smallft.c ****     t3=t2;
 863              		.loc 2 136 0 is_stmt 0 discriminator 1
 864 0262 BA6B     		ldr	r2, [r7, #56]
 865 0264 BB68     		ldr	r3, [r7, #8]
 866 0266 9A42     		cmp	r2, r3
 867 0268 FFF62BAF 		blt	.L42
 155:STM32F10x_Speex_Lib/libspeex/smallft.c ****   }
 156:STM32F10x_Speex_Lib/libspeex/smallft.c **** 
 157:STM32F10x_Speex_Lib/libspeex/smallft.c ****   if(ido%2==1)return;
 868              		.loc 2 157 0 is_stmt 1
 869 026c FA68     		ldr	r2, [r7, #12]
 870 026e 274B     		ldr	r3, .L49
 871 0270 1340     		ands	r3, r3, r2
 872 0272 002B     		cmp	r3, #0
 873 0274 03DA     		bge	.L43
 874 0276 013B     		subs	r3, r3, #1
 875 0278 63F00103 		orn	r3, r3, #1
 876 027c 0133     		adds	r3, r3, #1
 877              	.L43:
 878 027e 012B     		cmp	r3, #1
 879 0280 3FD0     		beq	.L48
 880 0282 00E0     		b	.L38
 881              	.L47:
 132:STM32F10x_Speex_Lib/libspeex/smallft.c **** 
 882              		.loc 2 132 0
 883 0284 00BF     		nop
 884              	.L38:
 158:STM32F10x_Speex_Lib/libspeex/smallft.c **** 
 159:STM32F10x_Speex_Lib/libspeex/smallft.c ****  L105:
 160:STM32F10x_Speex_Lib/libspeex/smallft.c ****   t3=(t2=(t1=ido)-1);
 885              		.loc 2 160 0
 886 0286 FB68     		ldr	r3, [r7, #12]
 887 0288 7B63     		str	r3, [r7, #52]
 888 028a 7B6B     		ldr	r3, [r7, #52]
ARM GAS  /var/folders/kh/x4vltyy52lbg7p4pcyglc5080000gp/T//ccKDo44O.s 			page 21


 889 028c 013B     		subs	r3, r3, #1
 890 028e 3B63     		str	r3, [r7, #48]
 891 0290 3B6B     		ldr	r3, [r7, #48]
 892 0292 FB62     		str	r3, [r7, #44]
 161:STM32F10x_Speex_Lib/libspeex/smallft.c ****   t2+=t0;
 893              		.loc 2 161 0
 894 0294 3A6B     		ldr	r2, [r7, #48]
 895 0296 FB69     		ldr	r3, [r7, #28]
 896 0298 1344     		add	r3, r3, r2
 897 029a 3B63     		str	r3, [r7, #48]
 162:STM32F10x_Speex_Lib/libspeex/smallft.c ****   for(k=0;k<l1;k++){
 898              		.loc 2 162 0
 899 029c 0023     		movs	r3, #0
 900 029e BB63     		str	r3, [r7, #56]
 901 02a0 28E0     		b	.L44
 902              	.L45:
 163:STM32F10x_Speex_Lib/libspeex/smallft.c ****     ch[t1]=-cc[t2];
 903              		.loc 2 163 0 discriminator 3
 904 02a2 7B6B     		ldr	r3, [r7, #52]
 905 02a4 9B00     		lsls	r3, r3, #2
 906 02a6 3A68     		ldr	r2, [r7]
 907 02a8 1344     		add	r3, r3, r2
 908 02aa 3A6B     		ldr	r2, [r7, #48]
 909 02ac 9200     		lsls	r2, r2, #2
 910 02ae 7968     		ldr	r1, [r7, #4]
 911 02b0 0A44     		add	r2, r2, r1
 912 02b2 1268     		ldr	r2, [r2]	@ float
 913 02b4 82F00042 		eor	r2, r2, #-2147483648
 914 02b8 1A60     		str	r2, [r3]	@ float
 164:STM32F10x_Speex_Lib/libspeex/smallft.c ****     ch[t1-1]=cc[t3];
 915              		.loc 2 164 0 discriminator 3
 916 02ba 7B6B     		ldr	r3, [r7, #52]
 917 02bc 03F18043 		add	r3, r3, #1073741824
 918 02c0 013B     		subs	r3, r3, #1
 919 02c2 9B00     		lsls	r3, r3, #2
 920 02c4 3A68     		ldr	r2, [r7]
 921 02c6 1344     		add	r3, r3, r2
 922 02c8 FA6A     		ldr	r2, [r7, #44]
 923 02ca 9200     		lsls	r2, r2, #2
 924 02cc 7968     		ldr	r1, [r7, #4]
 925 02ce 0A44     		add	r2, r2, r1
 926 02d0 1268     		ldr	r2, [r2]	@ float
 927 02d2 1A60     		str	r2, [r3]	@ float
 165:STM32F10x_Speex_Lib/libspeex/smallft.c ****     t1+=ido<<1;
 928              		.loc 2 165 0 discriminator 3
 929 02d4 FB68     		ldr	r3, [r7, #12]
 930 02d6 5B00     		lsls	r3, r3, #1
 931 02d8 7A6B     		ldr	r2, [r7, #52]
 932 02da 1344     		add	r3, r3, r2
 933 02dc 7B63     		str	r3, [r7, #52]
 166:STM32F10x_Speex_Lib/libspeex/smallft.c ****     t2+=ido;
 934              		.loc 2 166 0 discriminator 3
 935 02de 3A6B     		ldr	r2, [r7, #48]
 936 02e0 FB68     		ldr	r3, [r7, #12]
 937 02e2 1344     		add	r3, r3, r2
 938 02e4 3B63     		str	r3, [r7, #48]
 167:STM32F10x_Speex_Lib/libspeex/smallft.c ****     t3+=ido;
ARM GAS  /var/folders/kh/x4vltyy52lbg7p4pcyglc5080000gp/T//ccKDo44O.s 			page 22


 939              		.loc 2 167 0 discriminator 3
 940 02e6 FA6A     		ldr	r2, [r7, #44]
 941 02e8 FB68     		ldr	r3, [r7, #12]
 942 02ea 1344     		add	r3, r3, r2
 943 02ec FB62     		str	r3, [r7, #44]
 162:STM32F10x_Speex_Lib/libspeex/smallft.c ****     ch[t1]=-cc[t2];
 944              		.loc 2 162 0 discriminator 3
 945 02ee BB6B     		ldr	r3, [r7, #56]
 946 02f0 0133     		adds	r3, r3, #1
 947 02f2 BB63     		str	r3, [r7, #56]
 948              	.L44:
 162:STM32F10x_Speex_Lib/libspeex/smallft.c ****     ch[t1]=-cc[t2];
 949              		.loc 2 162 0 is_stmt 0 discriminator 1
 950 02f4 BA6B     		ldr	r2, [r7, #56]
 951 02f6 BB68     		ldr	r3, [r7, #8]
 952 02f8 9A42     		cmp	r2, r3
 953 02fa D2DB     		blt	.L45
 954 02fc 02E0     		b	.L32
 955              	.L46:
 131:STM32F10x_Speex_Lib/libspeex/smallft.c ****   if(ido==2)goto L105;
 956              		.loc 2 131 0 is_stmt 1
 957 02fe 00BF     		nop
 958 0300 00E0     		b	.L32
 959              	.L48:
 157:STM32F10x_Speex_Lib/libspeex/smallft.c **** 
 960              		.loc 2 157 0
 961 0302 00BF     		nop
 962              	.L32:
 168:STM32F10x_Speex_Lib/libspeex/smallft.c ****   }
 169:STM32F10x_Speex_Lib/libspeex/smallft.c **** }
 963              		.loc 2 169 0
 964 0304 4437     		adds	r7, r7, #68
 965              	.LCFI23:
 966              		.cfi_def_cfa_offset 12
 967 0306 BD46     		mov	sp, r7
 968              	.LCFI24:
 969              		.cfi_def_cfa_register 13
 970              		@ sp needed
 971 0308 90BD     		pop	{r4, r7, pc}
 972              	.L50:
 973 030a 00BF     		.align	2
 974              	.L49:
 975 030c 01000080 		.word	-2147483647
 976              		.cfi_endproc
 977              	.LFE11:
 979              		.section	.text.dradf4,"ax",%progbits
 980              		.align	2
 981              		.thumb
 982              		.thumb_func
 984              	dradf4:
 985              	.LFB12:
 170:STM32F10x_Speex_Lib/libspeex/smallft.c **** 
 171:STM32F10x_Speex_Lib/libspeex/smallft.c **** static void dradf4(int ido,int l1,float *cc,float *ch,float *wa1,
 172:STM32F10x_Speex_Lib/libspeex/smallft.c **** 	    float *wa2,float *wa3){
 986              		.loc 2 172 0
 987              		.cfi_startproc
 988              		@ args = 12, pretend = 0, frame = 112
ARM GAS  /var/folders/kh/x4vltyy52lbg7p4pcyglc5080000gp/T//ccKDo44O.s 			page 23


 989              		@ frame_needed = 1, uses_anonymous_args = 0
 990 0000 90B5     		push	{r4, r7, lr}
 991              	.LCFI25:
 992              		.cfi_def_cfa_offset 12
 993              		.cfi_offset 4, -12
 994              		.cfi_offset 7, -8
 995              		.cfi_offset 14, -4
 996 0002 9DB0     		sub	sp, sp, #116
 997              	.LCFI26:
 998              		.cfi_def_cfa_offset 128
 999 0004 00AF     		add	r7, sp, #0
 1000              	.LCFI27:
 1001              		.cfi_def_cfa_register 7
 1002 0006 F860     		str	r0, [r7, #12]
 1003 0008 B960     		str	r1, [r7, #8]
 1004 000a 7A60     		str	r2, [r7, #4]
 1005 000c 3B60     		str	r3, [r7]
 173:STM32F10x_Speex_Lib/libspeex/smallft.c ****   static float hsqt2 = .70710678118654752f;
 174:STM32F10x_Speex_Lib/libspeex/smallft.c ****   int i,k,t0,t1,t2,t3,t4,t5,t6;
 175:STM32F10x_Speex_Lib/libspeex/smallft.c ****   float ci2,ci3,ci4,cr2,cr3,cr4,ti1,ti2,ti3,ti4,tr1,tr2,tr3,tr4;
 176:STM32F10x_Speex_Lib/libspeex/smallft.c ****   t0=l1*ido;
 1006              		.loc 2 176 0
 1007 000e BB68     		ldr	r3, [r7, #8]
 1008 0010 FA68     		ldr	r2, [r7, #12]
 1009 0012 02FB03F3 		mul	r3, r2, r3
 1010 0016 FB64     		str	r3, [r7, #76]
 177:STM32F10x_Speex_Lib/libspeex/smallft.c ****   
 178:STM32F10x_Speex_Lib/libspeex/smallft.c ****   t1=t0;
 1011              		.loc 2 178 0
 1012 0018 FB6C     		ldr	r3, [r7, #76]
 1013 001a 7B66     		str	r3, [r7, #100]
 179:STM32F10x_Speex_Lib/libspeex/smallft.c ****   t4=t1<<1;
 1014              		.loc 2 179 0
 1015 001c 7B6E     		ldr	r3, [r7, #100]
 1016 001e 5B00     		lsls	r3, r3, #1
 1017 0020 BB65     		str	r3, [r7, #88]
 180:STM32F10x_Speex_Lib/libspeex/smallft.c ****   t2=t1+(t1<<1);
 1018              		.loc 2 180 0
 1019 0022 7B6E     		ldr	r3, [r7, #100]
 1020 0024 5A00     		lsls	r2, r3, #1
 1021 0026 7B6E     		ldr	r3, [r7, #100]
 1022 0028 1344     		add	r3, r3, r2
 1023 002a 3B66     		str	r3, [r7, #96]
 181:STM32F10x_Speex_Lib/libspeex/smallft.c ****   t3=0;
 1024              		.loc 2 181 0
 1025 002c 0023     		movs	r3, #0
 1026 002e FB65     		str	r3, [r7, #92]
 182:STM32F10x_Speex_Lib/libspeex/smallft.c **** 
 183:STM32F10x_Speex_Lib/libspeex/smallft.c ****   for(k=0;k<l1;k++){
 1027              		.loc 2 183 0
 1028 0030 0023     		movs	r3, #0
 1029 0032 BB66     		str	r3, [r7, #104]
 1030 0034 7BE0     		b	.L52
 1031              	.L53:
 184:STM32F10x_Speex_Lib/libspeex/smallft.c ****     tr1=cc[t1]+cc[t2];
 1032              		.loc 2 184 0 discriminator 3
 1033 0036 7B6E     		ldr	r3, [r7, #100]
ARM GAS  /var/folders/kh/x4vltyy52lbg7p4pcyglc5080000gp/T//ccKDo44O.s 			page 24


 1034 0038 9B00     		lsls	r3, r3, #2
 1035 003a 7A68     		ldr	r2, [r7, #4]
 1036 003c 1344     		add	r3, r3, r2
 1037 003e 1868     		ldr	r0, [r3]	@ float
 1038 0040 3B6E     		ldr	r3, [r7, #96]
 1039 0042 9B00     		lsls	r3, r3, #2
 1040 0044 7A68     		ldr	r2, [r7, #4]
 1041 0046 1344     		add	r3, r3, r2
 1042 0048 1B68     		ldr	r3, [r3]	@ float
 1043 004a 1946     		mov	r1, r3
 1044 004c FFF7FEFF 		bl	__aeabi_fadd
 1045 0050 0346     		mov	r3, r0
 1046 0052 BB64     		str	r3, [r7, #72]	@ float
 185:STM32F10x_Speex_Lib/libspeex/smallft.c ****     tr2=cc[t3]+cc[t4];
 1047              		.loc 2 185 0 discriminator 3
 1048 0054 FB6D     		ldr	r3, [r7, #92]
 1049 0056 9B00     		lsls	r3, r3, #2
 1050 0058 7A68     		ldr	r2, [r7, #4]
 1051 005a 1344     		add	r3, r3, r2
 1052 005c 1868     		ldr	r0, [r3]	@ float
 1053 005e BB6D     		ldr	r3, [r7, #88]
 1054 0060 9B00     		lsls	r3, r3, #2
 1055 0062 7A68     		ldr	r2, [r7, #4]
 1056 0064 1344     		add	r3, r3, r2
 1057 0066 1B68     		ldr	r3, [r3]	@ float
 1058 0068 1946     		mov	r1, r3
 1059 006a FFF7FEFF 		bl	__aeabi_fadd
 1060 006e 0346     		mov	r3, r0
 1061 0070 7B64     		str	r3, [r7, #68]	@ float
 186:STM32F10x_Speex_Lib/libspeex/smallft.c **** 
 187:STM32F10x_Speex_Lib/libspeex/smallft.c ****     ch[t5=t3<<2]=tr1+tr2;
 1062              		.loc 2 187 0 discriminator 3
 1063 0072 FB6D     		ldr	r3, [r7, #92]
 1064 0074 9B00     		lsls	r3, r3, #2
 1065 0076 7B65     		str	r3, [r7, #84]
 1066 0078 7B6D     		ldr	r3, [r7, #84]
 1067 007a 9B00     		lsls	r3, r3, #2
 1068 007c 3A68     		ldr	r2, [r7]
 1069 007e D418     		adds	r4, r2, r3
 1070 0080 796C     		ldr	r1, [r7, #68]	@ float
 1071 0082 B86C     		ldr	r0, [r7, #72]	@ float
 1072 0084 FFF7FEFF 		bl	__aeabi_fadd
 1073 0088 0346     		mov	r3, r0
 1074 008a 2360     		str	r3, [r4]	@ float
 188:STM32F10x_Speex_Lib/libspeex/smallft.c ****     ch[(ido<<2)+t5-1]=tr2-tr1;
 1075              		.loc 2 188 0 discriminator 3
 1076 008c FB68     		ldr	r3, [r7, #12]
 1077 008e 9A00     		lsls	r2, r3, #2
 1078 0090 7B6D     		ldr	r3, [r7, #84]
 1079 0092 1344     		add	r3, r3, r2
 1080 0094 03F18043 		add	r3, r3, #1073741824
 1081 0098 013B     		subs	r3, r3, #1
 1082 009a 9B00     		lsls	r3, r3, #2
 1083 009c 3A68     		ldr	r2, [r7]
 1084 009e D418     		adds	r4, r2, r3
 1085 00a0 B96C     		ldr	r1, [r7, #72]	@ float
 1086 00a2 786C     		ldr	r0, [r7, #68]	@ float
ARM GAS  /var/folders/kh/x4vltyy52lbg7p4pcyglc5080000gp/T//ccKDo44O.s 			page 25


 1087 00a4 FFF7FEFF 		bl	__aeabi_fsub
 1088 00a8 0346     		mov	r3, r0
 1089 00aa 2360     		str	r3, [r4]	@ float
 189:STM32F10x_Speex_Lib/libspeex/smallft.c ****     ch[(t5+=(ido<<1))-1]=cc[t3]-cc[t4];
 1090              		.loc 2 189 0 discriminator 3
 1091 00ac FB68     		ldr	r3, [r7, #12]
 1092 00ae 5B00     		lsls	r3, r3, #1
 1093 00b0 7A6D     		ldr	r2, [r7, #84]
 1094 00b2 1344     		add	r3, r3, r2
 1095 00b4 7B65     		str	r3, [r7, #84]
 1096 00b6 7B6D     		ldr	r3, [r7, #84]
 1097 00b8 03F18043 		add	r3, r3, #1073741824
 1098 00bc 013B     		subs	r3, r3, #1
 1099 00be 9B00     		lsls	r3, r3, #2
 1100 00c0 3A68     		ldr	r2, [r7]
 1101 00c2 D418     		adds	r4, r2, r3
 1102 00c4 FB6D     		ldr	r3, [r7, #92]
 1103 00c6 9B00     		lsls	r3, r3, #2
 1104 00c8 7A68     		ldr	r2, [r7, #4]
 1105 00ca 1344     		add	r3, r3, r2
 1106 00cc 1868     		ldr	r0, [r3]	@ float
 1107 00ce BB6D     		ldr	r3, [r7, #88]
 1108 00d0 9B00     		lsls	r3, r3, #2
 1109 00d2 7A68     		ldr	r2, [r7, #4]
 1110 00d4 1344     		add	r3, r3, r2
 1111 00d6 1B68     		ldr	r3, [r3]	@ float
 1112 00d8 1946     		mov	r1, r3
 1113 00da FFF7FEFF 		bl	__aeabi_fsub
 1114 00de 0346     		mov	r3, r0
 1115 00e0 2360     		str	r3, [r4]	@ float
 190:STM32F10x_Speex_Lib/libspeex/smallft.c ****     ch[t5]=cc[t2]-cc[t1];
 1116              		.loc 2 190 0 discriminator 3
 1117 00e2 7B6D     		ldr	r3, [r7, #84]
 1118 00e4 9B00     		lsls	r3, r3, #2
 1119 00e6 3A68     		ldr	r2, [r7]
 1120 00e8 D418     		adds	r4, r2, r3
 1121 00ea 3B6E     		ldr	r3, [r7, #96]
 1122 00ec 9B00     		lsls	r3, r3, #2
 1123 00ee 7A68     		ldr	r2, [r7, #4]
 1124 00f0 1344     		add	r3, r3, r2
 1125 00f2 1868     		ldr	r0, [r3]	@ float
 1126 00f4 7B6E     		ldr	r3, [r7, #100]
 1127 00f6 9B00     		lsls	r3, r3, #2
 1128 00f8 7A68     		ldr	r2, [r7, #4]
 1129 00fa 1344     		add	r3, r3, r2
 1130 00fc 1B68     		ldr	r3, [r3]	@ float
 1131 00fe 1946     		mov	r1, r3
 1132 0100 FFF7FEFF 		bl	__aeabi_fsub
 1133 0104 0346     		mov	r3, r0
 1134 0106 2360     		str	r3, [r4]	@ float
 191:STM32F10x_Speex_Lib/libspeex/smallft.c **** 
 192:STM32F10x_Speex_Lib/libspeex/smallft.c ****     t1+=ido;
 1135              		.loc 2 192 0 discriminator 3
 1136 0108 7A6E     		ldr	r2, [r7, #100]
 1137 010a FB68     		ldr	r3, [r7, #12]
 1138 010c 1344     		add	r3, r3, r2
 1139 010e 7B66     		str	r3, [r7, #100]
ARM GAS  /var/folders/kh/x4vltyy52lbg7p4pcyglc5080000gp/T//ccKDo44O.s 			page 26


 193:STM32F10x_Speex_Lib/libspeex/smallft.c ****     t2+=ido;
 1140              		.loc 2 193 0 discriminator 3
 1141 0110 3A6E     		ldr	r2, [r7, #96]
 1142 0112 FB68     		ldr	r3, [r7, #12]
 1143 0114 1344     		add	r3, r3, r2
 1144 0116 3B66     		str	r3, [r7, #96]
 194:STM32F10x_Speex_Lib/libspeex/smallft.c ****     t3+=ido;
 1145              		.loc 2 194 0 discriminator 3
 1146 0118 FA6D     		ldr	r2, [r7, #92]
 1147 011a FB68     		ldr	r3, [r7, #12]
 1148 011c 1344     		add	r3, r3, r2
 1149 011e FB65     		str	r3, [r7, #92]
 195:STM32F10x_Speex_Lib/libspeex/smallft.c ****     t4+=ido;
 1150              		.loc 2 195 0 discriminator 3
 1151 0120 BA6D     		ldr	r2, [r7, #88]
 1152 0122 FB68     		ldr	r3, [r7, #12]
 1153 0124 1344     		add	r3, r3, r2
 1154 0126 BB65     		str	r3, [r7, #88]
 183:STM32F10x_Speex_Lib/libspeex/smallft.c ****     tr1=cc[t1]+cc[t2];
 1155              		.loc 2 183 0 discriminator 3
 1156 0128 BB6E     		ldr	r3, [r7, #104]
 1157 012a 0133     		adds	r3, r3, #1
 1158 012c BB66     		str	r3, [r7, #104]
 1159              	.L52:
 183:STM32F10x_Speex_Lib/libspeex/smallft.c ****     tr1=cc[t1]+cc[t2];
 1160              		.loc 2 183 0 is_stmt 0 discriminator 1
 1161 012e BA6E     		ldr	r2, [r7, #104]
 1162 0130 BB68     		ldr	r3, [r7, #8]
 1163 0132 9A42     		cmp	r2, r3
 1164 0134 FFF67FAF 		blt	.L53
 196:STM32F10x_Speex_Lib/libspeex/smallft.c ****   }
 197:STM32F10x_Speex_Lib/libspeex/smallft.c **** 
 198:STM32F10x_Speex_Lib/libspeex/smallft.c ****   if(ido<2)return;
 1165              		.loc 2 198 0 is_stmt 1
 1166 0138 FB68     		ldr	r3, [r7, #12]
 1167 013a 012B     		cmp	r3, #1
 1168 013c 40F3BC82 		ble	.L64
 199:STM32F10x_Speex_Lib/libspeex/smallft.c ****   if(ido==2)goto L105;
 1169              		.loc 2 199 0
 1170 0140 FB68     		ldr	r3, [r7, #12]
 1171 0142 022B     		cmp	r3, #2
 1172 0144 00F00882 		beq	.L65
 200:STM32F10x_Speex_Lib/libspeex/smallft.c **** 
 201:STM32F10x_Speex_Lib/libspeex/smallft.c **** 
 202:STM32F10x_Speex_Lib/libspeex/smallft.c ****   t1=0;
 1173              		.loc 2 202 0
 1174 0148 0023     		movs	r3, #0
 1175 014a 7B66     		str	r3, [r7, #100]
 203:STM32F10x_Speex_Lib/libspeex/smallft.c ****   for(k=0;k<l1;k++){
 1176              		.loc 2 203 0
 1177 014c 0023     		movs	r3, #0
 1178 014e BB66     		str	r3, [r7, #104]
 1179 0150 F6E1     		b	.L58
 1180              	.L61:
 204:STM32F10x_Speex_Lib/libspeex/smallft.c ****     t2=t1;
 1181              		.loc 2 204 0
 1182 0152 7B6E     		ldr	r3, [r7, #100]
ARM GAS  /var/folders/kh/x4vltyy52lbg7p4pcyglc5080000gp/T//ccKDo44O.s 			page 27


 1183 0154 3B66     		str	r3, [r7, #96]
 205:STM32F10x_Speex_Lib/libspeex/smallft.c ****     t4=t1<<2;
 1184              		.loc 2 205 0
 1185 0156 7B6E     		ldr	r3, [r7, #100]
 1186 0158 9B00     		lsls	r3, r3, #2
 1187 015a BB65     		str	r3, [r7, #88]
 206:STM32F10x_Speex_Lib/libspeex/smallft.c ****     t5=(t6=ido<<1)+t4;
 1188              		.loc 2 206 0
 1189 015c FB68     		ldr	r3, [r7, #12]
 1190 015e 5B00     		lsls	r3, r3, #1
 1191 0160 3B65     		str	r3, [r7, #80]
 1192 0162 3A6D     		ldr	r2, [r7, #80]
 1193 0164 BB6D     		ldr	r3, [r7, #88]
 1194 0166 1344     		add	r3, r3, r2
 1195 0168 7B65     		str	r3, [r7, #84]
 207:STM32F10x_Speex_Lib/libspeex/smallft.c ****     for(i=2;i<ido;i+=2){
 1196              		.loc 2 207 0
 1197 016a 0223     		movs	r3, #2
 1198 016c FB66     		str	r3, [r7, #108]
 1199 016e DBE1     		b	.L59
 1200              	.L60:
 208:STM32F10x_Speex_Lib/libspeex/smallft.c ****       t3=(t2+=2);
 1201              		.loc 2 208 0 discriminator 3
 1202 0170 3B6E     		ldr	r3, [r7, #96]
 1203 0172 0233     		adds	r3, r3, #2
 1204 0174 3B66     		str	r3, [r7, #96]
 1205 0176 3B6E     		ldr	r3, [r7, #96]
 1206 0178 FB65     		str	r3, [r7, #92]
 209:STM32F10x_Speex_Lib/libspeex/smallft.c ****       t4+=2;
 1207              		.loc 2 209 0 discriminator 3
 1208 017a BB6D     		ldr	r3, [r7, #88]
 1209 017c 0233     		adds	r3, r3, #2
 1210 017e BB65     		str	r3, [r7, #88]
 210:STM32F10x_Speex_Lib/libspeex/smallft.c ****       t5-=2;
 1211              		.loc 2 210 0 discriminator 3
 1212 0180 7B6D     		ldr	r3, [r7, #84]
 1213 0182 023B     		subs	r3, r3, #2
 1214 0184 7B65     		str	r3, [r7, #84]
 211:STM32F10x_Speex_Lib/libspeex/smallft.c **** 
 212:STM32F10x_Speex_Lib/libspeex/smallft.c ****       t3+=t0;
 1215              		.loc 2 212 0 discriminator 3
 1216 0186 FA6D     		ldr	r2, [r7, #92]
 1217 0188 FB6C     		ldr	r3, [r7, #76]
 1218 018a 1344     		add	r3, r3, r2
 1219 018c FB65     		str	r3, [r7, #92]
 213:STM32F10x_Speex_Lib/libspeex/smallft.c ****       cr2=wa1[i-2]*cc[t3-1]+wa1[i-1]*cc[t3];
 1220              		.loc 2 213 0 discriminator 3
 1221 018e FB6E     		ldr	r3, [r7, #108]
 1222 0190 03F18043 		add	r3, r3, #1073741824
 1223 0194 023B     		subs	r3, r3, #2
 1224 0196 9B00     		lsls	r3, r3, #2
 1225 0198 D7F88020 		ldr	r2, [r7, #128]
 1226 019c 1344     		add	r3, r3, r2
 1227 019e 1868     		ldr	r0, [r3]	@ float
 1228 01a0 FB6D     		ldr	r3, [r7, #92]
 1229 01a2 03F18043 		add	r3, r3, #1073741824
 1230 01a6 013B     		subs	r3, r3, #1
ARM GAS  /var/folders/kh/x4vltyy52lbg7p4pcyglc5080000gp/T//ccKDo44O.s 			page 28


 1231 01a8 9B00     		lsls	r3, r3, #2
 1232 01aa 7A68     		ldr	r2, [r7, #4]
 1233 01ac 1344     		add	r3, r3, r2
 1234 01ae 1B68     		ldr	r3, [r3]	@ float
 1235 01b0 1946     		mov	r1, r3
 1236 01b2 FFF7FEFF 		bl	__aeabi_fmul
 1237 01b6 0346     		mov	r3, r0
 1238 01b8 1C46     		mov	r4, r3
 1239 01ba FB6E     		ldr	r3, [r7, #108]
 1240 01bc 03F18043 		add	r3, r3, #1073741824
 1241 01c0 013B     		subs	r3, r3, #1
 1242 01c2 9B00     		lsls	r3, r3, #2
 1243 01c4 D7F88020 		ldr	r2, [r7, #128]
 1244 01c8 1344     		add	r3, r3, r2
 1245 01ca 1868     		ldr	r0, [r3]	@ float
 1246 01cc FB6D     		ldr	r3, [r7, #92]
 1247 01ce 9B00     		lsls	r3, r3, #2
 1248 01d0 7A68     		ldr	r2, [r7, #4]
 1249 01d2 1344     		add	r3, r3, r2
 1250 01d4 1B68     		ldr	r3, [r3]	@ float
 1251 01d6 1946     		mov	r1, r3
 1252 01d8 FFF7FEFF 		bl	__aeabi_fmul
 1253 01dc 0346     		mov	r3, r0
 1254 01de 1946     		mov	r1, r3
 1255 01e0 2046     		mov	r0, r4
 1256 01e2 FFF7FEFF 		bl	__aeabi_fadd
 1257 01e6 0346     		mov	r3, r0
 1258 01e8 3B64     		str	r3, [r7, #64]	@ float
 214:STM32F10x_Speex_Lib/libspeex/smallft.c ****       ci2=wa1[i-2]*cc[t3]-wa1[i-1]*cc[t3-1];
 1259              		.loc 2 214 0 discriminator 3
 1260 01ea FB6E     		ldr	r3, [r7, #108]
 1261 01ec 03F18043 		add	r3, r3, #1073741824
 1262 01f0 023B     		subs	r3, r3, #2
 1263 01f2 9B00     		lsls	r3, r3, #2
 1264 01f4 D7F88020 		ldr	r2, [r7, #128]
 1265 01f8 1344     		add	r3, r3, r2
 1266 01fa 1868     		ldr	r0, [r3]	@ float
 1267 01fc FB6D     		ldr	r3, [r7, #92]
 1268 01fe 9B00     		lsls	r3, r3, #2
 1269 0200 7A68     		ldr	r2, [r7, #4]
 1270 0202 1344     		add	r3, r3, r2
 1271 0204 1B68     		ldr	r3, [r3]	@ float
 1272 0206 1946     		mov	r1, r3
 1273 0208 FFF7FEFF 		bl	__aeabi_fmul
 1274 020c 0346     		mov	r3, r0
 1275 020e 1C46     		mov	r4, r3
 1276 0210 FB6E     		ldr	r3, [r7, #108]
 1277 0212 03F18043 		add	r3, r3, #1073741824
 1278 0216 013B     		subs	r3, r3, #1
 1279 0218 9B00     		lsls	r3, r3, #2
 1280 021a D7F88020 		ldr	r2, [r7, #128]
 1281 021e 1344     		add	r3, r3, r2
 1282 0220 1868     		ldr	r0, [r3]	@ float
 1283 0222 FB6D     		ldr	r3, [r7, #92]
 1284 0224 03F18043 		add	r3, r3, #1073741824
 1285 0228 013B     		subs	r3, r3, #1
 1286 022a 9B00     		lsls	r3, r3, #2
ARM GAS  /var/folders/kh/x4vltyy52lbg7p4pcyglc5080000gp/T//ccKDo44O.s 			page 29


 1287 022c 7A68     		ldr	r2, [r7, #4]
 1288 022e 1344     		add	r3, r3, r2
 1289 0230 1B68     		ldr	r3, [r3]	@ float
 1290 0232 1946     		mov	r1, r3
 1291 0234 FFF7FEFF 		bl	__aeabi_fmul
 1292 0238 0346     		mov	r3, r0
 1293 023a 1946     		mov	r1, r3
 1294 023c 2046     		mov	r0, r4
 1295 023e FFF7FEFF 		bl	__aeabi_fsub
 1296 0242 0346     		mov	r3, r0
 1297 0244 FB63     		str	r3, [r7, #60]	@ float
 215:STM32F10x_Speex_Lib/libspeex/smallft.c ****       t3+=t0;
 1298              		.loc 2 215 0 discriminator 3
 1299 0246 FA6D     		ldr	r2, [r7, #92]
 1300 0248 FB6C     		ldr	r3, [r7, #76]
 1301 024a 1344     		add	r3, r3, r2
 1302 024c FB65     		str	r3, [r7, #92]
 216:STM32F10x_Speex_Lib/libspeex/smallft.c ****       cr3=wa2[i-2]*cc[t3-1]+wa2[i-1]*cc[t3];
 1303              		.loc 2 216 0 discriminator 3
 1304 024e FB6E     		ldr	r3, [r7, #108]
 1305 0250 03F18043 		add	r3, r3, #1073741824
 1306 0254 023B     		subs	r3, r3, #2
 1307 0256 9B00     		lsls	r3, r3, #2
 1308 0258 D7F88420 		ldr	r2, [r7, #132]
 1309 025c 1344     		add	r3, r3, r2
 1310 025e 1868     		ldr	r0, [r3]	@ float
 1311 0260 FB6D     		ldr	r3, [r7, #92]
 1312 0262 03F18043 		add	r3, r3, #1073741824
 1313 0266 013B     		subs	r3, r3, #1
 1314 0268 9B00     		lsls	r3, r3, #2
 1315 026a 7A68     		ldr	r2, [r7, #4]
 1316 026c 1344     		add	r3, r3, r2
 1317 026e 1B68     		ldr	r3, [r3]	@ float
 1318 0270 1946     		mov	r1, r3
 1319 0272 FFF7FEFF 		bl	__aeabi_fmul
 1320 0276 0346     		mov	r3, r0
 1321 0278 1C46     		mov	r4, r3
 1322 027a FB6E     		ldr	r3, [r7, #108]
 1323 027c 03F18043 		add	r3, r3, #1073741824
 1324 0280 013B     		subs	r3, r3, #1
 1325 0282 9B00     		lsls	r3, r3, #2
 1326 0284 D7F88420 		ldr	r2, [r7, #132]
 1327 0288 1344     		add	r3, r3, r2
 1328 028a 1868     		ldr	r0, [r3]	@ float
 1329 028c FB6D     		ldr	r3, [r7, #92]
 1330 028e 9B00     		lsls	r3, r3, #2
 1331 0290 7A68     		ldr	r2, [r7, #4]
 1332 0292 1344     		add	r3, r3, r2
 1333 0294 1B68     		ldr	r3, [r3]	@ float
 1334 0296 1946     		mov	r1, r3
 1335 0298 FFF7FEFF 		bl	__aeabi_fmul
 1336 029c 0346     		mov	r3, r0
 1337 029e 1946     		mov	r1, r3
 1338 02a0 2046     		mov	r0, r4
 1339 02a2 FFF7FEFF 		bl	__aeabi_fadd
 1340 02a6 0346     		mov	r3, r0
 1341 02a8 BB63     		str	r3, [r7, #56]	@ float
ARM GAS  /var/folders/kh/x4vltyy52lbg7p4pcyglc5080000gp/T//ccKDo44O.s 			page 30


 217:STM32F10x_Speex_Lib/libspeex/smallft.c ****       ci3=wa2[i-2]*cc[t3]-wa2[i-1]*cc[t3-1];
 1342              		.loc 2 217 0 discriminator 3
 1343 02aa FB6E     		ldr	r3, [r7, #108]
 1344 02ac 03F18043 		add	r3, r3, #1073741824
 1345 02b0 023B     		subs	r3, r3, #2
 1346 02b2 9B00     		lsls	r3, r3, #2
 1347 02b4 D7F88420 		ldr	r2, [r7, #132]
 1348 02b8 1344     		add	r3, r3, r2
 1349 02ba 1868     		ldr	r0, [r3]	@ float
 1350 02bc FB6D     		ldr	r3, [r7, #92]
 1351 02be 9B00     		lsls	r3, r3, #2
 1352 02c0 7A68     		ldr	r2, [r7, #4]
 1353 02c2 1344     		add	r3, r3, r2
 1354 02c4 1B68     		ldr	r3, [r3]	@ float
 1355 02c6 1946     		mov	r1, r3
 1356 02c8 FFF7FEFF 		bl	__aeabi_fmul
 1357 02cc 0346     		mov	r3, r0
 1358 02ce 1C46     		mov	r4, r3
 1359 02d0 FB6E     		ldr	r3, [r7, #108]
 1360 02d2 03F18043 		add	r3, r3, #1073741824
 1361 02d6 013B     		subs	r3, r3, #1
 1362 02d8 9B00     		lsls	r3, r3, #2
 1363 02da D7F88420 		ldr	r2, [r7, #132]
 1364 02de 1344     		add	r3, r3, r2
 1365 02e0 1868     		ldr	r0, [r3]	@ float
 1366 02e2 FB6D     		ldr	r3, [r7, #92]
 1367 02e4 03F18043 		add	r3, r3, #1073741824
 1368 02e8 013B     		subs	r3, r3, #1
 1369 02ea 9B00     		lsls	r3, r3, #2
 1370 02ec 7A68     		ldr	r2, [r7, #4]
 1371 02ee 1344     		add	r3, r3, r2
 1372 02f0 1B68     		ldr	r3, [r3]	@ float
 1373 02f2 1946     		mov	r1, r3
 1374 02f4 FFF7FEFF 		bl	__aeabi_fmul
 1375 02f8 0346     		mov	r3, r0
 1376 02fa 1946     		mov	r1, r3
 1377 02fc 2046     		mov	r0, r4
 1378 02fe FFF7FEFF 		bl	__aeabi_fsub
 1379 0302 0346     		mov	r3, r0
 1380 0304 7B63     		str	r3, [r7, #52]	@ float
 218:STM32F10x_Speex_Lib/libspeex/smallft.c ****       t3+=t0;
 1381              		.loc 2 218 0 discriminator 3
 1382 0306 FA6D     		ldr	r2, [r7, #92]
 1383 0308 FB6C     		ldr	r3, [r7, #76]
 1384 030a 1344     		add	r3, r3, r2
 1385 030c FB65     		str	r3, [r7, #92]
 219:STM32F10x_Speex_Lib/libspeex/smallft.c ****       cr4=wa3[i-2]*cc[t3-1]+wa3[i-1]*cc[t3];
 1386              		.loc 2 219 0 discriminator 3
 1387 030e FB6E     		ldr	r3, [r7, #108]
 1388 0310 03F18043 		add	r3, r3, #1073741824
 1389 0314 023B     		subs	r3, r3, #2
 1390 0316 9B00     		lsls	r3, r3, #2
 1391 0318 D7F88820 		ldr	r2, [r7, #136]
 1392 031c 1344     		add	r3, r3, r2
 1393 031e 1868     		ldr	r0, [r3]	@ float
 1394 0320 FB6D     		ldr	r3, [r7, #92]
 1395 0322 03F18043 		add	r3, r3, #1073741824
ARM GAS  /var/folders/kh/x4vltyy52lbg7p4pcyglc5080000gp/T//ccKDo44O.s 			page 31


 1396 0326 013B     		subs	r3, r3, #1
 1397 0328 9B00     		lsls	r3, r3, #2
 1398 032a 7A68     		ldr	r2, [r7, #4]
 1399 032c 1344     		add	r3, r3, r2
 1400 032e 1B68     		ldr	r3, [r3]	@ float
 1401 0330 1946     		mov	r1, r3
 1402 0332 FFF7FEFF 		bl	__aeabi_fmul
 1403 0336 0346     		mov	r3, r0
 1404 0338 1C46     		mov	r4, r3
 1405 033a FB6E     		ldr	r3, [r7, #108]
 1406 033c 03F18043 		add	r3, r3, #1073741824
 1407 0340 013B     		subs	r3, r3, #1
 1408 0342 9B00     		lsls	r3, r3, #2
 1409 0344 D7F88820 		ldr	r2, [r7, #136]
 1410 0348 1344     		add	r3, r3, r2
 1411 034a 1868     		ldr	r0, [r3]	@ float
 1412 034c FB6D     		ldr	r3, [r7, #92]
 1413 034e 9B00     		lsls	r3, r3, #2
 1414 0350 7A68     		ldr	r2, [r7, #4]
 1415 0352 1344     		add	r3, r3, r2
 1416 0354 1B68     		ldr	r3, [r3]	@ float
 1417 0356 1946     		mov	r1, r3
 1418 0358 FFF7FEFF 		bl	__aeabi_fmul
 1419 035c 0346     		mov	r3, r0
 1420 035e 1946     		mov	r1, r3
 1421 0360 2046     		mov	r0, r4
 1422 0362 FFF7FEFF 		bl	__aeabi_fadd
 1423 0366 0346     		mov	r3, r0
 1424 0368 3B63     		str	r3, [r7, #48]	@ float
 220:STM32F10x_Speex_Lib/libspeex/smallft.c ****       ci4=wa3[i-2]*cc[t3]-wa3[i-1]*cc[t3-1];
 1425              		.loc 2 220 0 discriminator 3
 1426 036a FB6E     		ldr	r3, [r7, #108]
 1427 036c 03F18043 		add	r3, r3, #1073741824
 1428 0370 023B     		subs	r3, r3, #2
 1429 0372 9B00     		lsls	r3, r3, #2
 1430 0374 D7F88820 		ldr	r2, [r7, #136]
 1431 0378 1344     		add	r3, r3, r2
 1432 037a 1868     		ldr	r0, [r3]	@ float
 1433 037c FB6D     		ldr	r3, [r7, #92]
 1434 037e 9B00     		lsls	r3, r3, #2
 1435 0380 7A68     		ldr	r2, [r7, #4]
 1436 0382 1344     		add	r3, r3, r2
 1437 0384 1B68     		ldr	r3, [r3]	@ float
 1438 0386 1946     		mov	r1, r3
 1439 0388 FFF7FEFF 		bl	__aeabi_fmul
 1440 038c 0346     		mov	r3, r0
 1441 038e 1C46     		mov	r4, r3
 1442 0390 FB6E     		ldr	r3, [r7, #108]
 1443 0392 03F18043 		add	r3, r3, #1073741824
 1444 0396 013B     		subs	r3, r3, #1
 1445 0398 9B00     		lsls	r3, r3, #2
 1446 039a D7F88820 		ldr	r2, [r7, #136]
 1447 039e 1344     		add	r3, r3, r2
 1448 03a0 1868     		ldr	r0, [r3]	@ float
 1449 03a2 FB6D     		ldr	r3, [r7, #92]
 1450 03a4 03F18043 		add	r3, r3, #1073741824
 1451 03a8 013B     		subs	r3, r3, #1
ARM GAS  /var/folders/kh/x4vltyy52lbg7p4pcyglc5080000gp/T//ccKDo44O.s 			page 32


 1452 03aa 9B00     		lsls	r3, r3, #2
 1453 03ac 7A68     		ldr	r2, [r7, #4]
 1454 03ae 1344     		add	r3, r3, r2
 1455 03b0 1B68     		ldr	r3, [r3]	@ float
 1456 03b2 1946     		mov	r1, r3
 1457 03b4 FFF7FEFF 		bl	__aeabi_fmul
 1458 03b8 0346     		mov	r3, r0
 1459 03ba 1946     		mov	r1, r3
 1460 03bc 2046     		mov	r0, r4
 1461 03be FFF7FEFF 		bl	__aeabi_fsub
 1462 03c2 0346     		mov	r3, r0
 1463 03c4 FB62     		str	r3, [r7, #44]	@ float
 221:STM32F10x_Speex_Lib/libspeex/smallft.c **** 
 222:STM32F10x_Speex_Lib/libspeex/smallft.c ****       tr1=cr2+cr4;
 1464              		.loc 2 222 0 discriminator 3
 1465 03c6 396B     		ldr	r1, [r7, #48]	@ float
 1466 03c8 386C     		ldr	r0, [r7, #64]	@ float
 1467 03ca FFF7FEFF 		bl	__aeabi_fadd
 1468 03ce 0346     		mov	r3, r0
 1469 03d0 BB64     		str	r3, [r7, #72]	@ float
 223:STM32F10x_Speex_Lib/libspeex/smallft.c ****       tr4=cr4-cr2;
 1470              		.loc 2 223 0 discriminator 3
 1471 03d2 396C     		ldr	r1, [r7, #64]	@ float
 1472 03d4 386B     		ldr	r0, [r7, #48]	@ float
 1473 03d6 FFF7FEFF 		bl	__aeabi_fsub
 1474 03da 0346     		mov	r3, r0
 1475 03dc BB62     		str	r3, [r7, #40]	@ float
 224:STM32F10x_Speex_Lib/libspeex/smallft.c ****       ti1=ci2+ci4;
 1476              		.loc 2 224 0 discriminator 3
 1477 03de F96A     		ldr	r1, [r7, #44]	@ float
 1478 03e0 F86B     		ldr	r0, [r7, #60]	@ float
 1479 03e2 FFF7FEFF 		bl	__aeabi_fadd
 1480 03e6 0346     		mov	r3, r0
 1481 03e8 7B62     		str	r3, [r7, #36]	@ float
 225:STM32F10x_Speex_Lib/libspeex/smallft.c ****       ti4=ci2-ci4;
 1482              		.loc 2 225 0 discriminator 3
 1483 03ea F96A     		ldr	r1, [r7, #44]	@ float
 1484 03ec F86B     		ldr	r0, [r7, #60]	@ float
 1485 03ee FFF7FEFF 		bl	__aeabi_fsub
 1486 03f2 0346     		mov	r3, r0
 1487 03f4 3B62     		str	r3, [r7, #32]	@ float
 226:STM32F10x_Speex_Lib/libspeex/smallft.c **** 
 227:STM32F10x_Speex_Lib/libspeex/smallft.c ****       ti2=cc[t2]+ci3;
 1488              		.loc 2 227 0 discriminator 3
 1489 03f6 3B6E     		ldr	r3, [r7, #96]
 1490 03f8 9B00     		lsls	r3, r3, #2
 1491 03fa 7A68     		ldr	r2, [r7, #4]
 1492 03fc 1344     		add	r3, r3, r2
 1493 03fe 1B68     		ldr	r3, [r3]	@ float
 1494 0400 796B     		ldr	r1, [r7, #52]	@ float
 1495 0402 1846     		mov	r0, r3
 1496 0404 FFF7FEFF 		bl	__aeabi_fadd
 1497 0408 0346     		mov	r3, r0
 1498 040a FB61     		str	r3, [r7, #28]	@ float
 228:STM32F10x_Speex_Lib/libspeex/smallft.c ****       ti3=cc[t2]-ci3;
 1499              		.loc 2 228 0 discriminator 3
 1500 040c 3B6E     		ldr	r3, [r7, #96]
ARM GAS  /var/folders/kh/x4vltyy52lbg7p4pcyglc5080000gp/T//ccKDo44O.s 			page 33


 1501 040e 9B00     		lsls	r3, r3, #2
 1502 0410 7A68     		ldr	r2, [r7, #4]
 1503 0412 1344     		add	r3, r3, r2
 1504 0414 1B68     		ldr	r3, [r3]	@ float
 1505 0416 796B     		ldr	r1, [r7, #52]	@ float
 1506 0418 1846     		mov	r0, r3
 1507 041a FFF7FEFF 		bl	__aeabi_fsub
 1508 041e 0346     		mov	r3, r0
 1509 0420 BB61     		str	r3, [r7, #24]	@ float
 229:STM32F10x_Speex_Lib/libspeex/smallft.c ****       tr2=cc[t2-1]+cr3;
 1510              		.loc 2 229 0 discriminator 3
 1511 0422 3B6E     		ldr	r3, [r7, #96]
 1512 0424 03F18043 		add	r3, r3, #1073741824
 1513 0428 013B     		subs	r3, r3, #1
 1514 042a 9B00     		lsls	r3, r3, #2
 1515 042c 7A68     		ldr	r2, [r7, #4]
 1516 042e 1344     		add	r3, r3, r2
 1517 0430 1B68     		ldr	r3, [r3]	@ float
 1518 0432 B96B     		ldr	r1, [r7, #56]	@ float
 1519 0434 1846     		mov	r0, r3
 1520 0436 FFF7FEFF 		bl	__aeabi_fadd
 1521 043a 0346     		mov	r3, r0
 1522 043c 7B64     		str	r3, [r7, #68]	@ float
 230:STM32F10x_Speex_Lib/libspeex/smallft.c ****       tr3=cc[t2-1]-cr3;
 1523              		.loc 2 230 0 discriminator 3
 1524 043e 3B6E     		ldr	r3, [r7, #96]
 1525 0440 03F18043 		add	r3, r3, #1073741824
 1526 0444 013B     		subs	r3, r3, #1
 1527 0446 9B00     		lsls	r3, r3, #2
 1528 0448 7A68     		ldr	r2, [r7, #4]
 1529 044a 1344     		add	r3, r3, r2
 1530 044c 1B68     		ldr	r3, [r3]	@ float
 1531 044e B96B     		ldr	r1, [r7, #56]	@ float
 1532 0450 1846     		mov	r0, r3
 1533 0452 FFF7FEFF 		bl	__aeabi_fsub
 1534 0456 0346     		mov	r3, r0
 1535 0458 7B61     		str	r3, [r7, #20]	@ float
 231:STM32F10x_Speex_Lib/libspeex/smallft.c **** 
 232:STM32F10x_Speex_Lib/libspeex/smallft.c ****       ch[t4-1]=tr1+tr2;
 1536              		.loc 2 232 0 discriminator 3
 1537 045a BB6D     		ldr	r3, [r7, #88]
 1538 045c 03F18043 		add	r3, r3, #1073741824
 1539 0460 013B     		subs	r3, r3, #1
 1540 0462 9B00     		lsls	r3, r3, #2
 1541 0464 3A68     		ldr	r2, [r7]
 1542 0466 D418     		adds	r4, r2, r3
 1543 0468 796C     		ldr	r1, [r7, #68]	@ float
 1544 046a B86C     		ldr	r0, [r7, #72]	@ float
 1545 046c FFF7FEFF 		bl	__aeabi_fadd
 1546 0470 0346     		mov	r3, r0
 1547 0472 2360     		str	r3, [r4]	@ float
 233:STM32F10x_Speex_Lib/libspeex/smallft.c ****       ch[t4]=ti1+ti2;
 1548              		.loc 2 233 0 discriminator 3
 1549 0474 BB6D     		ldr	r3, [r7, #88]
 1550 0476 9B00     		lsls	r3, r3, #2
 1551 0478 3A68     		ldr	r2, [r7]
 1552 047a D418     		adds	r4, r2, r3
ARM GAS  /var/folders/kh/x4vltyy52lbg7p4pcyglc5080000gp/T//ccKDo44O.s 			page 34


 1553 047c F969     		ldr	r1, [r7, #28]	@ float
 1554 047e 786A     		ldr	r0, [r7, #36]	@ float
 1555 0480 FFF7FEFF 		bl	__aeabi_fadd
 1556 0484 0346     		mov	r3, r0
 1557 0486 2360     		str	r3, [r4]	@ float
 234:STM32F10x_Speex_Lib/libspeex/smallft.c **** 
 235:STM32F10x_Speex_Lib/libspeex/smallft.c ****       ch[t5-1]=tr3-ti4;
 1558              		.loc 2 235 0 discriminator 3
 1559 0488 7B6D     		ldr	r3, [r7, #84]
 1560 048a 03F18043 		add	r3, r3, #1073741824
 1561 048e 013B     		subs	r3, r3, #1
 1562 0490 9B00     		lsls	r3, r3, #2
 1563 0492 3A68     		ldr	r2, [r7]
 1564 0494 D418     		adds	r4, r2, r3
 1565 0496 396A     		ldr	r1, [r7, #32]	@ float
 1566 0498 7869     		ldr	r0, [r7, #20]	@ float
 1567 049a FFF7FEFF 		bl	__aeabi_fsub
 1568 049e 0346     		mov	r3, r0
 1569 04a0 2360     		str	r3, [r4]	@ float
 236:STM32F10x_Speex_Lib/libspeex/smallft.c ****       ch[t5]=tr4-ti3;
 1570              		.loc 2 236 0 discriminator 3
 1571 04a2 7B6D     		ldr	r3, [r7, #84]
 1572 04a4 9B00     		lsls	r3, r3, #2
 1573 04a6 3A68     		ldr	r2, [r7]
 1574 04a8 D418     		adds	r4, r2, r3
 1575 04aa B969     		ldr	r1, [r7, #24]	@ float
 1576 04ac B86A     		ldr	r0, [r7, #40]	@ float
 1577 04ae FFF7FEFF 		bl	__aeabi_fsub
 1578 04b2 0346     		mov	r3, r0
 1579 04b4 2360     		str	r3, [r4]	@ float
 237:STM32F10x_Speex_Lib/libspeex/smallft.c **** 
 238:STM32F10x_Speex_Lib/libspeex/smallft.c ****       ch[t4+t6-1]=ti4+tr3;
 1580              		.loc 2 238 0 discriminator 3
 1581 04b6 BA6D     		ldr	r2, [r7, #88]
 1582 04b8 3B6D     		ldr	r3, [r7, #80]
 1583 04ba 1344     		add	r3, r3, r2
 1584 04bc 03F18043 		add	r3, r3, #1073741824
 1585 04c0 013B     		subs	r3, r3, #1
 1586 04c2 9B00     		lsls	r3, r3, #2
 1587 04c4 3A68     		ldr	r2, [r7]
 1588 04c6 D418     		adds	r4, r2, r3
 1589 04c8 7969     		ldr	r1, [r7, #20]	@ float
 1590 04ca 386A     		ldr	r0, [r7, #32]	@ float
 1591 04cc FFF7FEFF 		bl	__aeabi_fadd
 1592 04d0 0346     		mov	r3, r0
 1593 04d2 2360     		str	r3, [r4]	@ float
 239:STM32F10x_Speex_Lib/libspeex/smallft.c ****       ch[t4+t6]=tr4+ti3;
 1594              		.loc 2 239 0 discriminator 3
 1595 04d4 BA6D     		ldr	r2, [r7, #88]
 1596 04d6 3B6D     		ldr	r3, [r7, #80]
 1597 04d8 1344     		add	r3, r3, r2
 1598 04da 9B00     		lsls	r3, r3, #2
 1599 04dc 3A68     		ldr	r2, [r7]
 1600 04de D418     		adds	r4, r2, r3
 1601 04e0 B969     		ldr	r1, [r7, #24]	@ float
 1602 04e2 B86A     		ldr	r0, [r7, #40]	@ float
 1603 04e4 FFF7FEFF 		bl	__aeabi_fadd
ARM GAS  /var/folders/kh/x4vltyy52lbg7p4pcyglc5080000gp/T//ccKDo44O.s 			page 35


 1604 04e8 0346     		mov	r3, r0
 1605 04ea 2360     		str	r3, [r4]	@ float
 240:STM32F10x_Speex_Lib/libspeex/smallft.c **** 
 241:STM32F10x_Speex_Lib/libspeex/smallft.c ****       ch[t5+t6-1]=tr2-tr1;
 1606              		.loc 2 241 0 discriminator 3
 1607 04ec 7A6D     		ldr	r2, [r7, #84]
 1608 04ee 3B6D     		ldr	r3, [r7, #80]
 1609 04f0 1344     		add	r3, r3, r2
 1610 04f2 03F18043 		add	r3, r3, #1073741824
 1611 04f6 013B     		subs	r3, r3, #1
 1612 04f8 9B00     		lsls	r3, r3, #2
 1613 04fa 3A68     		ldr	r2, [r7]
 1614 04fc D418     		adds	r4, r2, r3
 1615 04fe B96C     		ldr	r1, [r7, #72]	@ float
 1616 0500 786C     		ldr	r0, [r7, #68]	@ float
 1617 0502 FFF7FEFF 		bl	__aeabi_fsub
 1618 0506 0346     		mov	r3, r0
 1619 0508 2360     		str	r3, [r4]	@ float
 242:STM32F10x_Speex_Lib/libspeex/smallft.c ****       ch[t5+t6]=ti1-ti2;
 1620              		.loc 2 242 0 discriminator 3
 1621 050a 7A6D     		ldr	r2, [r7, #84]
 1622 050c 3B6D     		ldr	r3, [r7, #80]
 1623 050e 1344     		add	r3, r3, r2
 1624 0510 9B00     		lsls	r3, r3, #2
 1625 0512 3A68     		ldr	r2, [r7]
 1626 0514 D418     		adds	r4, r2, r3
 1627 0516 F969     		ldr	r1, [r7, #28]	@ float
 1628 0518 786A     		ldr	r0, [r7, #36]	@ float
 1629 051a FFF7FEFF 		bl	__aeabi_fsub
 1630 051e 0346     		mov	r3, r0
 1631 0520 2360     		str	r3, [r4]	@ float
 207:STM32F10x_Speex_Lib/libspeex/smallft.c ****       t3=(t2+=2);
 1632              		.loc 2 207 0 discriminator 3
 1633 0522 FB6E     		ldr	r3, [r7, #108]
 1634 0524 0233     		adds	r3, r3, #2
 1635 0526 FB66     		str	r3, [r7, #108]
 1636              	.L59:
 207:STM32F10x_Speex_Lib/libspeex/smallft.c ****       t3=(t2+=2);
 1637              		.loc 2 207 0 is_stmt 0 discriminator 1
 1638 0528 FA6E     		ldr	r2, [r7, #108]
 1639 052a FB68     		ldr	r3, [r7, #12]
 1640 052c 9A42     		cmp	r2, r3
 1641 052e FFF61FAE 		blt	.L60
 243:STM32F10x_Speex_Lib/libspeex/smallft.c ****     }
 244:STM32F10x_Speex_Lib/libspeex/smallft.c ****     t1+=ido;
 1642              		.loc 2 244 0 is_stmt 1 discriminator 2
 1643 0532 7A6E     		ldr	r2, [r7, #100]
 1644 0534 FB68     		ldr	r3, [r7, #12]
 1645 0536 1344     		add	r3, r3, r2
 1646 0538 7B66     		str	r3, [r7, #100]
 203:STM32F10x_Speex_Lib/libspeex/smallft.c ****     t2=t1;
 1647              		.loc 2 203 0 discriminator 2
 1648 053a BB6E     		ldr	r3, [r7, #104]
 1649 053c 0133     		adds	r3, r3, #1
 1650 053e BB66     		str	r3, [r7, #104]
 1651              	.L58:
 203:STM32F10x_Speex_Lib/libspeex/smallft.c ****     t2=t1;
ARM GAS  /var/folders/kh/x4vltyy52lbg7p4pcyglc5080000gp/T//ccKDo44O.s 			page 36


 1652              		.loc 2 203 0 is_stmt 0 discriminator 1
 1653 0540 BA6E     		ldr	r2, [r7, #104]
 1654 0542 BB68     		ldr	r3, [r7, #8]
 1655 0544 9A42     		cmp	r2, r3
 1656 0546 FFF604AE 		blt	.L61
 245:STM32F10x_Speex_Lib/libspeex/smallft.c ****   }
 246:STM32F10x_Speex_Lib/libspeex/smallft.c ****   if(ido&1)return;
 1657              		.loc 2 246 0 is_stmt 1
 1658 054a FB68     		ldr	r3, [r7, #12]
 1659 054c 03F00103 		and	r3, r3, #1
 1660 0550 002B     		cmp	r3, #0
 1661 0552 40F0B380 		bne	.L66
 1662 0556 00E0     		b	.L57
 1663              	.L65:
 199:STM32F10x_Speex_Lib/libspeex/smallft.c **** 
 1664              		.loc 2 199 0
 1665 0558 00BF     		nop
 1666              	.L57:
 247:STM32F10x_Speex_Lib/libspeex/smallft.c **** 
 248:STM32F10x_Speex_Lib/libspeex/smallft.c ****  L105:
 249:STM32F10x_Speex_Lib/libspeex/smallft.c ****   
 250:STM32F10x_Speex_Lib/libspeex/smallft.c ****   t2=(t1=t0+ido-1)+(t0<<1);
 1667              		.loc 2 250 0
 1668 055a FA6C     		ldr	r2, [r7, #76]
 1669 055c FB68     		ldr	r3, [r7, #12]
 1670 055e 1344     		add	r3, r3, r2
 1671 0560 013B     		subs	r3, r3, #1
 1672 0562 7B66     		str	r3, [r7, #100]
 1673 0564 FB6C     		ldr	r3, [r7, #76]
 1674 0566 5B00     		lsls	r3, r3, #1
 1675 0568 7A6E     		ldr	r2, [r7, #100]
 1676 056a 1344     		add	r3, r3, r2
 1677 056c 3B66     		str	r3, [r7, #96]
 251:STM32F10x_Speex_Lib/libspeex/smallft.c ****   t3=ido<<2;
 1678              		.loc 2 251 0
 1679 056e FB68     		ldr	r3, [r7, #12]
 1680 0570 9B00     		lsls	r3, r3, #2
 1681 0572 FB65     		str	r3, [r7, #92]
 252:STM32F10x_Speex_Lib/libspeex/smallft.c ****   t4=ido;
 1682              		.loc 2 252 0
 1683 0574 FB68     		ldr	r3, [r7, #12]
 1684 0576 BB65     		str	r3, [r7, #88]
 253:STM32F10x_Speex_Lib/libspeex/smallft.c ****   t5=ido<<1;
 1685              		.loc 2 253 0
 1686 0578 FB68     		ldr	r3, [r7, #12]
 1687 057a 5B00     		lsls	r3, r3, #1
 1688 057c 7B65     		str	r3, [r7, #84]
 254:STM32F10x_Speex_Lib/libspeex/smallft.c ****   t6=ido;
 1689              		.loc 2 254 0
 1690 057e FB68     		ldr	r3, [r7, #12]
 1691 0580 3B65     		str	r3, [r7, #80]
 255:STM32F10x_Speex_Lib/libspeex/smallft.c **** 
 256:STM32F10x_Speex_Lib/libspeex/smallft.c ****   for(k=0;k<l1;k++){
 1692              		.loc 2 256 0
 1693 0582 0023     		movs	r3, #0
 1694 0584 BB66     		str	r3, [r7, #104]
 1695 0586 91E0     		b	.L62
ARM GAS  /var/folders/kh/x4vltyy52lbg7p4pcyglc5080000gp/T//ccKDo44O.s 			page 37


 1696              	.L63:
 257:STM32F10x_Speex_Lib/libspeex/smallft.c ****     ti1=-hsqt2*(cc[t1]+cc[t2]);
 1697              		.loc 2 257 0 discriminator 3
 1698 0588 4E4B     		ldr	r3, .L67
 1699 058a 1B68     		ldr	r3, [r3]	@ float
 1700 058c 83F00044 		eor	r4, r3, #-2147483648
 1701 0590 7B6E     		ldr	r3, [r7, #100]
 1702 0592 9B00     		lsls	r3, r3, #2
 1703 0594 7A68     		ldr	r2, [r7, #4]
 1704 0596 1344     		add	r3, r3, r2
 1705 0598 1868     		ldr	r0, [r3]	@ float
 1706 059a 3B6E     		ldr	r3, [r7, #96]
 1707 059c 9B00     		lsls	r3, r3, #2
 1708 059e 7A68     		ldr	r2, [r7, #4]
 1709 05a0 1344     		add	r3, r3, r2
 1710 05a2 1B68     		ldr	r3, [r3]	@ float
 1711 05a4 1946     		mov	r1, r3
 1712 05a6 FFF7FEFF 		bl	__aeabi_fadd
 1713 05aa 0346     		mov	r3, r0
 1714 05ac 1946     		mov	r1, r3
 1715 05ae 2046     		mov	r0, r4
 1716 05b0 FFF7FEFF 		bl	__aeabi_fmul
 1717 05b4 0346     		mov	r3, r0
 1718 05b6 7B62     		str	r3, [r7, #36]	@ float
 258:STM32F10x_Speex_Lib/libspeex/smallft.c ****     tr1=hsqt2*(cc[t1]-cc[t2]);
 1719              		.loc 2 258 0 discriminator 3
 1720 05b8 7B6E     		ldr	r3, [r7, #100]
 1721 05ba 9B00     		lsls	r3, r3, #2
 1722 05bc 7A68     		ldr	r2, [r7, #4]
 1723 05be 1344     		add	r3, r3, r2
 1724 05c0 1868     		ldr	r0, [r3]	@ float
 1725 05c2 3B6E     		ldr	r3, [r7, #96]
 1726 05c4 9B00     		lsls	r3, r3, #2
 1727 05c6 7A68     		ldr	r2, [r7, #4]
 1728 05c8 1344     		add	r3, r3, r2
 1729 05ca 1B68     		ldr	r3, [r3]	@ float
 1730 05cc 1946     		mov	r1, r3
 1731 05ce FFF7FEFF 		bl	__aeabi_fsub
 1732 05d2 0346     		mov	r3, r0
 1733 05d4 1A46     		mov	r2, r3
 1734 05d6 3B4B     		ldr	r3, .L67
 1735 05d8 1B68     		ldr	r3, [r3]	@ float
 1736 05da 1946     		mov	r1, r3
 1737 05dc 1046     		mov	r0, r2
 1738 05de FFF7FEFF 		bl	__aeabi_fmul
 1739 05e2 0346     		mov	r3, r0
 1740 05e4 BB64     		str	r3, [r7, #72]	@ float
 259:STM32F10x_Speex_Lib/libspeex/smallft.c **** 
 260:STM32F10x_Speex_Lib/libspeex/smallft.c ****     ch[t4-1]=tr1+cc[t6-1];
 1741              		.loc 2 260 0 discriminator 3
 1742 05e6 BB6D     		ldr	r3, [r7, #88]
 1743 05e8 03F18043 		add	r3, r3, #1073741824
 1744 05ec 013B     		subs	r3, r3, #1
 1745 05ee 9B00     		lsls	r3, r3, #2
 1746 05f0 3A68     		ldr	r2, [r7]
 1747 05f2 D418     		adds	r4, r2, r3
 1748 05f4 3B6D     		ldr	r3, [r7, #80]
ARM GAS  /var/folders/kh/x4vltyy52lbg7p4pcyglc5080000gp/T//ccKDo44O.s 			page 38


 1749 05f6 03F18043 		add	r3, r3, #1073741824
 1750 05fa 013B     		subs	r3, r3, #1
 1751 05fc 9B00     		lsls	r3, r3, #2
 1752 05fe 7A68     		ldr	r2, [r7, #4]
 1753 0600 1344     		add	r3, r3, r2
 1754 0602 1B68     		ldr	r3, [r3]	@ float
 1755 0604 B96C     		ldr	r1, [r7, #72]	@ float
 1756 0606 1846     		mov	r0, r3
 1757 0608 FFF7FEFF 		bl	__aeabi_fadd
 1758 060c 0346     		mov	r3, r0
 1759 060e 2360     		str	r3, [r4]	@ float
 261:STM32F10x_Speex_Lib/libspeex/smallft.c ****     ch[t4+t5-1]=cc[t6-1]-tr1;
 1760              		.loc 2 261 0 discriminator 3
 1761 0610 BA6D     		ldr	r2, [r7, #88]
 1762 0612 7B6D     		ldr	r3, [r7, #84]
 1763 0614 1344     		add	r3, r3, r2
 1764 0616 03F18043 		add	r3, r3, #1073741824
 1765 061a 013B     		subs	r3, r3, #1
 1766 061c 9B00     		lsls	r3, r3, #2
 1767 061e 3A68     		ldr	r2, [r7]
 1768 0620 D418     		adds	r4, r2, r3
 1769 0622 3B6D     		ldr	r3, [r7, #80]
 1770 0624 03F18043 		add	r3, r3, #1073741824
 1771 0628 013B     		subs	r3, r3, #1
 1772 062a 9B00     		lsls	r3, r3, #2
 1773 062c 7A68     		ldr	r2, [r7, #4]
 1774 062e 1344     		add	r3, r3, r2
 1775 0630 1B68     		ldr	r3, [r3]	@ float
 1776 0632 B96C     		ldr	r1, [r7, #72]	@ float
 1777 0634 1846     		mov	r0, r3
 1778 0636 FFF7FEFF 		bl	__aeabi_fsub
 1779 063a 0346     		mov	r3, r0
 1780 063c 2360     		str	r3, [r4]	@ float
 262:STM32F10x_Speex_Lib/libspeex/smallft.c **** 
 263:STM32F10x_Speex_Lib/libspeex/smallft.c ****     ch[t4]=ti1-cc[t1+t0];
 1781              		.loc 2 263 0 discriminator 3
 1782 063e BB6D     		ldr	r3, [r7, #88]
 1783 0640 9B00     		lsls	r3, r3, #2
 1784 0642 3A68     		ldr	r2, [r7]
 1785 0644 D418     		adds	r4, r2, r3
 1786 0646 7A6E     		ldr	r2, [r7, #100]
 1787 0648 FB6C     		ldr	r3, [r7, #76]
 1788 064a 1344     		add	r3, r3, r2
 1789 064c 9B00     		lsls	r3, r3, #2
 1790 064e 7A68     		ldr	r2, [r7, #4]
 1791 0650 1344     		add	r3, r3, r2
 1792 0652 1B68     		ldr	r3, [r3]	@ float
 1793 0654 1946     		mov	r1, r3
 1794 0656 786A     		ldr	r0, [r7, #36]	@ float
 1795 0658 FFF7FEFF 		bl	__aeabi_fsub
 1796 065c 0346     		mov	r3, r0
 1797 065e 2360     		str	r3, [r4]	@ float
 264:STM32F10x_Speex_Lib/libspeex/smallft.c ****     ch[t4+t5]=ti1+cc[t1+t0];
 1798              		.loc 2 264 0 discriminator 3
 1799 0660 BA6D     		ldr	r2, [r7, #88]
 1800 0662 7B6D     		ldr	r3, [r7, #84]
 1801 0664 1344     		add	r3, r3, r2
ARM GAS  /var/folders/kh/x4vltyy52lbg7p4pcyglc5080000gp/T//ccKDo44O.s 			page 39


 1802 0666 9B00     		lsls	r3, r3, #2
 1803 0668 3A68     		ldr	r2, [r7]
 1804 066a D418     		adds	r4, r2, r3
 1805 066c 7A6E     		ldr	r2, [r7, #100]
 1806 066e FB6C     		ldr	r3, [r7, #76]
 1807 0670 1344     		add	r3, r3, r2
 1808 0672 9B00     		lsls	r3, r3, #2
 1809 0674 7A68     		ldr	r2, [r7, #4]
 1810 0676 1344     		add	r3, r3, r2
 1811 0678 1B68     		ldr	r3, [r3]	@ float
 1812 067a 796A     		ldr	r1, [r7, #36]	@ float
 1813 067c 1846     		mov	r0, r3
 1814 067e FFF7FEFF 		bl	__aeabi_fadd
 1815 0682 0346     		mov	r3, r0
 1816 0684 2360     		str	r3, [r4]	@ float
 265:STM32F10x_Speex_Lib/libspeex/smallft.c **** 
 266:STM32F10x_Speex_Lib/libspeex/smallft.c ****     t1+=ido;
 1817              		.loc 2 266 0 discriminator 3
 1818 0686 7A6E     		ldr	r2, [r7, #100]
 1819 0688 FB68     		ldr	r3, [r7, #12]
 1820 068a 1344     		add	r3, r3, r2
 1821 068c 7B66     		str	r3, [r7, #100]
 267:STM32F10x_Speex_Lib/libspeex/smallft.c ****     t2+=ido;
 1822              		.loc 2 267 0 discriminator 3
 1823 068e 3A6E     		ldr	r2, [r7, #96]
 1824 0690 FB68     		ldr	r3, [r7, #12]
 1825 0692 1344     		add	r3, r3, r2
 1826 0694 3B66     		str	r3, [r7, #96]
 268:STM32F10x_Speex_Lib/libspeex/smallft.c ****     t4+=t3;
 1827              		.loc 2 268 0 discriminator 3
 1828 0696 BA6D     		ldr	r2, [r7, #88]
 1829 0698 FB6D     		ldr	r3, [r7, #92]
 1830 069a 1344     		add	r3, r3, r2
 1831 069c BB65     		str	r3, [r7, #88]
 269:STM32F10x_Speex_Lib/libspeex/smallft.c ****     t6+=ido;
 1832              		.loc 2 269 0 discriminator 3
 1833 069e 3A6D     		ldr	r2, [r7, #80]
 1834 06a0 FB68     		ldr	r3, [r7, #12]
 1835 06a2 1344     		add	r3, r3, r2
 1836 06a4 3B65     		str	r3, [r7, #80]
 256:STM32F10x_Speex_Lib/libspeex/smallft.c ****     ti1=-hsqt2*(cc[t1]+cc[t2]);
 1837              		.loc 2 256 0 discriminator 3
 1838 06a6 BB6E     		ldr	r3, [r7, #104]
 1839 06a8 0133     		adds	r3, r3, #1
 1840 06aa BB66     		str	r3, [r7, #104]
 1841              	.L62:
 256:STM32F10x_Speex_Lib/libspeex/smallft.c ****     ti1=-hsqt2*(cc[t1]+cc[t2]);
 1842              		.loc 2 256 0 is_stmt 0 discriminator 1
 1843 06ac BA6E     		ldr	r2, [r7, #104]
 1844 06ae BB68     		ldr	r3, [r7, #8]
 1845 06b0 9A42     		cmp	r2, r3
 1846 06b2 FFF669AF 		blt	.L63
 1847 06b6 02E0     		b	.L51
 1848              	.L64:
 198:STM32F10x_Speex_Lib/libspeex/smallft.c ****   if(ido==2)goto L105;
 1849              		.loc 2 198 0 is_stmt 1
 1850 06b8 00BF     		nop
ARM GAS  /var/folders/kh/x4vltyy52lbg7p4pcyglc5080000gp/T//ccKDo44O.s 			page 40


 1851 06ba 00E0     		b	.L51
 1852              	.L66:
 246:STM32F10x_Speex_Lib/libspeex/smallft.c **** 
 1853              		.loc 2 246 0
 1854 06bc 00BF     		nop
 1855              	.L51:
 270:STM32F10x_Speex_Lib/libspeex/smallft.c ****   }
 271:STM32F10x_Speex_Lib/libspeex/smallft.c **** }
 1856              		.loc 2 271 0
 1857 06be 7437     		adds	r7, r7, #116
 1858              	.LCFI28:
 1859              		.cfi_def_cfa_offset 12
 1860 06c0 BD46     		mov	sp, r7
 1861              	.LCFI29:
 1862              		.cfi_def_cfa_register 13
 1863              		@ sp needed
 1864 06c2 90BD     		pop	{r4, r7, pc}
 1865              	.L68:
 1866              		.align	2
 1867              	.L67:
 1868 06c4 00000000 		.word	hsqt2.5730
 1869              		.cfi_endproc
 1870              	.LFE12:
 1872              		.section	.text.dradfg,"ax",%progbits
 1873              		.align	2
 1874              		.thumb
 1875              		.thumb_func
 1877              	dradfg:
 1878              	.LFB13:
 272:STM32F10x_Speex_Lib/libspeex/smallft.c **** 
 273:STM32F10x_Speex_Lib/libspeex/smallft.c **** static void dradfg(int ido,int ip,int l1,int idl1,float *cc,float *c1,
 274:STM32F10x_Speex_Lib/libspeex/smallft.c ****                           float *c2,float *ch,float *ch2,float *wa){
 1879              		.loc 2 274 0
 1880              		.cfi_startproc
 1881              		@ args = 24, pretend = 0, frame = 152
 1882              		@ frame_needed = 1, uses_anonymous_args = 0
 1883 0000 B0B5     		push	{r4, r5, r7, lr}
 1884              	.LCFI30:
 1885              		.cfi_def_cfa_offset 16
 1886              		.cfi_offset 4, -16
 1887              		.cfi_offset 5, -12
 1888              		.cfi_offset 7, -8
 1889              		.cfi_offset 14, -4
 1890 0002 A6B0     		sub	sp, sp, #152
 1891              	.LCFI31:
 1892              		.cfi_def_cfa_offset 168
 1893 0004 00AF     		add	r7, sp, #0
 1894              	.LCFI32:
 1895              		.cfi_def_cfa_register 7
 1896 0006 F860     		str	r0, [r7, #12]
 1897 0008 B960     		str	r1, [r7, #8]
 1898 000a 7A60     		str	r2, [r7, #4]
 1899 000c 3B60     		str	r3, [r7]
 275:STM32F10x_Speex_Lib/libspeex/smallft.c **** 
 276:STM32F10x_Speex_Lib/libspeex/smallft.c ****   static float tpi=6.283185307179586f;
 277:STM32F10x_Speex_Lib/libspeex/smallft.c ****   int idij,ipph,i,j,k,l,ic,ik,is;
 278:STM32F10x_Speex_Lib/libspeex/smallft.c ****   int t0,t1,t2,t3,t4,t5,t6,t7,t8,t9,t10;
ARM GAS  /var/folders/kh/x4vltyy52lbg7p4pcyglc5080000gp/T//ccKDo44O.s 			page 41


 279:STM32F10x_Speex_Lib/libspeex/smallft.c ****   float dc2,ai1,ai2,ar1,ar2,ds2;
 280:STM32F10x_Speex_Lib/libspeex/smallft.c ****   int nbd;
 281:STM32F10x_Speex_Lib/libspeex/smallft.c ****   float dcp,arg,dsp,ar1h,ar2h;
 282:STM32F10x_Speex_Lib/libspeex/smallft.c ****   int idp2,ipp2;
 283:STM32F10x_Speex_Lib/libspeex/smallft.c ****   
 284:STM32F10x_Speex_Lib/libspeex/smallft.c ****   arg=tpi/(float)ip;
 1900              		.loc 2 284 0
 1901 000e B74B     		ldr	r3, .L160
 1902 0010 1C68     		ldr	r4, [r3]	@ float
 1903 0012 B868     		ldr	r0, [r7, #8]
 1904 0014 FFF7FEFF 		bl	__aeabi_i2f
 1905 0018 0346     		mov	r3, r0
 1906 001a 1946     		mov	r1, r3
 1907 001c 2046     		mov	r0, r4
 1908 001e FFF7FEFF 		bl	__aeabi_fdiv
 1909 0022 0346     		mov	r3, r0
 1910 0024 7B64     		str	r3, [r7, #68]	@ float
 285:STM32F10x_Speex_Lib/libspeex/smallft.c ****   dcp=cos(arg);
 1911              		.loc 2 285 0
 1912 0026 786C     		ldr	r0, [r7, #68]	@ float
 1913 0028 FFF7FEFF 		bl	__aeabi_f2d
 1914 002c 0346     		mov	r3, r0
 1915 002e 0C46     		mov	r4, r1
 1916 0030 1846     		mov	r0, r3
 1917 0032 2146     		mov	r1, r4
 1918 0034 FFF7FEFF 		bl	cos
 1919 0038 0346     		mov	r3, r0
 1920 003a 0C46     		mov	r4, r1
 1921 003c 1846     		mov	r0, r3
 1922 003e 2146     		mov	r1, r4
 1923 0040 FFF7FEFF 		bl	__aeabi_d2f
 1924 0044 0346     		mov	r3, r0
 1925 0046 3B64     		str	r3, [r7, #64]	@ float
 286:STM32F10x_Speex_Lib/libspeex/smallft.c ****   dsp=sin(arg);
 1926              		.loc 2 286 0
 1927 0048 786C     		ldr	r0, [r7, #68]	@ float
 1928 004a FFF7FEFF 		bl	__aeabi_f2d
 1929 004e 0346     		mov	r3, r0
 1930 0050 0C46     		mov	r4, r1
 1931 0052 1846     		mov	r0, r3
 1932 0054 2146     		mov	r1, r4
 1933 0056 FFF7FEFF 		bl	sin
 1934 005a 0346     		mov	r3, r0
 1935 005c 0C46     		mov	r4, r1
 1936 005e 1846     		mov	r0, r3
 1937 0060 2146     		mov	r1, r4
 1938 0062 FFF7FEFF 		bl	__aeabi_d2f
 1939 0066 0346     		mov	r3, r0
 1940 0068 FB63     		str	r3, [r7, #60]	@ float
 287:STM32F10x_Speex_Lib/libspeex/smallft.c ****   ipph=(ip+1)>>1;
 1941              		.loc 2 287 0
 1942 006a BB68     		ldr	r3, [r7, #8]
 1943 006c 0133     		adds	r3, r3, #1
 1944 006e 5B10     		asrs	r3, r3, #1
 1945 0070 BB63     		str	r3, [r7, #56]
 288:STM32F10x_Speex_Lib/libspeex/smallft.c ****   ipp2=ip;
 1946              		.loc 2 288 0
ARM GAS  /var/folders/kh/x4vltyy52lbg7p4pcyglc5080000gp/T//ccKDo44O.s 			page 42


 1947 0072 BB68     		ldr	r3, [r7, #8]
 1948 0074 7B63     		str	r3, [r7, #52]
 289:STM32F10x_Speex_Lib/libspeex/smallft.c ****   idp2=ido;
 1949              		.loc 2 289 0
 1950 0076 FB68     		ldr	r3, [r7, #12]
 1951 0078 3B63     		str	r3, [r7, #48]
 290:STM32F10x_Speex_Lib/libspeex/smallft.c ****   nbd=(ido-1)>>1;
 1952              		.loc 2 290 0
 1953 007a FB68     		ldr	r3, [r7, #12]
 1954 007c 013B     		subs	r3, r3, #1
 1955 007e 5B10     		asrs	r3, r3, #1
 1956 0080 FB62     		str	r3, [r7, #44]
 291:STM32F10x_Speex_Lib/libspeex/smallft.c ****   t0=l1*ido;
 1957              		.loc 2 291 0
 1958 0082 7B68     		ldr	r3, [r7, #4]
 1959 0084 FA68     		ldr	r2, [r7, #12]
 1960 0086 02FB03F3 		mul	r3, r2, r3
 1961 008a BB62     		str	r3, [r7, #40]
 292:STM32F10x_Speex_Lib/libspeex/smallft.c ****   t10=ip*ido;
 1962              		.loc 2 292 0
 1963 008c BB68     		ldr	r3, [r7, #8]
 1964 008e FA68     		ldr	r2, [r7, #12]
 1965 0090 02FB03F3 		mul	r3, r2, r3
 1966 0094 7B62     		str	r3, [r7, #36]
 293:STM32F10x_Speex_Lib/libspeex/smallft.c **** 
 294:STM32F10x_Speex_Lib/libspeex/smallft.c ****   if(ido==1)goto L119;
 1967              		.loc 2 294 0
 1968 0096 FB68     		ldr	r3, [r7, #12]
 1969 0098 012B     		cmp	r3, #1
 1970 009a 00F04083 		beq	.L156
 295:STM32F10x_Speex_Lib/libspeex/smallft.c ****   for(ik=0;ik<idl1;ik++)ch2[ik]=c2[ik];
 1971              		.loc 2 295 0
 1972 009e 0023     		movs	r3, #0
 1973 00a0 C7F88030 		str	r3, [r7, #128]
 1974 00a4 12E0     		b	.L72
 1975              	.L73:
 1976              		.loc 2 295 0 is_stmt 0 discriminator 3
 1977 00a6 D7F88030 		ldr	r3, [r7, #128]
 1978 00aa 9B00     		lsls	r3, r3, #2
 1979 00ac D7F8B820 		ldr	r2, [r7, #184]
 1980 00b0 1344     		add	r3, r3, r2
 1981 00b2 D7F88020 		ldr	r2, [r7, #128]
 1982 00b6 9200     		lsls	r2, r2, #2
 1983 00b8 D7F8B010 		ldr	r1, [r7, #176]
 1984 00bc 0A44     		add	r2, r2, r1
 1985 00be 1268     		ldr	r2, [r2]	@ float
 1986 00c0 1A60     		str	r2, [r3]	@ float
 1987 00c2 D7F88030 		ldr	r3, [r7, #128]
 1988 00c6 0133     		adds	r3, r3, #1
 1989 00c8 C7F88030 		str	r3, [r7, #128]
 1990              	.L72:
 1991              		.loc 2 295 0 discriminator 1
 1992 00cc D7F88020 		ldr	r2, [r7, #128]
 1993 00d0 3B68     		ldr	r3, [r7]
 1994 00d2 9A42     		cmp	r2, r3
 1995 00d4 E7DB     		blt	.L73
 296:STM32F10x_Speex_Lib/libspeex/smallft.c **** 
ARM GAS  /var/folders/kh/x4vltyy52lbg7p4pcyglc5080000gp/T//ccKDo44O.s 			page 43


 297:STM32F10x_Speex_Lib/libspeex/smallft.c ****   t1=0;
 1996              		.loc 2 297 0 is_stmt 1
 1997 00d6 0023     		movs	r3, #0
 1998 00d8 BB67     		str	r3, [r7, #120]
 298:STM32F10x_Speex_Lib/libspeex/smallft.c ****   for(j=1;j<ip;j++){
 1999              		.loc 2 298 0
 2000 00da 0123     		movs	r3, #1
 2001 00dc C7F88C30 		str	r3, [r7, #140]
 2002 00e0 28E0     		b	.L74
 2003              	.L77:
 299:STM32F10x_Speex_Lib/libspeex/smallft.c ****     t1+=t0;
 2004              		.loc 2 299 0
 2005 00e2 BA6F     		ldr	r2, [r7, #120]
 2006 00e4 BB6A     		ldr	r3, [r7, #40]
 2007 00e6 1344     		add	r3, r3, r2
 2008 00e8 BB67     		str	r3, [r7, #120]
 300:STM32F10x_Speex_Lib/libspeex/smallft.c ****     t2=t1;
 2009              		.loc 2 300 0
 2010 00ea BB6F     		ldr	r3, [r7, #120]
 2011 00ec 7B67     		str	r3, [r7, #116]
 301:STM32F10x_Speex_Lib/libspeex/smallft.c ****     for(k=0;k<l1;k++){
 2012              		.loc 2 301 0
 2013 00ee 0023     		movs	r3, #0
 2014 00f0 C7F88830 		str	r3, [r7, #136]
 2015 00f4 14E0     		b	.L75
 2016              	.L76:
 302:STM32F10x_Speex_Lib/libspeex/smallft.c ****       ch[t2]=c1[t2];
 2017              		.loc 2 302 0 discriminator 3
 2018 00f6 7B6F     		ldr	r3, [r7, #116]
 2019 00f8 9B00     		lsls	r3, r3, #2
 2020 00fa D7F8B420 		ldr	r2, [r7, #180]
 2021 00fe 1344     		add	r3, r3, r2
 2022 0100 7A6F     		ldr	r2, [r7, #116]
 2023 0102 9200     		lsls	r2, r2, #2
 2024 0104 D7F8AC10 		ldr	r1, [r7, #172]
 2025 0108 0A44     		add	r2, r2, r1
 2026 010a 1268     		ldr	r2, [r2]	@ float
 2027 010c 1A60     		str	r2, [r3]	@ float
 303:STM32F10x_Speex_Lib/libspeex/smallft.c ****       t2+=ido;
 2028              		.loc 2 303 0 discriminator 3
 2029 010e 7A6F     		ldr	r2, [r7, #116]
 2030 0110 FB68     		ldr	r3, [r7, #12]
 2031 0112 1344     		add	r3, r3, r2
 2032 0114 7B67     		str	r3, [r7, #116]
 301:STM32F10x_Speex_Lib/libspeex/smallft.c ****     for(k=0;k<l1;k++){
 2033              		.loc 2 301 0 discriminator 3
 2034 0116 D7F88830 		ldr	r3, [r7, #136]
 2035 011a 0133     		adds	r3, r3, #1
 2036 011c C7F88830 		str	r3, [r7, #136]
 2037              	.L75:
 301:STM32F10x_Speex_Lib/libspeex/smallft.c ****     for(k=0;k<l1;k++){
 2038              		.loc 2 301 0 is_stmt 0 discriminator 1
 2039 0120 D7F88820 		ldr	r2, [r7, #136]
 2040 0124 7B68     		ldr	r3, [r7, #4]
 2041 0126 9A42     		cmp	r2, r3
 2042 0128 E5DB     		blt	.L76
 298:STM32F10x_Speex_Lib/libspeex/smallft.c ****     t1+=t0;
ARM GAS  /var/folders/kh/x4vltyy52lbg7p4pcyglc5080000gp/T//ccKDo44O.s 			page 44


 2043              		.loc 2 298 0 is_stmt 1 discriminator 2
 2044 012a D7F88C30 		ldr	r3, [r7, #140]
 2045 012e 0133     		adds	r3, r3, #1
 2046 0130 C7F88C30 		str	r3, [r7, #140]
 2047              	.L74:
 298:STM32F10x_Speex_Lib/libspeex/smallft.c ****     t1+=t0;
 2048              		.loc 2 298 0 is_stmt 0 discriminator 1
 2049 0134 D7F88C20 		ldr	r2, [r7, #140]
 2050 0138 BB68     		ldr	r3, [r7, #8]
 2051 013a 9A42     		cmp	r2, r3
 2052 013c D1DB     		blt	.L77
 304:STM32F10x_Speex_Lib/libspeex/smallft.c ****     }
 305:STM32F10x_Speex_Lib/libspeex/smallft.c ****   }
 306:STM32F10x_Speex_Lib/libspeex/smallft.c **** 
 307:STM32F10x_Speex_Lib/libspeex/smallft.c ****   is=-ido;
 2053              		.loc 2 307 0 is_stmt 1
 2054 013e FB68     		ldr	r3, [r7, #12]
 2055 0140 5B42     		negs	r3, r3
 2056 0142 FB67     		str	r3, [r7, #124]
 308:STM32F10x_Speex_Lib/libspeex/smallft.c ****   t1=0;
 2057              		.loc 2 308 0
 2058 0144 0023     		movs	r3, #0
 2059 0146 BB67     		str	r3, [r7, #120]
 309:STM32F10x_Speex_Lib/libspeex/smallft.c ****   if(nbd>l1){
 2060              		.loc 2 309 0
 2061 0148 FA6A     		ldr	r2, [r7, #44]
 2062 014a 7B68     		ldr	r3, [r7, #4]
 2063 014c 9A42     		cmp	r2, r3
 2064 014e 40F3B680 		ble	.L78
 310:STM32F10x_Speex_Lib/libspeex/smallft.c ****     for(j=1;j<ip;j++){
 2065              		.loc 2 310 0
 2066 0152 0123     		movs	r3, #1
 2067 0154 C7F88C30 		str	r3, [r7, #140]
 2068 0158 AAE0     		b	.L79
 2069              	.L84:
 311:STM32F10x_Speex_Lib/libspeex/smallft.c ****       t1+=t0;
 2070              		.loc 2 311 0
 2071 015a BA6F     		ldr	r2, [r7, #120]
 2072 015c BB6A     		ldr	r3, [r7, #40]
 2073 015e 1344     		add	r3, r3, r2
 2074 0160 BB67     		str	r3, [r7, #120]
 312:STM32F10x_Speex_Lib/libspeex/smallft.c ****       is+=ido;
 2075              		.loc 2 312 0
 2076 0162 FA6F     		ldr	r2, [r7, #124]
 2077 0164 FB68     		ldr	r3, [r7, #12]
 2078 0166 1344     		add	r3, r3, r2
 2079 0168 FB67     		str	r3, [r7, #124]
 313:STM32F10x_Speex_Lib/libspeex/smallft.c ****       t2= -ido+t1;
 2080              		.loc 2 313 0
 2081 016a BA6F     		ldr	r2, [r7, #120]
 2082 016c FB68     		ldr	r3, [r7, #12]
 2083 016e D31A     		subs	r3, r2, r3
 2084 0170 7B67     		str	r3, [r7, #116]
 314:STM32F10x_Speex_Lib/libspeex/smallft.c ****       for(k=0;k<l1;k++){
 2085              		.loc 2 314 0
 2086 0172 0023     		movs	r3, #0
 2087 0174 C7F88830 		str	r3, [r7, #136]
ARM GAS  /var/folders/kh/x4vltyy52lbg7p4pcyglc5080000gp/T//ccKDo44O.s 			page 45


 2088 0178 8FE0     		b	.L80
 2089              	.L83:
 315:STM32F10x_Speex_Lib/libspeex/smallft.c ****         idij=is-1;
 2090              		.loc 2 315 0
 2091 017a FB6F     		ldr	r3, [r7, #124]
 2092 017c 013B     		subs	r3, r3, #1
 2093 017e C7F89430 		str	r3, [r7, #148]
 316:STM32F10x_Speex_Lib/libspeex/smallft.c ****         t2+=ido;
 2094              		.loc 2 316 0
 2095 0182 7A6F     		ldr	r2, [r7, #116]
 2096 0184 FB68     		ldr	r3, [r7, #12]
 2097 0186 1344     		add	r3, r3, r2
 2098 0188 7B67     		str	r3, [r7, #116]
 317:STM32F10x_Speex_Lib/libspeex/smallft.c ****         t3=t2;
 2099              		.loc 2 317 0
 2100 018a 7B6F     		ldr	r3, [r7, #116]
 2101 018c 3B67     		str	r3, [r7, #112]
 318:STM32F10x_Speex_Lib/libspeex/smallft.c ****         for(i=2;i<ido;i+=2){
 2102              		.loc 2 318 0
 2103 018e 0223     		movs	r3, #2
 2104 0190 C7F89030 		str	r3, [r7, #144]
 2105 0194 77E0     		b	.L81
 2106              	.L82:
 319:STM32F10x_Speex_Lib/libspeex/smallft.c ****           idij+=2;
 2107              		.loc 2 319 0 discriminator 3
 2108 0196 D7F89430 		ldr	r3, [r7, #148]
 2109 019a 0233     		adds	r3, r3, #2
 2110 019c C7F89430 		str	r3, [r7, #148]
 320:STM32F10x_Speex_Lib/libspeex/smallft.c ****           t3+=2;
 2111              		.loc 2 320 0 discriminator 3
 2112 01a0 3B6F     		ldr	r3, [r7, #112]
 2113 01a2 0233     		adds	r3, r3, #2
 2114 01a4 3B67     		str	r3, [r7, #112]
 321:STM32F10x_Speex_Lib/libspeex/smallft.c ****           ch[t3-1]=wa[idij-1]*c1[t3-1]+wa[idij]*c1[t3];
 2115              		.loc 2 321 0 discriminator 3
 2116 01a6 3B6F     		ldr	r3, [r7, #112]
 2117 01a8 03F18043 		add	r3, r3, #1073741824
 2118 01ac 013B     		subs	r3, r3, #1
 2119 01ae 9B00     		lsls	r3, r3, #2
 2120 01b0 D7F8B420 		ldr	r2, [r7, #180]
 2121 01b4 D418     		adds	r4, r2, r3
 2122 01b6 D7F89430 		ldr	r3, [r7, #148]
 2123 01ba 03F18043 		add	r3, r3, #1073741824
 2124 01be 013B     		subs	r3, r3, #1
 2125 01c0 9B00     		lsls	r3, r3, #2
 2126 01c2 D7F8BC20 		ldr	r2, [r7, #188]
 2127 01c6 1344     		add	r3, r3, r2
 2128 01c8 1868     		ldr	r0, [r3]	@ float
 2129 01ca 3B6F     		ldr	r3, [r7, #112]
 2130 01cc 03F18043 		add	r3, r3, #1073741824
 2131 01d0 013B     		subs	r3, r3, #1
 2132 01d2 9B00     		lsls	r3, r3, #2
 2133 01d4 D7F8AC20 		ldr	r2, [r7, #172]
 2134 01d8 1344     		add	r3, r3, r2
 2135 01da 1B68     		ldr	r3, [r3]	@ float
 2136 01dc 1946     		mov	r1, r3
 2137 01de FFF7FEFF 		bl	__aeabi_fmul
ARM GAS  /var/folders/kh/x4vltyy52lbg7p4pcyglc5080000gp/T//ccKDo44O.s 			page 46


 2138 01e2 0346     		mov	r3, r0
 2139 01e4 1D46     		mov	r5, r3
 2140 01e6 D7F89430 		ldr	r3, [r7, #148]
 2141 01ea 9B00     		lsls	r3, r3, #2
 2142 01ec D7F8BC20 		ldr	r2, [r7, #188]
 2143 01f0 1344     		add	r3, r3, r2
 2144 01f2 1868     		ldr	r0, [r3]	@ float
 2145 01f4 3B6F     		ldr	r3, [r7, #112]
 2146 01f6 9B00     		lsls	r3, r3, #2
 2147 01f8 D7F8AC20 		ldr	r2, [r7, #172]
 2148 01fc 1344     		add	r3, r3, r2
 2149 01fe 1B68     		ldr	r3, [r3]	@ float
 2150 0200 1946     		mov	r1, r3
 2151 0202 FFF7FEFF 		bl	__aeabi_fmul
 2152 0206 0346     		mov	r3, r0
 2153 0208 1946     		mov	r1, r3
 2154 020a 2846     		mov	r0, r5
 2155 020c FFF7FEFF 		bl	__aeabi_fadd
 2156 0210 0346     		mov	r3, r0
 2157 0212 2360     		str	r3, [r4]	@ float
 322:STM32F10x_Speex_Lib/libspeex/smallft.c ****           ch[t3]=wa[idij-1]*c1[t3]-wa[idij]*c1[t3-1];
 2158              		.loc 2 322 0 discriminator 3
 2159 0214 3B6F     		ldr	r3, [r7, #112]
 2160 0216 9B00     		lsls	r3, r3, #2
 2161 0218 D7F8B420 		ldr	r2, [r7, #180]
 2162 021c D418     		adds	r4, r2, r3
 2163 021e D7F89430 		ldr	r3, [r7, #148]
 2164 0222 03F18043 		add	r3, r3, #1073741824
 2165 0226 013B     		subs	r3, r3, #1
 2166 0228 9B00     		lsls	r3, r3, #2
 2167 022a D7F8BC20 		ldr	r2, [r7, #188]
 2168 022e 1344     		add	r3, r3, r2
 2169 0230 1868     		ldr	r0, [r3]	@ float
 2170 0232 3B6F     		ldr	r3, [r7, #112]
 2171 0234 9B00     		lsls	r3, r3, #2
 2172 0236 D7F8AC20 		ldr	r2, [r7, #172]
 2173 023a 1344     		add	r3, r3, r2
 2174 023c 1B68     		ldr	r3, [r3]	@ float
 2175 023e 1946     		mov	r1, r3
 2176 0240 FFF7FEFF 		bl	__aeabi_fmul
 2177 0244 0346     		mov	r3, r0
 2178 0246 1D46     		mov	r5, r3
 2179 0248 D7F89430 		ldr	r3, [r7, #148]
 2180 024c 9B00     		lsls	r3, r3, #2
 2181 024e D7F8BC20 		ldr	r2, [r7, #188]
 2182 0252 1344     		add	r3, r3, r2
 2183 0254 1868     		ldr	r0, [r3]	@ float
 2184 0256 3B6F     		ldr	r3, [r7, #112]
 2185 0258 03F18043 		add	r3, r3, #1073741824
 2186 025c 013B     		subs	r3, r3, #1
 2187 025e 9B00     		lsls	r3, r3, #2
 2188 0260 D7F8AC20 		ldr	r2, [r7, #172]
 2189 0264 1344     		add	r3, r3, r2
 2190 0266 1B68     		ldr	r3, [r3]	@ float
 2191 0268 1946     		mov	r1, r3
 2192 026a FFF7FEFF 		bl	__aeabi_fmul
 2193 026e 0346     		mov	r3, r0
ARM GAS  /var/folders/kh/x4vltyy52lbg7p4pcyglc5080000gp/T//ccKDo44O.s 			page 47


 2194 0270 1946     		mov	r1, r3
 2195 0272 2846     		mov	r0, r5
 2196 0274 FFF7FEFF 		bl	__aeabi_fsub
 2197 0278 0346     		mov	r3, r0
 2198 027a 2360     		str	r3, [r4]	@ float
 318:STM32F10x_Speex_Lib/libspeex/smallft.c ****           idij+=2;
 2199              		.loc 2 318 0 discriminator 3
 2200 027c D7F89030 		ldr	r3, [r7, #144]
 2201 0280 0233     		adds	r3, r3, #2
 2202 0282 C7F89030 		str	r3, [r7, #144]
 2203              	.L81:
 318:STM32F10x_Speex_Lib/libspeex/smallft.c ****           idij+=2;
 2204              		.loc 2 318 0 is_stmt 0 discriminator 1
 2205 0286 D7F89020 		ldr	r2, [r7, #144]
 2206 028a FB68     		ldr	r3, [r7, #12]
 2207 028c 9A42     		cmp	r2, r3
 2208 028e 82DB     		blt	.L82
 314:STM32F10x_Speex_Lib/libspeex/smallft.c ****         idij=is-1;
 2209              		.loc 2 314 0 is_stmt 1 discriminator 2
 2210 0290 D7F88830 		ldr	r3, [r7, #136]
 2211 0294 0133     		adds	r3, r3, #1
 2212 0296 C7F88830 		str	r3, [r7, #136]
 2213              	.L80:
 314:STM32F10x_Speex_Lib/libspeex/smallft.c ****         idij=is-1;
 2214              		.loc 2 314 0 is_stmt 0 discriminator 1
 2215 029a D7F88820 		ldr	r2, [r7, #136]
 2216 029e 7B68     		ldr	r3, [r7, #4]
 2217 02a0 9A42     		cmp	r2, r3
 2218 02a2 FFF66AAF 		blt	.L83
 310:STM32F10x_Speex_Lib/libspeex/smallft.c ****       t1+=t0;
 2219              		.loc 2 310 0 is_stmt 1 discriminator 2
 2220 02a6 D7F88C30 		ldr	r3, [r7, #140]
 2221 02aa 0133     		adds	r3, r3, #1
 2222 02ac C7F88C30 		str	r3, [r7, #140]
 2223              	.L79:
 310:STM32F10x_Speex_Lib/libspeex/smallft.c ****       t1+=t0;
 2224              		.loc 2 310 0 is_stmt 0 discriminator 1
 2225 02b0 D7F88C20 		ldr	r2, [r7, #140]
 2226 02b4 BB68     		ldr	r3, [r7, #8]
 2227 02b6 9A42     		cmp	r2, r3
 2228 02b8 FFF64FAF 		blt	.L84
 2229 02bc B5E0     		b	.L85
 2230              	.L78:
 323:STM32F10x_Speex_Lib/libspeex/smallft.c ****         }
 324:STM32F10x_Speex_Lib/libspeex/smallft.c ****       }
 325:STM32F10x_Speex_Lib/libspeex/smallft.c ****     }
 326:STM32F10x_Speex_Lib/libspeex/smallft.c ****   }else{
 327:STM32F10x_Speex_Lib/libspeex/smallft.c **** 
 328:STM32F10x_Speex_Lib/libspeex/smallft.c ****     for(j=1;j<ip;j++){
 2231              		.loc 2 328 0 is_stmt 1
 2232 02be 0123     		movs	r3, #1
 2233 02c0 C7F88C30 		str	r3, [r7, #140]
 2234 02c4 ABE0     		b	.L86
 2235              	.L91:
 329:STM32F10x_Speex_Lib/libspeex/smallft.c ****       is+=ido;
 2236              		.loc 2 329 0
 2237 02c6 FA6F     		ldr	r2, [r7, #124]
ARM GAS  /var/folders/kh/x4vltyy52lbg7p4pcyglc5080000gp/T//ccKDo44O.s 			page 48


 2238 02c8 FB68     		ldr	r3, [r7, #12]
 2239 02ca 1344     		add	r3, r3, r2
 2240 02cc FB67     		str	r3, [r7, #124]
 330:STM32F10x_Speex_Lib/libspeex/smallft.c ****       idij=is-1;
 2241              		.loc 2 330 0
 2242 02ce FB6F     		ldr	r3, [r7, #124]
 2243 02d0 013B     		subs	r3, r3, #1
 2244 02d2 C7F89430 		str	r3, [r7, #148]
 331:STM32F10x_Speex_Lib/libspeex/smallft.c ****       t1+=t0;
 2245              		.loc 2 331 0
 2246 02d6 BA6F     		ldr	r2, [r7, #120]
 2247 02d8 BB6A     		ldr	r3, [r7, #40]
 2248 02da 1344     		add	r3, r3, r2
 2249 02dc BB67     		str	r3, [r7, #120]
 332:STM32F10x_Speex_Lib/libspeex/smallft.c ****       t2=t1;
 2250              		.loc 2 332 0
 2251 02de BB6F     		ldr	r3, [r7, #120]
 2252 02e0 7B67     		str	r3, [r7, #116]
 333:STM32F10x_Speex_Lib/libspeex/smallft.c ****       for(i=2;i<ido;i+=2){
 2253              		.loc 2 333 0
 2254 02e2 0223     		movs	r3, #2
 2255 02e4 C7F89030 		str	r3, [r7, #144]
 2256 02e8 8EE0     		b	.L87
 2257              	.L161:
 2258 02ea 00BF     		.align	2
 2259              	.L160:
 2260 02ec 00000000 		.word	tpi.5779
 2261              	.L90:
 334:STM32F10x_Speex_Lib/libspeex/smallft.c ****         idij+=2;
 2262              		.loc 2 334 0
 2263 02f0 D7F89430 		ldr	r3, [r7, #148]
 2264 02f4 0233     		adds	r3, r3, #2
 2265 02f6 C7F89430 		str	r3, [r7, #148]
 335:STM32F10x_Speex_Lib/libspeex/smallft.c ****         t2+=2;
 2266              		.loc 2 335 0
 2267 02fa 7B6F     		ldr	r3, [r7, #116]
 2268 02fc 0233     		adds	r3, r3, #2
 2269 02fe 7B67     		str	r3, [r7, #116]
 336:STM32F10x_Speex_Lib/libspeex/smallft.c ****         t3=t2;
 2270              		.loc 2 336 0
 2271 0300 7B6F     		ldr	r3, [r7, #116]
 2272 0302 3B67     		str	r3, [r7, #112]
 337:STM32F10x_Speex_Lib/libspeex/smallft.c ****         for(k=0;k<l1;k++){
 2273              		.loc 2 337 0
 2274 0304 0023     		movs	r3, #0
 2275 0306 C7F88830 		str	r3, [r7, #136]
 2276 030a 73E0     		b	.L88
 2277              	.L89:
 338:STM32F10x_Speex_Lib/libspeex/smallft.c ****           ch[t3-1]=wa[idij-1]*c1[t3-1]+wa[idij]*c1[t3];
 2278              		.loc 2 338 0 discriminator 3
 2279 030c 3B6F     		ldr	r3, [r7, #112]
 2280 030e 03F18043 		add	r3, r3, #1073741824
 2281 0312 013B     		subs	r3, r3, #1
 2282 0314 9B00     		lsls	r3, r3, #2
 2283 0316 D7F8B420 		ldr	r2, [r7, #180]
 2284 031a D418     		adds	r4, r2, r3
 2285 031c D7F89430 		ldr	r3, [r7, #148]
ARM GAS  /var/folders/kh/x4vltyy52lbg7p4pcyglc5080000gp/T//ccKDo44O.s 			page 49


 2286 0320 03F18043 		add	r3, r3, #1073741824
 2287 0324 013B     		subs	r3, r3, #1
 2288 0326 9B00     		lsls	r3, r3, #2
 2289 0328 D7F8BC20 		ldr	r2, [r7, #188]
 2290 032c 1344     		add	r3, r3, r2
 2291 032e 1868     		ldr	r0, [r3]	@ float
 2292 0330 3B6F     		ldr	r3, [r7, #112]
 2293 0332 03F18043 		add	r3, r3, #1073741824
 2294 0336 013B     		subs	r3, r3, #1
 2295 0338 9B00     		lsls	r3, r3, #2
 2296 033a D7F8AC20 		ldr	r2, [r7, #172]
 2297 033e 1344     		add	r3, r3, r2
 2298 0340 1B68     		ldr	r3, [r3]	@ float
 2299 0342 1946     		mov	r1, r3
 2300 0344 FFF7FEFF 		bl	__aeabi_fmul
 2301 0348 0346     		mov	r3, r0
 2302 034a 1D46     		mov	r5, r3
 2303 034c D7F89430 		ldr	r3, [r7, #148]
 2304 0350 9B00     		lsls	r3, r3, #2
 2305 0352 D7F8BC20 		ldr	r2, [r7, #188]
 2306 0356 1344     		add	r3, r3, r2
 2307 0358 1868     		ldr	r0, [r3]	@ float
 2308 035a 3B6F     		ldr	r3, [r7, #112]
 2309 035c 9B00     		lsls	r3, r3, #2
 2310 035e D7F8AC20 		ldr	r2, [r7, #172]
 2311 0362 1344     		add	r3, r3, r2
 2312 0364 1B68     		ldr	r3, [r3]	@ float
 2313 0366 1946     		mov	r1, r3
 2314 0368 FFF7FEFF 		bl	__aeabi_fmul
 2315 036c 0346     		mov	r3, r0
 2316 036e 1946     		mov	r1, r3
 2317 0370 2846     		mov	r0, r5
 2318 0372 FFF7FEFF 		bl	__aeabi_fadd
 2319 0376 0346     		mov	r3, r0
 2320 0378 2360     		str	r3, [r4]	@ float
 339:STM32F10x_Speex_Lib/libspeex/smallft.c ****           ch[t3]=wa[idij-1]*c1[t3]-wa[idij]*c1[t3-1];
 2321              		.loc 2 339 0 discriminator 3
 2322 037a 3B6F     		ldr	r3, [r7, #112]
 2323 037c 9B00     		lsls	r3, r3, #2
 2324 037e D7F8B420 		ldr	r2, [r7, #180]
 2325 0382 D418     		adds	r4, r2, r3
 2326 0384 D7F89430 		ldr	r3, [r7, #148]
 2327 0388 03F18043 		add	r3, r3, #1073741824
 2328 038c 013B     		subs	r3, r3, #1
 2329 038e 9B00     		lsls	r3, r3, #2
 2330 0390 D7F8BC20 		ldr	r2, [r7, #188]
 2331 0394 1344     		add	r3, r3, r2
 2332 0396 1868     		ldr	r0, [r3]	@ float
 2333 0398 3B6F     		ldr	r3, [r7, #112]
 2334 039a 9B00     		lsls	r3, r3, #2
 2335 039c D7F8AC20 		ldr	r2, [r7, #172]
 2336 03a0 1344     		add	r3, r3, r2
 2337 03a2 1B68     		ldr	r3, [r3]	@ float
 2338 03a4 1946     		mov	r1, r3
 2339 03a6 FFF7FEFF 		bl	__aeabi_fmul
 2340 03aa 0346     		mov	r3, r0
 2341 03ac 1D46     		mov	r5, r3
ARM GAS  /var/folders/kh/x4vltyy52lbg7p4pcyglc5080000gp/T//ccKDo44O.s 			page 50


 2342 03ae D7F89430 		ldr	r3, [r7, #148]
 2343 03b2 9B00     		lsls	r3, r3, #2
 2344 03b4 D7F8BC20 		ldr	r2, [r7, #188]
 2345 03b8 1344     		add	r3, r3, r2
 2346 03ba 1868     		ldr	r0, [r3]	@ float
 2347 03bc 3B6F     		ldr	r3, [r7, #112]
 2348 03be 03F18043 		add	r3, r3, #1073741824
 2349 03c2 013B     		subs	r3, r3, #1
 2350 03c4 9B00     		lsls	r3, r3, #2
 2351 03c6 D7F8AC20 		ldr	r2, [r7, #172]
 2352 03ca 1344     		add	r3, r3, r2
 2353 03cc 1B68     		ldr	r3, [r3]	@ float
 2354 03ce 1946     		mov	r1, r3
 2355 03d0 FFF7FEFF 		bl	__aeabi_fmul
 2356 03d4 0346     		mov	r3, r0
 2357 03d6 1946     		mov	r1, r3
 2358 03d8 2846     		mov	r0, r5
 2359 03da FFF7FEFF 		bl	__aeabi_fsub
 2360 03de 0346     		mov	r3, r0
 2361 03e0 2360     		str	r3, [r4]	@ float
 340:STM32F10x_Speex_Lib/libspeex/smallft.c ****           t3+=ido;
 2362              		.loc 2 340 0 discriminator 3
 2363 03e2 3A6F     		ldr	r2, [r7, #112]
 2364 03e4 FB68     		ldr	r3, [r7, #12]
 2365 03e6 1344     		add	r3, r3, r2
 2366 03e8 3B67     		str	r3, [r7, #112]
 337:STM32F10x_Speex_Lib/libspeex/smallft.c ****           ch[t3-1]=wa[idij-1]*c1[t3-1]+wa[idij]*c1[t3];
 2367              		.loc 2 337 0 discriminator 3
 2368 03ea D7F88830 		ldr	r3, [r7, #136]
 2369 03ee 0133     		adds	r3, r3, #1
 2370 03f0 C7F88830 		str	r3, [r7, #136]
 2371              	.L88:
 337:STM32F10x_Speex_Lib/libspeex/smallft.c ****           ch[t3-1]=wa[idij-1]*c1[t3-1]+wa[idij]*c1[t3];
 2372              		.loc 2 337 0 is_stmt 0 discriminator 1
 2373 03f4 D7F88820 		ldr	r2, [r7, #136]
 2374 03f8 7B68     		ldr	r3, [r7, #4]
 2375 03fa 9A42     		cmp	r2, r3
 2376 03fc 86DB     		blt	.L89
 333:STM32F10x_Speex_Lib/libspeex/smallft.c ****         idij+=2;
 2377              		.loc 2 333 0 is_stmt 1 discriminator 2
 2378 03fe D7F89030 		ldr	r3, [r7, #144]
 2379 0402 0233     		adds	r3, r3, #2
 2380 0404 C7F89030 		str	r3, [r7, #144]
 2381              	.L87:
 333:STM32F10x_Speex_Lib/libspeex/smallft.c ****         idij+=2;
 2382              		.loc 2 333 0 is_stmt 0 discriminator 1
 2383 0408 D7F89020 		ldr	r2, [r7, #144]
 2384 040c FB68     		ldr	r3, [r7, #12]
 2385 040e 9A42     		cmp	r2, r3
 2386 0410 FFF66EAF 		blt	.L90
 328:STM32F10x_Speex_Lib/libspeex/smallft.c ****       is+=ido;
 2387              		.loc 2 328 0 is_stmt 1 discriminator 2
 2388 0414 D7F88C30 		ldr	r3, [r7, #140]
 2389 0418 0133     		adds	r3, r3, #1
 2390 041a C7F88C30 		str	r3, [r7, #140]
 2391              	.L86:
 328:STM32F10x_Speex_Lib/libspeex/smallft.c ****       is+=ido;
ARM GAS  /var/folders/kh/x4vltyy52lbg7p4pcyglc5080000gp/T//ccKDo44O.s 			page 51


 2392              		.loc 2 328 0 is_stmt 0 discriminator 1
 2393 041e D7F88C20 		ldr	r2, [r7, #140]
 2394 0422 BB68     		ldr	r3, [r7, #8]
 2395 0424 9A42     		cmp	r2, r3
 2396 0426 FFF64EAF 		blt	.L91
 2397              	.L85:
 341:STM32F10x_Speex_Lib/libspeex/smallft.c ****         }
 342:STM32F10x_Speex_Lib/libspeex/smallft.c ****       }
 343:STM32F10x_Speex_Lib/libspeex/smallft.c ****     }
 344:STM32F10x_Speex_Lib/libspeex/smallft.c ****   }
 345:STM32F10x_Speex_Lib/libspeex/smallft.c **** 
 346:STM32F10x_Speex_Lib/libspeex/smallft.c ****   t1=0;
 2398              		.loc 2 346 0 is_stmt 1
 2399 042a 0023     		movs	r3, #0
 2400 042c BB67     		str	r3, [r7, #120]
 347:STM32F10x_Speex_Lib/libspeex/smallft.c ****   t2=ipp2*t0;
 2401              		.loc 2 347 0
 2402 042e 7B6B     		ldr	r3, [r7, #52]
 2403 0430 BA6A     		ldr	r2, [r7, #40]
 2404 0432 02FB03F3 		mul	r3, r2, r3
 2405 0436 7B67     		str	r3, [r7, #116]
 348:STM32F10x_Speex_Lib/libspeex/smallft.c ****   if(nbd<l1){
 2406              		.loc 2 348 0
 2407 0438 FA6A     		ldr	r2, [r7, #44]
 2408 043a 7B68     		ldr	r3, [r7, #4]
 2409 043c 9A42     		cmp	r2, r3
 2410 043e 80F2B980 		bge	.L92
 349:STM32F10x_Speex_Lib/libspeex/smallft.c ****     for(j=1;j<ipph;j++){
 2411              		.loc 2 349 0
 2412 0442 0123     		movs	r3, #1
 2413 0444 C7F88C30 		str	r3, [r7, #140]
 2414 0448 ADE0     		b	.L93
 2415              	.L98:
 350:STM32F10x_Speex_Lib/libspeex/smallft.c ****       t1+=t0;
 2416              		.loc 2 350 0
 2417 044a BA6F     		ldr	r2, [r7, #120]
 2418 044c BB6A     		ldr	r3, [r7, #40]
 2419 044e 1344     		add	r3, r3, r2
 2420 0450 BB67     		str	r3, [r7, #120]
 351:STM32F10x_Speex_Lib/libspeex/smallft.c ****       t2-=t0;
 2421              		.loc 2 351 0
 2422 0452 7A6F     		ldr	r2, [r7, #116]
 2423 0454 BB6A     		ldr	r3, [r7, #40]
 2424 0456 D31A     		subs	r3, r2, r3
 2425 0458 7B67     		str	r3, [r7, #116]
 352:STM32F10x_Speex_Lib/libspeex/smallft.c ****       t3=t1;
 2426              		.loc 2 352 0
 2427 045a BB6F     		ldr	r3, [r7, #120]
 2428 045c 3B67     		str	r3, [r7, #112]
 353:STM32F10x_Speex_Lib/libspeex/smallft.c ****       t4=t2;
 2429              		.loc 2 353 0
 2430 045e 7B6F     		ldr	r3, [r7, #116]
 2431 0460 FB66     		str	r3, [r7, #108]
 354:STM32F10x_Speex_Lib/libspeex/smallft.c ****       for(i=2;i<ido;i+=2){
 2432              		.loc 2 354 0
 2433 0462 0223     		movs	r3, #2
 2434 0464 C7F89030 		str	r3, [r7, #144]
ARM GAS  /var/folders/kh/x4vltyy52lbg7p4pcyglc5080000gp/T//ccKDo44O.s 			page 52


 2435 0468 92E0     		b	.L94
 2436              	.L97:
 355:STM32F10x_Speex_Lib/libspeex/smallft.c ****         t3+=2;
 2437              		.loc 2 355 0
 2438 046a 3B6F     		ldr	r3, [r7, #112]
 2439 046c 0233     		adds	r3, r3, #2
 2440 046e 3B67     		str	r3, [r7, #112]
 356:STM32F10x_Speex_Lib/libspeex/smallft.c ****         t4+=2;
 2441              		.loc 2 356 0
 2442 0470 FB6E     		ldr	r3, [r7, #108]
 2443 0472 0233     		adds	r3, r3, #2
 2444 0474 FB66     		str	r3, [r7, #108]
 357:STM32F10x_Speex_Lib/libspeex/smallft.c ****         t5=t3-ido;
 2445              		.loc 2 357 0
 2446 0476 3A6F     		ldr	r2, [r7, #112]
 2447 0478 FB68     		ldr	r3, [r7, #12]
 2448 047a D31A     		subs	r3, r2, r3
 2449 047c BB66     		str	r3, [r7, #104]
 358:STM32F10x_Speex_Lib/libspeex/smallft.c ****         t6=t4-ido;
 2450              		.loc 2 358 0
 2451 047e FA6E     		ldr	r2, [r7, #108]
 2452 0480 FB68     		ldr	r3, [r7, #12]
 2453 0482 D31A     		subs	r3, r2, r3
 2454 0484 7B66     		str	r3, [r7, #100]
 359:STM32F10x_Speex_Lib/libspeex/smallft.c ****         for(k=0;k<l1;k++){
 2455              		.loc 2 359 0
 2456 0486 0023     		movs	r3, #0
 2457 0488 C7F88830 		str	r3, [r7, #136]
 2458 048c 76E0     		b	.L95
 2459              	.L96:
 360:STM32F10x_Speex_Lib/libspeex/smallft.c ****           t5+=ido;
 2460              		.loc 2 360 0 discriminator 3
 2461 048e BA6E     		ldr	r2, [r7, #104]
 2462 0490 FB68     		ldr	r3, [r7, #12]
 2463 0492 1344     		add	r3, r3, r2
 2464 0494 BB66     		str	r3, [r7, #104]
 361:STM32F10x_Speex_Lib/libspeex/smallft.c ****           t6+=ido;
 2465              		.loc 2 361 0 discriminator 3
 2466 0496 7A6E     		ldr	r2, [r7, #100]
 2467 0498 FB68     		ldr	r3, [r7, #12]
 2468 049a 1344     		add	r3, r3, r2
 2469 049c 7B66     		str	r3, [r7, #100]
 362:STM32F10x_Speex_Lib/libspeex/smallft.c ****           c1[t5-1]=ch[t5-1]+ch[t6-1];
 2470              		.loc 2 362 0 discriminator 3
 2471 049e BB6E     		ldr	r3, [r7, #104]
 2472 04a0 03F18043 		add	r3, r3, #1073741824
 2473 04a4 013B     		subs	r3, r3, #1
 2474 04a6 9B00     		lsls	r3, r3, #2
 2475 04a8 D7F8AC20 		ldr	r2, [r7, #172]
 2476 04ac D418     		adds	r4, r2, r3
 2477 04ae BB6E     		ldr	r3, [r7, #104]
 2478 04b0 03F18043 		add	r3, r3, #1073741824
 2479 04b4 013B     		subs	r3, r3, #1
 2480 04b6 9B00     		lsls	r3, r3, #2
 2481 04b8 D7F8B420 		ldr	r2, [r7, #180]
 2482 04bc 1344     		add	r3, r3, r2
 2483 04be 1868     		ldr	r0, [r3]	@ float
ARM GAS  /var/folders/kh/x4vltyy52lbg7p4pcyglc5080000gp/T//ccKDo44O.s 			page 53


 2484 04c0 7B6E     		ldr	r3, [r7, #100]
 2485 04c2 03F18043 		add	r3, r3, #1073741824
 2486 04c6 013B     		subs	r3, r3, #1
 2487 04c8 9B00     		lsls	r3, r3, #2
 2488 04ca D7F8B420 		ldr	r2, [r7, #180]
 2489 04ce 1344     		add	r3, r3, r2
 2490 04d0 1B68     		ldr	r3, [r3]	@ float
 2491 04d2 1946     		mov	r1, r3
 2492 04d4 FFF7FEFF 		bl	__aeabi_fadd
 2493 04d8 0346     		mov	r3, r0
 2494 04da 2360     		str	r3, [r4]	@ float
 363:STM32F10x_Speex_Lib/libspeex/smallft.c ****           c1[t6-1]=ch[t5]-ch[t6];
 2495              		.loc 2 363 0 discriminator 3
 2496 04dc 7B6E     		ldr	r3, [r7, #100]
 2497 04de 03F18043 		add	r3, r3, #1073741824
 2498 04e2 013B     		subs	r3, r3, #1
 2499 04e4 9B00     		lsls	r3, r3, #2
 2500 04e6 D7F8AC20 		ldr	r2, [r7, #172]
 2501 04ea D418     		adds	r4, r2, r3
 2502 04ec BB6E     		ldr	r3, [r7, #104]
 2503 04ee 9B00     		lsls	r3, r3, #2
 2504 04f0 D7F8B420 		ldr	r2, [r7, #180]
 2505 04f4 1344     		add	r3, r3, r2
 2506 04f6 1868     		ldr	r0, [r3]	@ float
 2507 04f8 7B6E     		ldr	r3, [r7, #100]
 2508 04fa 9B00     		lsls	r3, r3, #2
 2509 04fc D7F8B420 		ldr	r2, [r7, #180]
 2510 0500 1344     		add	r3, r3, r2
 2511 0502 1B68     		ldr	r3, [r3]	@ float
 2512 0504 1946     		mov	r1, r3
 2513 0506 FFF7FEFF 		bl	__aeabi_fsub
 2514 050a 0346     		mov	r3, r0
 2515 050c 2360     		str	r3, [r4]	@ float
 364:STM32F10x_Speex_Lib/libspeex/smallft.c ****           c1[t5]=ch[t5]+ch[t6];
 2516              		.loc 2 364 0 discriminator 3
 2517 050e BB6E     		ldr	r3, [r7, #104]
 2518 0510 9B00     		lsls	r3, r3, #2
 2519 0512 D7F8AC20 		ldr	r2, [r7, #172]
 2520 0516 D418     		adds	r4, r2, r3
 2521 0518 BB6E     		ldr	r3, [r7, #104]
 2522 051a 9B00     		lsls	r3, r3, #2
 2523 051c D7F8B420 		ldr	r2, [r7, #180]
 2524 0520 1344     		add	r3, r3, r2
 2525 0522 1868     		ldr	r0, [r3]	@ float
 2526 0524 7B6E     		ldr	r3, [r7, #100]
 2527 0526 9B00     		lsls	r3, r3, #2
 2528 0528 D7F8B420 		ldr	r2, [r7, #180]
 2529 052c 1344     		add	r3, r3, r2
 2530 052e 1B68     		ldr	r3, [r3]	@ float
 2531 0530 1946     		mov	r1, r3
 2532 0532 FFF7FEFF 		bl	__aeabi_fadd
 2533 0536 0346     		mov	r3, r0
 2534 0538 2360     		str	r3, [r4]	@ float
 365:STM32F10x_Speex_Lib/libspeex/smallft.c ****           c1[t6]=ch[t6-1]-ch[t5-1];
 2535              		.loc 2 365 0 discriminator 3
 2536 053a 7B6E     		ldr	r3, [r7, #100]
 2537 053c 9B00     		lsls	r3, r3, #2
ARM GAS  /var/folders/kh/x4vltyy52lbg7p4pcyglc5080000gp/T//ccKDo44O.s 			page 54


 2538 053e D7F8AC20 		ldr	r2, [r7, #172]
 2539 0542 D418     		adds	r4, r2, r3
 2540 0544 7B6E     		ldr	r3, [r7, #100]
 2541 0546 03F18043 		add	r3, r3, #1073741824
 2542 054a 013B     		subs	r3, r3, #1
 2543 054c 9B00     		lsls	r3, r3, #2
 2544 054e D7F8B420 		ldr	r2, [r7, #180]
 2545 0552 1344     		add	r3, r3, r2
 2546 0554 1868     		ldr	r0, [r3]	@ float
 2547 0556 BB6E     		ldr	r3, [r7, #104]
 2548 0558 03F18043 		add	r3, r3, #1073741824
 2549 055c 013B     		subs	r3, r3, #1
 2550 055e 9B00     		lsls	r3, r3, #2
 2551 0560 D7F8B420 		ldr	r2, [r7, #180]
 2552 0564 1344     		add	r3, r3, r2
 2553 0566 1B68     		ldr	r3, [r3]	@ float
 2554 0568 1946     		mov	r1, r3
 2555 056a FFF7FEFF 		bl	__aeabi_fsub
 2556 056e 0346     		mov	r3, r0
 2557 0570 2360     		str	r3, [r4]	@ float
 359:STM32F10x_Speex_Lib/libspeex/smallft.c ****           t5+=ido;
 2558              		.loc 2 359 0 discriminator 3
 2559 0572 D7F88830 		ldr	r3, [r7, #136]
 2560 0576 0133     		adds	r3, r3, #1
 2561 0578 C7F88830 		str	r3, [r7, #136]
 2562              	.L95:
 359:STM32F10x_Speex_Lib/libspeex/smallft.c ****           t5+=ido;
 2563              		.loc 2 359 0 is_stmt 0 discriminator 1
 2564 057c D7F88820 		ldr	r2, [r7, #136]
 2565 0580 7B68     		ldr	r3, [r7, #4]
 2566 0582 9A42     		cmp	r2, r3
 2567 0584 83DB     		blt	.L96
 354:STM32F10x_Speex_Lib/libspeex/smallft.c ****         t3+=2;
 2568              		.loc 2 354 0 is_stmt 1 discriminator 2
 2569 0586 D7F89030 		ldr	r3, [r7, #144]
 2570 058a 0233     		adds	r3, r3, #2
 2571 058c C7F89030 		str	r3, [r7, #144]
 2572              	.L94:
 354:STM32F10x_Speex_Lib/libspeex/smallft.c ****         t3+=2;
 2573              		.loc 2 354 0 is_stmt 0 discriminator 1
 2574 0590 D7F89020 		ldr	r2, [r7, #144]
 2575 0594 FB68     		ldr	r3, [r7, #12]
 2576 0596 9A42     		cmp	r2, r3
 2577 0598 FFF667AF 		blt	.L97
 349:STM32F10x_Speex_Lib/libspeex/smallft.c ****       t1+=t0;
 2578              		.loc 2 349 0 is_stmt 1 discriminator 2
 2579 059c D7F88C30 		ldr	r3, [r7, #140]
 2580 05a0 0133     		adds	r3, r3, #1
 2581 05a2 C7F88C30 		str	r3, [r7, #140]
 2582              	.L93:
 349:STM32F10x_Speex_Lib/libspeex/smallft.c ****       t1+=t0;
 2583              		.loc 2 349 0 is_stmt 0 discriminator 1
 2584 05a6 D7F88C20 		ldr	r2, [r7, #140]
 2585 05aa BB6B     		ldr	r3, [r7, #56]
 2586 05ac 9A42     		cmp	r2, r3
 2587 05ae FFF64CAF 		blt	.L98
 2588 05b2 B5E0     		b	.L71
ARM GAS  /var/folders/kh/x4vltyy52lbg7p4pcyglc5080000gp/T//ccKDo44O.s 			page 55


 2589              	.L92:
 366:STM32F10x_Speex_Lib/libspeex/smallft.c ****         }
 367:STM32F10x_Speex_Lib/libspeex/smallft.c ****       }
 368:STM32F10x_Speex_Lib/libspeex/smallft.c ****     }
 369:STM32F10x_Speex_Lib/libspeex/smallft.c ****   }else{
 370:STM32F10x_Speex_Lib/libspeex/smallft.c ****     for(j=1;j<ipph;j++){
 2590              		.loc 2 370 0 is_stmt 1
 2591 05b4 0123     		movs	r3, #1
 2592 05b6 C7F88C30 		str	r3, [r7, #140]
 2593 05ba A9E0     		b	.L99
 2594              	.L104:
 371:STM32F10x_Speex_Lib/libspeex/smallft.c ****       t1+=t0;
 2595              		.loc 2 371 0
 2596 05bc BA6F     		ldr	r2, [r7, #120]
 2597 05be BB6A     		ldr	r3, [r7, #40]
 2598 05c0 1344     		add	r3, r3, r2
 2599 05c2 BB67     		str	r3, [r7, #120]
 372:STM32F10x_Speex_Lib/libspeex/smallft.c ****       t2-=t0;
 2600              		.loc 2 372 0
 2601 05c4 7A6F     		ldr	r2, [r7, #116]
 2602 05c6 BB6A     		ldr	r3, [r7, #40]
 2603 05c8 D31A     		subs	r3, r2, r3
 2604 05ca 7B67     		str	r3, [r7, #116]
 373:STM32F10x_Speex_Lib/libspeex/smallft.c ****       t3=t1;
 2605              		.loc 2 373 0
 2606 05cc BB6F     		ldr	r3, [r7, #120]
 2607 05ce 3B67     		str	r3, [r7, #112]
 374:STM32F10x_Speex_Lib/libspeex/smallft.c ****       t4=t2;
 2608              		.loc 2 374 0
 2609 05d0 7B6F     		ldr	r3, [r7, #116]
 2610 05d2 FB66     		str	r3, [r7, #108]
 375:STM32F10x_Speex_Lib/libspeex/smallft.c ****       for(k=0;k<l1;k++){
 2611              		.loc 2 375 0
 2612 05d4 0023     		movs	r3, #0
 2613 05d6 C7F88830 		str	r3, [r7, #136]
 2614 05da 8EE0     		b	.L100
 2615              	.L103:
 376:STM32F10x_Speex_Lib/libspeex/smallft.c ****         t5=t3;
 2616              		.loc 2 376 0
 2617 05dc 3B6F     		ldr	r3, [r7, #112]
 2618 05de BB66     		str	r3, [r7, #104]
 377:STM32F10x_Speex_Lib/libspeex/smallft.c ****         t6=t4;
 2619              		.loc 2 377 0
 2620 05e0 FB6E     		ldr	r3, [r7, #108]
 2621 05e2 7B66     		str	r3, [r7, #100]
 378:STM32F10x_Speex_Lib/libspeex/smallft.c ****         for(i=2;i<ido;i+=2){
 2622              		.loc 2 378 0
 2623 05e4 0223     		movs	r3, #2
 2624 05e6 C7F89030 		str	r3, [r7, #144]
 2625 05ea 74E0     		b	.L101
 2626              	.L102:
 379:STM32F10x_Speex_Lib/libspeex/smallft.c ****           t5+=2;
 2627              		.loc 2 379 0 discriminator 3
 2628 05ec BB6E     		ldr	r3, [r7, #104]
 2629 05ee 0233     		adds	r3, r3, #2
 2630 05f0 BB66     		str	r3, [r7, #104]
 380:STM32F10x_Speex_Lib/libspeex/smallft.c ****           t6+=2;
ARM GAS  /var/folders/kh/x4vltyy52lbg7p4pcyglc5080000gp/T//ccKDo44O.s 			page 56


 2631              		.loc 2 380 0 discriminator 3
 2632 05f2 7B6E     		ldr	r3, [r7, #100]
 2633 05f4 0233     		adds	r3, r3, #2
 2634 05f6 7B66     		str	r3, [r7, #100]
 381:STM32F10x_Speex_Lib/libspeex/smallft.c ****           c1[t5-1]=ch[t5-1]+ch[t6-1];
 2635              		.loc 2 381 0 discriminator 3
 2636 05f8 BB6E     		ldr	r3, [r7, #104]
 2637 05fa 03F18043 		add	r3, r3, #1073741824
 2638 05fe 013B     		subs	r3, r3, #1
 2639 0600 9B00     		lsls	r3, r3, #2
 2640 0602 D7F8AC20 		ldr	r2, [r7, #172]
 2641 0606 D418     		adds	r4, r2, r3
 2642 0608 BB6E     		ldr	r3, [r7, #104]
 2643 060a 03F18043 		add	r3, r3, #1073741824
 2644 060e 013B     		subs	r3, r3, #1
 2645 0610 9B00     		lsls	r3, r3, #2
 2646 0612 D7F8B420 		ldr	r2, [r7, #180]
 2647 0616 1344     		add	r3, r3, r2
 2648 0618 1868     		ldr	r0, [r3]	@ float
 2649 061a 7B6E     		ldr	r3, [r7, #100]
 2650 061c 03F18043 		add	r3, r3, #1073741824
 2651 0620 013B     		subs	r3, r3, #1
 2652 0622 9B00     		lsls	r3, r3, #2
 2653 0624 D7F8B420 		ldr	r2, [r7, #180]
 2654 0628 1344     		add	r3, r3, r2
 2655 062a 1B68     		ldr	r3, [r3]	@ float
 2656 062c 1946     		mov	r1, r3
 2657 062e FFF7FEFF 		bl	__aeabi_fadd
 2658 0632 0346     		mov	r3, r0
 2659 0634 2360     		str	r3, [r4]	@ float
 382:STM32F10x_Speex_Lib/libspeex/smallft.c ****           c1[t6-1]=ch[t5]-ch[t6];
 2660              		.loc 2 382 0 discriminator 3
 2661 0636 7B6E     		ldr	r3, [r7, #100]
 2662 0638 03F18043 		add	r3, r3, #1073741824
 2663 063c 013B     		subs	r3, r3, #1
 2664 063e 9B00     		lsls	r3, r3, #2
 2665 0640 D7F8AC20 		ldr	r2, [r7, #172]
 2666 0644 D418     		adds	r4, r2, r3
 2667 0646 BB6E     		ldr	r3, [r7, #104]
 2668 0648 9B00     		lsls	r3, r3, #2
 2669 064a D7F8B420 		ldr	r2, [r7, #180]
 2670 064e 1344     		add	r3, r3, r2
 2671 0650 1868     		ldr	r0, [r3]	@ float
 2672 0652 7B6E     		ldr	r3, [r7, #100]
 2673 0654 9B00     		lsls	r3, r3, #2
 2674 0656 D7F8B420 		ldr	r2, [r7, #180]
 2675 065a 1344     		add	r3, r3, r2
 2676 065c 1B68     		ldr	r3, [r3]	@ float
 2677 065e 1946     		mov	r1, r3
 2678 0660 FFF7FEFF 		bl	__aeabi_fsub
 2679 0664 0346     		mov	r3, r0
 2680 0666 2360     		str	r3, [r4]	@ float
 383:STM32F10x_Speex_Lib/libspeex/smallft.c ****           c1[t5]=ch[t5]+ch[t6];
 2681              		.loc 2 383 0 discriminator 3
 2682 0668 BB6E     		ldr	r3, [r7, #104]
 2683 066a 9B00     		lsls	r3, r3, #2
 2684 066c D7F8AC20 		ldr	r2, [r7, #172]
ARM GAS  /var/folders/kh/x4vltyy52lbg7p4pcyglc5080000gp/T//ccKDo44O.s 			page 57


 2685 0670 D418     		adds	r4, r2, r3
 2686 0672 BB6E     		ldr	r3, [r7, #104]
 2687 0674 9B00     		lsls	r3, r3, #2
 2688 0676 D7F8B420 		ldr	r2, [r7, #180]
 2689 067a 1344     		add	r3, r3, r2
 2690 067c 1868     		ldr	r0, [r3]	@ float
 2691 067e 7B6E     		ldr	r3, [r7, #100]
 2692 0680 9B00     		lsls	r3, r3, #2
 2693 0682 D7F8B420 		ldr	r2, [r7, #180]
 2694 0686 1344     		add	r3, r3, r2
 2695 0688 1B68     		ldr	r3, [r3]	@ float
 2696 068a 1946     		mov	r1, r3
 2697 068c FFF7FEFF 		bl	__aeabi_fadd
 2698 0690 0346     		mov	r3, r0
 2699 0692 2360     		str	r3, [r4]	@ float
 384:STM32F10x_Speex_Lib/libspeex/smallft.c ****           c1[t6]=ch[t6-1]-ch[t5-1];
 2700              		.loc 2 384 0 discriminator 3
 2701 0694 7B6E     		ldr	r3, [r7, #100]
 2702 0696 9B00     		lsls	r3, r3, #2
 2703 0698 D7F8AC20 		ldr	r2, [r7, #172]
 2704 069c D418     		adds	r4, r2, r3
 2705 069e 7B6E     		ldr	r3, [r7, #100]
 2706 06a0 03F18043 		add	r3, r3, #1073741824
 2707 06a4 013B     		subs	r3, r3, #1
 2708 06a6 9B00     		lsls	r3, r3, #2
 2709 06a8 D7F8B420 		ldr	r2, [r7, #180]
 2710 06ac 1344     		add	r3, r3, r2
 2711 06ae 1868     		ldr	r0, [r3]	@ float
 2712 06b0 BB6E     		ldr	r3, [r7, #104]
 2713 06b2 03F18043 		add	r3, r3, #1073741824
 2714 06b6 013B     		subs	r3, r3, #1
 2715 06b8 9B00     		lsls	r3, r3, #2
 2716 06ba D7F8B420 		ldr	r2, [r7, #180]
 2717 06be 1344     		add	r3, r3, r2
 2718 06c0 1B68     		ldr	r3, [r3]	@ float
 2719 06c2 1946     		mov	r1, r3
 2720 06c4 FFF7FEFF 		bl	__aeabi_fsub
 2721 06c8 0346     		mov	r3, r0
 2722 06ca 2360     		str	r3, [r4]	@ float
 378:STM32F10x_Speex_Lib/libspeex/smallft.c ****           t5+=2;
 2723              		.loc 2 378 0 discriminator 3
 2724 06cc D7F89030 		ldr	r3, [r7, #144]
 2725 06d0 0233     		adds	r3, r3, #2
 2726 06d2 C7F89030 		str	r3, [r7, #144]
 2727              	.L101:
 378:STM32F10x_Speex_Lib/libspeex/smallft.c ****           t5+=2;
 2728              		.loc 2 378 0 is_stmt 0 discriminator 1
 2729 06d6 D7F89020 		ldr	r2, [r7, #144]
 2730 06da FB68     		ldr	r3, [r7, #12]
 2731 06dc 9A42     		cmp	r2, r3
 2732 06de 85DB     		blt	.L102
 385:STM32F10x_Speex_Lib/libspeex/smallft.c ****         }
 386:STM32F10x_Speex_Lib/libspeex/smallft.c ****         t3+=ido;
 2733              		.loc 2 386 0 is_stmt 1 discriminator 2
 2734 06e0 3A6F     		ldr	r2, [r7, #112]
 2735 06e2 FB68     		ldr	r3, [r7, #12]
 2736 06e4 1344     		add	r3, r3, r2
ARM GAS  /var/folders/kh/x4vltyy52lbg7p4pcyglc5080000gp/T//ccKDo44O.s 			page 58


 2737 06e6 3B67     		str	r3, [r7, #112]
 387:STM32F10x_Speex_Lib/libspeex/smallft.c ****         t4+=ido;
 2738              		.loc 2 387 0 discriminator 2
 2739 06e8 FA6E     		ldr	r2, [r7, #108]
 2740 06ea FB68     		ldr	r3, [r7, #12]
 2741 06ec 1344     		add	r3, r3, r2
 2742 06ee FB66     		str	r3, [r7, #108]
 375:STM32F10x_Speex_Lib/libspeex/smallft.c ****         t5=t3;
 2743              		.loc 2 375 0 discriminator 2
 2744 06f0 D7F88830 		ldr	r3, [r7, #136]
 2745 06f4 0133     		adds	r3, r3, #1
 2746 06f6 C7F88830 		str	r3, [r7, #136]
 2747              	.L100:
 375:STM32F10x_Speex_Lib/libspeex/smallft.c ****         t5=t3;
 2748              		.loc 2 375 0 is_stmt 0 discriminator 1
 2749 06fa D7F88820 		ldr	r2, [r7, #136]
 2750 06fe 7B68     		ldr	r3, [r7, #4]
 2751 0700 9A42     		cmp	r2, r3
 2752 0702 FFF66BAF 		blt	.L103
 370:STM32F10x_Speex_Lib/libspeex/smallft.c ****       t1+=t0;
 2753              		.loc 2 370 0 is_stmt 1 discriminator 2
 2754 0706 D7F88C30 		ldr	r3, [r7, #140]
 2755 070a 0133     		adds	r3, r3, #1
 2756 070c C7F88C30 		str	r3, [r7, #140]
 2757              	.L99:
 370:STM32F10x_Speex_Lib/libspeex/smallft.c ****       t1+=t0;
 2758              		.loc 2 370 0 is_stmt 0 discriminator 1
 2759 0710 D7F88C20 		ldr	r2, [r7, #140]
 2760 0714 BB6B     		ldr	r3, [r7, #56]
 2761 0716 9A42     		cmp	r2, r3
 2762 0718 FFF650AF 		blt	.L104
 2763 071c 00E0     		b	.L71
 2764              	.L156:
 294:STM32F10x_Speex_Lib/libspeex/smallft.c ****   for(ik=0;ik<idl1;ik++)ch2[ik]=c2[ik];
 2765              		.loc 2 294 0 is_stmt 1
 2766 071e 00BF     		nop
 2767              	.L71:
 388:STM32F10x_Speex_Lib/libspeex/smallft.c ****       }
 389:STM32F10x_Speex_Lib/libspeex/smallft.c ****     }
 390:STM32F10x_Speex_Lib/libspeex/smallft.c ****   }
 391:STM32F10x_Speex_Lib/libspeex/smallft.c **** 
 392:STM32F10x_Speex_Lib/libspeex/smallft.c **** L119:
 393:STM32F10x_Speex_Lib/libspeex/smallft.c ****   for(ik=0;ik<idl1;ik++)c2[ik]=ch2[ik];
 2768              		.loc 2 393 0
 2769 0720 0023     		movs	r3, #0
 2770 0722 C7F88030 		str	r3, [r7, #128]
 2771 0726 12E0     		b	.L105
 2772              	.L106:
 2773              		.loc 2 393 0 is_stmt 0 discriminator 3
 2774 0728 D7F88030 		ldr	r3, [r7, #128]
 2775 072c 9B00     		lsls	r3, r3, #2
 2776 072e D7F8B020 		ldr	r2, [r7, #176]
 2777 0732 1344     		add	r3, r3, r2
 2778 0734 D7F88020 		ldr	r2, [r7, #128]
 2779 0738 9200     		lsls	r2, r2, #2
 2780 073a D7F8B810 		ldr	r1, [r7, #184]
 2781 073e 0A44     		add	r2, r2, r1
ARM GAS  /var/folders/kh/x4vltyy52lbg7p4pcyglc5080000gp/T//ccKDo44O.s 			page 59


 2782 0740 1268     		ldr	r2, [r2]	@ float
 2783 0742 1A60     		str	r2, [r3]	@ float
 2784 0744 D7F88030 		ldr	r3, [r7, #128]
 2785 0748 0133     		adds	r3, r3, #1
 2786 074a C7F88030 		str	r3, [r7, #128]
 2787              	.L105:
 2788              		.loc 2 393 0 discriminator 1
 2789 074e D7F88020 		ldr	r2, [r7, #128]
 2790 0752 3B68     		ldr	r3, [r7]
 2791 0754 9A42     		cmp	r2, r3
 2792 0756 E7DB     		blt	.L106
 394:STM32F10x_Speex_Lib/libspeex/smallft.c **** 
 395:STM32F10x_Speex_Lib/libspeex/smallft.c ****   t1=0;
 2793              		.loc 2 395 0 is_stmt 1
 2794 0758 0023     		movs	r3, #0
 2795 075a BB67     		str	r3, [r7, #120]
 396:STM32F10x_Speex_Lib/libspeex/smallft.c ****   t2=ipp2*idl1;
 2796              		.loc 2 396 0
 2797 075c 7B6B     		ldr	r3, [r7, #52]
 2798 075e 3A68     		ldr	r2, [r7]
 2799 0760 02FB03F3 		mul	r3, r2, r3
 2800 0764 7B67     		str	r3, [r7, #116]
 397:STM32F10x_Speex_Lib/libspeex/smallft.c ****   for(j=1;j<ipph;j++){
 2801              		.loc 2 397 0
 2802 0766 0123     		movs	r3, #1
 2803 0768 C7F88C30 		str	r3, [r7, #140]
 2804 076c 56E0     		b	.L107
 2805              	.L110:
 398:STM32F10x_Speex_Lib/libspeex/smallft.c ****     t1+=t0;
 2806              		.loc 2 398 0
 2807 076e BA6F     		ldr	r2, [r7, #120]
 2808 0770 BB6A     		ldr	r3, [r7, #40]
 2809 0772 1344     		add	r3, r3, r2
 2810 0774 BB67     		str	r3, [r7, #120]
 399:STM32F10x_Speex_Lib/libspeex/smallft.c ****     t2-=t0;
 2811              		.loc 2 399 0
 2812 0776 7A6F     		ldr	r2, [r7, #116]
 2813 0778 BB6A     		ldr	r3, [r7, #40]
 2814 077a D31A     		subs	r3, r2, r3
 2815 077c 7B67     		str	r3, [r7, #116]
 400:STM32F10x_Speex_Lib/libspeex/smallft.c ****     t3=t1-ido;
 2816              		.loc 2 400 0
 2817 077e BA6F     		ldr	r2, [r7, #120]
 2818 0780 FB68     		ldr	r3, [r7, #12]
 2819 0782 D31A     		subs	r3, r2, r3
 2820 0784 3B67     		str	r3, [r7, #112]
 401:STM32F10x_Speex_Lib/libspeex/smallft.c ****     t4=t2-ido;
 2821              		.loc 2 401 0
 2822 0786 7A6F     		ldr	r2, [r7, #116]
 2823 0788 FB68     		ldr	r3, [r7, #12]
 2824 078a D31A     		subs	r3, r2, r3
 2825 078c FB66     		str	r3, [r7, #108]
 402:STM32F10x_Speex_Lib/libspeex/smallft.c ****     for(k=0;k<l1;k++){
 2826              		.loc 2 402 0
 2827 078e 0023     		movs	r3, #0
 2828 0790 C7F88830 		str	r3, [r7, #136]
 2829 0794 38E0     		b	.L108
ARM GAS  /var/folders/kh/x4vltyy52lbg7p4pcyglc5080000gp/T//ccKDo44O.s 			page 60


 2830              	.L109:
 403:STM32F10x_Speex_Lib/libspeex/smallft.c ****       t3+=ido;
 2831              		.loc 2 403 0 discriminator 3
 2832 0796 3A6F     		ldr	r2, [r7, #112]
 2833 0798 FB68     		ldr	r3, [r7, #12]
 2834 079a 1344     		add	r3, r3, r2
 2835 079c 3B67     		str	r3, [r7, #112]
 404:STM32F10x_Speex_Lib/libspeex/smallft.c ****       t4+=ido;
 2836              		.loc 2 404 0 discriminator 3
 2837 079e FA6E     		ldr	r2, [r7, #108]
 2838 07a0 FB68     		ldr	r3, [r7, #12]
 2839 07a2 1344     		add	r3, r3, r2
 2840 07a4 FB66     		str	r3, [r7, #108]
 405:STM32F10x_Speex_Lib/libspeex/smallft.c ****       c1[t3]=ch[t3]+ch[t4];
 2841              		.loc 2 405 0 discriminator 3
 2842 07a6 3B6F     		ldr	r3, [r7, #112]
 2843 07a8 9B00     		lsls	r3, r3, #2
 2844 07aa D7F8AC20 		ldr	r2, [r7, #172]
 2845 07ae D418     		adds	r4, r2, r3
 2846 07b0 3B6F     		ldr	r3, [r7, #112]
 2847 07b2 9B00     		lsls	r3, r3, #2
 2848 07b4 D7F8B420 		ldr	r2, [r7, #180]
 2849 07b8 1344     		add	r3, r3, r2
 2850 07ba 1868     		ldr	r0, [r3]	@ float
 2851 07bc FB6E     		ldr	r3, [r7, #108]
 2852 07be 9B00     		lsls	r3, r3, #2
 2853 07c0 D7F8B420 		ldr	r2, [r7, #180]
 2854 07c4 1344     		add	r3, r3, r2
 2855 07c6 1B68     		ldr	r3, [r3]	@ float
 2856 07c8 1946     		mov	r1, r3
 2857 07ca FFF7FEFF 		bl	__aeabi_fadd
 2858 07ce 0346     		mov	r3, r0
 2859 07d0 2360     		str	r3, [r4]	@ float
 406:STM32F10x_Speex_Lib/libspeex/smallft.c ****       c1[t4]=ch[t4]-ch[t3];
 2860              		.loc 2 406 0 discriminator 3
 2861 07d2 FB6E     		ldr	r3, [r7, #108]
 2862 07d4 9B00     		lsls	r3, r3, #2
 2863 07d6 D7F8AC20 		ldr	r2, [r7, #172]
 2864 07da D418     		adds	r4, r2, r3
 2865 07dc FB6E     		ldr	r3, [r7, #108]
 2866 07de 9B00     		lsls	r3, r3, #2
 2867 07e0 D7F8B420 		ldr	r2, [r7, #180]
 2868 07e4 1344     		add	r3, r3, r2
 2869 07e6 1868     		ldr	r0, [r3]	@ float
 2870 07e8 3B6F     		ldr	r3, [r7, #112]
 2871 07ea 9B00     		lsls	r3, r3, #2
 2872 07ec D7F8B420 		ldr	r2, [r7, #180]
 2873 07f0 1344     		add	r3, r3, r2
 2874 07f2 1B68     		ldr	r3, [r3]	@ float
 2875 07f4 1946     		mov	r1, r3
 2876 07f6 FFF7FEFF 		bl	__aeabi_fsub
 2877 07fa 0346     		mov	r3, r0
 2878 07fc 2360     		str	r3, [r4]	@ float
 402:STM32F10x_Speex_Lib/libspeex/smallft.c ****       t3+=ido;
 2879              		.loc 2 402 0 discriminator 3
 2880 07fe D7F88830 		ldr	r3, [r7, #136]
 2881 0802 0133     		adds	r3, r3, #1
ARM GAS  /var/folders/kh/x4vltyy52lbg7p4pcyglc5080000gp/T//ccKDo44O.s 			page 61


 2882 0804 C7F88830 		str	r3, [r7, #136]
 2883              	.L108:
 402:STM32F10x_Speex_Lib/libspeex/smallft.c ****       t3+=ido;
 2884              		.loc 2 402 0 is_stmt 0 discriminator 1
 2885 0808 D7F88820 		ldr	r2, [r7, #136]
 2886 080c 7B68     		ldr	r3, [r7, #4]
 2887 080e 9A42     		cmp	r2, r3
 2888 0810 C1DB     		blt	.L109
 397:STM32F10x_Speex_Lib/libspeex/smallft.c ****     t1+=t0;
 2889              		.loc 2 397 0 is_stmt 1 discriminator 2
 2890 0812 D7F88C30 		ldr	r3, [r7, #140]
 2891 0816 0133     		adds	r3, r3, #1
 2892 0818 C7F88C30 		str	r3, [r7, #140]
 2893              	.L107:
 397:STM32F10x_Speex_Lib/libspeex/smallft.c ****     t1+=t0;
 2894              		.loc 2 397 0 is_stmt 0 discriminator 1
 2895 081c D7F88C20 		ldr	r2, [r7, #140]
 2896 0820 BB6B     		ldr	r3, [r7, #56]
 2897 0822 9A42     		cmp	r2, r3
 2898 0824 A3DB     		blt	.L110
 407:STM32F10x_Speex_Lib/libspeex/smallft.c ****     }
 408:STM32F10x_Speex_Lib/libspeex/smallft.c ****   }
 409:STM32F10x_Speex_Lib/libspeex/smallft.c **** 
 410:STM32F10x_Speex_Lib/libspeex/smallft.c ****   ar1=1.f;
 2899              		.loc 2 410 0 is_stmt 1
 2900 0826 4FF07E53 		mov	r3, #1065353216
 2901 082a FB64     		str	r3, [r7, #76]	@ float
 411:STM32F10x_Speex_Lib/libspeex/smallft.c ****   ai1=0.f;
 2902              		.loc 2 411 0
 2903 082c 4FF00003 		mov	r3, #0
 2904 0830 7B65     		str	r3, [r7, #84]	@ float
 412:STM32F10x_Speex_Lib/libspeex/smallft.c ****   t1=0;
 2905              		.loc 2 412 0
 2906 0832 0023     		movs	r3, #0
 2907 0834 BB67     		str	r3, [r7, #120]
 413:STM32F10x_Speex_Lib/libspeex/smallft.c ****   t2=ipp2*idl1;
 2908              		.loc 2 413 0
 2909 0836 7B6B     		ldr	r3, [r7, #52]
 2910 0838 3A68     		ldr	r2, [r7]
 2911 083a 02FB03F3 		mul	r3, r2, r3
 2912 083e 7B67     		str	r3, [r7, #116]
 414:STM32F10x_Speex_Lib/libspeex/smallft.c ****   t3=(ip-1)*idl1;
 2913              		.loc 2 414 0
 2914 0840 BB68     		ldr	r3, [r7, #8]
 2915 0842 013B     		subs	r3, r3, #1
 2916 0844 3A68     		ldr	r2, [r7]
 2917 0846 02FB03F3 		mul	r3, r2, r3
 2918 084a 3B67     		str	r3, [r7, #112]
 415:STM32F10x_Speex_Lib/libspeex/smallft.c ****   for(l=1;l<ipph;l++){
 2919              		.loc 2 415 0
 2920 084c 0123     		movs	r3, #1
 2921 084e C7F88430 		str	r3, [r7, #132]
 2922 0852 1FE1     		b	.L111
 2923              	.L118:
 416:STM32F10x_Speex_Lib/libspeex/smallft.c ****     t1+=idl1;
 2924              		.loc 2 416 0
 2925 0854 BA6F     		ldr	r2, [r7, #120]
ARM GAS  /var/folders/kh/x4vltyy52lbg7p4pcyglc5080000gp/T//ccKDo44O.s 			page 62


 2926 0856 3B68     		ldr	r3, [r7]
 2927 0858 1344     		add	r3, r3, r2
 2928 085a BB67     		str	r3, [r7, #120]
 417:STM32F10x_Speex_Lib/libspeex/smallft.c ****     t2-=idl1;
 2929              		.loc 2 417 0
 2930 085c 7A6F     		ldr	r2, [r7, #116]
 2931 085e 3B68     		ldr	r3, [r7]
 2932 0860 D31A     		subs	r3, r2, r3
 2933 0862 7B67     		str	r3, [r7, #116]
 418:STM32F10x_Speex_Lib/libspeex/smallft.c ****     ar1h=dcp*ar1-dsp*ai1;
 2934              		.loc 2 418 0
 2935 0864 F96C     		ldr	r1, [r7, #76]	@ float
 2936 0866 386C     		ldr	r0, [r7, #64]	@ float
 2937 0868 FFF7FEFF 		bl	__aeabi_fmul
 2938 086c 0346     		mov	r3, r0
 2939 086e 1C46     		mov	r4, r3
 2940 0870 796D     		ldr	r1, [r7, #84]	@ float
 2941 0872 F86B     		ldr	r0, [r7, #60]	@ float
 2942 0874 FFF7FEFF 		bl	__aeabi_fmul
 2943 0878 0346     		mov	r3, r0
 2944 087a 1946     		mov	r1, r3
 2945 087c 2046     		mov	r0, r4
 2946 087e FFF7FEFF 		bl	__aeabi_fsub
 2947 0882 0346     		mov	r3, r0
 2948 0884 3B62     		str	r3, [r7, #32]	@ float
 419:STM32F10x_Speex_Lib/libspeex/smallft.c ****     ai1=dcp*ai1+dsp*ar1;
 2949              		.loc 2 419 0
 2950 0886 796D     		ldr	r1, [r7, #84]	@ float
 2951 0888 386C     		ldr	r0, [r7, #64]	@ float
 2952 088a FFF7FEFF 		bl	__aeabi_fmul
 2953 088e 0346     		mov	r3, r0
 2954 0890 1C46     		mov	r4, r3
 2955 0892 F96C     		ldr	r1, [r7, #76]	@ float
 2956 0894 F86B     		ldr	r0, [r7, #60]	@ float
 2957 0896 FFF7FEFF 		bl	__aeabi_fmul
 2958 089a 0346     		mov	r3, r0
 2959 089c 1946     		mov	r1, r3
 2960 089e 2046     		mov	r0, r4
 2961 08a0 FFF7FEFF 		bl	__aeabi_fadd
 2962 08a4 0346     		mov	r3, r0
 2963 08a6 7B65     		str	r3, [r7, #84]	@ float
 420:STM32F10x_Speex_Lib/libspeex/smallft.c ****     ar1=ar1h;
 2964              		.loc 2 420 0
 2965 08a8 3B6A     		ldr	r3, [r7, #32]	@ float
 2966 08aa FB64     		str	r3, [r7, #76]	@ float
 421:STM32F10x_Speex_Lib/libspeex/smallft.c ****     t4=t1;
 2967              		.loc 2 421 0
 2968 08ac BB6F     		ldr	r3, [r7, #120]
 2969 08ae FB66     		str	r3, [r7, #108]
 422:STM32F10x_Speex_Lib/libspeex/smallft.c ****     t5=t2;
 2970              		.loc 2 422 0
 2971 08b0 7B6F     		ldr	r3, [r7, #116]
 2972 08b2 BB66     		str	r3, [r7, #104]
 423:STM32F10x_Speex_Lib/libspeex/smallft.c ****     t6=t3;
 2973              		.loc 2 423 0
 2974 08b4 3B6F     		ldr	r3, [r7, #112]
 2975 08b6 7B66     		str	r3, [r7, #100]
ARM GAS  /var/folders/kh/x4vltyy52lbg7p4pcyglc5080000gp/T//ccKDo44O.s 			page 63


 424:STM32F10x_Speex_Lib/libspeex/smallft.c ****     t7=idl1;
 2976              		.loc 2 424 0
 2977 08b8 3B68     		ldr	r3, [r7]
 2978 08ba 3B66     		str	r3, [r7, #96]
 425:STM32F10x_Speex_Lib/libspeex/smallft.c **** 
 426:STM32F10x_Speex_Lib/libspeex/smallft.c ****     for(ik=0;ik<idl1;ik++){
 2979              		.loc 2 426 0
 2980 08bc 0023     		movs	r3, #0
 2981 08be C7F88030 		str	r3, [r7, #128]
 2982 08c2 3AE0     		b	.L112
 2983              	.L113:
 427:STM32F10x_Speex_Lib/libspeex/smallft.c ****       ch2[t4++]=c2[ik]+ar1*c2[t7++];
 2984              		.loc 2 427 0 discriminator 3
 2985 08c4 FB6E     		ldr	r3, [r7, #108]
 2986 08c6 5A1C     		adds	r2, r3, #1
 2987 08c8 FA66     		str	r2, [r7, #108]
 2988 08ca 9B00     		lsls	r3, r3, #2
 2989 08cc D7F8B820 		ldr	r2, [r7, #184]
 2990 08d0 D418     		adds	r4, r2, r3
 2991 08d2 D7F88030 		ldr	r3, [r7, #128]
 2992 08d6 9B00     		lsls	r3, r3, #2
 2993 08d8 D7F8B020 		ldr	r2, [r7, #176]
 2994 08dc 1344     		add	r3, r3, r2
 2995 08de 1D68     		ldr	r5, [r3]	@ float
 2996 08e0 3B6E     		ldr	r3, [r7, #96]
 2997 08e2 5A1C     		adds	r2, r3, #1
 2998 08e4 3A66     		str	r2, [r7, #96]
 2999 08e6 9B00     		lsls	r3, r3, #2
 3000 08e8 D7F8B020 		ldr	r2, [r7, #176]
 3001 08ec 1344     		add	r3, r3, r2
 3002 08ee 1B68     		ldr	r3, [r3]	@ float
 3003 08f0 F96C     		ldr	r1, [r7, #76]	@ float
 3004 08f2 1846     		mov	r0, r3
 3005 08f4 FFF7FEFF 		bl	__aeabi_fmul
 3006 08f8 0346     		mov	r3, r0
 3007 08fa 1946     		mov	r1, r3
 3008 08fc 2846     		mov	r0, r5
 3009 08fe FFF7FEFF 		bl	__aeabi_fadd
 3010 0902 0346     		mov	r3, r0
 3011 0904 2360     		str	r3, [r4]	@ float
 428:STM32F10x_Speex_Lib/libspeex/smallft.c ****       ch2[t5++]=ai1*c2[t6++];
 3012              		.loc 2 428 0 discriminator 3
 3013 0906 BB6E     		ldr	r3, [r7, #104]
 3014 0908 5A1C     		adds	r2, r3, #1
 3015 090a BA66     		str	r2, [r7, #104]
 3016 090c 9B00     		lsls	r3, r3, #2
 3017 090e D7F8B820 		ldr	r2, [r7, #184]
 3018 0912 D418     		adds	r4, r2, r3
 3019 0914 7B6E     		ldr	r3, [r7, #100]
 3020 0916 5A1C     		adds	r2, r3, #1
 3021 0918 7A66     		str	r2, [r7, #100]
 3022 091a 9B00     		lsls	r3, r3, #2
 3023 091c D7F8B020 		ldr	r2, [r7, #176]
 3024 0920 1344     		add	r3, r3, r2
 3025 0922 1B68     		ldr	r3, [r3]	@ float
 3026 0924 796D     		ldr	r1, [r7, #84]	@ float
 3027 0926 1846     		mov	r0, r3
ARM GAS  /var/folders/kh/x4vltyy52lbg7p4pcyglc5080000gp/T//ccKDo44O.s 			page 64


 3028 0928 FFF7FEFF 		bl	__aeabi_fmul
 3029 092c 0346     		mov	r3, r0
 3030 092e 2360     		str	r3, [r4]	@ float
 426:STM32F10x_Speex_Lib/libspeex/smallft.c ****       ch2[t4++]=c2[ik]+ar1*c2[t7++];
 3031              		.loc 2 426 0 discriminator 3
 3032 0930 D7F88030 		ldr	r3, [r7, #128]
 3033 0934 0133     		adds	r3, r3, #1
 3034 0936 C7F88030 		str	r3, [r7, #128]
 3035              	.L112:
 426:STM32F10x_Speex_Lib/libspeex/smallft.c ****       ch2[t4++]=c2[ik]+ar1*c2[t7++];
 3036              		.loc 2 426 0 is_stmt 0 discriminator 1
 3037 093a D7F88020 		ldr	r2, [r7, #128]
 3038 093e 3B68     		ldr	r3, [r7]
 3039 0940 9A42     		cmp	r2, r3
 3040 0942 BFDB     		blt	.L113
 429:STM32F10x_Speex_Lib/libspeex/smallft.c ****     }
 430:STM32F10x_Speex_Lib/libspeex/smallft.c **** 
 431:STM32F10x_Speex_Lib/libspeex/smallft.c ****     dc2=ar1;
 3041              		.loc 2 431 0 is_stmt 1
 3042 0944 FB6C     		ldr	r3, [r7, #76]	@ float
 3043 0946 FB61     		str	r3, [r7, #28]	@ float
 432:STM32F10x_Speex_Lib/libspeex/smallft.c ****     ds2=ai1;
 3044              		.loc 2 432 0
 3045 0948 7B6D     		ldr	r3, [r7, #84]	@ float
 3046 094a BB61     		str	r3, [r7, #24]	@ float
 433:STM32F10x_Speex_Lib/libspeex/smallft.c ****     ar2=ar1;
 3047              		.loc 2 433 0
 3048 094c FB6C     		ldr	r3, [r7, #76]	@ float
 3049 094e BB64     		str	r3, [r7, #72]	@ float
 434:STM32F10x_Speex_Lib/libspeex/smallft.c ****     ai2=ai1;
 3050              		.loc 2 434 0
 3051 0950 7B6D     		ldr	r3, [r7, #84]	@ float
 3052 0952 3B65     		str	r3, [r7, #80]	@ float
 435:STM32F10x_Speex_Lib/libspeex/smallft.c **** 
 436:STM32F10x_Speex_Lib/libspeex/smallft.c ****     t4=idl1;
 3053              		.loc 2 436 0
 3054 0954 3B68     		ldr	r3, [r7]
 3055 0956 FB66     		str	r3, [r7, #108]
 437:STM32F10x_Speex_Lib/libspeex/smallft.c ****     t5=(ipp2-1)*idl1;
 3056              		.loc 2 437 0
 3057 0958 7B6B     		ldr	r3, [r7, #52]
 3058 095a 013B     		subs	r3, r3, #1
 3059 095c 3A68     		ldr	r2, [r7]
 3060 095e 02FB03F3 		mul	r3, r2, r3
 3061 0962 BB66     		str	r3, [r7, #104]
 438:STM32F10x_Speex_Lib/libspeex/smallft.c ****     for(j=2;j<ipph;j++){
 3062              		.loc 2 438 0
 3063 0964 0223     		movs	r3, #2
 3064 0966 C7F88C30 		str	r3, [r7, #140]
 3065 096a 88E0     		b	.L114
 3066              	.L117:
 439:STM32F10x_Speex_Lib/libspeex/smallft.c ****       t4+=idl1;
 3067              		.loc 2 439 0
 3068 096c FA6E     		ldr	r2, [r7, #108]
 3069 096e 3B68     		ldr	r3, [r7]
 3070 0970 1344     		add	r3, r3, r2
 3071 0972 FB66     		str	r3, [r7, #108]
ARM GAS  /var/folders/kh/x4vltyy52lbg7p4pcyglc5080000gp/T//ccKDo44O.s 			page 65


 440:STM32F10x_Speex_Lib/libspeex/smallft.c ****       t5-=idl1;
 3072              		.loc 2 440 0
 3073 0974 BA6E     		ldr	r2, [r7, #104]
 3074 0976 3B68     		ldr	r3, [r7]
 3075 0978 D31A     		subs	r3, r2, r3
 3076 097a BB66     		str	r3, [r7, #104]
 441:STM32F10x_Speex_Lib/libspeex/smallft.c **** 
 442:STM32F10x_Speex_Lib/libspeex/smallft.c ****       ar2h=dc2*ar2-ds2*ai2;
 3077              		.loc 2 442 0
 3078 097c B96C     		ldr	r1, [r7, #72]	@ float
 3079 097e F869     		ldr	r0, [r7, #28]	@ float
 3080 0980 FFF7FEFF 		bl	__aeabi_fmul
 3081 0984 0346     		mov	r3, r0
 3082 0986 1C46     		mov	r4, r3
 3083 0988 396D     		ldr	r1, [r7, #80]	@ float
 3084 098a B869     		ldr	r0, [r7, #24]	@ float
 3085 098c FFF7FEFF 		bl	__aeabi_fmul
 3086 0990 0346     		mov	r3, r0
 3087 0992 1946     		mov	r1, r3
 3088 0994 2046     		mov	r0, r4
 3089 0996 FFF7FEFF 		bl	__aeabi_fsub
 3090 099a 0346     		mov	r3, r0
 3091 099c 7B61     		str	r3, [r7, #20]	@ float
 443:STM32F10x_Speex_Lib/libspeex/smallft.c ****       ai2=dc2*ai2+ds2*ar2;
 3092              		.loc 2 443 0
 3093 099e 396D     		ldr	r1, [r7, #80]	@ float
 3094 09a0 F869     		ldr	r0, [r7, #28]	@ float
 3095 09a2 FFF7FEFF 		bl	__aeabi_fmul
 3096 09a6 0346     		mov	r3, r0
 3097 09a8 1C46     		mov	r4, r3
 3098 09aa B96C     		ldr	r1, [r7, #72]	@ float
 3099 09ac B869     		ldr	r0, [r7, #24]	@ float
 3100 09ae FFF7FEFF 		bl	__aeabi_fmul
 3101 09b2 0346     		mov	r3, r0
 3102 09b4 1946     		mov	r1, r3
 3103 09b6 2046     		mov	r0, r4
 3104 09b8 FFF7FEFF 		bl	__aeabi_fadd
 3105 09bc 0346     		mov	r3, r0
 3106 09be 3B65     		str	r3, [r7, #80]	@ float
 444:STM32F10x_Speex_Lib/libspeex/smallft.c ****       ar2=ar2h;
 3107              		.loc 2 444 0
 3108 09c0 7B69     		ldr	r3, [r7, #20]	@ float
 3109 09c2 BB64     		str	r3, [r7, #72]	@ float
 445:STM32F10x_Speex_Lib/libspeex/smallft.c **** 
 446:STM32F10x_Speex_Lib/libspeex/smallft.c ****       t6=t1;
 3110              		.loc 2 446 0
 3111 09c4 BB6F     		ldr	r3, [r7, #120]
 3112 09c6 7B66     		str	r3, [r7, #100]
 447:STM32F10x_Speex_Lib/libspeex/smallft.c ****       t7=t2;
 3113              		.loc 2 447 0
 3114 09c8 7B6F     		ldr	r3, [r7, #116]
 3115 09ca 3B66     		str	r3, [r7, #96]
 448:STM32F10x_Speex_Lib/libspeex/smallft.c ****       t8=t4;
 3116              		.loc 2 448 0
 3117 09cc FB6E     		ldr	r3, [r7, #108]
 3118 09ce FB65     		str	r3, [r7, #92]
 449:STM32F10x_Speex_Lib/libspeex/smallft.c ****       t9=t5;
ARM GAS  /var/folders/kh/x4vltyy52lbg7p4pcyglc5080000gp/T//ccKDo44O.s 			page 66


 3119              		.loc 2 449 0
 3120 09d0 BB6E     		ldr	r3, [r7, #104]
 3121 09d2 BB65     		str	r3, [r7, #88]
 450:STM32F10x_Speex_Lib/libspeex/smallft.c ****       for(ik=0;ik<idl1;ik++){
 3122              		.loc 2 450 0
 3123 09d4 0023     		movs	r3, #0
 3124 09d6 C7F88030 		str	r3, [r7, #128]
 3125 09da 46E0     		b	.L115
 3126              	.L116:
 451:STM32F10x_Speex_Lib/libspeex/smallft.c ****         ch2[t6++]+=ar2*c2[t8++];
 3127              		.loc 2 451 0 discriminator 3
 3128 09dc FB6D     		ldr	r3, [r7, #92]
 3129 09de 5A1C     		adds	r2, r3, #1
 3130 09e0 FA65     		str	r2, [r7, #92]
 3131 09e2 9B00     		lsls	r3, r3, #2
 3132 09e4 D7F8B020 		ldr	r2, [r7, #176]
 3133 09e8 1344     		add	r3, r3, r2
 3134 09ea 1B68     		ldr	r3, [r3]	@ float
 3135 09ec B96C     		ldr	r1, [r7, #72]	@ float
 3136 09ee 1846     		mov	r0, r3
 3137 09f0 FFF7FEFF 		bl	__aeabi_fmul
 3138 09f4 0346     		mov	r3, r0
 3139 09f6 1846     		mov	r0, r3
 3140 09f8 7B6E     		ldr	r3, [r7, #100]
 3141 09fa 5A1C     		adds	r2, r3, #1
 3142 09fc 7A66     		str	r2, [r7, #100]
 3143 09fe 1A46     		mov	r2, r3
 3144 0a00 9200     		lsls	r2, r2, #2
 3145 0a02 D7F8B810 		ldr	r1, [r7, #184]
 3146 0a06 8C18     		adds	r4, r1, r2
 3147 0a08 9B00     		lsls	r3, r3, #2
 3148 0a0a D7F8B820 		ldr	r2, [r7, #184]
 3149 0a0e 1344     		add	r3, r3, r2
 3150 0a10 1B68     		ldr	r3, [r3]	@ float
 3151 0a12 0146     		mov	r1, r0
 3152 0a14 1846     		mov	r0, r3
 3153 0a16 FFF7FEFF 		bl	__aeabi_fadd
 3154 0a1a 0346     		mov	r3, r0
 3155 0a1c 2360     		str	r3, [r4]	@ float
 452:STM32F10x_Speex_Lib/libspeex/smallft.c ****         ch2[t7++]+=ai2*c2[t9++];
 3156              		.loc 2 452 0 discriminator 3
 3157 0a1e BB6D     		ldr	r3, [r7, #88]
 3158 0a20 5A1C     		adds	r2, r3, #1
 3159 0a22 BA65     		str	r2, [r7, #88]
 3160 0a24 9B00     		lsls	r3, r3, #2
 3161 0a26 D7F8B020 		ldr	r2, [r7, #176]
 3162 0a2a 1344     		add	r3, r3, r2
 3163 0a2c 1B68     		ldr	r3, [r3]	@ float
 3164 0a2e 396D     		ldr	r1, [r7, #80]	@ float
 3165 0a30 1846     		mov	r0, r3
 3166 0a32 FFF7FEFF 		bl	__aeabi_fmul
 3167 0a36 0346     		mov	r3, r0
 3168 0a38 1846     		mov	r0, r3
 3169 0a3a 3B6E     		ldr	r3, [r7, #96]
 3170 0a3c 5A1C     		adds	r2, r3, #1
 3171 0a3e 3A66     		str	r2, [r7, #96]
 3172 0a40 1A46     		mov	r2, r3
ARM GAS  /var/folders/kh/x4vltyy52lbg7p4pcyglc5080000gp/T//ccKDo44O.s 			page 67


 3173 0a42 9200     		lsls	r2, r2, #2
 3174 0a44 D7F8B810 		ldr	r1, [r7, #184]
 3175 0a48 8C18     		adds	r4, r1, r2
 3176 0a4a 9B00     		lsls	r3, r3, #2
 3177 0a4c D7F8B820 		ldr	r2, [r7, #184]
 3178 0a50 1344     		add	r3, r3, r2
 3179 0a52 1B68     		ldr	r3, [r3]	@ float
 3180 0a54 0146     		mov	r1, r0
 3181 0a56 1846     		mov	r0, r3
 3182 0a58 FFF7FEFF 		bl	__aeabi_fadd
 3183 0a5c 0346     		mov	r3, r0
 3184 0a5e 2360     		str	r3, [r4]	@ float
 450:STM32F10x_Speex_Lib/libspeex/smallft.c ****       for(ik=0;ik<idl1;ik++){
 3185              		.loc 2 450 0 discriminator 3
 3186 0a60 D7F88030 		ldr	r3, [r7, #128]
 3187 0a64 0133     		adds	r3, r3, #1
 3188 0a66 C7F88030 		str	r3, [r7, #128]
 3189              	.L115:
 450:STM32F10x_Speex_Lib/libspeex/smallft.c ****       for(ik=0;ik<idl1;ik++){
 3190              		.loc 2 450 0 is_stmt 0 discriminator 1
 3191 0a6a D7F88020 		ldr	r2, [r7, #128]
 3192 0a6e 3B68     		ldr	r3, [r7]
 3193 0a70 9A42     		cmp	r2, r3
 3194 0a72 B3DB     		blt	.L116
 438:STM32F10x_Speex_Lib/libspeex/smallft.c ****       t4+=idl1;
 3195              		.loc 2 438 0 is_stmt 1 discriminator 2
 3196 0a74 D7F88C30 		ldr	r3, [r7, #140]
 3197 0a78 0133     		adds	r3, r3, #1
 3198 0a7a C7F88C30 		str	r3, [r7, #140]
 3199              	.L114:
 438:STM32F10x_Speex_Lib/libspeex/smallft.c ****       t4+=idl1;
 3200              		.loc 2 438 0 is_stmt 0 discriminator 1
 3201 0a7e D7F88C20 		ldr	r2, [r7, #140]
 3202 0a82 BB6B     		ldr	r3, [r7, #56]
 3203 0a84 9A42     		cmp	r2, r3
 3204 0a86 FFF671AF 		blt	.L117
 415:STM32F10x_Speex_Lib/libspeex/smallft.c ****     t1+=idl1;
 3205              		.loc 2 415 0 is_stmt 1 discriminator 2
 3206 0a8a D7F88430 		ldr	r3, [r7, #132]
 3207 0a8e 0133     		adds	r3, r3, #1
 3208 0a90 C7F88430 		str	r3, [r7, #132]
 3209              	.L111:
 415:STM32F10x_Speex_Lib/libspeex/smallft.c ****     t1+=idl1;
 3210              		.loc 2 415 0 is_stmt 0 discriminator 1
 3211 0a94 D7F88420 		ldr	r2, [r7, #132]
 3212 0a98 BB6B     		ldr	r3, [r7, #56]
 3213 0a9a 9A42     		cmp	r2, r3
 3214 0a9c FFF6DAAE 		blt	.L118
 453:STM32F10x_Speex_Lib/libspeex/smallft.c ****       }
 454:STM32F10x_Speex_Lib/libspeex/smallft.c ****     }
 455:STM32F10x_Speex_Lib/libspeex/smallft.c ****   }
 456:STM32F10x_Speex_Lib/libspeex/smallft.c **** 
 457:STM32F10x_Speex_Lib/libspeex/smallft.c ****   t1=0;
 3215              		.loc 2 457 0 is_stmt 1
 3216 0aa0 0023     		movs	r3, #0
 3217 0aa2 BB67     		str	r3, [r7, #120]
 458:STM32F10x_Speex_Lib/libspeex/smallft.c ****   for(j=1;j<ipph;j++){
ARM GAS  /var/folders/kh/x4vltyy52lbg7p4pcyglc5080000gp/T//ccKDo44O.s 			page 68


 3218              		.loc 2 458 0
 3219 0aa4 0123     		movs	r3, #1
 3220 0aa6 C7F88C30 		str	r3, [r7, #140]
 3221 0aaa 32E0     		b	.L119
 3222              	.L122:
 459:STM32F10x_Speex_Lib/libspeex/smallft.c ****     t1+=idl1;
 3223              		.loc 2 459 0
 3224 0aac BA6F     		ldr	r2, [r7, #120]
 3225 0aae 3B68     		ldr	r3, [r7]
 3226 0ab0 1344     		add	r3, r3, r2
 3227 0ab2 BB67     		str	r3, [r7, #120]
 460:STM32F10x_Speex_Lib/libspeex/smallft.c ****     t2=t1;
 3228              		.loc 2 460 0
 3229 0ab4 BB6F     		ldr	r3, [r7, #120]
 3230 0ab6 7B67     		str	r3, [r7, #116]
 461:STM32F10x_Speex_Lib/libspeex/smallft.c ****     for(ik=0;ik<idl1;ik++)ch2[ik]+=c2[t2++];
 3231              		.loc 2 461 0
 3232 0ab8 0023     		movs	r3, #0
 3233 0aba C7F88030 		str	r3, [r7, #128]
 3234 0abe 1EE0     		b	.L120
 3235              	.L121:
 3236              		.loc 2 461 0 is_stmt 0 discriminator 3
 3237 0ac0 7B6F     		ldr	r3, [r7, #116]
 3238 0ac2 5A1C     		adds	r2, r3, #1
 3239 0ac4 7A67     		str	r2, [r7, #116]
 3240 0ac6 9B00     		lsls	r3, r3, #2
 3241 0ac8 D7F8B020 		ldr	r2, [r7, #176]
 3242 0acc 1344     		add	r3, r3, r2
 3243 0ace 1968     		ldr	r1, [r3]	@ float
 3244 0ad0 D7F88030 		ldr	r3, [r7, #128]
 3245 0ad4 9B00     		lsls	r3, r3, #2
 3246 0ad6 D7F8B820 		ldr	r2, [r7, #184]
 3247 0ada D418     		adds	r4, r2, r3
 3248 0adc D7F88030 		ldr	r3, [r7, #128]
 3249 0ae0 9B00     		lsls	r3, r3, #2
 3250 0ae2 D7F8B820 		ldr	r2, [r7, #184]
 3251 0ae6 1344     		add	r3, r3, r2
 3252 0ae8 1B68     		ldr	r3, [r3]	@ float
 3253 0aea 1846     		mov	r0, r3
 3254 0aec FFF7FEFF 		bl	__aeabi_fadd
 3255 0af0 0346     		mov	r3, r0
 3256 0af2 2360     		str	r3, [r4]	@ float
 3257 0af4 D7F88030 		ldr	r3, [r7, #128]
 3258 0af8 0133     		adds	r3, r3, #1
 3259 0afa C7F88030 		str	r3, [r7, #128]
 3260              	.L120:
 3261              		.loc 2 461 0 discriminator 1
 3262 0afe D7F88020 		ldr	r2, [r7, #128]
 3263 0b02 3B68     		ldr	r3, [r7]
 3264 0b04 9A42     		cmp	r2, r3
 3265 0b06 DBDB     		blt	.L121
 458:STM32F10x_Speex_Lib/libspeex/smallft.c ****     t1+=idl1;
 3266              		.loc 2 458 0 is_stmt 1 discriminator 2
 3267 0b08 D7F88C30 		ldr	r3, [r7, #140]
 3268 0b0c 0133     		adds	r3, r3, #1
 3269 0b0e C7F88C30 		str	r3, [r7, #140]
 3270              	.L119:
ARM GAS  /var/folders/kh/x4vltyy52lbg7p4pcyglc5080000gp/T//ccKDo44O.s 			page 69


 458:STM32F10x_Speex_Lib/libspeex/smallft.c ****     t1+=idl1;
 3271              		.loc 2 458 0 is_stmt 0 discriminator 1
 3272 0b12 D7F88C20 		ldr	r2, [r7, #140]
 3273 0b16 BB6B     		ldr	r3, [r7, #56]
 3274 0b18 9A42     		cmp	r2, r3
 3275 0b1a C7DB     		blt	.L122
 462:STM32F10x_Speex_Lib/libspeex/smallft.c ****   }
 463:STM32F10x_Speex_Lib/libspeex/smallft.c **** 
 464:STM32F10x_Speex_Lib/libspeex/smallft.c ****   if(ido<l1)goto L132;
 3276              		.loc 2 464 0 is_stmt 1
 3277 0b1c FA68     		ldr	r2, [r7, #12]
 3278 0b1e 7B68     		ldr	r3, [r7, #4]
 3279 0b20 9A42     		cmp	r2, r3
 3280 0b22 3CDB     		blt	.L157
 465:STM32F10x_Speex_Lib/libspeex/smallft.c **** 
 466:STM32F10x_Speex_Lib/libspeex/smallft.c ****   t1=0;
 3281              		.loc 2 466 0
 3282 0b24 0023     		movs	r3, #0
 3283 0b26 BB67     		str	r3, [r7, #120]
 467:STM32F10x_Speex_Lib/libspeex/smallft.c ****   t2=0;
 3284              		.loc 2 467 0
 3285 0b28 0023     		movs	r3, #0
 3286 0b2a 7B67     		str	r3, [r7, #116]
 468:STM32F10x_Speex_Lib/libspeex/smallft.c ****   for(k=0;k<l1;k++){
 3287              		.loc 2 468 0
 3288 0b2c 0023     		movs	r3, #0
 3289 0b2e C7F88830 		str	r3, [r7, #136]
 3290 0b32 2EE0     		b	.L125
 3291              	.L128:
 469:STM32F10x_Speex_Lib/libspeex/smallft.c ****     t3=t1;
 3292              		.loc 2 469 0
 3293 0b34 BB6F     		ldr	r3, [r7, #120]
 3294 0b36 3B67     		str	r3, [r7, #112]
 470:STM32F10x_Speex_Lib/libspeex/smallft.c ****     t4=t2;
 3295              		.loc 2 470 0
 3296 0b38 7B6F     		ldr	r3, [r7, #116]
 3297 0b3a FB66     		str	r3, [r7, #108]
 471:STM32F10x_Speex_Lib/libspeex/smallft.c ****     for(i=0;i<ido;i++)cc[t4++]=ch[t3++];
 3298              		.loc 2 471 0
 3299 0b3c 0023     		movs	r3, #0
 3300 0b3e C7F89030 		str	r3, [r7, #144]
 3301 0b42 14E0     		b	.L126
 3302              	.L127:
 3303              		.loc 2 471 0 is_stmt 0 discriminator 3
 3304 0b44 FB6E     		ldr	r3, [r7, #108]
 3305 0b46 5A1C     		adds	r2, r3, #1
 3306 0b48 FA66     		str	r2, [r7, #108]
 3307 0b4a 9B00     		lsls	r3, r3, #2
 3308 0b4c D7F8A820 		ldr	r2, [r7, #168]
 3309 0b50 1A44     		add	r2, r2, r3
 3310 0b52 3B6F     		ldr	r3, [r7, #112]
 3311 0b54 591C     		adds	r1, r3, #1
 3312 0b56 3967     		str	r1, [r7, #112]
 3313 0b58 9B00     		lsls	r3, r3, #2
 3314 0b5a D7F8B410 		ldr	r1, [r7, #180]
 3315 0b5e 0B44     		add	r3, r3, r1
 3316 0b60 1B68     		ldr	r3, [r3]	@ float
ARM GAS  /var/folders/kh/x4vltyy52lbg7p4pcyglc5080000gp/T//ccKDo44O.s 			page 70


 3317 0b62 1360     		str	r3, [r2]	@ float
 3318 0b64 D7F89030 		ldr	r3, [r7, #144]
 3319 0b68 0133     		adds	r3, r3, #1
 3320 0b6a C7F89030 		str	r3, [r7, #144]
 3321              	.L126:
 3322              		.loc 2 471 0 discriminator 1
 3323 0b6e D7F89020 		ldr	r2, [r7, #144]
 3324 0b72 FB68     		ldr	r3, [r7, #12]
 3325 0b74 9A42     		cmp	r2, r3
 3326 0b76 E5DB     		blt	.L127
 472:STM32F10x_Speex_Lib/libspeex/smallft.c ****     t1+=ido;
 3327              		.loc 2 472 0 is_stmt 1 discriminator 2
 3328 0b78 BA6F     		ldr	r2, [r7, #120]
 3329 0b7a FB68     		ldr	r3, [r7, #12]
 3330 0b7c 1344     		add	r3, r3, r2
 3331 0b7e BB67     		str	r3, [r7, #120]
 473:STM32F10x_Speex_Lib/libspeex/smallft.c ****     t2+=t10;
 3332              		.loc 2 473 0 discriminator 2
 3333 0b80 7A6F     		ldr	r2, [r7, #116]
 3334 0b82 7B6A     		ldr	r3, [r7, #36]
 3335 0b84 1344     		add	r3, r3, r2
 3336 0b86 7B67     		str	r3, [r7, #116]
 468:STM32F10x_Speex_Lib/libspeex/smallft.c ****     t3=t1;
 3337              		.loc 2 468 0 discriminator 2
 3338 0b88 D7F88830 		ldr	r3, [r7, #136]
 3339 0b8c 0133     		adds	r3, r3, #1
 3340 0b8e C7F88830 		str	r3, [r7, #136]
 3341              	.L125:
 468:STM32F10x_Speex_Lib/libspeex/smallft.c ****     t3=t1;
 3342              		.loc 2 468 0 is_stmt 0 discriminator 1
 3343 0b92 D7F88820 		ldr	r2, [r7, #136]
 3344 0b96 7B68     		ldr	r3, [r7, #4]
 3345 0b98 9A42     		cmp	r2, r3
 3346 0b9a CBDB     		blt	.L128
 474:STM32F10x_Speex_Lib/libspeex/smallft.c ****   }
 475:STM32F10x_Speex_Lib/libspeex/smallft.c **** 
 476:STM32F10x_Speex_Lib/libspeex/smallft.c ****   goto L135;
 3347              		.loc 2 476 0 is_stmt 1
 3348 0b9c 36E0     		b	.L129
 3349              	.L157:
 464:STM32F10x_Speex_Lib/libspeex/smallft.c **** 
 3350              		.loc 2 464 0
 3351 0b9e 00BF     		nop
 3352              	.L124:
 477:STM32F10x_Speex_Lib/libspeex/smallft.c **** 
 478:STM32F10x_Speex_Lib/libspeex/smallft.c ****  L132:
 479:STM32F10x_Speex_Lib/libspeex/smallft.c ****   for(i=0;i<ido;i++){
 3353              		.loc 2 479 0
 3354 0ba0 0023     		movs	r3, #0
 3355 0ba2 C7F89030 		str	r3, [r7, #144]
 3356 0ba6 2CE0     		b	.L130
 3357              	.L133:
 480:STM32F10x_Speex_Lib/libspeex/smallft.c ****     t1=i;
 3358              		.loc 2 480 0
 3359 0ba8 D7F89030 		ldr	r3, [r7, #144]
 3360 0bac BB67     		str	r3, [r7, #120]
 481:STM32F10x_Speex_Lib/libspeex/smallft.c ****     t2=i;
ARM GAS  /var/folders/kh/x4vltyy52lbg7p4pcyglc5080000gp/T//ccKDo44O.s 			page 71


 3361              		.loc 2 481 0
 3362 0bae D7F89030 		ldr	r3, [r7, #144]
 3363 0bb2 7B67     		str	r3, [r7, #116]
 482:STM32F10x_Speex_Lib/libspeex/smallft.c ****     for(k=0;k<l1;k++){
 3364              		.loc 2 482 0
 3365 0bb4 0023     		movs	r3, #0
 3366 0bb6 C7F88830 		str	r3, [r7, #136]
 3367 0bba 18E0     		b	.L131
 3368              	.L132:
 483:STM32F10x_Speex_Lib/libspeex/smallft.c ****       cc[t2]=ch[t1];
 3369              		.loc 2 483 0 discriminator 3
 3370 0bbc 7B6F     		ldr	r3, [r7, #116]
 3371 0bbe 9B00     		lsls	r3, r3, #2
 3372 0bc0 D7F8A820 		ldr	r2, [r7, #168]
 3373 0bc4 1344     		add	r3, r3, r2
 3374 0bc6 BA6F     		ldr	r2, [r7, #120]
 3375 0bc8 9200     		lsls	r2, r2, #2
 3376 0bca D7F8B410 		ldr	r1, [r7, #180]
 3377 0bce 0A44     		add	r2, r2, r1
 3378 0bd0 1268     		ldr	r2, [r2]	@ float
 3379 0bd2 1A60     		str	r2, [r3]	@ float
 484:STM32F10x_Speex_Lib/libspeex/smallft.c ****       t1+=ido;
 3380              		.loc 2 484 0 discriminator 3
 3381 0bd4 BA6F     		ldr	r2, [r7, #120]
 3382 0bd6 FB68     		ldr	r3, [r7, #12]
 3383 0bd8 1344     		add	r3, r3, r2
 3384 0bda BB67     		str	r3, [r7, #120]
 485:STM32F10x_Speex_Lib/libspeex/smallft.c ****       t2+=t10;
 3385              		.loc 2 485 0 discriminator 3
 3386 0bdc 7A6F     		ldr	r2, [r7, #116]
 3387 0bde 7B6A     		ldr	r3, [r7, #36]
 3388 0be0 1344     		add	r3, r3, r2
 3389 0be2 7B67     		str	r3, [r7, #116]
 482:STM32F10x_Speex_Lib/libspeex/smallft.c ****       cc[t2]=ch[t1];
 3390              		.loc 2 482 0 discriminator 3
 3391 0be4 D7F88830 		ldr	r3, [r7, #136]
 3392 0be8 0133     		adds	r3, r3, #1
 3393 0bea C7F88830 		str	r3, [r7, #136]
 3394              	.L131:
 482:STM32F10x_Speex_Lib/libspeex/smallft.c ****       cc[t2]=ch[t1];
 3395              		.loc 2 482 0 is_stmt 0 discriminator 1
 3396 0bee D7F88820 		ldr	r2, [r7, #136]
 3397 0bf2 7B68     		ldr	r3, [r7, #4]
 3398 0bf4 9A42     		cmp	r2, r3
 3399 0bf6 E1DB     		blt	.L132
 479:STM32F10x_Speex_Lib/libspeex/smallft.c ****     t1=i;
 3400              		.loc 2 479 0 is_stmt 1 discriminator 2
 3401 0bf8 D7F89030 		ldr	r3, [r7, #144]
 3402 0bfc 0133     		adds	r3, r3, #1
 3403 0bfe C7F89030 		str	r3, [r7, #144]
 3404              	.L130:
 479:STM32F10x_Speex_Lib/libspeex/smallft.c ****     t1=i;
 3405              		.loc 2 479 0 is_stmt 0 discriminator 1
 3406 0c02 D7F89020 		ldr	r2, [r7, #144]
 3407 0c06 FB68     		ldr	r3, [r7, #12]
 3408 0c08 9A42     		cmp	r2, r3
 3409 0c0a CDDB     		blt	.L133
ARM GAS  /var/folders/kh/x4vltyy52lbg7p4pcyglc5080000gp/T//ccKDo44O.s 			page 72


 3410              	.L129:
 486:STM32F10x_Speex_Lib/libspeex/smallft.c ****     }
 487:STM32F10x_Speex_Lib/libspeex/smallft.c ****   }
 488:STM32F10x_Speex_Lib/libspeex/smallft.c **** 
 489:STM32F10x_Speex_Lib/libspeex/smallft.c ****  L135:
 490:STM32F10x_Speex_Lib/libspeex/smallft.c ****   t1=0;
 3411              		.loc 2 490 0 is_stmt 1
 3412 0c0c 0023     		movs	r3, #0
 3413 0c0e BB67     		str	r3, [r7, #120]
 491:STM32F10x_Speex_Lib/libspeex/smallft.c ****   t2=ido<<1;
 3414              		.loc 2 491 0
 3415 0c10 FB68     		ldr	r3, [r7, #12]
 3416 0c12 5B00     		lsls	r3, r3, #1
 3417 0c14 7B67     		str	r3, [r7, #116]
 492:STM32F10x_Speex_Lib/libspeex/smallft.c ****   t3=0;
 3418              		.loc 2 492 0
 3419 0c16 0023     		movs	r3, #0
 3420 0c18 3B67     		str	r3, [r7, #112]
 493:STM32F10x_Speex_Lib/libspeex/smallft.c ****   t4=ipp2*t0;
 3421              		.loc 2 493 0
 3422 0c1a 7B6B     		ldr	r3, [r7, #52]
 3423 0c1c BA6A     		ldr	r2, [r7, #40]
 3424 0c1e 02FB03F3 		mul	r3, r2, r3
 3425 0c22 FB66     		str	r3, [r7, #108]
 494:STM32F10x_Speex_Lib/libspeex/smallft.c ****   for(j=1;j<ipph;j++){
 3426              		.loc 2 494 0
 3427 0c24 0123     		movs	r3, #1
 3428 0c26 C7F88C30 		str	r3, [r7, #140]
 3429 0c2a 4BE0     		b	.L134
 3430              	.L137:
 495:STM32F10x_Speex_Lib/libspeex/smallft.c **** 
 496:STM32F10x_Speex_Lib/libspeex/smallft.c ****     t1+=t2;
 3431              		.loc 2 496 0
 3432 0c2c BA6F     		ldr	r2, [r7, #120]
 3433 0c2e 7B6F     		ldr	r3, [r7, #116]
 3434 0c30 1344     		add	r3, r3, r2
 3435 0c32 BB67     		str	r3, [r7, #120]
 497:STM32F10x_Speex_Lib/libspeex/smallft.c ****     t3+=t0;
 3436              		.loc 2 497 0
 3437 0c34 3A6F     		ldr	r2, [r7, #112]
 3438 0c36 BB6A     		ldr	r3, [r7, #40]
 3439 0c38 1344     		add	r3, r3, r2
 3440 0c3a 3B67     		str	r3, [r7, #112]
 498:STM32F10x_Speex_Lib/libspeex/smallft.c ****     t4-=t0;
 3441              		.loc 2 498 0
 3442 0c3c FA6E     		ldr	r2, [r7, #108]
 3443 0c3e BB6A     		ldr	r3, [r7, #40]
 3444 0c40 D31A     		subs	r3, r2, r3
 3445 0c42 FB66     		str	r3, [r7, #108]
 499:STM32F10x_Speex_Lib/libspeex/smallft.c **** 
 500:STM32F10x_Speex_Lib/libspeex/smallft.c ****     t5=t1;
 3446              		.loc 2 500 0
 3447 0c44 BB6F     		ldr	r3, [r7, #120]
 3448 0c46 BB66     		str	r3, [r7, #104]
 501:STM32F10x_Speex_Lib/libspeex/smallft.c ****     t6=t3;
 3449              		.loc 2 501 0
 3450 0c48 3B6F     		ldr	r3, [r7, #112]
ARM GAS  /var/folders/kh/x4vltyy52lbg7p4pcyglc5080000gp/T//ccKDo44O.s 			page 73


 3451 0c4a 7B66     		str	r3, [r7, #100]
 502:STM32F10x_Speex_Lib/libspeex/smallft.c ****     t7=t4;
 3452              		.loc 2 502 0
 3453 0c4c FB6E     		ldr	r3, [r7, #108]
 3454 0c4e 3B66     		str	r3, [r7, #96]
 503:STM32F10x_Speex_Lib/libspeex/smallft.c **** 
 504:STM32F10x_Speex_Lib/libspeex/smallft.c ****     for(k=0;k<l1;k++){
 3455              		.loc 2 504 0
 3456 0c50 0023     		movs	r3, #0
 3457 0c52 C7F88830 		str	r3, [r7, #136]
 3458 0c56 2BE0     		b	.L135
 3459              	.L136:
 505:STM32F10x_Speex_Lib/libspeex/smallft.c ****       cc[t5-1]=ch[t6];
 3460              		.loc 2 505 0 discriminator 3
 3461 0c58 BB6E     		ldr	r3, [r7, #104]
 3462 0c5a 03F18043 		add	r3, r3, #1073741824
 3463 0c5e 013B     		subs	r3, r3, #1
 3464 0c60 9B00     		lsls	r3, r3, #2
 3465 0c62 D7F8A820 		ldr	r2, [r7, #168]
 3466 0c66 1344     		add	r3, r3, r2
 3467 0c68 7A6E     		ldr	r2, [r7, #100]
 3468 0c6a 9200     		lsls	r2, r2, #2
 3469 0c6c D7F8B410 		ldr	r1, [r7, #180]
 3470 0c70 0A44     		add	r2, r2, r1
 3471 0c72 1268     		ldr	r2, [r2]	@ float
 3472 0c74 1A60     		str	r2, [r3]	@ float
 506:STM32F10x_Speex_Lib/libspeex/smallft.c ****       cc[t5]=ch[t7];
 3473              		.loc 2 506 0 discriminator 3
 3474 0c76 BB6E     		ldr	r3, [r7, #104]
 3475 0c78 9B00     		lsls	r3, r3, #2
 3476 0c7a D7F8A820 		ldr	r2, [r7, #168]
 3477 0c7e 1344     		add	r3, r3, r2
 3478 0c80 3A6E     		ldr	r2, [r7, #96]
 3479 0c82 9200     		lsls	r2, r2, #2
 3480 0c84 D7F8B410 		ldr	r1, [r7, #180]
 3481 0c88 0A44     		add	r2, r2, r1
 3482 0c8a 1268     		ldr	r2, [r2]	@ float
 3483 0c8c 1A60     		str	r2, [r3]	@ float
 507:STM32F10x_Speex_Lib/libspeex/smallft.c ****       t5+=t10;
 3484              		.loc 2 507 0 discriminator 3
 3485 0c8e BA6E     		ldr	r2, [r7, #104]
 3486 0c90 7B6A     		ldr	r3, [r7, #36]
 3487 0c92 1344     		add	r3, r3, r2
 3488 0c94 BB66     		str	r3, [r7, #104]
 508:STM32F10x_Speex_Lib/libspeex/smallft.c ****       t6+=ido;
 3489              		.loc 2 508 0 discriminator 3
 3490 0c96 7A6E     		ldr	r2, [r7, #100]
 3491 0c98 FB68     		ldr	r3, [r7, #12]
 3492 0c9a 1344     		add	r3, r3, r2
 3493 0c9c 7B66     		str	r3, [r7, #100]
 509:STM32F10x_Speex_Lib/libspeex/smallft.c ****       t7+=ido;
 3494              		.loc 2 509 0 discriminator 3
 3495 0c9e 3A6E     		ldr	r2, [r7, #96]
 3496 0ca0 FB68     		ldr	r3, [r7, #12]
 3497 0ca2 1344     		add	r3, r3, r2
 3498 0ca4 3B66     		str	r3, [r7, #96]
 504:STM32F10x_Speex_Lib/libspeex/smallft.c ****       cc[t5-1]=ch[t6];
ARM GAS  /var/folders/kh/x4vltyy52lbg7p4pcyglc5080000gp/T//ccKDo44O.s 			page 74


 3499              		.loc 2 504 0 discriminator 3
 3500 0ca6 D7F88830 		ldr	r3, [r7, #136]
 3501 0caa 0133     		adds	r3, r3, #1
 3502 0cac C7F88830 		str	r3, [r7, #136]
 3503              	.L135:
 504:STM32F10x_Speex_Lib/libspeex/smallft.c ****       cc[t5-1]=ch[t6];
 3504              		.loc 2 504 0 is_stmt 0 discriminator 1
 3505 0cb0 D7F88820 		ldr	r2, [r7, #136]
 3506 0cb4 7B68     		ldr	r3, [r7, #4]
 3507 0cb6 9A42     		cmp	r2, r3
 3508 0cb8 CEDB     		blt	.L136
 494:STM32F10x_Speex_Lib/libspeex/smallft.c **** 
 3509              		.loc 2 494 0 is_stmt 1 discriminator 2
 3510 0cba D7F88C30 		ldr	r3, [r7, #140]
 3511 0cbe 0133     		adds	r3, r3, #1
 3512 0cc0 C7F88C30 		str	r3, [r7, #140]
 3513              	.L134:
 494:STM32F10x_Speex_Lib/libspeex/smallft.c **** 
 3514              		.loc 2 494 0 is_stmt 0 discriminator 1
 3515 0cc4 D7F88C20 		ldr	r2, [r7, #140]
 3516 0cc8 BB6B     		ldr	r3, [r7, #56]
 3517 0cca 9A42     		cmp	r2, r3
 3518 0ccc AEDB     		blt	.L137
 510:STM32F10x_Speex_Lib/libspeex/smallft.c ****     }
 511:STM32F10x_Speex_Lib/libspeex/smallft.c ****   }
 512:STM32F10x_Speex_Lib/libspeex/smallft.c **** 
 513:STM32F10x_Speex_Lib/libspeex/smallft.c ****   if(ido==1)return;
 3519              		.loc 2 513 0 is_stmt 1
 3520 0cce FB68     		ldr	r3, [r7, #12]
 3521 0cd0 012B     		cmp	r3, #1
 3522 0cd2 00F0D381 		beq	.L158
 514:STM32F10x_Speex_Lib/libspeex/smallft.c ****   if(nbd<l1)goto L141;
 3523              		.loc 2 514 0
 3524 0cd6 FA6A     		ldr	r2, [r7, #44]
 3525 0cd8 7B68     		ldr	r3, [r7, #4]
 3526 0cda 9A42     		cmp	r2, r3
 3527 0cdc C0F2F380 		blt	.L159
 515:STM32F10x_Speex_Lib/libspeex/smallft.c **** 
 516:STM32F10x_Speex_Lib/libspeex/smallft.c ****   t1=-ido;
 3528              		.loc 2 516 0
 3529 0ce0 FB68     		ldr	r3, [r7, #12]
 3530 0ce2 5B42     		negs	r3, r3
 3531 0ce4 BB67     		str	r3, [r7, #120]
 517:STM32F10x_Speex_Lib/libspeex/smallft.c ****   t3=0;
 3532              		.loc 2 517 0
 3533 0ce6 0023     		movs	r3, #0
 3534 0ce8 3B67     		str	r3, [r7, #112]
 518:STM32F10x_Speex_Lib/libspeex/smallft.c ****   t4=0;
 3535              		.loc 2 518 0
 3536 0cea 0023     		movs	r3, #0
 3537 0cec FB66     		str	r3, [r7, #108]
 519:STM32F10x_Speex_Lib/libspeex/smallft.c ****   t5=ipp2*t0;
 3538              		.loc 2 519 0
 3539 0cee 7B6B     		ldr	r3, [r7, #52]
 3540 0cf0 BA6A     		ldr	r2, [r7, #40]
 3541 0cf2 02FB03F3 		mul	r3, r2, r3
 3542 0cf6 BB66     		str	r3, [r7, #104]
ARM GAS  /var/folders/kh/x4vltyy52lbg7p4pcyglc5080000gp/T//ccKDo44O.s 			page 75


 520:STM32F10x_Speex_Lib/libspeex/smallft.c ****   for(j=1;j<ipph;j++){
 3543              		.loc 2 520 0
 3544 0cf8 0123     		movs	r3, #1
 3545 0cfa C7F88C30 		str	r3, [r7, #140]
 3546 0cfe DBE0     		b	.L142
 3547              	.L147:
 521:STM32F10x_Speex_Lib/libspeex/smallft.c ****     t1+=t2;
 3548              		.loc 2 521 0
 3549 0d00 BA6F     		ldr	r2, [r7, #120]
 3550 0d02 7B6F     		ldr	r3, [r7, #116]
 3551 0d04 1344     		add	r3, r3, r2
 3552 0d06 BB67     		str	r3, [r7, #120]
 522:STM32F10x_Speex_Lib/libspeex/smallft.c ****     t3+=t2;
 3553              		.loc 2 522 0
 3554 0d08 3A6F     		ldr	r2, [r7, #112]
 3555 0d0a 7B6F     		ldr	r3, [r7, #116]
 3556 0d0c 1344     		add	r3, r3, r2
 3557 0d0e 3B67     		str	r3, [r7, #112]
 523:STM32F10x_Speex_Lib/libspeex/smallft.c ****     t4+=t0;
 3558              		.loc 2 523 0
 3559 0d10 FA6E     		ldr	r2, [r7, #108]
 3560 0d12 BB6A     		ldr	r3, [r7, #40]
 3561 0d14 1344     		add	r3, r3, r2
 3562 0d16 FB66     		str	r3, [r7, #108]
 524:STM32F10x_Speex_Lib/libspeex/smallft.c ****     t5-=t0;
 3563              		.loc 2 524 0
 3564 0d18 BA6E     		ldr	r2, [r7, #104]
 3565 0d1a BB6A     		ldr	r3, [r7, #40]
 3566 0d1c D31A     		subs	r3, r2, r3
 3567 0d1e BB66     		str	r3, [r7, #104]
 525:STM32F10x_Speex_Lib/libspeex/smallft.c ****     t6=t1;
 3568              		.loc 2 525 0
 3569 0d20 BB6F     		ldr	r3, [r7, #120]
 3570 0d22 7B66     		str	r3, [r7, #100]
 526:STM32F10x_Speex_Lib/libspeex/smallft.c ****     t7=t3;
 3571              		.loc 2 526 0
 3572 0d24 3B6F     		ldr	r3, [r7, #112]
 3573 0d26 3B66     		str	r3, [r7, #96]
 527:STM32F10x_Speex_Lib/libspeex/smallft.c ****     t8=t4;
 3574              		.loc 2 527 0
 3575 0d28 FB6E     		ldr	r3, [r7, #108]
 3576 0d2a FB65     		str	r3, [r7, #92]
 528:STM32F10x_Speex_Lib/libspeex/smallft.c ****     t9=t5;
 3577              		.loc 2 528 0
 3578 0d2c BB6E     		ldr	r3, [r7, #104]
 3579 0d2e BB65     		str	r3, [r7, #88]
 529:STM32F10x_Speex_Lib/libspeex/smallft.c ****     for(k=0;k<l1;k++){
 3580              		.loc 2 529 0
 3581 0d30 0023     		movs	r3, #0
 3582 0d32 C7F88830 		str	r3, [r7, #136]
 3583 0d36 B4E0     		b	.L143
 3584              	.L146:
 530:STM32F10x_Speex_Lib/libspeex/smallft.c ****       for(i=2;i<ido;i+=2){
 3585              		.loc 2 530 0
 3586 0d38 0223     		movs	r3, #2
 3587 0d3a C7F89030 		str	r3, [r7, #144]
 3588 0d3e 95E0     		b	.L144
ARM GAS  /var/folders/kh/x4vltyy52lbg7p4pcyglc5080000gp/T//ccKDo44O.s 			page 76


 3589              	.L145:
 531:STM32F10x_Speex_Lib/libspeex/smallft.c ****         ic=idp2-i;
 3590              		.loc 2 531 0 discriminator 3
 3591 0d40 3A6B     		ldr	r2, [r7, #48]
 3592 0d42 D7F89030 		ldr	r3, [r7, #144]
 3593 0d46 D31A     		subs	r3, r2, r3
 3594 0d48 3B61     		str	r3, [r7, #16]
 532:STM32F10x_Speex_Lib/libspeex/smallft.c ****         cc[i+t7-1]=ch[i+t8-1]+ch[i+t9-1];
 3595              		.loc 2 532 0 discriminator 3
 3596 0d4a D7F89020 		ldr	r2, [r7, #144]
 3597 0d4e 3B6E     		ldr	r3, [r7, #96]
 3598 0d50 1344     		add	r3, r3, r2
 3599 0d52 03F18043 		add	r3, r3, #1073741824
 3600 0d56 013B     		subs	r3, r3, #1
 3601 0d58 9B00     		lsls	r3, r3, #2
 3602 0d5a D7F8A820 		ldr	r2, [r7, #168]
 3603 0d5e D418     		adds	r4, r2, r3
 3604 0d60 D7F89020 		ldr	r2, [r7, #144]
 3605 0d64 FB6D     		ldr	r3, [r7, #92]
 3606 0d66 1344     		add	r3, r3, r2
 3607 0d68 03F18043 		add	r3, r3, #1073741824
 3608 0d6c 013B     		subs	r3, r3, #1
 3609 0d6e 9B00     		lsls	r3, r3, #2
 3610 0d70 D7F8B420 		ldr	r2, [r7, #180]
 3611 0d74 1344     		add	r3, r3, r2
 3612 0d76 1868     		ldr	r0, [r3]	@ float
 3613 0d78 D7F89020 		ldr	r2, [r7, #144]
 3614 0d7c BB6D     		ldr	r3, [r7, #88]
 3615 0d7e 1344     		add	r3, r3, r2
 3616 0d80 03F18043 		add	r3, r3, #1073741824
 3617 0d84 013B     		subs	r3, r3, #1
 3618 0d86 9B00     		lsls	r3, r3, #2
 3619 0d88 D7F8B420 		ldr	r2, [r7, #180]
 3620 0d8c 1344     		add	r3, r3, r2
 3621 0d8e 1B68     		ldr	r3, [r3]	@ float
 3622 0d90 1946     		mov	r1, r3
 3623 0d92 FFF7FEFF 		bl	__aeabi_fadd
 3624 0d96 0346     		mov	r3, r0
 3625 0d98 2360     		str	r3, [r4]	@ float
 533:STM32F10x_Speex_Lib/libspeex/smallft.c ****         cc[ic+t6-1]=ch[i+t8-1]-ch[i+t9-1];
 3626              		.loc 2 533 0 discriminator 3
 3627 0d9a 3A69     		ldr	r2, [r7, #16]
 3628 0d9c 7B6E     		ldr	r3, [r7, #100]
 3629 0d9e 1344     		add	r3, r3, r2
 3630 0da0 03F18043 		add	r3, r3, #1073741824
 3631 0da4 013B     		subs	r3, r3, #1
 3632 0da6 9B00     		lsls	r3, r3, #2
 3633 0da8 D7F8A820 		ldr	r2, [r7, #168]
 3634 0dac D418     		adds	r4, r2, r3
 3635 0dae D7F89020 		ldr	r2, [r7, #144]
 3636 0db2 FB6D     		ldr	r3, [r7, #92]
 3637 0db4 1344     		add	r3, r3, r2
 3638 0db6 03F18043 		add	r3, r3, #1073741824
 3639 0dba 013B     		subs	r3, r3, #1
 3640 0dbc 9B00     		lsls	r3, r3, #2
 3641 0dbe D7F8B420 		ldr	r2, [r7, #180]
 3642 0dc2 1344     		add	r3, r3, r2
ARM GAS  /var/folders/kh/x4vltyy52lbg7p4pcyglc5080000gp/T//ccKDo44O.s 			page 77


 3643 0dc4 1868     		ldr	r0, [r3]	@ float
 3644 0dc6 D7F89020 		ldr	r2, [r7, #144]
 3645 0dca BB6D     		ldr	r3, [r7, #88]
 3646 0dcc 1344     		add	r3, r3, r2
 3647 0dce 03F18043 		add	r3, r3, #1073741824
 3648 0dd2 013B     		subs	r3, r3, #1
 3649 0dd4 9B00     		lsls	r3, r3, #2
 3650 0dd6 D7F8B420 		ldr	r2, [r7, #180]
 3651 0dda 1344     		add	r3, r3, r2
 3652 0ddc 1B68     		ldr	r3, [r3]	@ float
 3653 0dde 1946     		mov	r1, r3
 3654 0de0 FFF7FEFF 		bl	__aeabi_fsub
 3655 0de4 0346     		mov	r3, r0
 3656 0de6 2360     		str	r3, [r4]	@ float
 534:STM32F10x_Speex_Lib/libspeex/smallft.c ****         cc[i+t7]=ch[i+t8]+ch[i+t9];
 3657              		.loc 2 534 0 discriminator 3
 3658 0de8 D7F89020 		ldr	r2, [r7, #144]
 3659 0dec 3B6E     		ldr	r3, [r7, #96]
 3660 0dee 1344     		add	r3, r3, r2
 3661 0df0 9B00     		lsls	r3, r3, #2
 3662 0df2 D7F8A820 		ldr	r2, [r7, #168]
 3663 0df6 D418     		adds	r4, r2, r3
 3664 0df8 D7F89020 		ldr	r2, [r7, #144]
 3665 0dfc FB6D     		ldr	r3, [r7, #92]
 3666 0dfe 1344     		add	r3, r3, r2
 3667 0e00 9B00     		lsls	r3, r3, #2
 3668 0e02 D7F8B420 		ldr	r2, [r7, #180]
 3669 0e06 1344     		add	r3, r3, r2
 3670 0e08 1868     		ldr	r0, [r3]	@ float
 3671 0e0a D7F89020 		ldr	r2, [r7, #144]
 3672 0e0e BB6D     		ldr	r3, [r7, #88]
 3673 0e10 1344     		add	r3, r3, r2
 3674 0e12 9B00     		lsls	r3, r3, #2
 3675 0e14 D7F8B420 		ldr	r2, [r7, #180]
 3676 0e18 1344     		add	r3, r3, r2
 3677 0e1a 1B68     		ldr	r3, [r3]	@ float
 3678 0e1c 1946     		mov	r1, r3
 3679 0e1e FFF7FEFF 		bl	__aeabi_fadd
 3680 0e22 0346     		mov	r3, r0
 3681 0e24 2360     		str	r3, [r4]	@ float
 535:STM32F10x_Speex_Lib/libspeex/smallft.c ****         cc[ic+t6]=ch[i+t9]-ch[i+t8];
 3682              		.loc 2 535 0 discriminator 3
 3683 0e26 3A69     		ldr	r2, [r7, #16]
 3684 0e28 7B6E     		ldr	r3, [r7, #100]
 3685 0e2a 1344     		add	r3, r3, r2
 3686 0e2c 9B00     		lsls	r3, r3, #2
 3687 0e2e D7F8A820 		ldr	r2, [r7, #168]
 3688 0e32 D418     		adds	r4, r2, r3
 3689 0e34 D7F89020 		ldr	r2, [r7, #144]
 3690 0e38 BB6D     		ldr	r3, [r7, #88]
 3691 0e3a 1344     		add	r3, r3, r2
 3692 0e3c 9B00     		lsls	r3, r3, #2
 3693 0e3e D7F8B420 		ldr	r2, [r7, #180]
 3694 0e42 1344     		add	r3, r3, r2
 3695 0e44 1868     		ldr	r0, [r3]	@ float
 3696 0e46 D7F89020 		ldr	r2, [r7, #144]
 3697 0e4a FB6D     		ldr	r3, [r7, #92]
ARM GAS  /var/folders/kh/x4vltyy52lbg7p4pcyglc5080000gp/T//ccKDo44O.s 			page 78


 3698 0e4c 1344     		add	r3, r3, r2
 3699 0e4e 9B00     		lsls	r3, r3, #2
 3700 0e50 D7F8B420 		ldr	r2, [r7, #180]
 3701 0e54 1344     		add	r3, r3, r2
 3702 0e56 1B68     		ldr	r3, [r3]	@ float
 3703 0e58 1946     		mov	r1, r3
 3704 0e5a FFF7FEFF 		bl	__aeabi_fsub
 3705 0e5e 0346     		mov	r3, r0
 3706 0e60 2360     		str	r3, [r4]	@ float
 530:STM32F10x_Speex_Lib/libspeex/smallft.c ****         ic=idp2-i;
 3707              		.loc 2 530 0 discriminator 3
 3708 0e62 D7F89030 		ldr	r3, [r7, #144]
 3709 0e66 0233     		adds	r3, r3, #2
 3710 0e68 C7F89030 		str	r3, [r7, #144]
 3711              	.L144:
 530:STM32F10x_Speex_Lib/libspeex/smallft.c ****         ic=idp2-i;
 3712              		.loc 2 530 0 is_stmt 0 discriminator 1
 3713 0e6c D7F89020 		ldr	r2, [r7, #144]
 3714 0e70 FB68     		ldr	r3, [r7, #12]
 3715 0e72 9A42     		cmp	r2, r3
 3716 0e74 FFF664AF 		blt	.L145
 536:STM32F10x_Speex_Lib/libspeex/smallft.c ****       }
 537:STM32F10x_Speex_Lib/libspeex/smallft.c ****       t6+=t10;
 3717              		.loc 2 537 0 is_stmt 1 discriminator 2
 3718 0e78 7A6E     		ldr	r2, [r7, #100]
 3719 0e7a 7B6A     		ldr	r3, [r7, #36]
 3720 0e7c 1344     		add	r3, r3, r2
 3721 0e7e 7B66     		str	r3, [r7, #100]
 538:STM32F10x_Speex_Lib/libspeex/smallft.c ****       t7+=t10;
 3722              		.loc 2 538 0 discriminator 2
 3723 0e80 3A6E     		ldr	r2, [r7, #96]
 3724 0e82 7B6A     		ldr	r3, [r7, #36]
 3725 0e84 1344     		add	r3, r3, r2
 3726 0e86 3B66     		str	r3, [r7, #96]
 539:STM32F10x_Speex_Lib/libspeex/smallft.c ****       t8+=ido;
 3727              		.loc 2 539 0 discriminator 2
 3728 0e88 FA6D     		ldr	r2, [r7, #92]
 3729 0e8a FB68     		ldr	r3, [r7, #12]
 3730 0e8c 1344     		add	r3, r3, r2
 3731 0e8e FB65     		str	r3, [r7, #92]
 540:STM32F10x_Speex_Lib/libspeex/smallft.c ****       t9+=ido;
 3732              		.loc 2 540 0 discriminator 2
 3733 0e90 BA6D     		ldr	r2, [r7, #88]
 3734 0e92 FB68     		ldr	r3, [r7, #12]
 3735 0e94 1344     		add	r3, r3, r2
 3736 0e96 BB65     		str	r3, [r7, #88]
 529:STM32F10x_Speex_Lib/libspeex/smallft.c ****       for(i=2;i<ido;i+=2){
 3737              		.loc 2 529 0 discriminator 2
 3738 0e98 D7F88830 		ldr	r3, [r7, #136]
 3739 0e9c 0133     		adds	r3, r3, #1
 3740 0e9e C7F88830 		str	r3, [r7, #136]
 3741              	.L143:
 529:STM32F10x_Speex_Lib/libspeex/smallft.c ****       for(i=2;i<ido;i+=2){
 3742              		.loc 2 529 0 is_stmt 0 discriminator 1
 3743 0ea2 D7F88820 		ldr	r2, [r7, #136]
 3744 0ea6 7B68     		ldr	r3, [r7, #4]
 3745 0ea8 9A42     		cmp	r2, r3
ARM GAS  /var/folders/kh/x4vltyy52lbg7p4pcyglc5080000gp/T//ccKDo44O.s 			page 79


 3746 0eaa FFF645AF 		blt	.L146
 520:STM32F10x_Speex_Lib/libspeex/smallft.c ****     t1+=t2;
 3747              		.loc 2 520 0 is_stmt 1 discriminator 2
 3748 0eae D7F88C30 		ldr	r3, [r7, #140]
 3749 0eb2 0133     		adds	r3, r3, #1
 3750 0eb4 C7F88C30 		str	r3, [r7, #140]
 3751              	.L142:
 520:STM32F10x_Speex_Lib/libspeex/smallft.c ****     t1+=t2;
 3752              		.loc 2 520 0 is_stmt 0 discriminator 1
 3753 0eb8 D7F88C20 		ldr	r2, [r7, #140]
 3754 0ebc BB6B     		ldr	r3, [r7, #56]
 3755 0ebe 9A42     		cmp	r2, r3
 3756 0ec0 FFF61EAF 		blt	.L147
 541:STM32F10x_Speex_Lib/libspeex/smallft.c ****     }
 542:STM32F10x_Speex_Lib/libspeex/smallft.c ****   }
 543:STM32F10x_Speex_Lib/libspeex/smallft.c ****   return;
 3757              		.loc 2 543 0 is_stmt 1
 3758 0ec4 DBE0     		b	.L69
 3759              	.L159:
 514:STM32F10x_Speex_Lib/libspeex/smallft.c **** 
 3760              		.loc 2 514 0
 3761 0ec6 00BF     		nop
 3762              	.L141:
 544:STM32F10x_Speex_Lib/libspeex/smallft.c **** 
 545:STM32F10x_Speex_Lib/libspeex/smallft.c ****  L141:
 546:STM32F10x_Speex_Lib/libspeex/smallft.c **** 
 547:STM32F10x_Speex_Lib/libspeex/smallft.c ****   t1=-ido;
 3763              		.loc 2 547 0
 3764 0ec8 FB68     		ldr	r3, [r7, #12]
 3765 0eca 5B42     		negs	r3, r3
 3766 0ecc BB67     		str	r3, [r7, #120]
 548:STM32F10x_Speex_Lib/libspeex/smallft.c ****   t3=0;
 3767              		.loc 2 548 0
 3768 0ece 0023     		movs	r3, #0
 3769 0ed0 3B67     		str	r3, [r7, #112]
 549:STM32F10x_Speex_Lib/libspeex/smallft.c ****   t4=0;
 3770              		.loc 2 549 0
 3771 0ed2 0023     		movs	r3, #0
 3772 0ed4 FB66     		str	r3, [r7, #108]
 550:STM32F10x_Speex_Lib/libspeex/smallft.c ****   t5=ipp2*t0;
 3773              		.loc 2 550 0
 3774 0ed6 7B6B     		ldr	r3, [r7, #52]
 3775 0ed8 BA6A     		ldr	r2, [r7, #40]
 3776 0eda 02FB03F3 		mul	r3, r2, r3
 3777 0ede BB66     		str	r3, [r7, #104]
 551:STM32F10x_Speex_Lib/libspeex/smallft.c ****   for(j=1;j<ipph;j++){
 3778              		.loc 2 551 0
 3779 0ee0 0123     		movs	r3, #1
 3780 0ee2 C7F88C30 		str	r3, [r7, #140]
 3781 0ee6 C2E0     		b	.L148
 3782              	.L153:
 552:STM32F10x_Speex_Lib/libspeex/smallft.c ****     t1+=t2;
 3783              		.loc 2 552 0
 3784 0ee8 BA6F     		ldr	r2, [r7, #120]
 3785 0eea 7B6F     		ldr	r3, [r7, #116]
 3786 0eec 1344     		add	r3, r3, r2
 3787 0eee BB67     		str	r3, [r7, #120]
ARM GAS  /var/folders/kh/x4vltyy52lbg7p4pcyglc5080000gp/T//ccKDo44O.s 			page 80


 553:STM32F10x_Speex_Lib/libspeex/smallft.c ****     t3+=t2;
 3788              		.loc 2 553 0
 3789 0ef0 3A6F     		ldr	r2, [r7, #112]
 3790 0ef2 7B6F     		ldr	r3, [r7, #116]
 3791 0ef4 1344     		add	r3, r3, r2
 3792 0ef6 3B67     		str	r3, [r7, #112]
 554:STM32F10x_Speex_Lib/libspeex/smallft.c ****     t4+=t0;
 3793              		.loc 2 554 0
 3794 0ef8 FA6E     		ldr	r2, [r7, #108]
 3795 0efa BB6A     		ldr	r3, [r7, #40]
 3796 0efc 1344     		add	r3, r3, r2
 3797 0efe FB66     		str	r3, [r7, #108]
 555:STM32F10x_Speex_Lib/libspeex/smallft.c ****     t5-=t0;
 3798              		.loc 2 555 0
 3799 0f00 BA6E     		ldr	r2, [r7, #104]
 3800 0f02 BB6A     		ldr	r3, [r7, #40]
 3801 0f04 D31A     		subs	r3, r2, r3
 3802 0f06 BB66     		str	r3, [r7, #104]
 556:STM32F10x_Speex_Lib/libspeex/smallft.c ****     for(i=2;i<ido;i+=2){
 3803              		.loc 2 556 0
 3804 0f08 0223     		movs	r3, #2
 3805 0f0a C7F89030 		str	r3, [r7, #144]
 3806 0f0e A3E0     		b	.L149
 3807              	.L152:
 557:STM32F10x_Speex_Lib/libspeex/smallft.c ****       t6=idp2+t1-i;
 3808              		.loc 2 557 0
 3809 0f10 3A6B     		ldr	r2, [r7, #48]
 3810 0f12 BB6F     		ldr	r3, [r7, #120]
 3811 0f14 1A44     		add	r2, r2, r3
 3812 0f16 D7F89030 		ldr	r3, [r7, #144]
 3813 0f1a D31A     		subs	r3, r2, r3
 3814 0f1c 7B66     		str	r3, [r7, #100]
 558:STM32F10x_Speex_Lib/libspeex/smallft.c ****       t7=i+t3;
 3815              		.loc 2 558 0
 3816 0f1e D7F89020 		ldr	r2, [r7, #144]
 3817 0f22 3B6F     		ldr	r3, [r7, #112]
 3818 0f24 1344     		add	r3, r3, r2
 3819 0f26 3B66     		str	r3, [r7, #96]
 559:STM32F10x_Speex_Lib/libspeex/smallft.c ****       t8=i+t4;
 3820              		.loc 2 559 0
 3821 0f28 D7F89020 		ldr	r2, [r7, #144]
 3822 0f2c FB6E     		ldr	r3, [r7, #108]
 3823 0f2e 1344     		add	r3, r3, r2
 3824 0f30 FB65     		str	r3, [r7, #92]
 560:STM32F10x_Speex_Lib/libspeex/smallft.c ****       t9=i+t5;
 3825              		.loc 2 560 0
 3826 0f32 D7F89020 		ldr	r2, [r7, #144]
 3827 0f36 BB6E     		ldr	r3, [r7, #104]
 3828 0f38 1344     		add	r3, r3, r2
 3829 0f3a BB65     		str	r3, [r7, #88]
 561:STM32F10x_Speex_Lib/libspeex/smallft.c ****       for(k=0;k<l1;k++){
 3830              		.loc 2 561 0
 3831 0f3c 0023     		movs	r3, #0
 3832 0f3e C7F88830 		str	r3, [r7, #136]
 3833 0f42 7EE0     		b	.L150
 3834              	.L151:
 562:STM32F10x_Speex_Lib/libspeex/smallft.c ****         cc[t7-1]=ch[t8-1]+ch[t9-1];
ARM GAS  /var/folders/kh/x4vltyy52lbg7p4pcyglc5080000gp/T//ccKDo44O.s 			page 81


 3835              		.loc 2 562 0 discriminator 3
 3836 0f44 3B6E     		ldr	r3, [r7, #96]
 3837 0f46 03F18043 		add	r3, r3, #1073741824
 3838 0f4a 013B     		subs	r3, r3, #1
 3839 0f4c 9B00     		lsls	r3, r3, #2
 3840 0f4e D7F8A820 		ldr	r2, [r7, #168]
 3841 0f52 D418     		adds	r4, r2, r3
 3842 0f54 FB6D     		ldr	r3, [r7, #92]
 3843 0f56 03F18043 		add	r3, r3, #1073741824
 3844 0f5a 013B     		subs	r3, r3, #1
 3845 0f5c 9B00     		lsls	r3, r3, #2
 3846 0f5e D7F8B420 		ldr	r2, [r7, #180]
 3847 0f62 1344     		add	r3, r3, r2
 3848 0f64 1868     		ldr	r0, [r3]	@ float
 3849 0f66 BB6D     		ldr	r3, [r7, #88]
 3850 0f68 03F18043 		add	r3, r3, #1073741824
 3851 0f6c 013B     		subs	r3, r3, #1
 3852 0f6e 9B00     		lsls	r3, r3, #2
 3853 0f70 D7F8B420 		ldr	r2, [r7, #180]
 3854 0f74 1344     		add	r3, r3, r2
 3855 0f76 1B68     		ldr	r3, [r3]	@ float
 3856 0f78 1946     		mov	r1, r3
 3857 0f7a FFF7FEFF 		bl	__aeabi_fadd
 3858 0f7e 0346     		mov	r3, r0
 3859 0f80 2360     		str	r3, [r4]	@ float
 563:STM32F10x_Speex_Lib/libspeex/smallft.c ****         cc[t6-1]=ch[t8-1]-ch[t9-1];
 3860              		.loc 2 563 0 discriminator 3
 3861 0f82 7B6E     		ldr	r3, [r7, #100]
 3862 0f84 03F18043 		add	r3, r3, #1073741824
 3863 0f88 013B     		subs	r3, r3, #1
 3864 0f8a 9B00     		lsls	r3, r3, #2
 3865 0f8c D7F8A820 		ldr	r2, [r7, #168]
 3866 0f90 D418     		adds	r4, r2, r3
 3867 0f92 FB6D     		ldr	r3, [r7, #92]
 3868 0f94 03F18043 		add	r3, r3, #1073741824
 3869 0f98 013B     		subs	r3, r3, #1
 3870 0f9a 9B00     		lsls	r3, r3, #2
 3871 0f9c D7F8B420 		ldr	r2, [r7, #180]
 3872 0fa0 1344     		add	r3, r3, r2
 3873 0fa2 1868     		ldr	r0, [r3]	@ float
 3874 0fa4 BB6D     		ldr	r3, [r7, #88]
 3875 0fa6 03F18043 		add	r3, r3, #1073741824
 3876 0faa 013B     		subs	r3, r3, #1
 3877 0fac 9B00     		lsls	r3, r3, #2
 3878 0fae D7F8B420 		ldr	r2, [r7, #180]
 3879 0fb2 1344     		add	r3, r3, r2
 3880 0fb4 1B68     		ldr	r3, [r3]	@ float
 3881 0fb6 1946     		mov	r1, r3
 3882 0fb8 FFF7FEFF 		bl	__aeabi_fsub
 3883 0fbc 0346     		mov	r3, r0
 3884 0fbe 2360     		str	r3, [r4]	@ float
 564:STM32F10x_Speex_Lib/libspeex/smallft.c ****         cc[t7]=ch[t8]+ch[t9];
 3885              		.loc 2 564 0 discriminator 3
 3886 0fc0 3B6E     		ldr	r3, [r7, #96]
 3887 0fc2 9B00     		lsls	r3, r3, #2
 3888 0fc4 D7F8A820 		ldr	r2, [r7, #168]
 3889 0fc8 D418     		adds	r4, r2, r3
ARM GAS  /var/folders/kh/x4vltyy52lbg7p4pcyglc5080000gp/T//ccKDo44O.s 			page 82


 3890 0fca FB6D     		ldr	r3, [r7, #92]
 3891 0fcc 9B00     		lsls	r3, r3, #2
 3892 0fce D7F8B420 		ldr	r2, [r7, #180]
 3893 0fd2 1344     		add	r3, r3, r2
 3894 0fd4 1868     		ldr	r0, [r3]	@ float
 3895 0fd6 BB6D     		ldr	r3, [r7, #88]
 3896 0fd8 9B00     		lsls	r3, r3, #2
 3897 0fda D7F8B420 		ldr	r2, [r7, #180]
 3898 0fde 1344     		add	r3, r3, r2
 3899 0fe0 1B68     		ldr	r3, [r3]	@ float
 3900 0fe2 1946     		mov	r1, r3
 3901 0fe4 FFF7FEFF 		bl	__aeabi_fadd
 3902 0fe8 0346     		mov	r3, r0
 3903 0fea 2360     		str	r3, [r4]	@ float
 565:STM32F10x_Speex_Lib/libspeex/smallft.c ****         cc[t6]=ch[t9]-ch[t8];
 3904              		.loc 2 565 0 discriminator 3
 3905 0fec 7B6E     		ldr	r3, [r7, #100]
 3906 0fee 9B00     		lsls	r3, r3, #2
 3907 0ff0 D7F8A820 		ldr	r2, [r7, #168]
 3908 0ff4 D418     		adds	r4, r2, r3
 3909 0ff6 BB6D     		ldr	r3, [r7, #88]
 3910 0ff8 9B00     		lsls	r3, r3, #2
 3911 0ffa D7F8B420 		ldr	r2, [r7, #180]
 3912 0ffe 1344     		add	r3, r3, r2
 3913 1000 1868     		ldr	r0, [r3]	@ float
 3914 1002 FB6D     		ldr	r3, [r7, #92]
 3915 1004 9B00     		lsls	r3, r3, #2
 3916 1006 D7F8B420 		ldr	r2, [r7, #180]
 3917 100a 1344     		add	r3, r3, r2
 3918 100c 1B68     		ldr	r3, [r3]	@ float
 3919 100e 1946     		mov	r1, r3
 3920 1010 FFF7FEFF 		bl	__aeabi_fsub
 3921 1014 0346     		mov	r3, r0
 3922 1016 2360     		str	r3, [r4]	@ float
 566:STM32F10x_Speex_Lib/libspeex/smallft.c ****         t6+=t10;
 3923              		.loc 2 566 0 discriminator 3
 3924 1018 7A6E     		ldr	r2, [r7, #100]
 3925 101a 7B6A     		ldr	r3, [r7, #36]
 3926 101c 1344     		add	r3, r3, r2
 3927 101e 7B66     		str	r3, [r7, #100]
 567:STM32F10x_Speex_Lib/libspeex/smallft.c ****         t7+=t10;
 3928              		.loc 2 567 0 discriminator 3
 3929 1020 3A6E     		ldr	r2, [r7, #96]
 3930 1022 7B6A     		ldr	r3, [r7, #36]
 3931 1024 1344     		add	r3, r3, r2
 3932 1026 3B66     		str	r3, [r7, #96]
 568:STM32F10x_Speex_Lib/libspeex/smallft.c ****         t8+=ido;
 3933              		.loc 2 568 0 discriminator 3
 3934 1028 FA6D     		ldr	r2, [r7, #92]
 3935 102a FB68     		ldr	r3, [r7, #12]
 3936 102c 1344     		add	r3, r3, r2
 3937 102e FB65     		str	r3, [r7, #92]
 569:STM32F10x_Speex_Lib/libspeex/smallft.c ****         t9+=ido;
 3938              		.loc 2 569 0 discriminator 3
 3939 1030 BA6D     		ldr	r2, [r7, #88]
 3940 1032 FB68     		ldr	r3, [r7, #12]
 3941 1034 1344     		add	r3, r3, r2
ARM GAS  /var/folders/kh/x4vltyy52lbg7p4pcyglc5080000gp/T//ccKDo44O.s 			page 83


 3942 1036 BB65     		str	r3, [r7, #88]
 561:STM32F10x_Speex_Lib/libspeex/smallft.c ****         cc[t7-1]=ch[t8-1]+ch[t9-1];
 3943              		.loc 2 561 0 discriminator 3
 3944 1038 D7F88830 		ldr	r3, [r7, #136]
 3945 103c 0133     		adds	r3, r3, #1
 3946 103e C7F88830 		str	r3, [r7, #136]
 3947              	.L150:
 561:STM32F10x_Speex_Lib/libspeex/smallft.c ****         cc[t7-1]=ch[t8-1]+ch[t9-1];
 3948              		.loc 2 561 0 is_stmt 0 discriminator 1
 3949 1042 D7F88820 		ldr	r2, [r7, #136]
 3950 1046 7B68     		ldr	r3, [r7, #4]
 3951 1048 9A42     		cmp	r2, r3
 3952 104a FFF67BAF 		blt	.L151
 556:STM32F10x_Speex_Lib/libspeex/smallft.c ****       t6=idp2+t1-i;
 3953              		.loc 2 556 0 is_stmt 1 discriminator 2
 3954 104e D7F89030 		ldr	r3, [r7, #144]
 3955 1052 0233     		adds	r3, r3, #2
 3956 1054 C7F89030 		str	r3, [r7, #144]
 3957              	.L149:
 556:STM32F10x_Speex_Lib/libspeex/smallft.c ****       t6=idp2+t1-i;
 3958              		.loc 2 556 0 is_stmt 0 discriminator 1
 3959 1058 D7F89020 		ldr	r2, [r7, #144]
 3960 105c FB68     		ldr	r3, [r7, #12]
 3961 105e 9A42     		cmp	r2, r3
 3962 1060 FFF656AF 		blt	.L152
 551:STM32F10x_Speex_Lib/libspeex/smallft.c ****     t1+=t2;
 3963              		.loc 2 551 0 is_stmt 1 discriminator 2
 3964 1064 D7F88C30 		ldr	r3, [r7, #140]
 3965 1068 0133     		adds	r3, r3, #1
 3966 106a C7F88C30 		str	r3, [r7, #140]
 3967              	.L148:
 551:STM32F10x_Speex_Lib/libspeex/smallft.c ****     t1+=t2;
 3968              		.loc 2 551 0 is_stmt 0 discriminator 1
 3969 106e D7F88C20 		ldr	r2, [r7, #140]
 3970 1072 BB6B     		ldr	r3, [r7, #56]
 3971 1074 9A42     		cmp	r2, r3
 3972 1076 FFF637AF 		blt	.L153
 3973 107a 00E0     		b	.L69
 3974              	.L158:
 513:STM32F10x_Speex_Lib/libspeex/smallft.c ****   if(nbd<l1)goto L141;
 3975              		.loc 2 513 0 is_stmt 1
 3976 107c 00BF     		nop
 3977              	.L69:
 570:STM32F10x_Speex_Lib/libspeex/smallft.c ****       }
 571:STM32F10x_Speex_Lib/libspeex/smallft.c ****     }
 572:STM32F10x_Speex_Lib/libspeex/smallft.c ****   }
 573:STM32F10x_Speex_Lib/libspeex/smallft.c **** }
 3978              		.loc 2 573 0
 3979 107e 9837     		adds	r7, r7, #152
 3980              	.LCFI33:
 3981              		.cfi_def_cfa_offset 16
 3982 1080 BD46     		mov	sp, r7
 3983              	.LCFI34:
 3984              		.cfi_def_cfa_register 13
 3985              		@ sp needed
 3986 1082 B0BD     		pop	{r4, r5, r7, pc}
 3987              		.cfi_endproc
ARM GAS  /var/folders/kh/x4vltyy52lbg7p4pcyglc5080000gp/T//ccKDo44O.s 			page 84


 3988              	.LFE13:
 3990              		.section	.text.drftf1,"ax",%progbits
 3991              		.align	2
 3992              		.thumb
 3993              		.thumb_func
 3995              	drftf1:
 3996              	.LFB14:
 574:STM32F10x_Speex_Lib/libspeex/smallft.c **** 
 575:STM32F10x_Speex_Lib/libspeex/smallft.c **** static void drftf1(int n,float *c,float *ch,float *wa,int *ifac){
 3997              		.loc 2 575 0
 3998              		.cfi_startproc
 3999              		@ args = 4, pretend = 0, frame = 72
 4000              		@ frame_needed = 1, uses_anonymous_args = 0
 4001 0000 80B5     		push	{r7, lr}
 4002              	.LCFI35:
 4003              		.cfi_def_cfa_offset 8
 4004              		.cfi_offset 7, -8
 4005              		.cfi_offset 14, -4
 4006 0002 98B0     		sub	sp, sp, #96
 4007              	.LCFI36:
 4008              		.cfi_def_cfa_offset 104
 4009 0004 06AF     		add	r7, sp, #24
 4010              	.LCFI37:
 4011              		.cfi_def_cfa 7, 80
 4012 0006 F860     		str	r0, [r7, #12]
 4013 0008 B960     		str	r1, [r7, #8]
 4014 000a 7A60     		str	r2, [r7, #4]
 4015 000c 3B60     		str	r3, [r7]
 576:STM32F10x_Speex_Lib/libspeex/smallft.c ****   int i,k1,l1,l2;
 577:STM32F10x_Speex_Lib/libspeex/smallft.c ****   int na,kh,nf;
 578:STM32F10x_Speex_Lib/libspeex/smallft.c ****   int ip,iw,ido,idl1,ix2,ix3;
 579:STM32F10x_Speex_Lib/libspeex/smallft.c **** 
 580:STM32F10x_Speex_Lib/libspeex/smallft.c ****   nf=ifac[1];
 4016              		.loc 2 580 0
 4017 000e 3B6D     		ldr	r3, [r7, #80]
 4018 0010 5B68     		ldr	r3, [r3, #4]
 4019 0012 3B63     		str	r3, [r7, #48]
 581:STM32F10x_Speex_Lib/libspeex/smallft.c ****   na=1;
 4020              		.loc 2 581 0
 4021 0014 0123     		movs	r3, #1
 4022 0016 BB63     		str	r3, [r7, #56]
 582:STM32F10x_Speex_Lib/libspeex/smallft.c ****   l2=n;
 4023              		.loc 2 582 0
 4024 0018 FB68     		ldr	r3, [r7, #12]
 4025 001a FB63     		str	r3, [r7, #60]
 583:STM32F10x_Speex_Lib/libspeex/smallft.c ****   iw=n;
 4026              		.loc 2 583 0
 4027 001c FB68     		ldr	r3, [r7, #12]
 4028 001e 7B63     		str	r3, [r7, #52]
 584:STM32F10x_Speex_Lib/libspeex/smallft.c **** 
 585:STM32F10x_Speex_Lib/libspeex/smallft.c ****   for(k1=0;k1<nf;k1++){
 4029              		.loc 2 585 0
 4030 0020 0023     		movs	r3, #0
 4031 0022 3B64     		str	r3, [r7, #64]
 4032 0024 DDE0     		b	.L163
 4033              	.L176:
 586:STM32F10x_Speex_Lib/libspeex/smallft.c ****     kh=nf-k1;
ARM GAS  /var/folders/kh/x4vltyy52lbg7p4pcyglc5080000gp/T//ccKDo44O.s 			page 85


 4034              		.loc 2 586 0
 4035 0026 3A6B     		ldr	r2, [r7, #48]
 4036 0028 3B6C     		ldr	r3, [r7, #64]
 4037 002a D31A     		subs	r3, r2, r3
 4038 002c FB62     		str	r3, [r7, #44]
 587:STM32F10x_Speex_Lib/libspeex/smallft.c ****     ip=ifac[kh+1];
 4039              		.loc 2 587 0
 4040 002e FB6A     		ldr	r3, [r7, #44]
 4041 0030 0133     		adds	r3, r3, #1
 4042 0032 9B00     		lsls	r3, r3, #2
 4043 0034 3A6D     		ldr	r2, [r7, #80]
 4044 0036 1344     		add	r3, r3, r2
 4045 0038 1B68     		ldr	r3, [r3]
 4046 003a BB62     		str	r3, [r7, #40]
 588:STM32F10x_Speex_Lib/libspeex/smallft.c ****     l1=l2/ip;
 4047              		.loc 2 588 0
 4048 003c FA6B     		ldr	r2, [r7, #60]
 4049 003e BB6A     		ldr	r3, [r7, #40]
 4050 0040 92FBF3F3 		sdiv	r3, r2, r3
 4051 0044 7B62     		str	r3, [r7, #36]
 589:STM32F10x_Speex_Lib/libspeex/smallft.c ****     ido=n/l2;
 4052              		.loc 2 589 0
 4053 0046 FA68     		ldr	r2, [r7, #12]
 4054 0048 FB6B     		ldr	r3, [r7, #60]
 4055 004a 92FBF3F3 		sdiv	r3, r2, r3
 4056 004e 3B62     		str	r3, [r7, #32]
 590:STM32F10x_Speex_Lib/libspeex/smallft.c ****     idl1=ido*l1;
 4057              		.loc 2 590 0
 4058 0050 3B6A     		ldr	r3, [r7, #32]
 4059 0052 7A6A     		ldr	r2, [r7, #36]
 4060 0054 02FB03F3 		mul	r3, r2, r3
 4061 0058 FB61     		str	r3, [r7, #28]
 591:STM32F10x_Speex_Lib/libspeex/smallft.c ****     iw-=(ip-1)*ido;
 4062              		.loc 2 591 0
 4063 005a BB6A     		ldr	r3, [r7, #40]
 4064 005c 013B     		subs	r3, r3, #1
 4065 005e 3A6A     		ldr	r2, [r7, #32]
 4066 0060 02FB03F3 		mul	r3, r2, r3
 4067 0064 7A6B     		ldr	r2, [r7, #52]
 4068 0066 D31A     		subs	r3, r2, r3
 4069 0068 7B63     		str	r3, [r7, #52]
 592:STM32F10x_Speex_Lib/libspeex/smallft.c ****     na=1-na;
 4070              		.loc 2 592 0
 4071 006a BB6B     		ldr	r3, [r7, #56]
 4072 006c C3F10103 		rsb	r3, r3, #1
 4073 0070 BB63     		str	r3, [r7, #56]
 593:STM32F10x_Speex_Lib/libspeex/smallft.c **** 
 594:STM32F10x_Speex_Lib/libspeex/smallft.c ****     if(ip!=4)goto L102;
 4074              		.loc 2 594 0
 4075 0072 BB6A     		ldr	r3, [r7, #40]
 4076 0074 042B     		cmp	r3, #4
 4077 0076 48D1     		bne	.L185
 595:STM32F10x_Speex_Lib/libspeex/smallft.c **** 
 596:STM32F10x_Speex_Lib/libspeex/smallft.c ****     ix2=iw+ido;
 4078              		.loc 2 596 0
 4079 0078 7A6B     		ldr	r2, [r7, #52]
 4080 007a 3B6A     		ldr	r3, [r7, #32]
ARM GAS  /var/folders/kh/x4vltyy52lbg7p4pcyglc5080000gp/T//ccKDo44O.s 			page 86


 4081 007c 1344     		add	r3, r3, r2
 4082 007e BB61     		str	r3, [r7, #24]
 597:STM32F10x_Speex_Lib/libspeex/smallft.c ****     ix3=ix2+ido;
 4083              		.loc 2 597 0
 4084 0080 BA69     		ldr	r2, [r7, #24]
 4085 0082 3B6A     		ldr	r3, [r7, #32]
 4086 0084 1344     		add	r3, r3, r2
 4087 0086 7B61     		str	r3, [r7, #20]
 598:STM32F10x_Speex_Lib/libspeex/smallft.c ****     if(na!=0)
 4088              		.loc 2 598 0
 4089 0088 BB6B     		ldr	r3, [r7, #56]
 4090 008a 002B     		cmp	r3, #0
 4091 008c 1ED0     		beq	.L166
 599:STM32F10x_Speex_Lib/libspeex/smallft.c ****       dradf4(ido,l1,ch,c,wa+iw-1,wa+ix2-1,wa+ix3-1);
 4092              		.loc 2 599 0
 4093 008e 7B6B     		ldr	r3, [r7, #52]
 4094 0090 03F18043 		add	r3, r3, #1073741824
 4095 0094 013B     		subs	r3, r3, #1
 4096 0096 9B00     		lsls	r3, r3, #2
 4097 0098 3A68     		ldr	r2, [r7]
 4098 009a 1A44     		add	r2, r2, r3
 4099 009c BB69     		ldr	r3, [r7, #24]
 4100 009e 03F18043 		add	r3, r3, #1073741824
 4101 00a2 013B     		subs	r3, r3, #1
 4102 00a4 9B00     		lsls	r3, r3, #2
 4103 00a6 3968     		ldr	r1, [r7]
 4104 00a8 1944     		add	r1, r1, r3
 4105 00aa 7B69     		ldr	r3, [r7, #20]
 4106 00ac 03F18043 		add	r3, r3, #1073741824
 4107 00b0 013B     		subs	r3, r3, #1
 4108 00b2 9B00     		lsls	r3, r3, #2
 4109 00b4 3868     		ldr	r0, [r7]
 4110 00b6 0344     		add	r3, r3, r0
 4111 00b8 0293     		str	r3, [sp, #8]
 4112 00ba 0191     		str	r1, [sp, #4]
 4113 00bc 0092     		str	r2, [sp]
 4114 00be BB68     		ldr	r3, [r7, #8]
 4115 00c0 7A68     		ldr	r2, [r7, #4]
 4116 00c2 796A     		ldr	r1, [r7, #36]
 4117 00c4 386A     		ldr	r0, [r7, #32]
 4118 00c6 FFF7FEFF 		bl	dradf4
 600:STM32F10x_Speex_Lib/libspeex/smallft.c ****     else
 601:STM32F10x_Speex_Lib/libspeex/smallft.c ****       dradf4(ido,l1,c,ch,wa+iw-1,wa+ix2-1,wa+ix3-1);
 602:STM32F10x_Speex_Lib/libspeex/smallft.c ****     goto L110;
 4119              		.loc 2 602 0
 4120 00ca 85E0     		b	.L168
 4121              	.L166:
 601:STM32F10x_Speex_Lib/libspeex/smallft.c ****     goto L110;
 4122              		.loc 2 601 0
 4123 00cc 7B6B     		ldr	r3, [r7, #52]
 4124 00ce 03F18043 		add	r3, r3, #1073741824
 4125 00d2 013B     		subs	r3, r3, #1
 4126 00d4 9B00     		lsls	r3, r3, #2
 4127 00d6 3A68     		ldr	r2, [r7]
 4128 00d8 1A44     		add	r2, r2, r3
 4129 00da BB69     		ldr	r3, [r7, #24]
 4130 00dc 03F18043 		add	r3, r3, #1073741824
ARM GAS  /var/folders/kh/x4vltyy52lbg7p4pcyglc5080000gp/T//ccKDo44O.s 			page 87


 4131 00e0 013B     		subs	r3, r3, #1
 4132 00e2 9B00     		lsls	r3, r3, #2
 4133 00e4 3968     		ldr	r1, [r7]
 4134 00e6 1944     		add	r1, r1, r3
 4135 00e8 7B69     		ldr	r3, [r7, #20]
 4136 00ea 03F18043 		add	r3, r3, #1073741824
 4137 00ee 013B     		subs	r3, r3, #1
 4138 00f0 9B00     		lsls	r3, r3, #2
 4139 00f2 3868     		ldr	r0, [r7]
 4140 00f4 0344     		add	r3, r3, r0
 4141 00f6 0293     		str	r3, [sp, #8]
 4142 00f8 0191     		str	r1, [sp, #4]
 4143 00fa 0092     		str	r2, [sp]
 4144 00fc 7B68     		ldr	r3, [r7, #4]
 4145 00fe BA68     		ldr	r2, [r7, #8]
 4146 0100 796A     		ldr	r1, [r7, #36]
 4147 0102 386A     		ldr	r0, [r7, #32]
 4148 0104 FFF7FEFF 		bl	dradf4
 4149              		.loc 2 602 0
 4150 0108 66E0     		b	.L168
 4151              	.L185:
 594:STM32F10x_Speex_Lib/libspeex/smallft.c **** 
 4152              		.loc 2 594 0
 4153 010a 00BF     		nop
 4154              	.L165:
 603:STM32F10x_Speex_Lib/libspeex/smallft.c **** 
 604:STM32F10x_Speex_Lib/libspeex/smallft.c ****  L102:
 605:STM32F10x_Speex_Lib/libspeex/smallft.c ****     if(ip!=2)goto L104;
 4155              		.loc 2 605 0
 4156 010c BB6A     		ldr	r3, [r7, #40]
 4157 010e 022B     		cmp	r3, #2
 4158 0110 21D1     		bne	.L186
 606:STM32F10x_Speex_Lib/libspeex/smallft.c ****     if(na!=0)goto L103;
 4159              		.loc 2 606 0
 4160 0112 BB6B     		ldr	r3, [r7, #56]
 4161 0114 002B     		cmp	r3, #0
 4162 0116 0ED1     		bne	.L187
 607:STM32F10x_Speex_Lib/libspeex/smallft.c **** 
 608:STM32F10x_Speex_Lib/libspeex/smallft.c ****     dradf2(ido,l1,c,ch,wa+iw-1);
 4163              		.loc 2 608 0
 4164 0118 7B6B     		ldr	r3, [r7, #52]
 4165 011a 03F18043 		add	r3, r3, #1073741824
 4166 011e 013B     		subs	r3, r3, #1
 4167 0120 9B00     		lsls	r3, r3, #2
 4168 0122 3A68     		ldr	r2, [r7]
 4169 0124 1344     		add	r3, r3, r2
 4170 0126 0093     		str	r3, [sp]
 4171 0128 7B68     		ldr	r3, [r7, #4]
 4172 012a BA68     		ldr	r2, [r7, #8]
 4173 012c 796A     		ldr	r1, [r7, #36]
 4174 012e 386A     		ldr	r0, [r7, #32]
 4175 0130 FFF7FEFF 		bl	dradf2
 609:STM32F10x_Speex_Lib/libspeex/smallft.c ****     goto L110;
 4176              		.loc 2 609 0
 4177 0134 50E0     		b	.L168
 4178              	.L187:
 606:STM32F10x_Speex_Lib/libspeex/smallft.c ****     if(na!=0)goto L103;
ARM GAS  /var/folders/kh/x4vltyy52lbg7p4pcyglc5080000gp/T//ccKDo44O.s 			page 88


 4179              		.loc 2 606 0
 4180 0136 00BF     		nop
 4181              	.L172:
 610:STM32F10x_Speex_Lib/libspeex/smallft.c **** 
 611:STM32F10x_Speex_Lib/libspeex/smallft.c ****   L103:
 612:STM32F10x_Speex_Lib/libspeex/smallft.c ****     dradf2(ido,l1,ch,c,wa+iw-1);
 4182              		.loc 2 612 0
 4183 0138 7B6B     		ldr	r3, [r7, #52]
 4184 013a 03F18043 		add	r3, r3, #1073741824
 4185 013e 013B     		subs	r3, r3, #1
 4186 0140 9B00     		lsls	r3, r3, #2
 4187 0142 3A68     		ldr	r2, [r7]
 4188 0144 1344     		add	r3, r3, r2
 4189 0146 0093     		str	r3, [sp]
 4190 0148 BB68     		ldr	r3, [r7, #8]
 4191 014a 7A68     		ldr	r2, [r7, #4]
 4192 014c 796A     		ldr	r1, [r7, #36]
 4193 014e 386A     		ldr	r0, [r7, #32]
 4194 0150 FFF7FEFF 		bl	dradf2
 613:STM32F10x_Speex_Lib/libspeex/smallft.c ****     goto L110;
 4195              		.loc 2 613 0
 4196 0154 40E0     		b	.L168
 4197              	.L186:
 605:STM32F10x_Speex_Lib/libspeex/smallft.c ****     if(na!=0)goto L103;
 4198              		.loc 2 605 0
 4199 0156 00BF     		nop
 4200              	.L170:
 614:STM32F10x_Speex_Lib/libspeex/smallft.c **** 
 615:STM32F10x_Speex_Lib/libspeex/smallft.c ****   L104:
 616:STM32F10x_Speex_Lib/libspeex/smallft.c ****     if(ido==1)na=1-na;
 4201              		.loc 2 616 0
 4202 0158 3B6A     		ldr	r3, [r7, #32]
 4203 015a 012B     		cmp	r3, #1
 4204 015c 03D1     		bne	.L173
 4205              		.loc 2 616 0 is_stmt 0 discriminator 1
 4206 015e BB6B     		ldr	r3, [r7, #56]
 4207 0160 C3F10103 		rsb	r3, r3, #1
 4208 0164 BB63     		str	r3, [r7, #56]
 4209              	.L173:
 617:STM32F10x_Speex_Lib/libspeex/smallft.c ****     if(na!=0)goto L109;
 4210              		.loc 2 617 0 is_stmt 1
 4211 0166 BB6B     		ldr	r3, [r7, #56]
 4212 0168 002B     		cmp	r3, #0
 4213 016a 1AD1     		bne	.L188
 618:STM32F10x_Speex_Lib/libspeex/smallft.c **** 
 619:STM32F10x_Speex_Lib/libspeex/smallft.c ****     dradfg(ido,ip,l1,idl1,c,c,c,ch,ch,wa+iw-1);
 4214              		.loc 2 619 0
 4215 016c 7B6B     		ldr	r3, [r7, #52]
 4216 016e 03F18043 		add	r3, r3, #1073741824
 4217 0172 013B     		subs	r3, r3, #1
 4218 0174 9B00     		lsls	r3, r3, #2
 4219 0176 3A68     		ldr	r2, [r7]
 4220 0178 1344     		add	r3, r3, r2
 4221 017a 0593     		str	r3, [sp, #20]
 4222 017c 7B68     		ldr	r3, [r7, #4]
 4223 017e 0493     		str	r3, [sp, #16]
 4224 0180 7B68     		ldr	r3, [r7, #4]
ARM GAS  /var/folders/kh/x4vltyy52lbg7p4pcyglc5080000gp/T//ccKDo44O.s 			page 89


 4225 0182 0393     		str	r3, [sp, #12]
 4226 0184 BB68     		ldr	r3, [r7, #8]
 4227 0186 0293     		str	r3, [sp, #8]
 4228 0188 BB68     		ldr	r3, [r7, #8]
 4229 018a 0193     		str	r3, [sp, #4]
 4230 018c BB68     		ldr	r3, [r7, #8]
 4231 018e 0093     		str	r3, [sp]
 4232 0190 FB69     		ldr	r3, [r7, #28]
 4233 0192 7A6A     		ldr	r2, [r7, #36]
 4234 0194 B96A     		ldr	r1, [r7, #40]
 4235 0196 386A     		ldr	r0, [r7, #32]
 4236 0198 FFF7FEFF 		bl	dradfg
 620:STM32F10x_Speex_Lib/libspeex/smallft.c ****     na=1;
 4237              		.loc 2 620 0
 4238 019c 0123     		movs	r3, #1
 4239 019e BB63     		str	r3, [r7, #56]
 621:STM32F10x_Speex_Lib/libspeex/smallft.c ****     goto L110;
 4240              		.loc 2 621 0
 4241 01a0 1AE0     		b	.L168
 4242              	.L188:
 617:STM32F10x_Speex_Lib/libspeex/smallft.c **** 
 4243              		.loc 2 617 0
 4244 01a2 00BF     		nop
 4245              	.L175:
 622:STM32F10x_Speex_Lib/libspeex/smallft.c **** 
 623:STM32F10x_Speex_Lib/libspeex/smallft.c ****   L109:
 624:STM32F10x_Speex_Lib/libspeex/smallft.c ****     dradfg(ido,ip,l1,idl1,ch,ch,ch,c,c,wa+iw-1);
 4246              		.loc 2 624 0
 4247 01a4 7B6B     		ldr	r3, [r7, #52]
 4248 01a6 03F18043 		add	r3, r3, #1073741824
 4249 01aa 013B     		subs	r3, r3, #1
 4250 01ac 9B00     		lsls	r3, r3, #2
 4251 01ae 3A68     		ldr	r2, [r7]
 4252 01b0 1344     		add	r3, r3, r2
 4253 01b2 0593     		str	r3, [sp, #20]
 4254 01b4 BB68     		ldr	r3, [r7, #8]
 4255 01b6 0493     		str	r3, [sp, #16]
 4256 01b8 BB68     		ldr	r3, [r7, #8]
 4257 01ba 0393     		str	r3, [sp, #12]
 4258 01bc 7B68     		ldr	r3, [r7, #4]
 4259 01be 0293     		str	r3, [sp, #8]
 4260 01c0 7B68     		ldr	r3, [r7, #4]
 4261 01c2 0193     		str	r3, [sp, #4]
 4262 01c4 7B68     		ldr	r3, [r7, #4]
 4263 01c6 0093     		str	r3, [sp]
 4264 01c8 FB69     		ldr	r3, [r7, #28]
 4265 01ca 7A6A     		ldr	r2, [r7, #36]
 4266 01cc B96A     		ldr	r1, [r7, #40]
 4267 01ce 386A     		ldr	r0, [r7, #32]
 4268 01d0 FFF7FEFF 		bl	dradfg
 625:STM32F10x_Speex_Lib/libspeex/smallft.c ****     na=0;
 4269              		.loc 2 625 0
 4270 01d4 0023     		movs	r3, #0
 4271 01d6 BB63     		str	r3, [r7, #56]
 4272              	.L168:
 626:STM32F10x_Speex_Lib/libspeex/smallft.c **** 
 627:STM32F10x_Speex_Lib/libspeex/smallft.c ****   L110:
ARM GAS  /var/folders/kh/x4vltyy52lbg7p4pcyglc5080000gp/T//ccKDo44O.s 			page 90


 628:STM32F10x_Speex_Lib/libspeex/smallft.c ****     l2=l1;
 4273              		.loc 2 628 0 discriminator 2
 4274 01d8 7B6A     		ldr	r3, [r7, #36]
 4275 01da FB63     		str	r3, [r7, #60]
 585:STM32F10x_Speex_Lib/libspeex/smallft.c ****     kh=nf-k1;
 4276              		.loc 2 585 0 discriminator 2
 4277 01dc 3B6C     		ldr	r3, [r7, #64]
 4278 01de 0133     		adds	r3, r3, #1
 4279 01e0 3B64     		str	r3, [r7, #64]
 4280              	.L163:
 585:STM32F10x_Speex_Lib/libspeex/smallft.c ****     kh=nf-k1;
 4281              		.loc 2 585 0 is_stmt 0 discriminator 1
 4282 01e2 3A6C     		ldr	r2, [r7, #64]
 4283 01e4 3B6B     		ldr	r3, [r7, #48]
 4284 01e6 9A42     		cmp	r2, r3
 4285 01e8 FFF61DAF 		blt	.L176
 629:STM32F10x_Speex_Lib/libspeex/smallft.c ****   }
 630:STM32F10x_Speex_Lib/libspeex/smallft.c **** 
 631:STM32F10x_Speex_Lib/libspeex/smallft.c ****   if(na==1)return;
 4286              		.loc 2 631 0 is_stmt 1
 4287 01ec BB6B     		ldr	r3, [r7, #56]
 4288 01ee 012B     		cmp	r3, #1
 4289 01f0 14D0     		beq	.L189
 632:STM32F10x_Speex_Lib/libspeex/smallft.c **** 
 633:STM32F10x_Speex_Lib/libspeex/smallft.c ****   for(i=0;i<n;i++)c[i]=ch[i];
 4290              		.loc 2 633 0
 4291 01f2 0023     		movs	r3, #0
 4292 01f4 7B64     		str	r3, [r7, #68]
 4293 01f6 0CE0     		b	.L179
 4294              	.L180:
 4295              		.loc 2 633 0 is_stmt 0 discriminator 3
 4296 01f8 7B6C     		ldr	r3, [r7, #68]
 4297 01fa 9B00     		lsls	r3, r3, #2
 4298 01fc BA68     		ldr	r2, [r7, #8]
 4299 01fe 1344     		add	r3, r3, r2
 4300 0200 7A6C     		ldr	r2, [r7, #68]
 4301 0202 9200     		lsls	r2, r2, #2
 4302 0204 7968     		ldr	r1, [r7, #4]
 4303 0206 0A44     		add	r2, r2, r1
 4304 0208 1268     		ldr	r2, [r2]	@ float
 4305 020a 1A60     		str	r2, [r3]	@ float
 4306 020c 7B6C     		ldr	r3, [r7, #68]
 4307 020e 0133     		adds	r3, r3, #1
 4308 0210 7B64     		str	r3, [r7, #68]
 4309              	.L179:
 4310              		.loc 2 633 0 discriminator 1
 4311 0212 7A6C     		ldr	r2, [r7, #68]
 4312 0214 FB68     		ldr	r3, [r7, #12]
 4313 0216 9A42     		cmp	r2, r3
 4314 0218 EEDB     		blt	.L180
 4315 021a 00E0     		b	.L162
 4316              	.L189:
 631:STM32F10x_Speex_Lib/libspeex/smallft.c **** 
 4317              		.loc 2 631 0 is_stmt 1
 4318 021c 00BF     		nop
 4319              	.L162:
 634:STM32F10x_Speex_Lib/libspeex/smallft.c **** }
ARM GAS  /var/folders/kh/x4vltyy52lbg7p4pcyglc5080000gp/T//ccKDo44O.s 			page 91


 4320              		.loc 2 634 0
 4321 021e 4837     		adds	r7, r7, #72
 4322              	.LCFI38:
 4323              		.cfi_def_cfa_offset 8
 4324 0220 BD46     		mov	sp, r7
 4325              	.LCFI39:
 4326              		.cfi_def_cfa_register 13
 4327              		@ sp needed
 4328 0222 80BD     		pop	{r7, pc}
 4329              		.cfi_endproc
 4330              	.LFE14:
 4332              		.section	.text.dradb2,"ax",%progbits
 4333              		.align	2
 4334              		.thumb
 4335              		.thumb_func
 4337              	dradb2:
 4338              	.LFB15:
 635:STM32F10x_Speex_Lib/libspeex/smallft.c **** 
 636:STM32F10x_Speex_Lib/libspeex/smallft.c **** static void dradb2(int ido,int l1,float *cc,float *ch,float *wa1){
 4339              		.loc 2 636 0
 4340              		.cfi_startproc
 4341              		@ args = 4, pretend = 0, frame = 64
 4342              		@ frame_needed = 1, uses_anonymous_args = 0
 4343 0000 B0B5     		push	{r4, r5, r7, lr}
 4344              	.LCFI40:
 4345              		.cfi_def_cfa_offset 16
 4346              		.cfi_offset 4, -16
 4347              		.cfi_offset 5, -12
 4348              		.cfi_offset 7, -8
 4349              		.cfi_offset 14, -4
 4350 0002 90B0     		sub	sp, sp, #64
 4351              	.LCFI41:
 4352              		.cfi_def_cfa_offset 80
 4353 0004 00AF     		add	r7, sp, #0
 4354              	.LCFI42:
 4355              		.cfi_def_cfa_register 7
 4356 0006 F860     		str	r0, [r7, #12]
 4357 0008 B960     		str	r1, [r7, #8]
 4358 000a 7A60     		str	r2, [r7, #4]
 4359 000c 3B60     		str	r3, [r7]
 637:STM32F10x_Speex_Lib/libspeex/smallft.c ****   int i,k,t0,t1,t2,t3,t4,t5,t6;
 638:STM32F10x_Speex_Lib/libspeex/smallft.c ****   float ti2,tr2;
 639:STM32F10x_Speex_Lib/libspeex/smallft.c **** 
 640:STM32F10x_Speex_Lib/libspeex/smallft.c ****   t0=l1*ido;
 4360              		.loc 2 640 0
 4361 000e BB68     		ldr	r3, [r7, #8]
 4362 0010 FA68     		ldr	r2, [r7, #12]
 4363 0012 02FB03F3 		mul	r3, r2, r3
 4364 0016 FB61     		str	r3, [r7, #28]
 641:STM32F10x_Speex_Lib/libspeex/smallft.c ****   
 642:STM32F10x_Speex_Lib/libspeex/smallft.c ****   t1=0;
 4365              		.loc 2 642 0
 4366 0018 0023     		movs	r3, #0
 4367 001a 7B63     		str	r3, [r7, #52]
 643:STM32F10x_Speex_Lib/libspeex/smallft.c ****   t2=0;
 4368              		.loc 2 643 0
 4369 001c 0023     		movs	r3, #0
ARM GAS  /var/folders/kh/x4vltyy52lbg7p4pcyglc5080000gp/T//ccKDo44O.s 			page 92


 4370 001e 3B63     		str	r3, [r7, #48]
 644:STM32F10x_Speex_Lib/libspeex/smallft.c ****   t3=(ido<<1)-1;
 4371              		.loc 2 644 0
 4372 0020 FB68     		ldr	r3, [r7, #12]
 4373 0022 5B00     		lsls	r3, r3, #1
 4374 0024 013B     		subs	r3, r3, #1
 4375 0026 FB62     		str	r3, [r7, #44]
 645:STM32F10x_Speex_Lib/libspeex/smallft.c ****   for(k=0;k<l1;k++){
 4376              		.loc 2 645 0
 4377 0028 0023     		movs	r3, #0
 4378 002a BB63     		str	r3, [r7, #56]
 4379 002c 35E0     		b	.L191
 4380              	.L192:
 646:STM32F10x_Speex_Lib/libspeex/smallft.c ****     ch[t1]=cc[t2]+cc[t3+t2];
 4381              		.loc 2 646 0 discriminator 3
 4382 002e 7B6B     		ldr	r3, [r7, #52]
 4383 0030 9B00     		lsls	r3, r3, #2
 4384 0032 3A68     		ldr	r2, [r7]
 4385 0034 D418     		adds	r4, r2, r3
 4386 0036 3B6B     		ldr	r3, [r7, #48]
 4387 0038 9B00     		lsls	r3, r3, #2
 4388 003a 7A68     		ldr	r2, [r7, #4]
 4389 003c 1344     		add	r3, r3, r2
 4390 003e 1868     		ldr	r0, [r3]	@ float
 4391 0040 FA6A     		ldr	r2, [r7, #44]
 4392 0042 3B6B     		ldr	r3, [r7, #48]
 4393 0044 1344     		add	r3, r3, r2
 4394 0046 9B00     		lsls	r3, r3, #2
 4395 0048 7A68     		ldr	r2, [r7, #4]
 4396 004a 1344     		add	r3, r3, r2
 4397 004c 1B68     		ldr	r3, [r3]	@ float
 4398 004e 1946     		mov	r1, r3
 4399 0050 FFF7FEFF 		bl	__aeabi_fadd
 4400 0054 0346     		mov	r3, r0
 4401 0056 2360     		str	r3, [r4]	@ float
 647:STM32F10x_Speex_Lib/libspeex/smallft.c ****     ch[t1+t0]=cc[t2]-cc[t3+t2];
 4402              		.loc 2 647 0 discriminator 3
 4403 0058 7A6B     		ldr	r2, [r7, #52]
 4404 005a FB69     		ldr	r3, [r7, #28]
 4405 005c 1344     		add	r3, r3, r2
 4406 005e 9B00     		lsls	r3, r3, #2
 4407 0060 3A68     		ldr	r2, [r7]
 4408 0062 D418     		adds	r4, r2, r3
 4409 0064 3B6B     		ldr	r3, [r7, #48]
 4410 0066 9B00     		lsls	r3, r3, #2
 4411 0068 7A68     		ldr	r2, [r7, #4]
 4412 006a 1344     		add	r3, r3, r2
 4413 006c 1868     		ldr	r0, [r3]	@ float
 4414 006e FA6A     		ldr	r2, [r7, #44]
 4415 0070 3B6B     		ldr	r3, [r7, #48]
 4416 0072 1344     		add	r3, r3, r2
 4417 0074 9B00     		lsls	r3, r3, #2
 4418 0076 7A68     		ldr	r2, [r7, #4]
 4419 0078 1344     		add	r3, r3, r2
 4420 007a 1B68     		ldr	r3, [r3]	@ float
 4421 007c 1946     		mov	r1, r3
 4422 007e FFF7FEFF 		bl	__aeabi_fsub
ARM GAS  /var/folders/kh/x4vltyy52lbg7p4pcyglc5080000gp/T//ccKDo44O.s 			page 93


 4423 0082 0346     		mov	r3, r0
 4424 0084 2360     		str	r3, [r4]	@ float
 648:STM32F10x_Speex_Lib/libspeex/smallft.c ****     t2=(t1+=ido)<<1;
 4425              		.loc 2 648 0 discriminator 3
 4426 0086 7A6B     		ldr	r2, [r7, #52]
 4427 0088 FB68     		ldr	r3, [r7, #12]
 4428 008a 1344     		add	r3, r3, r2
 4429 008c 7B63     		str	r3, [r7, #52]
 4430 008e 7B6B     		ldr	r3, [r7, #52]
 4431 0090 5B00     		lsls	r3, r3, #1
 4432 0092 3B63     		str	r3, [r7, #48]
 645:STM32F10x_Speex_Lib/libspeex/smallft.c ****     ch[t1]=cc[t2]+cc[t3+t2];
 4433              		.loc 2 645 0 discriminator 3
 4434 0094 BB6B     		ldr	r3, [r7, #56]
 4435 0096 0133     		adds	r3, r3, #1
 4436 0098 BB63     		str	r3, [r7, #56]
 4437              	.L191:
 645:STM32F10x_Speex_Lib/libspeex/smallft.c ****     ch[t1]=cc[t2]+cc[t3+t2];
 4438              		.loc 2 645 0 is_stmt 0 discriminator 1
 4439 009a BA6B     		ldr	r2, [r7, #56]
 4440 009c BB68     		ldr	r3, [r7, #8]
 4441 009e 9A42     		cmp	r2, r3
 4442 00a0 C5DB     		blt	.L192
 649:STM32F10x_Speex_Lib/libspeex/smallft.c ****   }
 650:STM32F10x_Speex_Lib/libspeex/smallft.c **** 
 651:STM32F10x_Speex_Lib/libspeex/smallft.c ****   if(ido<2)return;
 4443              		.loc 2 651 0 is_stmt 1
 4444 00a2 FB68     		ldr	r3, [r7, #12]
 4445 00a4 012B     		cmp	r3, #1
 4446 00a6 40F32881 		ble	.L204
 652:STM32F10x_Speex_Lib/libspeex/smallft.c ****   if(ido==2)goto L105;
 4447              		.loc 2 652 0
 4448 00aa FB68     		ldr	r3, [r7, #12]
 4449 00ac 022B     		cmp	r3, #2
 4450 00ae 00F0E680 		beq	.L205
 653:STM32F10x_Speex_Lib/libspeex/smallft.c **** 
 654:STM32F10x_Speex_Lib/libspeex/smallft.c ****   t1=0;
 4451              		.loc 2 654 0
 4452 00b2 0023     		movs	r3, #0
 4453 00b4 7B63     		str	r3, [r7, #52]
 655:STM32F10x_Speex_Lib/libspeex/smallft.c ****   t2=0;
 4454              		.loc 2 655 0
 4455 00b6 0023     		movs	r3, #0
 4456 00b8 3B63     		str	r3, [r7, #48]
 656:STM32F10x_Speex_Lib/libspeex/smallft.c ****   for(k=0;k<l1;k++){
 4457              		.loc 2 656 0
 4458 00ba 0023     		movs	r3, #0
 4459 00bc BB63     		str	r3, [r7, #56]
 4460 00be CDE0     		b	.L197
 4461              	.L200:
 657:STM32F10x_Speex_Lib/libspeex/smallft.c ****     t3=t1;
 4462              		.loc 2 657 0
 4463 00c0 7B6B     		ldr	r3, [r7, #52]
 4464 00c2 FB62     		str	r3, [r7, #44]
 658:STM32F10x_Speex_Lib/libspeex/smallft.c ****     t5=(t4=t2)+(ido<<1);
 4465              		.loc 2 658 0
 4466 00c4 3B6B     		ldr	r3, [r7, #48]
ARM GAS  /var/folders/kh/x4vltyy52lbg7p4pcyglc5080000gp/T//ccKDo44O.s 			page 94


 4467 00c6 BB62     		str	r3, [r7, #40]
 4468 00c8 FB68     		ldr	r3, [r7, #12]
 4469 00ca 5B00     		lsls	r3, r3, #1
 4470 00cc BA6A     		ldr	r2, [r7, #40]
 4471 00ce 1344     		add	r3, r3, r2
 4472 00d0 7B62     		str	r3, [r7, #36]
 659:STM32F10x_Speex_Lib/libspeex/smallft.c ****     t6=t0+t1;
 4473              		.loc 2 659 0
 4474 00d2 FA69     		ldr	r2, [r7, #28]
 4475 00d4 7B6B     		ldr	r3, [r7, #52]
 4476 00d6 1344     		add	r3, r3, r2
 4477 00d8 3B62     		str	r3, [r7, #32]
 660:STM32F10x_Speex_Lib/libspeex/smallft.c ****     for(i=2;i<ido;i+=2){
 4478              		.loc 2 660 0
 4479 00da 0223     		movs	r3, #2
 4480 00dc FB63     		str	r3, [r7, #60]
 4481 00de AEE0     		b	.L198
 4482              	.L199:
 661:STM32F10x_Speex_Lib/libspeex/smallft.c ****       t3+=2;
 4483              		.loc 2 661 0 discriminator 3
 4484 00e0 FB6A     		ldr	r3, [r7, #44]
 4485 00e2 0233     		adds	r3, r3, #2
 4486 00e4 FB62     		str	r3, [r7, #44]
 662:STM32F10x_Speex_Lib/libspeex/smallft.c ****       t4+=2;
 4487              		.loc 2 662 0 discriminator 3
 4488 00e6 BB6A     		ldr	r3, [r7, #40]
 4489 00e8 0233     		adds	r3, r3, #2
 4490 00ea BB62     		str	r3, [r7, #40]
 663:STM32F10x_Speex_Lib/libspeex/smallft.c ****       t5-=2;
 4491              		.loc 2 663 0 discriminator 3
 4492 00ec 7B6A     		ldr	r3, [r7, #36]
 4493 00ee 023B     		subs	r3, r3, #2
 4494 00f0 7B62     		str	r3, [r7, #36]
 664:STM32F10x_Speex_Lib/libspeex/smallft.c ****       t6+=2;
 4495              		.loc 2 664 0 discriminator 3
 4496 00f2 3B6A     		ldr	r3, [r7, #32]
 4497 00f4 0233     		adds	r3, r3, #2
 4498 00f6 3B62     		str	r3, [r7, #32]
 665:STM32F10x_Speex_Lib/libspeex/smallft.c ****       ch[t3-1]=cc[t4-1]+cc[t5-1];
 4499              		.loc 2 665 0 discriminator 3
 4500 00f8 FB6A     		ldr	r3, [r7, #44]
 4501 00fa 03F18043 		add	r3, r3, #1073741824
 4502 00fe 013B     		subs	r3, r3, #1
 4503 0100 9B00     		lsls	r3, r3, #2
 4504 0102 3A68     		ldr	r2, [r7]
 4505 0104 D418     		adds	r4, r2, r3
 4506 0106 BB6A     		ldr	r3, [r7, #40]
 4507 0108 03F18043 		add	r3, r3, #1073741824
 4508 010c 013B     		subs	r3, r3, #1
 4509 010e 9B00     		lsls	r3, r3, #2
 4510 0110 7A68     		ldr	r2, [r7, #4]
 4511 0112 1344     		add	r3, r3, r2
 4512 0114 1868     		ldr	r0, [r3]	@ float
 4513 0116 7B6A     		ldr	r3, [r7, #36]
 4514 0118 03F18043 		add	r3, r3, #1073741824
 4515 011c 013B     		subs	r3, r3, #1
 4516 011e 9B00     		lsls	r3, r3, #2
ARM GAS  /var/folders/kh/x4vltyy52lbg7p4pcyglc5080000gp/T//ccKDo44O.s 			page 95


 4517 0120 7A68     		ldr	r2, [r7, #4]
 4518 0122 1344     		add	r3, r3, r2
 4519 0124 1B68     		ldr	r3, [r3]	@ float
 4520 0126 1946     		mov	r1, r3
 4521 0128 FFF7FEFF 		bl	__aeabi_fadd
 4522 012c 0346     		mov	r3, r0
 4523 012e 2360     		str	r3, [r4]	@ float
 666:STM32F10x_Speex_Lib/libspeex/smallft.c ****       tr2=cc[t4-1]-cc[t5-1];
 4524              		.loc 2 666 0 discriminator 3
 4525 0130 BB6A     		ldr	r3, [r7, #40]
 4526 0132 03F18043 		add	r3, r3, #1073741824
 4527 0136 013B     		subs	r3, r3, #1
 4528 0138 9B00     		lsls	r3, r3, #2
 4529 013a 7A68     		ldr	r2, [r7, #4]
 4530 013c 1344     		add	r3, r3, r2
 4531 013e 1868     		ldr	r0, [r3]	@ float
 4532 0140 7B6A     		ldr	r3, [r7, #36]
 4533 0142 03F18043 		add	r3, r3, #1073741824
 4534 0146 013B     		subs	r3, r3, #1
 4535 0148 9B00     		lsls	r3, r3, #2
 4536 014a 7A68     		ldr	r2, [r7, #4]
 4537 014c 1344     		add	r3, r3, r2
 4538 014e 1B68     		ldr	r3, [r3]	@ float
 4539 0150 1946     		mov	r1, r3
 4540 0152 FFF7FEFF 		bl	__aeabi_fsub
 4541 0156 0346     		mov	r3, r0
 4542 0158 BB61     		str	r3, [r7, #24]	@ float
 667:STM32F10x_Speex_Lib/libspeex/smallft.c ****       ch[t3]=cc[t4]-cc[t5];
 4543              		.loc 2 667 0 discriminator 3
 4544 015a FB6A     		ldr	r3, [r7, #44]
 4545 015c 9B00     		lsls	r3, r3, #2
 4546 015e 3A68     		ldr	r2, [r7]
 4547 0160 D418     		adds	r4, r2, r3
 4548 0162 BB6A     		ldr	r3, [r7, #40]
 4549 0164 9B00     		lsls	r3, r3, #2
 4550 0166 7A68     		ldr	r2, [r7, #4]
 4551 0168 1344     		add	r3, r3, r2
 4552 016a 1868     		ldr	r0, [r3]	@ float
 4553 016c 7B6A     		ldr	r3, [r7, #36]
 4554 016e 9B00     		lsls	r3, r3, #2
 4555 0170 7A68     		ldr	r2, [r7, #4]
 4556 0172 1344     		add	r3, r3, r2
 4557 0174 1B68     		ldr	r3, [r3]	@ float
 4558 0176 1946     		mov	r1, r3
 4559 0178 FFF7FEFF 		bl	__aeabi_fsub
 4560 017c 0346     		mov	r3, r0
 4561 017e 2360     		str	r3, [r4]	@ float
 668:STM32F10x_Speex_Lib/libspeex/smallft.c ****       ti2=cc[t4]+cc[t5];
 4562              		.loc 2 668 0 discriminator 3
 4563 0180 BB6A     		ldr	r3, [r7, #40]
 4564 0182 9B00     		lsls	r3, r3, #2
 4565 0184 7A68     		ldr	r2, [r7, #4]
 4566 0186 1344     		add	r3, r3, r2
 4567 0188 1868     		ldr	r0, [r3]	@ float
 4568 018a 7B6A     		ldr	r3, [r7, #36]
 4569 018c 9B00     		lsls	r3, r3, #2
 4570 018e 7A68     		ldr	r2, [r7, #4]
ARM GAS  /var/folders/kh/x4vltyy52lbg7p4pcyglc5080000gp/T//ccKDo44O.s 			page 96


 4571 0190 1344     		add	r3, r3, r2
 4572 0192 1B68     		ldr	r3, [r3]	@ float
 4573 0194 1946     		mov	r1, r3
 4574 0196 FFF7FEFF 		bl	__aeabi_fadd
 4575 019a 0346     		mov	r3, r0
 4576 019c 7B61     		str	r3, [r7, #20]	@ float
 669:STM32F10x_Speex_Lib/libspeex/smallft.c ****       ch[t6-1]=wa1[i-2]*tr2-wa1[i-1]*ti2;
 4577              		.loc 2 669 0 discriminator 3
 4578 019e 3B6A     		ldr	r3, [r7, #32]
 4579 01a0 03F18043 		add	r3, r3, #1073741824
 4580 01a4 013B     		subs	r3, r3, #1
 4581 01a6 9B00     		lsls	r3, r3, #2
 4582 01a8 3A68     		ldr	r2, [r7]
 4583 01aa D418     		adds	r4, r2, r3
 4584 01ac FB6B     		ldr	r3, [r7, #60]
 4585 01ae 03F18043 		add	r3, r3, #1073741824
 4586 01b2 023B     		subs	r3, r3, #2
 4587 01b4 9B00     		lsls	r3, r3, #2
 4588 01b6 3A6D     		ldr	r2, [r7, #80]
 4589 01b8 1344     		add	r3, r3, r2
 4590 01ba 1B68     		ldr	r3, [r3]	@ float
 4591 01bc B969     		ldr	r1, [r7, #24]	@ float
 4592 01be 1846     		mov	r0, r3
 4593 01c0 FFF7FEFF 		bl	__aeabi_fmul
 4594 01c4 0346     		mov	r3, r0
 4595 01c6 1D46     		mov	r5, r3
 4596 01c8 FB6B     		ldr	r3, [r7, #60]
 4597 01ca 03F18043 		add	r3, r3, #1073741824
 4598 01ce 013B     		subs	r3, r3, #1
 4599 01d0 9B00     		lsls	r3, r3, #2
 4600 01d2 3A6D     		ldr	r2, [r7, #80]
 4601 01d4 1344     		add	r3, r3, r2
 4602 01d6 1B68     		ldr	r3, [r3]	@ float
 4603 01d8 7969     		ldr	r1, [r7, #20]	@ float
 4604 01da 1846     		mov	r0, r3
 4605 01dc FFF7FEFF 		bl	__aeabi_fmul
 4606 01e0 0346     		mov	r3, r0
 4607 01e2 1946     		mov	r1, r3
 4608 01e4 2846     		mov	r0, r5
 4609 01e6 FFF7FEFF 		bl	__aeabi_fsub
 4610 01ea 0346     		mov	r3, r0
 4611 01ec 2360     		str	r3, [r4]	@ float
 670:STM32F10x_Speex_Lib/libspeex/smallft.c ****       ch[t6]=wa1[i-2]*ti2+wa1[i-1]*tr2;
 4612              		.loc 2 670 0 discriminator 3
 4613 01ee 3B6A     		ldr	r3, [r7, #32]
 4614 01f0 9B00     		lsls	r3, r3, #2
 4615 01f2 3A68     		ldr	r2, [r7]
 4616 01f4 D418     		adds	r4, r2, r3
 4617 01f6 FB6B     		ldr	r3, [r7, #60]
 4618 01f8 03F18043 		add	r3, r3, #1073741824
 4619 01fc 023B     		subs	r3, r3, #2
 4620 01fe 9B00     		lsls	r3, r3, #2
 4621 0200 3A6D     		ldr	r2, [r7, #80]
 4622 0202 1344     		add	r3, r3, r2
 4623 0204 1B68     		ldr	r3, [r3]	@ float
 4624 0206 7969     		ldr	r1, [r7, #20]	@ float
 4625 0208 1846     		mov	r0, r3
ARM GAS  /var/folders/kh/x4vltyy52lbg7p4pcyglc5080000gp/T//ccKDo44O.s 			page 97


 4626 020a FFF7FEFF 		bl	__aeabi_fmul
 4627 020e 0346     		mov	r3, r0
 4628 0210 1D46     		mov	r5, r3
 4629 0212 FB6B     		ldr	r3, [r7, #60]
 4630 0214 03F18043 		add	r3, r3, #1073741824
 4631 0218 013B     		subs	r3, r3, #1
 4632 021a 9B00     		lsls	r3, r3, #2
 4633 021c 3A6D     		ldr	r2, [r7, #80]
 4634 021e 1344     		add	r3, r3, r2
 4635 0220 1B68     		ldr	r3, [r3]	@ float
 4636 0222 B969     		ldr	r1, [r7, #24]	@ float
 4637 0224 1846     		mov	r0, r3
 4638 0226 FFF7FEFF 		bl	__aeabi_fmul
 4639 022a 0346     		mov	r3, r0
 4640 022c 1946     		mov	r1, r3
 4641 022e 2846     		mov	r0, r5
 4642 0230 FFF7FEFF 		bl	__aeabi_fadd
 4643 0234 0346     		mov	r3, r0
 4644 0236 2360     		str	r3, [r4]	@ float
 660:STM32F10x_Speex_Lib/libspeex/smallft.c ****       t3+=2;
 4645              		.loc 2 660 0 discriminator 3
 4646 0238 FB6B     		ldr	r3, [r7, #60]
 4647 023a 0233     		adds	r3, r3, #2
 4648 023c FB63     		str	r3, [r7, #60]
 4649              	.L198:
 660:STM32F10x_Speex_Lib/libspeex/smallft.c ****       t3+=2;
 4650              		.loc 2 660 0 is_stmt 0 discriminator 1
 4651 023e FA6B     		ldr	r2, [r7, #60]
 4652 0240 FB68     		ldr	r3, [r7, #12]
 4653 0242 9A42     		cmp	r2, r3
 4654 0244 FFF64CAF 		blt	.L199
 671:STM32F10x_Speex_Lib/libspeex/smallft.c ****     }
 672:STM32F10x_Speex_Lib/libspeex/smallft.c ****     t2=(t1+=ido)<<1;
 4655              		.loc 2 672 0 is_stmt 1 discriminator 2
 4656 0248 7A6B     		ldr	r2, [r7, #52]
 4657 024a FB68     		ldr	r3, [r7, #12]
 4658 024c 1344     		add	r3, r3, r2
 4659 024e 7B63     		str	r3, [r7, #52]
 4660 0250 7B6B     		ldr	r3, [r7, #52]
 4661 0252 5B00     		lsls	r3, r3, #1
 4662 0254 3B63     		str	r3, [r7, #48]
 656:STM32F10x_Speex_Lib/libspeex/smallft.c ****     t3=t1;
 4663              		.loc 2 656 0 discriminator 2
 4664 0256 BB6B     		ldr	r3, [r7, #56]
 4665 0258 0133     		adds	r3, r3, #1
 4666 025a BB63     		str	r3, [r7, #56]
 4667              	.L197:
 656:STM32F10x_Speex_Lib/libspeex/smallft.c ****     t3=t1;
 4668              		.loc 2 656 0 is_stmt 0 discriminator 1
 4669 025c BA6B     		ldr	r2, [r7, #56]
 4670 025e BB68     		ldr	r3, [r7, #8]
 4671 0260 9A42     		cmp	r2, r3
 4672 0262 FFF62DAF 		blt	.L200
 673:STM32F10x_Speex_Lib/libspeex/smallft.c ****   }
 674:STM32F10x_Speex_Lib/libspeex/smallft.c **** 
 675:STM32F10x_Speex_Lib/libspeex/smallft.c ****   if(ido%2==1)return;
 4673              		.loc 2 675 0 is_stmt 1
ARM GAS  /var/folders/kh/x4vltyy52lbg7p4pcyglc5080000gp/T//ccKDo44O.s 			page 98


 4674 0266 FA68     		ldr	r2, [r7, #12]
 4675 0268 274B     		ldr	r3, .L207
 4676 026a 1340     		ands	r3, r3, r2
 4677 026c 002B     		cmp	r3, #0
 4678 026e 03DA     		bge	.L201
 4679 0270 013B     		subs	r3, r3, #1
 4680 0272 63F00103 		orn	r3, r3, #1
 4681 0276 0133     		adds	r3, r3, #1
 4682              	.L201:
 4683 0278 012B     		cmp	r3, #1
 4684 027a 40D0     		beq	.L206
 4685 027c 00E0     		b	.L196
 4686              	.L205:
 652:STM32F10x_Speex_Lib/libspeex/smallft.c **** 
 4687              		.loc 2 652 0
 4688 027e 00BF     		nop
 4689              	.L196:
 676:STM32F10x_Speex_Lib/libspeex/smallft.c **** 
 677:STM32F10x_Speex_Lib/libspeex/smallft.c **** L105:
 678:STM32F10x_Speex_Lib/libspeex/smallft.c ****   t1=ido-1;
 4690              		.loc 2 678 0
 4691 0280 FB68     		ldr	r3, [r7, #12]
 4692 0282 013B     		subs	r3, r3, #1
 4693 0284 7B63     		str	r3, [r7, #52]
 679:STM32F10x_Speex_Lib/libspeex/smallft.c ****   t2=ido-1;
 4694              		.loc 2 679 0
 4695 0286 FB68     		ldr	r3, [r7, #12]
 4696 0288 013B     		subs	r3, r3, #1
 4697 028a 3B63     		str	r3, [r7, #48]
 680:STM32F10x_Speex_Lib/libspeex/smallft.c ****   for(k=0;k<l1;k++){
 4698              		.loc 2 680 0
 4699 028c 0023     		movs	r3, #0
 4700 028e BB63     		str	r3, [r7, #56]
 4701 0290 2EE0     		b	.L202
 4702              	.L203:
 681:STM32F10x_Speex_Lib/libspeex/smallft.c ****     ch[t1]=cc[t2]+cc[t2];
 4703              		.loc 2 681 0 discriminator 3
 4704 0292 7B6B     		ldr	r3, [r7, #52]
 4705 0294 9B00     		lsls	r3, r3, #2
 4706 0296 3A68     		ldr	r2, [r7]
 4707 0298 D418     		adds	r4, r2, r3
 4708 029a 3B6B     		ldr	r3, [r7, #48]
 4709 029c 9B00     		lsls	r3, r3, #2
 4710 029e 7A68     		ldr	r2, [r7, #4]
 4711 02a0 1344     		add	r3, r3, r2
 4712 02a2 1B68     		ldr	r3, [r3]	@ float
 4713 02a4 1946     		mov	r1, r3
 4714 02a6 1846     		mov	r0, r3
 4715 02a8 FFF7FEFF 		bl	__aeabi_fadd
 4716 02ac 0346     		mov	r3, r0
 4717 02ae 2360     		str	r3, [r4]	@ float
 682:STM32F10x_Speex_Lib/libspeex/smallft.c ****     ch[t1+t0]=-(cc[t2+1]+cc[t2+1]);
 4718              		.loc 2 682 0 discriminator 3
 4719 02b0 7A6B     		ldr	r2, [r7, #52]
 4720 02b2 FB69     		ldr	r3, [r7, #28]
 4721 02b4 1344     		add	r3, r3, r2
 4722 02b6 9B00     		lsls	r3, r3, #2
ARM GAS  /var/folders/kh/x4vltyy52lbg7p4pcyglc5080000gp/T//ccKDo44O.s 			page 99


 4723 02b8 3A68     		ldr	r2, [r7]
 4724 02ba D418     		adds	r4, r2, r3
 4725 02bc 3B6B     		ldr	r3, [r7, #48]
 4726 02be 0133     		adds	r3, r3, #1
 4727 02c0 9B00     		lsls	r3, r3, #2
 4728 02c2 7A68     		ldr	r2, [r7, #4]
 4729 02c4 1344     		add	r3, r3, r2
 4730 02c6 1B68     		ldr	r3, [r3]	@ float
 4731 02c8 1946     		mov	r1, r3
 4732 02ca 1846     		mov	r0, r3
 4733 02cc FFF7FEFF 		bl	__aeabi_fadd
 4734 02d0 0346     		mov	r3, r0
 4735 02d2 83F00043 		eor	r3, r3, #-2147483648
 4736 02d6 2360     		str	r3, [r4]	@ float
 683:STM32F10x_Speex_Lib/libspeex/smallft.c ****     t1+=ido;
 4737              		.loc 2 683 0 discriminator 3
 4738 02d8 7A6B     		ldr	r2, [r7, #52]
 4739 02da FB68     		ldr	r3, [r7, #12]
 4740 02dc 1344     		add	r3, r3, r2
 4741 02de 7B63     		str	r3, [r7, #52]
 684:STM32F10x_Speex_Lib/libspeex/smallft.c ****     t2+=ido<<1;
 4742              		.loc 2 684 0 discriminator 3
 4743 02e0 FB68     		ldr	r3, [r7, #12]
 4744 02e2 5B00     		lsls	r3, r3, #1
 4745 02e4 3A6B     		ldr	r2, [r7, #48]
 4746 02e6 1344     		add	r3, r3, r2
 4747 02e8 3B63     		str	r3, [r7, #48]
 680:STM32F10x_Speex_Lib/libspeex/smallft.c ****     ch[t1]=cc[t2]+cc[t2];
 4748              		.loc 2 680 0 discriminator 3
 4749 02ea BB6B     		ldr	r3, [r7, #56]
 4750 02ec 0133     		adds	r3, r3, #1
 4751 02ee BB63     		str	r3, [r7, #56]
 4752              	.L202:
 680:STM32F10x_Speex_Lib/libspeex/smallft.c ****     ch[t1]=cc[t2]+cc[t2];
 4753              		.loc 2 680 0 is_stmt 0 discriminator 1
 4754 02f0 BA6B     		ldr	r2, [r7, #56]
 4755 02f2 BB68     		ldr	r3, [r7, #8]
 4756 02f4 9A42     		cmp	r2, r3
 4757 02f6 CCDB     		blt	.L203
 4758 02f8 02E0     		b	.L190
 4759              	.L204:
 651:STM32F10x_Speex_Lib/libspeex/smallft.c ****   if(ido==2)goto L105;
 4760              		.loc 2 651 0 is_stmt 1
 4761 02fa 00BF     		nop
 4762 02fc 00E0     		b	.L190
 4763              	.L206:
 675:STM32F10x_Speex_Lib/libspeex/smallft.c **** 
 4764              		.loc 2 675 0
 4765 02fe 00BF     		nop
 4766              	.L190:
 685:STM32F10x_Speex_Lib/libspeex/smallft.c ****   }
 686:STM32F10x_Speex_Lib/libspeex/smallft.c **** }
 4767              		.loc 2 686 0
 4768 0300 4037     		adds	r7, r7, #64
 4769              	.LCFI43:
 4770              		.cfi_def_cfa_offset 16
 4771 0302 BD46     		mov	sp, r7
ARM GAS  /var/folders/kh/x4vltyy52lbg7p4pcyglc5080000gp/T//ccKDo44O.s 			page 100


 4772              	.LCFI44:
 4773              		.cfi_def_cfa_register 13
 4774              		@ sp needed
 4775 0304 B0BD     		pop	{r4, r5, r7, pc}
 4776              	.L208:
 4777 0306 00BF     		.align	2
 4778              	.L207:
 4779 0308 01000080 		.word	-2147483647
 4780              		.cfi_endproc
 4781              	.LFE15:
 4783              		.section	.text.dradb3,"ax",%progbits
 4784              		.align	2
 4785              		.thumb
 4786              		.thumb_func
 4788              	dradb3:
 4789              	.LFB16:
 687:STM32F10x_Speex_Lib/libspeex/smallft.c **** 
 688:STM32F10x_Speex_Lib/libspeex/smallft.c **** static void dradb3(int ido,int l1,float *cc,float *ch,float *wa1,
 689:STM32F10x_Speex_Lib/libspeex/smallft.c ****                           float *wa2){
 4790              		.loc 2 689 0
 4791              		.cfi_startproc
 4792              		@ args = 8, pretend = 0, frame = 112
 4793              		@ frame_needed = 1, uses_anonymous_args = 0
 4794 0000 B0B5     		push	{r4, r5, r7, lr}
 4795              	.LCFI45:
 4796              		.cfi_def_cfa_offset 16
 4797              		.cfi_offset 4, -16
 4798              		.cfi_offset 5, -12
 4799              		.cfi_offset 7, -8
 4800              		.cfi_offset 14, -4
 4801 0002 9CB0     		sub	sp, sp, #112
 4802              	.LCFI46:
 4803              		.cfi_def_cfa_offset 128
 4804 0004 00AF     		add	r7, sp, #0
 4805              	.LCFI47:
 4806              		.cfi_def_cfa_register 7
 4807 0006 F860     		str	r0, [r7, #12]
 4808 0008 B960     		str	r1, [r7, #8]
 4809 000a 7A60     		str	r2, [r7, #4]
 4810 000c 3B60     		str	r3, [r7]
 690:STM32F10x_Speex_Lib/libspeex/smallft.c ****   static float taur = -.5f;
 691:STM32F10x_Speex_Lib/libspeex/smallft.c ****   static float taui = .8660254037844386f;
 692:STM32F10x_Speex_Lib/libspeex/smallft.c ****   int i,k,t0,t1,t2,t3,t4,t5,t6,t7,t8,t9,t10;
 693:STM32F10x_Speex_Lib/libspeex/smallft.c ****   float ci2,ci3,di2,di3,cr2,cr3,dr2,dr3,ti2,tr2;
 694:STM32F10x_Speex_Lib/libspeex/smallft.c ****   t0=l1*ido;
 4811              		.loc 2 694 0
 4812 000e BB68     		ldr	r3, [r7, #8]
 4813 0010 FA68     		ldr	r2, [r7, #12]
 4814 0012 02FB03F3 		mul	r3, r2, r3
 4815 0016 7B64     		str	r3, [r7, #68]
 695:STM32F10x_Speex_Lib/libspeex/smallft.c **** 
 696:STM32F10x_Speex_Lib/libspeex/smallft.c ****   t1=0;
 4816              		.loc 2 696 0
 4817 0018 0023     		movs	r3, #0
 4818 001a 7B66     		str	r3, [r7, #100]
 697:STM32F10x_Speex_Lib/libspeex/smallft.c ****   t2=t0<<1;
 4819              		.loc 2 697 0
ARM GAS  /var/folders/kh/x4vltyy52lbg7p4pcyglc5080000gp/T//ccKDo44O.s 			page 101


 4820 001c 7B6C     		ldr	r3, [r7, #68]
 4821 001e 5B00     		lsls	r3, r3, #1
 4822 0020 3B64     		str	r3, [r7, #64]
 698:STM32F10x_Speex_Lib/libspeex/smallft.c ****   t3=ido<<1;
 4823              		.loc 2 698 0
 4824 0022 FB68     		ldr	r3, [r7, #12]
 4825 0024 5B00     		lsls	r3, r3, #1
 4826 0026 3B66     		str	r3, [r7, #96]
 699:STM32F10x_Speex_Lib/libspeex/smallft.c ****   t4=ido+(ido<<1);
 4827              		.loc 2 699 0
 4828 0028 FB68     		ldr	r3, [r7, #12]
 4829 002a 5A00     		lsls	r2, r3, #1
 4830 002c FB68     		ldr	r3, [r7, #12]
 4831 002e 1344     		add	r3, r3, r2
 4832 0030 FB63     		str	r3, [r7, #60]
 700:STM32F10x_Speex_Lib/libspeex/smallft.c ****   t5=0;
 4833              		.loc 2 700 0
 4834 0032 0023     		movs	r3, #0
 4835 0034 FB65     		str	r3, [r7, #92]
 701:STM32F10x_Speex_Lib/libspeex/smallft.c ****   for(k=0;k<l1;k++){
 4836              		.loc 2 701 0
 4837 0036 0023     		movs	r3, #0
 4838 0038 BB66     		str	r3, [r7, #104]
 4839 003a 68E0     		b	.L210
 4840              	.L211:
 702:STM32F10x_Speex_Lib/libspeex/smallft.c ****     tr2=cc[t3-1]+cc[t3-1];
 4841              		.loc 2 702 0 discriminator 3
 4842 003c 3B6E     		ldr	r3, [r7, #96]
 4843 003e 03F18043 		add	r3, r3, #1073741824
 4844 0042 013B     		subs	r3, r3, #1
 4845 0044 9B00     		lsls	r3, r3, #2
 4846 0046 7A68     		ldr	r2, [r7, #4]
 4847 0048 1344     		add	r3, r3, r2
 4848 004a 1B68     		ldr	r3, [r3]	@ float
 4849 004c 1946     		mov	r1, r3
 4850 004e 1846     		mov	r0, r3
 4851 0050 FFF7FEFF 		bl	__aeabi_fadd
 4852 0054 0346     		mov	r3, r0
 4853 0056 BB63     		str	r3, [r7, #56]	@ float
 703:STM32F10x_Speex_Lib/libspeex/smallft.c ****     cr2=cc[t5]+(taur*tr2);
 4854              		.loc 2 703 0 discriminator 3
 4855 0058 FB6D     		ldr	r3, [r7, #92]
 4856 005a 9B00     		lsls	r3, r3, #2
 4857 005c 7A68     		ldr	r2, [r7, #4]
 4858 005e 1344     		add	r3, r3, r2
 4859 0060 1C68     		ldr	r4, [r3]	@ float
 4860 0062 3F4B     		ldr	r3, .L219
 4861 0064 1B68     		ldr	r3, [r3]	@ float
 4862 0066 B96B     		ldr	r1, [r7, #56]	@ float
 4863 0068 1846     		mov	r0, r3
 4864 006a FFF7FEFF 		bl	__aeabi_fmul
 4865 006e 0346     		mov	r3, r0
 4866 0070 1946     		mov	r1, r3
 4867 0072 2046     		mov	r0, r4
 4868 0074 FFF7FEFF 		bl	__aeabi_fadd
 4869 0078 0346     		mov	r3, r0
 4870 007a 7B63     		str	r3, [r7, #52]	@ float
ARM GAS  /var/folders/kh/x4vltyy52lbg7p4pcyglc5080000gp/T//ccKDo44O.s 			page 102


 704:STM32F10x_Speex_Lib/libspeex/smallft.c ****     ch[t1]=cc[t5]+tr2;
 4871              		.loc 2 704 0 discriminator 3
 4872 007c 7B6E     		ldr	r3, [r7, #100]
 4873 007e 9B00     		lsls	r3, r3, #2
 4874 0080 3A68     		ldr	r2, [r7]
 4875 0082 D418     		adds	r4, r2, r3
 4876 0084 FB6D     		ldr	r3, [r7, #92]
 4877 0086 9B00     		lsls	r3, r3, #2
 4878 0088 7A68     		ldr	r2, [r7, #4]
 4879 008a 1344     		add	r3, r3, r2
 4880 008c 1B68     		ldr	r3, [r3]	@ float
 4881 008e B96B     		ldr	r1, [r7, #56]	@ float
 4882 0090 1846     		mov	r0, r3
 4883 0092 FFF7FEFF 		bl	__aeabi_fadd
 4884 0096 0346     		mov	r3, r0
 4885 0098 2360     		str	r3, [r4]	@ float
 705:STM32F10x_Speex_Lib/libspeex/smallft.c ****     ci3=taui*(cc[t3]+cc[t3]);
 4886              		.loc 2 705 0 discriminator 3
 4887 009a 3B6E     		ldr	r3, [r7, #96]
 4888 009c 9B00     		lsls	r3, r3, #2
 4889 009e 7A68     		ldr	r2, [r7, #4]
 4890 00a0 1344     		add	r3, r3, r2
 4891 00a2 1B68     		ldr	r3, [r3]	@ float
 4892 00a4 1946     		mov	r1, r3
 4893 00a6 1846     		mov	r0, r3
 4894 00a8 FFF7FEFF 		bl	__aeabi_fadd
 4895 00ac 0346     		mov	r3, r0
 4896 00ae 1A46     		mov	r2, r3
 4897 00b0 2C4B     		ldr	r3, .L219+4
 4898 00b2 1B68     		ldr	r3, [r3]	@ float
 4899 00b4 1946     		mov	r1, r3
 4900 00b6 1046     		mov	r0, r2
 4901 00b8 FFF7FEFF 		bl	__aeabi_fmul
 4902 00bc 0346     		mov	r3, r0
 4903 00be 3B63     		str	r3, [r7, #48]	@ float
 706:STM32F10x_Speex_Lib/libspeex/smallft.c ****     ch[t1+t0]=cr2-ci3;
 4904              		.loc 2 706 0 discriminator 3
 4905 00c0 7A6E     		ldr	r2, [r7, #100]
 4906 00c2 7B6C     		ldr	r3, [r7, #68]
 4907 00c4 1344     		add	r3, r3, r2
 4908 00c6 9B00     		lsls	r3, r3, #2
 4909 00c8 3A68     		ldr	r2, [r7]
 4910 00ca D418     		adds	r4, r2, r3
 4911 00cc 396B     		ldr	r1, [r7, #48]	@ float
 4912 00ce 786B     		ldr	r0, [r7, #52]	@ float
 4913 00d0 FFF7FEFF 		bl	__aeabi_fsub
 4914 00d4 0346     		mov	r3, r0
 4915 00d6 2360     		str	r3, [r4]	@ float
 707:STM32F10x_Speex_Lib/libspeex/smallft.c ****     ch[t1+t2]=cr2+ci3;
 4916              		.loc 2 707 0 discriminator 3
 4917 00d8 7A6E     		ldr	r2, [r7, #100]
 4918 00da 3B6C     		ldr	r3, [r7, #64]
 4919 00dc 1344     		add	r3, r3, r2
 4920 00de 9B00     		lsls	r3, r3, #2
 4921 00e0 3A68     		ldr	r2, [r7]
 4922 00e2 D418     		adds	r4, r2, r3
 4923 00e4 396B     		ldr	r1, [r7, #48]	@ float
ARM GAS  /var/folders/kh/x4vltyy52lbg7p4pcyglc5080000gp/T//ccKDo44O.s 			page 103


 4924 00e6 786B     		ldr	r0, [r7, #52]	@ float
 4925 00e8 FFF7FEFF 		bl	__aeabi_fadd
 4926 00ec 0346     		mov	r3, r0
 4927 00ee 2360     		str	r3, [r4]	@ float
 708:STM32F10x_Speex_Lib/libspeex/smallft.c ****     t1+=ido;
 4928              		.loc 2 708 0 discriminator 3
 4929 00f0 7A6E     		ldr	r2, [r7, #100]
 4930 00f2 FB68     		ldr	r3, [r7, #12]
 4931 00f4 1344     		add	r3, r3, r2
 4932 00f6 7B66     		str	r3, [r7, #100]
 709:STM32F10x_Speex_Lib/libspeex/smallft.c ****     t3+=t4;
 4933              		.loc 2 709 0 discriminator 3
 4934 00f8 3A6E     		ldr	r2, [r7, #96]
 4935 00fa FB6B     		ldr	r3, [r7, #60]
 4936 00fc 1344     		add	r3, r3, r2
 4937 00fe 3B66     		str	r3, [r7, #96]
 710:STM32F10x_Speex_Lib/libspeex/smallft.c ****     t5+=t4;
 4938              		.loc 2 710 0 discriminator 3
 4939 0100 FA6D     		ldr	r2, [r7, #92]
 4940 0102 FB6B     		ldr	r3, [r7, #60]
 4941 0104 1344     		add	r3, r3, r2
 4942 0106 FB65     		str	r3, [r7, #92]
 701:STM32F10x_Speex_Lib/libspeex/smallft.c ****     tr2=cc[t3-1]+cc[t3-1];
 4943              		.loc 2 701 0 discriminator 3
 4944 0108 BB6E     		ldr	r3, [r7, #104]
 4945 010a 0133     		adds	r3, r3, #1
 4946 010c BB66     		str	r3, [r7, #104]
 4947              	.L210:
 701:STM32F10x_Speex_Lib/libspeex/smallft.c ****     tr2=cc[t3-1]+cc[t3-1];
 4948              		.loc 2 701 0 is_stmt 0 discriminator 1
 4949 010e BA6E     		ldr	r2, [r7, #104]
 4950 0110 BB68     		ldr	r3, [r7, #8]
 4951 0112 9A42     		cmp	r2, r3
 4952 0114 92DB     		blt	.L211
 711:STM32F10x_Speex_Lib/libspeex/smallft.c ****   }
 712:STM32F10x_Speex_Lib/libspeex/smallft.c **** 
 713:STM32F10x_Speex_Lib/libspeex/smallft.c ****   if(ido==1)return;
 4953              		.loc 2 713 0 is_stmt 1
 4954 0116 FB68     		ldr	r3, [r7, #12]
 4955 0118 012B     		cmp	r3, #1
 4956 011a 00F0AF81 		beq	.L218
 714:STM32F10x_Speex_Lib/libspeex/smallft.c **** 
 715:STM32F10x_Speex_Lib/libspeex/smallft.c ****   t1=0;
 4957              		.loc 2 715 0
 4958 011e 0023     		movs	r3, #0
 4959 0120 7B66     		str	r3, [r7, #100]
 716:STM32F10x_Speex_Lib/libspeex/smallft.c ****   t3=ido<<1;
 4960              		.loc 2 716 0
 4961 0122 FB68     		ldr	r3, [r7, #12]
 4962 0124 5B00     		lsls	r3, r3, #1
 4963 0126 3B66     		str	r3, [r7, #96]
 717:STM32F10x_Speex_Lib/libspeex/smallft.c ****   for(k=0;k<l1;k++){
 4964              		.loc 2 717 0
 4965 0128 0023     		movs	r3, #0
 4966 012a BB66     		str	r3, [r7, #104]
 4967 012c A0E1     		b	.L214
 4968              	.L217:
ARM GAS  /var/folders/kh/x4vltyy52lbg7p4pcyglc5080000gp/T//ccKDo44O.s 			page 104


 718:STM32F10x_Speex_Lib/libspeex/smallft.c ****     t7=t1+(t1<<1);
 4969              		.loc 2 718 0
 4970 012e 7B6E     		ldr	r3, [r7, #100]
 4971 0130 5A00     		lsls	r2, r3, #1
 4972 0132 7B6E     		ldr	r3, [r7, #100]
 4973 0134 1344     		add	r3, r3, r2
 4974 0136 7B65     		str	r3, [r7, #84]
 719:STM32F10x_Speex_Lib/libspeex/smallft.c ****     t6=(t5=t7+t3);
 4975              		.loc 2 719 0
 4976 0138 7A6D     		ldr	r2, [r7, #84]
 4977 013a 3B6E     		ldr	r3, [r7, #96]
 4978 013c 1344     		add	r3, r3, r2
 4979 013e FB65     		str	r3, [r7, #92]
 4980 0140 FB6D     		ldr	r3, [r7, #92]
 4981 0142 BB65     		str	r3, [r7, #88]
 720:STM32F10x_Speex_Lib/libspeex/smallft.c ****     t8=t1;
 4982              		.loc 2 720 0
 4983 0144 7B6E     		ldr	r3, [r7, #100]
 4984 0146 3B65     		str	r3, [r7, #80]
 721:STM32F10x_Speex_Lib/libspeex/smallft.c ****     t10=(t9=t1+t0)+t0;
 4985              		.loc 2 721 0
 4986 0148 7A6E     		ldr	r2, [r7, #100]
 4987 014a 7B6C     		ldr	r3, [r7, #68]
 4988 014c 1344     		add	r3, r3, r2
 4989 014e FB64     		str	r3, [r7, #76]
 4990 0150 FA6C     		ldr	r2, [r7, #76]
 4991 0152 7B6C     		ldr	r3, [r7, #68]
 4992 0154 1344     		add	r3, r3, r2
 4993 0156 BB64     		str	r3, [r7, #72]
 722:STM32F10x_Speex_Lib/libspeex/smallft.c **** 
 723:STM32F10x_Speex_Lib/libspeex/smallft.c ****     for(i=2;i<ido;i+=2){
 4994              		.loc 2 723 0
 4995 0158 0223     		movs	r3, #2
 4996 015a FB66     		str	r3, [r7, #108]
 4997 015c 76E1     		b	.L215
 4998              	.L220:
 4999 015e 00BF     		.align	2
 5000              	.L219:
 5001 0160 00000000 		.word	taur.5996
 5002 0164 00000000 		.word	taui.5997
 5003              	.L216:
 724:STM32F10x_Speex_Lib/libspeex/smallft.c ****       t5+=2;
 5004              		.loc 2 724 0 discriminator 3
 5005 0168 FB6D     		ldr	r3, [r7, #92]
 5006 016a 0233     		adds	r3, r3, #2
 5007 016c FB65     		str	r3, [r7, #92]
 725:STM32F10x_Speex_Lib/libspeex/smallft.c ****       t6-=2;
 5008              		.loc 2 725 0 discriminator 3
 5009 016e BB6D     		ldr	r3, [r7, #88]
 5010 0170 023B     		subs	r3, r3, #2
 5011 0172 BB65     		str	r3, [r7, #88]
 726:STM32F10x_Speex_Lib/libspeex/smallft.c ****       t7+=2;
 5012              		.loc 2 726 0 discriminator 3
 5013 0174 7B6D     		ldr	r3, [r7, #84]
 5014 0176 0233     		adds	r3, r3, #2
 5015 0178 7B65     		str	r3, [r7, #84]
 727:STM32F10x_Speex_Lib/libspeex/smallft.c ****       t8+=2;
ARM GAS  /var/folders/kh/x4vltyy52lbg7p4pcyglc5080000gp/T//ccKDo44O.s 			page 105


 5016              		.loc 2 727 0 discriminator 3
 5017 017a 3B6D     		ldr	r3, [r7, #80]
 5018 017c 0233     		adds	r3, r3, #2
 5019 017e 3B65     		str	r3, [r7, #80]
 728:STM32F10x_Speex_Lib/libspeex/smallft.c ****       t9+=2;
 5020              		.loc 2 728 0 discriminator 3
 5021 0180 FB6C     		ldr	r3, [r7, #76]
 5022 0182 0233     		adds	r3, r3, #2
 5023 0184 FB64     		str	r3, [r7, #76]
 729:STM32F10x_Speex_Lib/libspeex/smallft.c ****       t10+=2;
 5024              		.loc 2 729 0 discriminator 3
 5025 0186 BB6C     		ldr	r3, [r7, #72]
 5026 0188 0233     		adds	r3, r3, #2
 5027 018a BB64     		str	r3, [r7, #72]
 730:STM32F10x_Speex_Lib/libspeex/smallft.c ****       tr2=cc[t5-1]+cc[t6-1];
 5028              		.loc 2 730 0 discriminator 3
 5029 018c FB6D     		ldr	r3, [r7, #92]
 5030 018e 03F18043 		add	r3, r3, #1073741824
 5031 0192 013B     		subs	r3, r3, #1
 5032 0194 9B00     		lsls	r3, r3, #2
 5033 0196 7A68     		ldr	r2, [r7, #4]
 5034 0198 1344     		add	r3, r3, r2
 5035 019a 1868     		ldr	r0, [r3]	@ float
 5036 019c BB6D     		ldr	r3, [r7, #88]
 5037 019e 03F18043 		add	r3, r3, #1073741824
 5038 01a2 013B     		subs	r3, r3, #1
 5039 01a4 9B00     		lsls	r3, r3, #2
 5040 01a6 7A68     		ldr	r2, [r7, #4]
 5041 01a8 1344     		add	r3, r3, r2
 5042 01aa 1B68     		ldr	r3, [r3]	@ float
 5043 01ac 1946     		mov	r1, r3
 5044 01ae FFF7FEFF 		bl	__aeabi_fadd
 5045 01b2 0346     		mov	r3, r0
 5046 01b4 BB63     		str	r3, [r7, #56]	@ float
 731:STM32F10x_Speex_Lib/libspeex/smallft.c ****       cr2=cc[t7-1]+(taur*tr2);
 5047              		.loc 2 731 0 discriminator 3
 5048 01b6 7B6D     		ldr	r3, [r7, #84]
 5049 01b8 03F18043 		add	r3, r3, #1073741824
 5050 01bc 013B     		subs	r3, r3, #1
 5051 01be 9B00     		lsls	r3, r3, #2
 5052 01c0 7A68     		ldr	r2, [r7, #4]
 5053 01c2 1344     		add	r3, r3, r2
 5054 01c4 1C68     		ldr	r4, [r3]	@ float
 5055 01c6 A84B     		ldr	r3, .L221
 5056 01c8 1B68     		ldr	r3, [r3]	@ float
 5057 01ca B96B     		ldr	r1, [r7, #56]	@ float
 5058 01cc 1846     		mov	r0, r3
 5059 01ce FFF7FEFF 		bl	__aeabi_fmul
 5060 01d2 0346     		mov	r3, r0
 5061 01d4 1946     		mov	r1, r3
 5062 01d6 2046     		mov	r0, r4
 5063 01d8 FFF7FEFF 		bl	__aeabi_fadd
 5064 01dc 0346     		mov	r3, r0
 5065 01de 7B63     		str	r3, [r7, #52]	@ float
 732:STM32F10x_Speex_Lib/libspeex/smallft.c ****       ch[t8-1]=cc[t7-1]+tr2;
 5066              		.loc 2 732 0 discriminator 3
 5067 01e0 3B6D     		ldr	r3, [r7, #80]
ARM GAS  /var/folders/kh/x4vltyy52lbg7p4pcyglc5080000gp/T//ccKDo44O.s 			page 106


 5068 01e2 03F18043 		add	r3, r3, #1073741824
 5069 01e6 013B     		subs	r3, r3, #1
 5070 01e8 9B00     		lsls	r3, r3, #2
 5071 01ea 3A68     		ldr	r2, [r7]
 5072 01ec D418     		adds	r4, r2, r3
 5073 01ee 7B6D     		ldr	r3, [r7, #84]
 5074 01f0 03F18043 		add	r3, r3, #1073741824
 5075 01f4 013B     		subs	r3, r3, #1
 5076 01f6 9B00     		lsls	r3, r3, #2
 5077 01f8 7A68     		ldr	r2, [r7, #4]
 5078 01fa 1344     		add	r3, r3, r2
 5079 01fc 1B68     		ldr	r3, [r3]	@ float
 5080 01fe B96B     		ldr	r1, [r7, #56]	@ float
 5081 0200 1846     		mov	r0, r3
 5082 0202 FFF7FEFF 		bl	__aeabi_fadd
 5083 0206 0346     		mov	r3, r0
 5084 0208 2360     		str	r3, [r4]	@ float
 733:STM32F10x_Speex_Lib/libspeex/smallft.c ****       ti2=cc[t5]-cc[t6];
 5085              		.loc 2 733 0 discriminator 3
 5086 020a FB6D     		ldr	r3, [r7, #92]
 5087 020c 9B00     		lsls	r3, r3, #2
 5088 020e 7A68     		ldr	r2, [r7, #4]
 5089 0210 1344     		add	r3, r3, r2
 5090 0212 1868     		ldr	r0, [r3]	@ float
 5091 0214 BB6D     		ldr	r3, [r7, #88]
 5092 0216 9B00     		lsls	r3, r3, #2
 5093 0218 7A68     		ldr	r2, [r7, #4]
 5094 021a 1344     		add	r3, r3, r2
 5095 021c 1B68     		ldr	r3, [r3]	@ float
 5096 021e 1946     		mov	r1, r3
 5097 0220 FFF7FEFF 		bl	__aeabi_fsub
 5098 0224 0346     		mov	r3, r0
 5099 0226 FB62     		str	r3, [r7, #44]	@ float
 734:STM32F10x_Speex_Lib/libspeex/smallft.c ****       ci2=cc[t7]+(taur*ti2);
 5100              		.loc 2 734 0 discriminator 3
 5101 0228 7B6D     		ldr	r3, [r7, #84]
 5102 022a 9B00     		lsls	r3, r3, #2
 5103 022c 7A68     		ldr	r2, [r7, #4]
 5104 022e 1344     		add	r3, r3, r2
 5105 0230 1C68     		ldr	r4, [r3]	@ float
 5106 0232 8D4B     		ldr	r3, .L221
 5107 0234 1B68     		ldr	r3, [r3]	@ float
 5108 0236 F96A     		ldr	r1, [r7, #44]	@ float
 5109 0238 1846     		mov	r0, r3
 5110 023a FFF7FEFF 		bl	__aeabi_fmul
 5111 023e 0346     		mov	r3, r0
 5112 0240 1946     		mov	r1, r3
 5113 0242 2046     		mov	r0, r4
 5114 0244 FFF7FEFF 		bl	__aeabi_fadd
 5115 0248 0346     		mov	r3, r0
 5116 024a BB62     		str	r3, [r7, #40]	@ float
 735:STM32F10x_Speex_Lib/libspeex/smallft.c ****       ch[t8]=cc[t7]+ti2;
 5117              		.loc 2 735 0 discriminator 3
 5118 024c 3B6D     		ldr	r3, [r7, #80]
 5119 024e 9B00     		lsls	r3, r3, #2
 5120 0250 3A68     		ldr	r2, [r7]
 5121 0252 D418     		adds	r4, r2, r3
ARM GAS  /var/folders/kh/x4vltyy52lbg7p4pcyglc5080000gp/T//ccKDo44O.s 			page 107


 5122 0254 7B6D     		ldr	r3, [r7, #84]
 5123 0256 9B00     		lsls	r3, r3, #2
 5124 0258 7A68     		ldr	r2, [r7, #4]
 5125 025a 1344     		add	r3, r3, r2
 5126 025c 1B68     		ldr	r3, [r3]	@ float
 5127 025e F96A     		ldr	r1, [r7, #44]	@ float
 5128 0260 1846     		mov	r0, r3
 5129 0262 FFF7FEFF 		bl	__aeabi_fadd
 5130 0266 0346     		mov	r3, r0
 5131 0268 2360     		str	r3, [r4]	@ float
 736:STM32F10x_Speex_Lib/libspeex/smallft.c ****       cr3=taui*(cc[t5-1]-cc[t6-1]);
 5132              		.loc 2 736 0 discriminator 3
 5133 026a FB6D     		ldr	r3, [r7, #92]
 5134 026c 03F18043 		add	r3, r3, #1073741824
 5135 0270 013B     		subs	r3, r3, #1
 5136 0272 9B00     		lsls	r3, r3, #2
 5137 0274 7A68     		ldr	r2, [r7, #4]
 5138 0276 1344     		add	r3, r3, r2
 5139 0278 1868     		ldr	r0, [r3]	@ float
 5140 027a BB6D     		ldr	r3, [r7, #88]
 5141 027c 03F18043 		add	r3, r3, #1073741824
 5142 0280 013B     		subs	r3, r3, #1
 5143 0282 9B00     		lsls	r3, r3, #2
 5144 0284 7A68     		ldr	r2, [r7, #4]
 5145 0286 1344     		add	r3, r3, r2
 5146 0288 1B68     		ldr	r3, [r3]	@ float
 5147 028a 1946     		mov	r1, r3
 5148 028c FFF7FEFF 		bl	__aeabi_fsub
 5149 0290 0346     		mov	r3, r0
 5150 0292 1A46     		mov	r2, r3
 5151 0294 754B     		ldr	r3, .L221+4
 5152 0296 1B68     		ldr	r3, [r3]	@ float
 5153 0298 1946     		mov	r1, r3
 5154 029a 1046     		mov	r0, r2
 5155 029c FFF7FEFF 		bl	__aeabi_fmul
 5156 02a0 0346     		mov	r3, r0
 5157 02a2 7B62     		str	r3, [r7, #36]	@ float
 737:STM32F10x_Speex_Lib/libspeex/smallft.c ****       ci3=taui*(cc[t5]+cc[t6]);
 5158              		.loc 2 737 0 discriminator 3
 5159 02a4 FB6D     		ldr	r3, [r7, #92]
 5160 02a6 9B00     		lsls	r3, r3, #2
 5161 02a8 7A68     		ldr	r2, [r7, #4]
 5162 02aa 1344     		add	r3, r3, r2
 5163 02ac 1868     		ldr	r0, [r3]	@ float
 5164 02ae BB6D     		ldr	r3, [r7, #88]
 5165 02b0 9B00     		lsls	r3, r3, #2
 5166 02b2 7A68     		ldr	r2, [r7, #4]
 5167 02b4 1344     		add	r3, r3, r2
 5168 02b6 1B68     		ldr	r3, [r3]	@ float
 5169 02b8 1946     		mov	r1, r3
 5170 02ba FFF7FEFF 		bl	__aeabi_fadd
 5171 02be 0346     		mov	r3, r0
 5172 02c0 1A46     		mov	r2, r3
 5173 02c2 6A4B     		ldr	r3, .L221+4
 5174 02c4 1B68     		ldr	r3, [r3]	@ float
 5175 02c6 1946     		mov	r1, r3
 5176 02c8 1046     		mov	r0, r2
ARM GAS  /var/folders/kh/x4vltyy52lbg7p4pcyglc5080000gp/T//ccKDo44O.s 			page 108


 5177 02ca FFF7FEFF 		bl	__aeabi_fmul
 5178 02ce 0346     		mov	r3, r0
 5179 02d0 3B63     		str	r3, [r7, #48]	@ float
 738:STM32F10x_Speex_Lib/libspeex/smallft.c ****       dr2=cr2-ci3;
 5180              		.loc 2 738 0 discriminator 3
 5181 02d2 396B     		ldr	r1, [r7, #48]	@ float
 5182 02d4 786B     		ldr	r0, [r7, #52]	@ float
 5183 02d6 FFF7FEFF 		bl	__aeabi_fsub
 5184 02da 0346     		mov	r3, r0
 5185 02dc 3B62     		str	r3, [r7, #32]	@ float
 739:STM32F10x_Speex_Lib/libspeex/smallft.c ****       dr3=cr2+ci3;
 5186              		.loc 2 739 0 discriminator 3
 5187 02de 396B     		ldr	r1, [r7, #48]	@ float
 5188 02e0 786B     		ldr	r0, [r7, #52]	@ float
 5189 02e2 FFF7FEFF 		bl	__aeabi_fadd
 5190 02e6 0346     		mov	r3, r0
 5191 02e8 FB61     		str	r3, [r7, #28]	@ float
 740:STM32F10x_Speex_Lib/libspeex/smallft.c ****       di2=ci2+cr3;
 5192              		.loc 2 740 0 discriminator 3
 5193 02ea 796A     		ldr	r1, [r7, #36]	@ float
 5194 02ec B86A     		ldr	r0, [r7, #40]	@ float
 5195 02ee FFF7FEFF 		bl	__aeabi_fadd
 5196 02f2 0346     		mov	r3, r0
 5197 02f4 BB61     		str	r3, [r7, #24]	@ float
 741:STM32F10x_Speex_Lib/libspeex/smallft.c ****       di3=ci2-cr3;
 5198              		.loc 2 741 0 discriminator 3
 5199 02f6 796A     		ldr	r1, [r7, #36]	@ float
 5200 02f8 B86A     		ldr	r0, [r7, #40]	@ float
 5201 02fa FFF7FEFF 		bl	__aeabi_fsub
 5202 02fe 0346     		mov	r3, r0
 5203 0300 7B61     		str	r3, [r7, #20]	@ float
 742:STM32F10x_Speex_Lib/libspeex/smallft.c ****       ch[t9-1]=wa1[i-2]*dr2-wa1[i-1]*di2;
 5204              		.loc 2 742 0 discriminator 3
 5205 0302 FB6C     		ldr	r3, [r7, #76]
 5206 0304 03F18043 		add	r3, r3, #1073741824
 5207 0308 013B     		subs	r3, r3, #1
 5208 030a 9B00     		lsls	r3, r3, #2
 5209 030c 3A68     		ldr	r2, [r7]
 5210 030e D418     		adds	r4, r2, r3
 5211 0310 FB6E     		ldr	r3, [r7, #108]
 5212 0312 03F18043 		add	r3, r3, #1073741824
 5213 0316 023B     		subs	r3, r3, #2
 5214 0318 9B00     		lsls	r3, r3, #2
 5215 031a D7F88020 		ldr	r2, [r7, #128]
 5216 031e 1344     		add	r3, r3, r2
 5217 0320 1B68     		ldr	r3, [r3]	@ float
 5218 0322 396A     		ldr	r1, [r7, #32]	@ float
 5219 0324 1846     		mov	r0, r3
 5220 0326 FFF7FEFF 		bl	__aeabi_fmul
 5221 032a 0346     		mov	r3, r0
 5222 032c 1D46     		mov	r5, r3
 5223 032e FB6E     		ldr	r3, [r7, #108]
 5224 0330 03F18043 		add	r3, r3, #1073741824
 5225 0334 013B     		subs	r3, r3, #1
 5226 0336 9B00     		lsls	r3, r3, #2
 5227 0338 D7F88020 		ldr	r2, [r7, #128]
 5228 033c 1344     		add	r3, r3, r2
ARM GAS  /var/folders/kh/x4vltyy52lbg7p4pcyglc5080000gp/T//ccKDo44O.s 			page 109


 5229 033e 1B68     		ldr	r3, [r3]	@ float
 5230 0340 B969     		ldr	r1, [r7, #24]	@ float
 5231 0342 1846     		mov	r0, r3
 5232 0344 FFF7FEFF 		bl	__aeabi_fmul
 5233 0348 0346     		mov	r3, r0
 5234 034a 1946     		mov	r1, r3
 5235 034c 2846     		mov	r0, r5
 5236 034e FFF7FEFF 		bl	__aeabi_fsub
 5237 0352 0346     		mov	r3, r0
 5238 0354 2360     		str	r3, [r4]	@ float
 743:STM32F10x_Speex_Lib/libspeex/smallft.c ****       ch[t9]=wa1[i-2]*di2+wa1[i-1]*dr2;
 5239              		.loc 2 743 0 discriminator 3
 5240 0356 FB6C     		ldr	r3, [r7, #76]
 5241 0358 9B00     		lsls	r3, r3, #2
 5242 035a 3A68     		ldr	r2, [r7]
 5243 035c D418     		adds	r4, r2, r3
 5244 035e FB6E     		ldr	r3, [r7, #108]
 5245 0360 03F18043 		add	r3, r3, #1073741824
 5246 0364 023B     		subs	r3, r3, #2
 5247 0366 9B00     		lsls	r3, r3, #2
 5248 0368 D7F88020 		ldr	r2, [r7, #128]
 5249 036c 1344     		add	r3, r3, r2
 5250 036e 1B68     		ldr	r3, [r3]	@ float
 5251 0370 B969     		ldr	r1, [r7, #24]	@ float
 5252 0372 1846     		mov	r0, r3
 5253 0374 FFF7FEFF 		bl	__aeabi_fmul
 5254 0378 0346     		mov	r3, r0
 5255 037a 1D46     		mov	r5, r3
 5256 037c FB6E     		ldr	r3, [r7, #108]
 5257 037e 03F18043 		add	r3, r3, #1073741824
 5258 0382 013B     		subs	r3, r3, #1
 5259 0384 9B00     		lsls	r3, r3, #2
 5260 0386 D7F88020 		ldr	r2, [r7, #128]
 5261 038a 1344     		add	r3, r3, r2
 5262 038c 1B68     		ldr	r3, [r3]	@ float
 5263 038e 396A     		ldr	r1, [r7, #32]	@ float
 5264 0390 1846     		mov	r0, r3
 5265 0392 FFF7FEFF 		bl	__aeabi_fmul
 5266 0396 0346     		mov	r3, r0
 5267 0398 1946     		mov	r1, r3
 5268 039a 2846     		mov	r0, r5
 5269 039c FFF7FEFF 		bl	__aeabi_fadd
 5270 03a0 0346     		mov	r3, r0
 5271 03a2 2360     		str	r3, [r4]	@ float
 744:STM32F10x_Speex_Lib/libspeex/smallft.c ****       ch[t10-1]=wa2[i-2]*dr3-wa2[i-1]*di3;
 5272              		.loc 2 744 0 discriminator 3
 5273 03a4 BB6C     		ldr	r3, [r7, #72]
 5274 03a6 03F18043 		add	r3, r3, #1073741824
 5275 03aa 013B     		subs	r3, r3, #1
 5276 03ac 9B00     		lsls	r3, r3, #2
 5277 03ae 3A68     		ldr	r2, [r7]
 5278 03b0 D418     		adds	r4, r2, r3
 5279 03b2 FB6E     		ldr	r3, [r7, #108]
 5280 03b4 03F18043 		add	r3, r3, #1073741824
 5281 03b8 023B     		subs	r3, r3, #2
 5282 03ba 9B00     		lsls	r3, r3, #2
 5283 03bc D7F88420 		ldr	r2, [r7, #132]
ARM GAS  /var/folders/kh/x4vltyy52lbg7p4pcyglc5080000gp/T//ccKDo44O.s 			page 110


 5284 03c0 1344     		add	r3, r3, r2
 5285 03c2 1B68     		ldr	r3, [r3]	@ float
 5286 03c4 F969     		ldr	r1, [r7, #28]	@ float
 5287 03c6 1846     		mov	r0, r3
 5288 03c8 FFF7FEFF 		bl	__aeabi_fmul
 5289 03cc 0346     		mov	r3, r0
 5290 03ce 1D46     		mov	r5, r3
 5291 03d0 FB6E     		ldr	r3, [r7, #108]
 5292 03d2 03F18043 		add	r3, r3, #1073741824
 5293 03d6 013B     		subs	r3, r3, #1
 5294 03d8 9B00     		lsls	r3, r3, #2
 5295 03da D7F88420 		ldr	r2, [r7, #132]
 5296 03de 1344     		add	r3, r3, r2
 5297 03e0 1B68     		ldr	r3, [r3]	@ float
 5298 03e2 7969     		ldr	r1, [r7, #20]	@ float
 5299 03e4 1846     		mov	r0, r3
 5300 03e6 FFF7FEFF 		bl	__aeabi_fmul
 5301 03ea 0346     		mov	r3, r0
 5302 03ec 1946     		mov	r1, r3
 5303 03ee 2846     		mov	r0, r5
 5304 03f0 FFF7FEFF 		bl	__aeabi_fsub
 5305 03f4 0346     		mov	r3, r0
 5306 03f6 2360     		str	r3, [r4]	@ float
 745:STM32F10x_Speex_Lib/libspeex/smallft.c ****       ch[t10]=wa2[i-2]*di3+wa2[i-1]*dr3;
 5307              		.loc 2 745 0 discriminator 3
 5308 03f8 BB6C     		ldr	r3, [r7, #72]
 5309 03fa 9B00     		lsls	r3, r3, #2
 5310 03fc 3A68     		ldr	r2, [r7]
 5311 03fe D418     		adds	r4, r2, r3
 5312 0400 FB6E     		ldr	r3, [r7, #108]
 5313 0402 03F18043 		add	r3, r3, #1073741824
 5314 0406 023B     		subs	r3, r3, #2
 5315 0408 9B00     		lsls	r3, r3, #2
 5316 040a D7F88420 		ldr	r2, [r7, #132]
 5317 040e 1344     		add	r3, r3, r2
 5318 0410 1B68     		ldr	r3, [r3]	@ float
 5319 0412 7969     		ldr	r1, [r7, #20]	@ float
 5320 0414 1846     		mov	r0, r3
 5321 0416 FFF7FEFF 		bl	__aeabi_fmul
 5322 041a 0346     		mov	r3, r0
 5323 041c 1D46     		mov	r5, r3
 5324 041e FB6E     		ldr	r3, [r7, #108]
 5325 0420 03F18043 		add	r3, r3, #1073741824
 5326 0424 013B     		subs	r3, r3, #1
 5327 0426 9B00     		lsls	r3, r3, #2
 5328 0428 D7F88420 		ldr	r2, [r7, #132]
 5329 042c 1344     		add	r3, r3, r2
 5330 042e 1B68     		ldr	r3, [r3]	@ float
 5331 0430 F969     		ldr	r1, [r7, #28]	@ float
 5332 0432 1846     		mov	r0, r3
 5333 0434 FFF7FEFF 		bl	__aeabi_fmul
 5334 0438 0346     		mov	r3, r0
 5335 043a 1946     		mov	r1, r3
 5336 043c 2846     		mov	r0, r5
 5337 043e FFF7FEFF 		bl	__aeabi_fadd
 5338 0442 0346     		mov	r3, r0
 5339 0444 2360     		str	r3, [r4]	@ float
ARM GAS  /var/folders/kh/x4vltyy52lbg7p4pcyglc5080000gp/T//ccKDo44O.s 			page 111


 723:STM32F10x_Speex_Lib/libspeex/smallft.c ****       t5+=2;
 5340              		.loc 2 723 0 discriminator 3
 5341 0446 FB6E     		ldr	r3, [r7, #108]
 5342 0448 0233     		adds	r3, r3, #2
 5343 044a FB66     		str	r3, [r7, #108]
 5344              	.L215:
 723:STM32F10x_Speex_Lib/libspeex/smallft.c ****       t5+=2;
 5345              		.loc 2 723 0 is_stmt 0 discriminator 1
 5346 044c FA6E     		ldr	r2, [r7, #108]
 5347 044e FB68     		ldr	r3, [r7, #12]
 5348 0450 9A42     		cmp	r2, r3
 5349 0452 FFF689AE 		blt	.L216
 746:STM32F10x_Speex_Lib/libspeex/smallft.c ****     }
 747:STM32F10x_Speex_Lib/libspeex/smallft.c ****     t1+=ido;
 5350              		.loc 2 747 0 is_stmt 1 discriminator 2
 5351 0456 7A6E     		ldr	r2, [r7, #100]
 5352 0458 FB68     		ldr	r3, [r7, #12]
 5353 045a 1344     		add	r3, r3, r2
 5354 045c 7B66     		str	r3, [r7, #100]
 717:STM32F10x_Speex_Lib/libspeex/smallft.c ****     t7=t1+(t1<<1);
 5355              		.loc 2 717 0 discriminator 2
 5356 045e BB6E     		ldr	r3, [r7, #104]
 5357 0460 0133     		adds	r3, r3, #1
 5358 0462 BB66     		str	r3, [r7, #104]
 5359 0464 04E0     		b	.L222
 5360              	.L223:
 5361 0466 00BF     		.align	2
 5362              	.L221:
 5363 0468 00000000 		.word	taur.5996
 5364 046c 00000000 		.word	taui.5997
 5365              	.L222:
 5366              	.L214:
 717:STM32F10x_Speex_Lib/libspeex/smallft.c ****     t7=t1+(t1<<1);
 5367              		.loc 2 717 0 is_stmt 0 discriminator 1
 5368 0470 BA6E     		ldr	r2, [r7, #104]
 5369 0472 BB68     		ldr	r3, [r7, #8]
 5370 0474 9A42     		cmp	r2, r3
 5371 0476 FFF65AAE 		blt	.L217
 5372 047a 00E0     		b	.L209
 5373              	.L218:
 713:STM32F10x_Speex_Lib/libspeex/smallft.c **** 
 5374              		.loc 2 713 0 is_stmt 1
 5375 047c 00BF     		nop
 5376              	.L209:
 748:STM32F10x_Speex_Lib/libspeex/smallft.c ****   }
 749:STM32F10x_Speex_Lib/libspeex/smallft.c **** }
 5377              		.loc 2 749 0
 5378 047e 7037     		adds	r7, r7, #112
 5379              	.LCFI48:
 5380              		.cfi_def_cfa_offset 16
 5381 0480 BD46     		mov	sp, r7
 5382              	.LCFI49:
 5383              		.cfi_def_cfa_register 13
 5384              		@ sp needed
 5385 0482 B0BD     		pop	{r4, r5, r7, pc}
 5386              		.cfi_endproc
 5387              	.LFE16:
ARM GAS  /var/folders/kh/x4vltyy52lbg7p4pcyglc5080000gp/T//ccKDo44O.s 			page 112


 5389              		.section	.text.dradb4,"ax",%progbits
 5390              		.align	2
 5391              		.thumb
 5392              		.thumb_func
 5394              	dradb4:
 5395              	.LFB17:
 750:STM32F10x_Speex_Lib/libspeex/smallft.c **** 
 751:STM32F10x_Speex_Lib/libspeex/smallft.c **** static void dradb4(int ido,int l1,float *cc,float *ch,float *wa1,
 752:STM32F10x_Speex_Lib/libspeex/smallft.c **** 			  float *wa2,float *wa3){
 5396              		.loc 2 752 0
 5397              		.cfi_startproc
 5398              		@ args = 12, pretend = 0, frame = 120
 5399              		@ frame_needed = 1, uses_anonymous_args = 0
 5400 0000 B0B5     		push	{r4, r5, r7, lr}
 5401              	.LCFI50:
 5402              		.cfi_def_cfa_offset 16
 5403              		.cfi_offset 4, -16
 5404              		.cfi_offset 5, -12
 5405              		.cfi_offset 7, -8
 5406              		.cfi_offset 14, -4
 5407 0002 9EB0     		sub	sp, sp, #120
 5408              	.LCFI51:
 5409              		.cfi_def_cfa_offset 136
 5410 0004 00AF     		add	r7, sp, #0
 5411              	.LCFI52:
 5412              		.cfi_def_cfa_register 7
 5413 0006 F860     		str	r0, [r7, #12]
 5414 0008 B960     		str	r1, [r7, #8]
 5415 000a 7A60     		str	r2, [r7, #4]
 5416 000c 3B60     		str	r3, [r7]
 753:STM32F10x_Speex_Lib/libspeex/smallft.c ****   static float sqrt2=1.414213562373095f;
 754:STM32F10x_Speex_Lib/libspeex/smallft.c ****   int i,k,t0,t1,t2,t3,t4,t5,t6,t7,t8;
 755:STM32F10x_Speex_Lib/libspeex/smallft.c ****   float ci2,ci3,ci4,cr2,cr3,cr4,ti1,ti2,ti3,ti4,tr1,tr2,tr3,tr4;
 756:STM32F10x_Speex_Lib/libspeex/smallft.c ****   t0=l1*ido;
 5417              		.loc 2 756 0
 5418 000e BB68     		ldr	r3, [r7, #8]
 5419 0010 FA68     		ldr	r2, [r7, #12]
 5420 0012 02FB03F3 		mul	r3, r2, r3
 5421 0016 7B65     		str	r3, [r7, #84]
 757:STM32F10x_Speex_Lib/libspeex/smallft.c ****   
 758:STM32F10x_Speex_Lib/libspeex/smallft.c ****   t1=0;
 5422              		.loc 2 758 0
 5423 0018 0023     		movs	r3, #0
 5424 001a FB66     		str	r3, [r7, #108]
 759:STM32F10x_Speex_Lib/libspeex/smallft.c ****   t2=ido<<2;
 5425              		.loc 2 759 0
 5426 001c FB68     		ldr	r3, [r7, #12]
 5427 001e 9B00     		lsls	r3, r3, #2
 5428 0020 BB66     		str	r3, [r7, #104]
 760:STM32F10x_Speex_Lib/libspeex/smallft.c ****   t3=0;
 5429              		.loc 2 760 0
 5430 0022 0023     		movs	r3, #0
 5431 0024 7B66     		str	r3, [r7, #100]
 761:STM32F10x_Speex_Lib/libspeex/smallft.c ****   t6=ido<<1;
 5432              		.loc 2 761 0
 5433 0026 FB68     		ldr	r3, [r7, #12]
 5434 0028 5B00     		lsls	r3, r3, #1
ARM GAS  /var/folders/kh/x4vltyy52lbg7p4pcyglc5080000gp/T//ccKDo44O.s 			page 113


 5435 002a 3B65     		str	r3, [r7, #80]
 762:STM32F10x_Speex_Lib/libspeex/smallft.c ****   for(k=0;k<l1;k++){
 5436              		.loc 2 762 0
 5437 002c 0023     		movs	r3, #0
 5438 002e 3B67     		str	r3, [r7, #112]
 5439 0030 85E0     		b	.L225
 5440              	.L226:
 763:STM32F10x_Speex_Lib/libspeex/smallft.c ****     t4=t3+t6;
 5441              		.loc 2 763 0 discriminator 3
 5442 0032 7A6E     		ldr	r2, [r7, #100]
 5443 0034 3B6D     		ldr	r3, [r7, #80]
 5444 0036 1344     		add	r3, r3, r2
 5445 0038 3B66     		str	r3, [r7, #96]
 764:STM32F10x_Speex_Lib/libspeex/smallft.c ****     t5=t1;
 5446              		.loc 2 764 0 discriminator 3
 5447 003a FB6E     		ldr	r3, [r7, #108]
 5448 003c FB65     		str	r3, [r7, #92]
 765:STM32F10x_Speex_Lib/libspeex/smallft.c ****     tr3=cc[t4-1]+cc[t4-1];
 5449              		.loc 2 765 0 discriminator 3
 5450 003e 3B6E     		ldr	r3, [r7, #96]
 5451 0040 03F18043 		add	r3, r3, #1073741824
 5452 0044 013B     		subs	r3, r3, #1
 5453 0046 9B00     		lsls	r3, r3, #2
 5454 0048 7A68     		ldr	r2, [r7, #4]
 5455 004a 1344     		add	r3, r3, r2
 5456 004c 1B68     		ldr	r3, [r3]	@ float
 5457 004e 1946     		mov	r1, r3
 5458 0050 1846     		mov	r0, r3
 5459 0052 FFF7FEFF 		bl	__aeabi_fadd
 5460 0056 0346     		mov	r3, r0
 5461 0058 FB64     		str	r3, [r7, #76]	@ float
 766:STM32F10x_Speex_Lib/libspeex/smallft.c ****     tr4=cc[t4]+cc[t4]; 
 5462              		.loc 2 766 0 discriminator 3
 5463 005a 3B6E     		ldr	r3, [r7, #96]
 5464 005c 9B00     		lsls	r3, r3, #2
 5465 005e 7A68     		ldr	r2, [r7, #4]
 5466 0060 1344     		add	r3, r3, r2
 5467 0062 1B68     		ldr	r3, [r3]	@ float
 5468 0064 1946     		mov	r1, r3
 5469 0066 1846     		mov	r0, r3
 5470 0068 FFF7FEFF 		bl	__aeabi_fadd
 5471 006c 0346     		mov	r3, r0
 5472 006e BB64     		str	r3, [r7, #72]	@ float
 767:STM32F10x_Speex_Lib/libspeex/smallft.c ****     tr1=cc[t3]-cc[(t4+=t6)-1];
 5473              		.loc 2 767 0 discriminator 3
 5474 0070 7B6E     		ldr	r3, [r7, #100]
 5475 0072 9B00     		lsls	r3, r3, #2
 5476 0074 7A68     		ldr	r2, [r7, #4]
 5477 0076 1344     		add	r3, r3, r2
 5478 0078 1868     		ldr	r0, [r3]	@ float
 5479 007a 3A6E     		ldr	r2, [r7, #96]
 5480 007c 3B6D     		ldr	r3, [r7, #80]
 5481 007e 1344     		add	r3, r3, r2
 5482 0080 3B66     		str	r3, [r7, #96]
 5483 0082 3B6E     		ldr	r3, [r7, #96]
 5484 0084 03F18043 		add	r3, r3, #1073741824
 5485 0088 013B     		subs	r3, r3, #1
ARM GAS  /var/folders/kh/x4vltyy52lbg7p4pcyglc5080000gp/T//ccKDo44O.s 			page 114


 5486 008a 9B00     		lsls	r3, r3, #2
 5487 008c 7A68     		ldr	r2, [r7, #4]
 5488 008e 1344     		add	r3, r3, r2
 5489 0090 1B68     		ldr	r3, [r3]	@ float
 5490 0092 1946     		mov	r1, r3
 5491 0094 FFF7FEFF 		bl	__aeabi_fsub
 5492 0098 0346     		mov	r3, r0
 5493 009a 7B64     		str	r3, [r7, #68]	@ float
 768:STM32F10x_Speex_Lib/libspeex/smallft.c ****     tr2=cc[t3]+cc[t4-1];
 5494              		.loc 2 768 0 discriminator 3
 5495 009c 7B6E     		ldr	r3, [r7, #100]
 5496 009e 9B00     		lsls	r3, r3, #2
 5497 00a0 7A68     		ldr	r2, [r7, #4]
 5498 00a2 1344     		add	r3, r3, r2
 5499 00a4 1868     		ldr	r0, [r3]	@ float
 5500 00a6 3B6E     		ldr	r3, [r7, #96]
 5501 00a8 03F18043 		add	r3, r3, #1073741824
 5502 00ac 013B     		subs	r3, r3, #1
 5503 00ae 9B00     		lsls	r3, r3, #2
 5504 00b0 7A68     		ldr	r2, [r7, #4]
 5505 00b2 1344     		add	r3, r3, r2
 5506 00b4 1B68     		ldr	r3, [r3]	@ float
 5507 00b6 1946     		mov	r1, r3
 5508 00b8 FFF7FEFF 		bl	__aeabi_fadd
 5509 00bc 0346     		mov	r3, r0
 5510 00be 3B64     		str	r3, [r7, #64]	@ float
 769:STM32F10x_Speex_Lib/libspeex/smallft.c ****     ch[t5]=tr2+tr3;
 5511              		.loc 2 769 0 discriminator 3
 5512 00c0 FB6D     		ldr	r3, [r7, #92]
 5513 00c2 9B00     		lsls	r3, r3, #2
 5514 00c4 3A68     		ldr	r2, [r7]
 5515 00c6 D418     		adds	r4, r2, r3
 5516 00c8 F96C     		ldr	r1, [r7, #76]	@ float
 5517 00ca 386C     		ldr	r0, [r7, #64]	@ float
 5518 00cc FFF7FEFF 		bl	__aeabi_fadd
 5519 00d0 0346     		mov	r3, r0
 5520 00d2 2360     		str	r3, [r4]	@ float
 770:STM32F10x_Speex_Lib/libspeex/smallft.c ****     ch[t5+=t0]=tr1-tr4;
 5521              		.loc 2 770 0 discriminator 3
 5522 00d4 FA6D     		ldr	r2, [r7, #92]
 5523 00d6 7B6D     		ldr	r3, [r7, #84]
 5524 00d8 1344     		add	r3, r3, r2
 5525 00da FB65     		str	r3, [r7, #92]
 5526 00dc FB6D     		ldr	r3, [r7, #92]
 5527 00de 9B00     		lsls	r3, r3, #2
 5528 00e0 3A68     		ldr	r2, [r7]
 5529 00e2 D418     		adds	r4, r2, r3
 5530 00e4 B96C     		ldr	r1, [r7, #72]	@ float
 5531 00e6 786C     		ldr	r0, [r7, #68]	@ float
 5532 00e8 FFF7FEFF 		bl	__aeabi_fsub
 5533 00ec 0346     		mov	r3, r0
 5534 00ee 2360     		str	r3, [r4]	@ float
 771:STM32F10x_Speex_Lib/libspeex/smallft.c ****     ch[t5+=t0]=tr2-tr3;
 5535              		.loc 2 771 0 discriminator 3
 5536 00f0 FA6D     		ldr	r2, [r7, #92]
 5537 00f2 7B6D     		ldr	r3, [r7, #84]
 5538 00f4 1344     		add	r3, r3, r2
ARM GAS  /var/folders/kh/x4vltyy52lbg7p4pcyglc5080000gp/T//ccKDo44O.s 			page 115


 5539 00f6 FB65     		str	r3, [r7, #92]
 5540 00f8 FB6D     		ldr	r3, [r7, #92]
 5541 00fa 9B00     		lsls	r3, r3, #2
 5542 00fc 3A68     		ldr	r2, [r7]
 5543 00fe D418     		adds	r4, r2, r3
 5544 0100 F96C     		ldr	r1, [r7, #76]	@ float
 5545 0102 386C     		ldr	r0, [r7, #64]	@ float
 5546 0104 FFF7FEFF 		bl	__aeabi_fsub
 5547 0108 0346     		mov	r3, r0
 5548 010a 2360     		str	r3, [r4]	@ float
 772:STM32F10x_Speex_Lib/libspeex/smallft.c ****     ch[t5+=t0]=tr1+tr4;
 5549              		.loc 2 772 0 discriminator 3
 5550 010c FA6D     		ldr	r2, [r7, #92]
 5551 010e 7B6D     		ldr	r3, [r7, #84]
 5552 0110 1344     		add	r3, r3, r2
 5553 0112 FB65     		str	r3, [r7, #92]
 5554 0114 FB6D     		ldr	r3, [r7, #92]
 5555 0116 9B00     		lsls	r3, r3, #2
 5556 0118 3A68     		ldr	r2, [r7]
 5557 011a D418     		adds	r4, r2, r3
 5558 011c B96C     		ldr	r1, [r7, #72]	@ float
 5559 011e 786C     		ldr	r0, [r7, #68]	@ float
 5560 0120 FFF7FEFF 		bl	__aeabi_fadd
 5561 0124 0346     		mov	r3, r0
 5562 0126 2360     		str	r3, [r4]	@ float
 773:STM32F10x_Speex_Lib/libspeex/smallft.c ****     t1+=ido;
 5563              		.loc 2 773 0 discriminator 3
 5564 0128 FA6E     		ldr	r2, [r7, #108]
 5565 012a FB68     		ldr	r3, [r7, #12]
 5566 012c 1344     		add	r3, r3, r2
 5567 012e FB66     		str	r3, [r7, #108]
 774:STM32F10x_Speex_Lib/libspeex/smallft.c ****     t3+=t2;
 5568              		.loc 2 774 0 discriminator 3
 5569 0130 7A6E     		ldr	r2, [r7, #100]
 5570 0132 BB6E     		ldr	r3, [r7, #104]
 5571 0134 1344     		add	r3, r3, r2
 5572 0136 7B66     		str	r3, [r7, #100]
 762:STM32F10x_Speex_Lib/libspeex/smallft.c ****     t4=t3+t6;
 5573              		.loc 2 762 0 discriminator 3
 5574 0138 3B6F     		ldr	r3, [r7, #112]
 5575 013a 0133     		adds	r3, r3, #1
 5576 013c 3B67     		str	r3, [r7, #112]
 5577              	.L225:
 762:STM32F10x_Speex_Lib/libspeex/smallft.c ****     t4=t3+t6;
 5578              		.loc 2 762 0 is_stmt 0 discriminator 1
 5579 013e 3A6F     		ldr	r2, [r7, #112]
 5580 0140 BB68     		ldr	r3, [r7, #8]
 5581 0142 9A42     		cmp	r2, r3
 5582 0144 FFF675AF 		blt	.L226
 775:STM32F10x_Speex_Lib/libspeex/smallft.c ****   }
 776:STM32F10x_Speex_Lib/libspeex/smallft.c **** 
 777:STM32F10x_Speex_Lib/libspeex/smallft.c ****   if(ido<2)return;
 5583              		.loc 2 777 0 is_stmt 1
 5584 0148 FB68     		ldr	r3, [r7, #12]
 5585 014a 012B     		cmp	r3, #1
 5586 014c 40F3CC82 		ble	.L238
 778:STM32F10x_Speex_Lib/libspeex/smallft.c ****   if(ido==2)goto L105;
ARM GAS  /var/folders/kh/x4vltyy52lbg7p4pcyglc5080000gp/T//ccKDo44O.s 			page 116


 5587              		.loc 2 778 0
 5588 0150 FB68     		ldr	r3, [r7, #12]
 5589 0152 022B     		cmp	r3, #2
 5590 0154 00F01182 		beq	.L239
 779:STM32F10x_Speex_Lib/libspeex/smallft.c **** 
 780:STM32F10x_Speex_Lib/libspeex/smallft.c ****   t1=0;
 5591              		.loc 2 780 0
 5592 0158 0023     		movs	r3, #0
 5593 015a FB66     		str	r3, [r7, #108]
 781:STM32F10x_Speex_Lib/libspeex/smallft.c ****   for(k=0;k<l1;k++){
 5594              		.loc 2 781 0
 5595 015c 0023     		movs	r3, #0
 5596 015e 3B67     		str	r3, [r7, #112]
 5597 0160 F9E1     		b	.L231
 5598              	.L234:
 782:STM32F10x_Speex_Lib/libspeex/smallft.c ****     t5=(t4=(t3=(t2=t1<<2)+t6))+t6;
 5599              		.loc 2 782 0
 5600 0162 FB6E     		ldr	r3, [r7, #108]
 5601 0164 9B00     		lsls	r3, r3, #2
 5602 0166 BB66     		str	r3, [r7, #104]
 5603 0168 BA6E     		ldr	r2, [r7, #104]
 5604 016a 3B6D     		ldr	r3, [r7, #80]
 5605 016c 1344     		add	r3, r3, r2
 5606 016e 7B66     		str	r3, [r7, #100]
 5607 0170 7B6E     		ldr	r3, [r7, #100]
 5608 0172 3B66     		str	r3, [r7, #96]
 5609 0174 3A6E     		ldr	r2, [r7, #96]
 5610 0176 3B6D     		ldr	r3, [r7, #80]
 5611 0178 1344     		add	r3, r3, r2
 5612 017a FB65     		str	r3, [r7, #92]
 783:STM32F10x_Speex_Lib/libspeex/smallft.c ****     t7=t1;
 5613              		.loc 2 783 0
 5614 017c FB6E     		ldr	r3, [r7, #108]
 5615 017e BB65     		str	r3, [r7, #88]
 784:STM32F10x_Speex_Lib/libspeex/smallft.c ****     for(i=2;i<ido;i+=2){
 5616              		.loc 2 784 0
 5617 0180 0223     		movs	r3, #2
 5618 0182 7B67     		str	r3, [r7, #116]
 5619 0184 DBE1     		b	.L232
 5620              	.L233:
 785:STM32F10x_Speex_Lib/libspeex/smallft.c ****       t2+=2;
 5621              		.loc 2 785 0 discriminator 3
 5622 0186 BB6E     		ldr	r3, [r7, #104]
 5623 0188 0233     		adds	r3, r3, #2
 5624 018a BB66     		str	r3, [r7, #104]
 786:STM32F10x_Speex_Lib/libspeex/smallft.c ****       t3+=2;
 5625              		.loc 2 786 0 discriminator 3
 5626 018c 7B6E     		ldr	r3, [r7, #100]
 5627 018e 0233     		adds	r3, r3, #2
 5628 0190 7B66     		str	r3, [r7, #100]
 787:STM32F10x_Speex_Lib/libspeex/smallft.c ****       t4-=2;
 5629              		.loc 2 787 0 discriminator 3
 5630 0192 3B6E     		ldr	r3, [r7, #96]
 5631 0194 023B     		subs	r3, r3, #2
 5632 0196 3B66     		str	r3, [r7, #96]
 788:STM32F10x_Speex_Lib/libspeex/smallft.c ****       t5-=2;
 5633              		.loc 2 788 0 discriminator 3
ARM GAS  /var/folders/kh/x4vltyy52lbg7p4pcyglc5080000gp/T//ccKDo44O.s 			page 117


 5634 0198 FB6D     		ldr	r3, [r7, #92]
 5635 019a 023B     		subs	r3, r3, #2
 5636 019c FB65     		str	r3, [r7, #92]
 789:STM32F10x_Speex_Lib/libspeex/smallft.c ****       t7+=2;
 5637              		.loc 2 789 0 discriminator 3
 5638 019e BB6D     		ldr	r3, [r7, #88]
 5639 01a0 0233     		adds	r3, r3, #2
 5640 01a2 BB65     		str	r3, [r7, #88]
 790:STM32F10x_Speex_Lib/libspeex/smallft.c ****       ti1=cc[t2]+cc[t5];
 5641              		.loc 2 790 0 discriminator 3
 5642 01a4 BB6E     		ldr	r3, [r7, #104]
 5643 01a6 9B00     		lsls	r3, r3, #2
 5644 01a8 7A68     		ldr	r2, [r7, #4]
 5645 01aa 1344     		add	r3, r3, r2
 5646 01ac 1868     		ldr	r0, [r3]	@ float
 5647 01ae FB6D     		ldr	r3, [r7, #92]
 5648 01b0 9B00     		lsls	r3, r3, #2
 5649 01b2 7A68     		ldr	r2, [r7, #4]
 5650 01b4 1344     		add	r3, r3, r2
 5651 01b6 1B68     		ldr	r3, [r3]	@ float
 5652 01b8 1946     		mov	r1, r3
 5653 01ba FFF7FEFF 		bl	__aeabi_fadd
 5654 01be 0346     		mov	r3, r0
 5655 01c0 FB63     		str	r3, [r7, #60]	@ float
 791:STM32F10x_Speex_Lib/libspeex/smallft.c ****       ti2=cc[t2]-cc[t5];
 5656              		.loc 2 791 0 discriminator 3
 5657 01c2 BB6E     		ldr	r3, [r7, #104]
 5658 01c4 9B00     		lsls	r3, r3, #2
 5659 01c6 7A68     		ldr	r2, [r7, #4]
 5660 01c8 1344     		add	r3, r3, r2
 5661 01ca 1868     		ldr	r0, [r3]	@ float
 5662 01cc FB6D     		ldr	r3, [r7, #92]
 5663 01ce 9B00     		lsls	r3, r3, #2
 5664 01d0 7A68     		ldr	r2, [r7, #4]
 5665 01d2 1344     		add	r3, r3, r2
 5666 01d4 1B68     		ldr	r3, [r3]	@ float
 5667 01d6 1946     		mov	r1, r3
 5668 01d8 FFF7FEFF 		bl	__aeabi_fsub
 5669 01dc 0346     		mov	r3, r0
 5670 01de BB63     		str	r3, [r7, #56]	@ float
 792:STM32F10x_Speex_Lib/libspeex/smallft.c ****       ti3=cc[t3]-cc[t4];
 5671              		.loc 2 792 0 discriminator 3
 5672 01e0 7B6E     		ldr	r3, [r7, #100]
 5673 01e2 9B00     		lsls	r3, r3, #2
 5674 01e4 7A68     		ldr	r2, [r7, #4]
 5675 01e6 1344     		add	r3, r3, r2
 5676 01e8 1868     		ldr	r0, [r3]	@ float
 5677 01ea 3B6E     		ldr	r3, [r7, #96]
 5678 01ec 9B00     		lsls	r3, r3, #2
 5679 01ee 7A68     		ldr	r2, [r7, #4]
 5680 01f0 1344     		add	r3, r3, r2
 5681 01f2 1B68     		ldr	r3, [r3]	@ float
 5682 01f4 1946     		mov	r1, r3
 5683 01f6 FFF7FEFF 		bl	__aeabi_fsub
 5684 01fa 0346     		mov	r3, r0
 5685 01fc 7B63     		str	r3, [r7, #52]	@ float
 793:STM32F10x_Speex_Lib/libspeex/smallft.c ****       tr4=cc[t3]+cc[t4];
ARM GAS  /var/folders/kh/x4vltyy52lbg7p4pcyglc5080000gp/T//ccKDo44O.s 			page 118


 5686              		.loc 2 793 0 discriminator 3
 5687 01fe 7B6E     		ldr	r3, [r7, #100]
 5688 0200 9B00     		lsls	r3, r3, #2
 5689 0202 7A68     		ldr	r2, [r7, #4]
 5690 0204 1344     		add	r3, r3, r2
 5691 0206 1868     		ldr	r0, [r3]	@ float
 5692 0208 3B6E     		ldr	r3, [r7, #96]
 5693 020a 9B00     		lsls	r3, r3, #2
 5694 020c 7A68     		ldr	r2, [r7, #4]
 5695 020e 1344     		add	r3, r3, r2
 5696 0210 1B68     		ldr	r3, [r3]	@ float
 5697 0212 1946     		mov	r1, r3
 5698 0214 FFF7FEFF 		bl	__aeabi_fadd
 5699 0218 0346     		mov	r3, r0
 5700 021a BB64     		str	r3, [r7, #72]	@ float
 794:STM32F10x_Speex_Lib/libspeex/smallft.c ****       tr1=cc[t2-1]-cc[t5-1];
 5701              		.loc 2 794 0 discriminator 3
 5702 021c BB6E     		ldr	r3, [r7, #104]
 5703 021e 03F18043 		add	r3, r3, #1073741824
 5704 0222 013B     		subs	r3, r3, #1
 5705 0224 9B00     		lsls	r3, r3, #2
 5706 0226 7A68     		ldr	r2, [r7, #4]
 5707 0228 1344     		add	r3, r3, r2
 5708 022a 1868     		ldr	r0, [r3]	@ float
 5709 022c FB6D     		ldr	r3, [r7, #92]
 5710 022e 03F18043 		add	r3, r3, #1073741824
 5711 0232 013B     		subs	r3, r3, #1
 5712 0234 9B00     		lsls	r3, r3, #2
 5713 0236 7A68     		ldr	r2, [r7, #4]
 5714 0238 1344     		add	r3, r3, r2
 5715 023a 1B68     		ldr	r3, [r3]	@ float
 5716 023c 1946     		mov	r1, r3
 5717 023e FFF7FEFF 		bl	__aeabi_fsub
 5718 0242 0346     		mov	r3, r0
 5719 0244 7B64     		str	r3, [r7, #68]	@ float
 795:STM32F10x_Speex_Lib/libspeex/smallft.c ****       tr2=cc[t2-1]+cc[t5-1];
 5720              		.loc 2 795 0 discriminator 3
 5721 0246 BB6E     		ldr	r3, [r7, #104]
 5722 0248 03F18043 		add	r3, r3, #1073741824
 5723 024c 013B     		subs	r3, r3, #1
 5724 024e 9B00     		lsls	r3, r3, #2
 5725 0250 7A68     		ldr	r2, [r7, #4]
 5726 0252 1344     		add	r3, r3, r2
 5727 0254 1868     		ldr	r0, [r3]	@ float
 5728 0256 FB6D     		ldr	r3, [r7, #92]
 5729 0258 03F18043 		add	r3, r3, #1073741824
 5730 025c 013B     		subs	r3, r3, #1
 5731 025e 9B00     		lsls	r3, r3, #2
 5732 0260 7A68     		ldr	r2, [r7, #4]
 5733 0262 1344     		add	r3, r3, r2
 5734 0264 1B68     		ldr	r3, [r3]	@ float
 5735 0266 1946     		mov	r1, r3
 5736 0268 FFF7FEFF 		bl	__aeabi_fadd
 5737 026c 0346     		mov	r3, r0
 5738 026e 3B64     		str	r3, [r7, #64]	@ float
 796:STM32F10x_Speex_Lib/libspeex/smallft.c ****       ti4=cc[t3-1]-cc[t4-1];
 5739              		.loc 2 796 0 discriminator 3
ARM GAS  /var/folders/kh/x4vltyy52lbg7p4pcyglc5080000gp/T//ccKDo44O.s 			page 119


 5740 0270 7B6E     		ldr	r3, [r7, #100]
 5741 0272 03F18043 		add	r3, r3, #1073741824
 5742 0276 013B     		subs	r3, r3, #1
 5743 0278 9B00     		lsls	r3, r3, #2
 5744 027a 7A68     		ldr	r2, [r7, #4]
 5745 027c 1344     		add	r3, r3, r2
 5746 027e 1868     		ldr	r0, [r3]	@ float
 5747 0280 3B6E     		ldr	r3, [r7, #96]
 5748 0282 03F18043 		add	r3, r3, #1073741824
 5749 0286 013B     		subs	r3, r3, #1
 5750 0288 9B00     		lsls	r3, r3, #2
 5751 028a 7A68     		ldr	r2, [r7, #4]
 5752 028c 1344     		add	r3, r3, r2
 5753 028e 1B68     		ldr	r3, [r3]	@ float
 5754 0290 1946     		mov	r1, r3
 5755 0292 FFF7FEFF 		bl	__aeabi_fsub
 5756 0296 0346     		mov	r3, r0
 5757 0298 3B63     		str	r3, [r7, #48]	@ float
 797:STM32F10x_Speex_Lib/libspeex/smallft.c ****       tr3=cc[t3-1]+cc[t4-1];
 5758              		.loc 2 797 0 discriminator 3
 5759 029a 7B6E     		ldr	r3, [r7, #100]
 5760 029c 03F18043 		add	r3, r3, #1073741824
 5761 02a0 013B     		subs	r3, r3, #1
 5762 02a2 9B00     		lsls	r3, r3, #2
 5763 02a4 7A68     		ldr	r2, [r7, #4]
 5764 02a6 1344     		add	r3, r3, r2
 5765 02a8 1868     		ldr	r0, [r3]	@ float
 5766 02aa 3B6E     		ldr	r3, [r7, #96]
 5767 02ac 03F18043 		add	r3, r3, #1073741824
 5768 02b0 013B     		subs	r3, r3, #1
 5769 02b2 9B00     		lsls	r3, r3, #2
 5770 02b4 7A68     		ldr	r2, [r7, #4]
 5771 02b6 1344     		add	r3, r3, r2
 5772 02b8 1B68     		ldr	r3, [r3]	@ float
 5773 02ba 1946     		mov	r1, r3
 5774 02bc FFF7FEFF 		bl	__aeabi_fadd
 5775 02c0 0346     		mov	r3, r0
 5776 02c2 FB64     		str	r3, [r7, #76]	@ float
 798:STM32F10x_Speex_Lib/libspeex/smallft.c ****       ch[t7-1]=tr2+tr3;
 5777              		.loc 2 798 0 discriminator 3
 5778 02c4 BB6D     		ldr	r3, [r7, #88]
 5779 02c6 03F18043 		add	r3, r3, #1073741824
 5780 02ca 013B     		subs	r3, r3, #1
 5781 02cc 9B00     		lsls	r3, r3, #2
 5782 02ce 3A68     		ldr	r2, [r7]
 5783 02d0 D418     		adds	r4, r2, r3
 5784 02d2 F96C     		ldr	r1, [r7, #76]	@ float
 5785 02d4 386C     		ldr	r0, [r7, #64]	@ float
 5786 02d6 FFF7FEFF 		bl	__aeabi_fadd
 5787 02da 0346     		mov	r3, r0
 5788 02dc 2360     		str	r3, [r4]	@ float
 799:STM32F10x_Speex_Lib/libspeex/smallft.c ****       cr3=tr2-tr3;
 5789              		.loc 2 799 0 discriminator 3
 5790 02de F96C     		ldr	r1, [r7, #76]	@ float
 5791 02e0 386C     		ldr	r0, [r7, #64]	@ float
 5792 02e2 FFF7FEFF 		bl	__aeabi_fsub
 5793 02e6 0346     		mov	r3, r0
ARM GAS  /var/folders/kh/x4vltyy52lbg7p4pcyglc5080000gp/T//ccKDo44O.s 			page 120


 5794 02e8 FB62     		str	r3, [r7, #44]	@ float
 800:STM32F10x_Speex_Lib/libspeex/smallft.c ****       ch[t7]=ti2+ti3;
 5795              		.loc 2 800 0 discriminator 3
 5796 02ea BB6D     		ldr	r3, [r7, #88]
 5797 02ec 9B00     		lsls	r3, r3, #2
 5798 02ee 3A68     		ldr	r2, [r7]
 5799 02f0 D418     		adds	r4, r2, r3
 5800 02f2 796B     		ldr	r1, [r7, #52]	@ float
 5801 02f4 B86B     		ldr	r0, [r7, #56]	@ float
 5802 02f6 FFF7FEFF 		bl	__aeabi_fadd
 5803 02fa 0346     		mov	r3, r0
 5804 02fc 2360     		str	r3, [r4]	@ float
 801:STM32F10x_Speex_Lib/libspeex/smallft.c ****       ci3=ti2-ti3;
 5805              		.loc 2 801 0 discriminator 3
 5806 02fe 796B     		ldr	r1, [r7, #52]	@ float
 5807 0300 B86B     		ldr	r0, [r7, #56]	@ float
 5808 0302 FFF7FEFF 		bl	__aeabi_fsub
 5809 0306 0346     		mov	r3, r0
 5810 0308 BB62     		str	r3, [r7, #40]	@ float
 802:STM32F10x_Speex_Lib/libspeex/smallft.c ****       cr2=tr1-tr4;
 5811              		.loc 2 802 0 discriminator 3
 5812 030a B96C     		ldr	r1, [r7, #72]	@ float
 5813 030c 786C     		ldr	r0, [r7, #68]	@ float
 5814 030e FFF7FEFF 		bl	__aeabi_fsub
 5815 0312 0346     		mov	r3, r0
 5816 0314 7B62     		str	r3, [r7, #36]	@ float
 803:STM32F10x_Speex_Lib/libspeex/smallft.c ****       cr4=tr1+tr4;
 5817              		.loc 2 803 0 discriminator 3
 5818 0316 B96C     		ldr	r1, [r7, #72]	@ float
 5819 0318 786C     		ldr	r0, [r7, #68]	@ float
 5820 031a FFF7FEFF 		bl	__aeabi_fadd
 5821 031e 0346     		mov	r3, r0
 5822 0320 3B62     		str	r3, [r7, #32]	@ float
 804:STM32F10x_Speex_Lib/libspeex/smallft.c ****       ci2=ti1+ti4;
 5823              		.loc 2 804 0 discriminator 3
 5824 0322 396B     		ldr	r1, [r7, #48]	@ float
 5825 0324 F86B     		ldr	r0, [r7, #60]	@ float
 5826 0326 FFF7FEFF 		bl	__aeabi_fadd
 5827 032a 0346     		mov	r3, r0
 5828 032c FB61     		str	r3, [r7, #28]	@ float
 805:STM32F10x_Speex_Lib/libspeex/smallft.c ****       ci4=ti1-ti4;
 5829              		.loc 2 805 0 discriminator 3
 5830 032e 396B     		ldr	r1, [r7, #48]	@ float
 5831 0330 F86B     		ldr	r0, [r7, #60]	@ float
 5832 0332 FFF7FEFF 		bl	__aeabi_fsub
 5833 0336 0346     		mov	r3, r0
 5834 0338 BB61     		str	r3, [r7, #24]	@ float
 806:STM32F10x_Speex_Lib/libspeex/smallft.c **** 
 807:STM32F10x_Speex_Lib/libspeex/smallft.c ****       ch[(t8=t7+t0)-1]=wa1[i-2]*cr2-wa1[i-1]*ci2;
 5835              		.loc 2 807 0 discriminator 3
 5836 033a BA6D     		ldr	r2, [r7, #88]
 5837 033c 7B6D     		ldr	r3, [r7, #84]
 5838 033e 1344     		add	r3, r3, r2
 5839 0340 7B61     		str	r3, [r7, #20]
 5840 0342 7B69     		ldr	r3, [r7, #20]
 5841 0344 03F18043 		add	r3, r3, #1073741824
 5842 0348 013B     		subs	r3, r3, #1
ARM GAS  /var/folders/kh/x4vltyy52lbg7p4pcyglc5080000gp/T//ccKDo44O.s 			page 121


 5843 034a 9B00     		lsls	r3, r3, #2
 5844 034c 3A68     		ldr	r2, [r7]
 5845 034e D418     		adds	r4, r2, r3
 5846 0350 7B6F     		ldr	r3, [r7, #116]
 5847 0352 03F18043 		add	r3, r3, #1073741824
 5848 0356 023B     		subs	r3, r3, #2
 5849 0358 9B00     		lsls	r3, r3, #2
 5850 035a D7F88820 		ldr	r2, [r7, #136]
 5851 035e 1344     		add	r3, r3, r2
 5852 0360 1B68     		ldr	r3, [r3]	@ float
 5853 0362 796A     		ldr	r1, [r7, #36]	@ float
 5854 0364 1846     		mov	r0, r3
 5855 0366 FFF7FEFF 		bl	__aeabi_fmul
 5856 036a 0346     		mov	r3, r0
 5857 036c 1D46     		mov	r5, r3
 5858 036e 7B6F     		ldr	r3, [r7, #116]
 5859 0370 03F18043 		add	r3, r3, #1073741824
 5860 0374 013B     		subs	r3, r3, #1
 5861 0376 9B00     		lsls	r3, r3, #2
 5862 0378 D7F88820 		ldr	r2, [r7, #136]
 5863 037c 1344     		add	r3, r3, r2
 5864 037e 1B68     		ldr	r3, [r3]	@ float
 5865 0380 F969     		ldr	r1, [r7, #28]	@ float
 5866 0382 1846     		mov	r0, r3
 5867 0384 FFF7FEFF 		bl	__aeabi_fmul
 5868 0388 0346     		mov	r3, r0
 5869 038a 1946     		mov	r1, r3
 5870 038c 2846     		mov	r0, r5
 5871 038e FFF7FEFF 		bl	__aeabi_fsub
 5872 0392 0346     		mov	r3, r0
 5873 0394 2360     		str	r3, [r4]	@ float
 808:STM32F10x_Speex_Lib/libspeex/smallft.c ****       ch[t8]=wa1[i-2]*ci2+wa1[i-1]*cr2;
 5874              		.loc 2 808 0 discriminator 3
 5875 0396 7B69     		ldr	r3, [r7, #20]
 5876 0398 9B00     		lsls	r3, r3, #2
 5877 039a 3A68     		ldr	r2, [r7]
 5878 039c D418     		adds	r4, r2, r3
 5879 039e 7B6F     		ldr	r3, [r7, #116]
 5880 03a0 03F18043 		add	r3, r3, #1073741824
 5881 03a4 023B     		subs	r3, r3, #2
 5882 03a6 9B00     		lsls	r3, r3, #2
 5883 03a8 D7F88820 		ldr	r2, [r7, #136]
 5884 03ac 1344     		add	r3, r3, r2
 5885 03ae 1B68     		ldr	r3, [r3]	@ float
 5886 03b0 F969     		ldr	r1, [r7, #28]	@ float
 5887 03b2 1846     		mov	r0, r3
 5888 03b4 FFF7FEFF 		bl	__aeabi_fmul
 5889 03b8 0346     		mov	r3, r0
 5890 03ba 1D46     		mov	r5, r3
 5891 03bc 7B6F     		ldr	r3, [r7, #116]
 5892 03be 03F18043 		add	r3, r3, #1073741824
 5893 03c2 013B     		subs	r3, r3, #1
 5894 03c4 9B00     		lsls	r3, r3, #2
 5895 03c6 D7F88820 		ldr	r2, [r7, #136]
 5896 03ca 1344     		add	r3, r3, r2
 5897 03cc 1B68     		ldr	r3, [r3]	@ float
 5898 03ce 796A     		ldr	r1, [r7, #36]	@ float
ARM GAS  /var/folders/kh/x4vltyy52lbg7p4pcyglc5080000gp/T//ccKDo44O.s 			page 122


 5899 03d0 1846     		mov	r0, r3
 5900 03d2 FFF7FEFF 		bl	__aeabi_fmul
 5901 03d6 0346     		mov	r3, r0
 5902 03d8 1946     		mov	r1, r3
 5903 03da 2846     		mov	r0, r5
 5904 03dc FFF7FEFF 		bl	__aeabi_fadd
 5905 03e0 0346     		mov	r3, r0
 5906 03e2 2360     		str	r3, [r4]	@ float
 809:STM32F10x_Speex_Lib/libspeex/smallft.c ****       ch[(t8+=t0)-1]=wa2[i-2]*cr3-wa2[i-1]*ci3;
 5907              		.loc 2 809 0 discriminator 3
 5908 03e4 7A69     		ldr	r2, [r7, #20]
 5909 03e6 7B6D     		ldr	r3, [r7, #84]
 5910 03e8 1344     		add	r3, r3, r2
 5911 03ea 7B61     		str	r3, [r7, #20]
 5912 03ec 7B69     		ldr	r3, [r7, #20]
 5913 03ee 03F18043 		add	r3, r3, #1073741824
 5914 03f2 013B     		subs	r3, r3, #1
 5915 03f4 9B00     		lsls	r3, r3, #2
 5916 03f6 3A68     		ldr	r2, [r7]
 5917 03f8 D418     		adds	r4, r2, r3
 5918 03fa 7B6F     		ldr	r3, [r7, #116]
 5919 03fc 03F18043 		add	r3, r3, #1073741824
 5920 0400 023B     		subs	r3, r3, #2
 5921 0402 9B00     		lsls	r3, r3, #2
 5922 0404 D7F88C20 		ldr	r2, [r7, #140]
 5923 0408 1344     		add	r3, r3, r2
 5924 040a 1B68     		ldr	r3, [r3]	@ float
 5925 040c F96A     		ldr	r1, [r7, #44]	@ float
 5926 040e 1846     		mov	r0, r3
 5927 0410 FFF7FEFF 		bl	__aeabi_fmul
 5928 0414 0346     		mov	r3, r0
 5929 0416 1D46     		mov	r5, r3
 5930 0418 7B6F     		ldr	r3, [r7, #116]
 5931 041a 03F18043 		add	r3, r3, #1073741824
 5932 041e 013B     		subs	r3, r3, #1
 5933 0420 9B00     		lsls	r3, r3, #2
 5934 0422 D7F88C20 		ldr	r2, [r7, #140]
 5935 0426 1344     		add	r3, r3, r2
 5936 0428 1B68     		ldr	r3, [r3]	@ float
 5937 042a B96A     		ldr	r1, [r7, #40]	@ float
 5938 042c 1846     		mov	r0, r3
 5939 042e FFF7FEFF 		bl	__aeabi_fmul
 5940 0432 0346     		mov	r3, r0
 5941 0434 1946     		mov	r1, r3
 5942 0436 2846     		mov	r0, r5
 5943 0438 FFF7FEFF 		bl	__aeabi_fsub
 5944 043c 0346     		mov	r3, r0
 5945 043e 2360     		str	r3, [r4]	@ float
 810:STM32F10x_Speex_Lib/libspeex/smallft.c ****       ch[t8]=wa2[i-2]*ci3+wa2[i-1]*cr3;
 5946              		.loc 2 810 0 discriminator 3
 5947 0440 7B69     		ldr	r3, [r7, #20]
 5948 0442 9B00     		lsls	r3, r3, #2
 5949 0444 3A68     		ldr	r2, [r7]
 5950 0446 D418     		adds	r4, r2, r3
 5951 0448 7B6F     		ldr	r3, [r7, #116]
 5952 044a 03F18043 		add	r3, r3, #1073741824
 5953 044e 023B     		subs	r3, r3, #2
ARM GAS  /var/folders/kh/x4vltyy52lbg7p4pcyglc5080000gp/T//ccKDo44O.s 			page 123


 5954 0450 9B00     		lsls	r3, r3, #2
 5955 0452 D7F88C20 		ldr	r2, [r7, #140]
 5956 0456 1344     		add	r3, r3, r2
 5957 0458 1B68     		ldr	r3, [r3]	@ float
 5958 045a B96A     		ldr	r1, [r7, #40]	@ float
 5959 045c 1846     		mov	r0, r3
 5960 045e FFF7FEFF 		bl	__aeabi_fmul
 5961 0462 0346     		mov	r3, r0
 5962 0464 1D46     		mov	r5, r3
 5963 0466 7B6F     		ldr	r3, [r7, #116]
 5964 0468 03F18043 		add	r3, r3, #1073741824
 5965 046c 013B     		subs	r3, r3, #1
 5966 046e 9B00     		lsls	r3, r3, #2
 5967 0470 D7F88C20 		ldr	r2, [r7, #140]
 5968 0474 1344     		add	r3, r3, r2
 5969 0476 1B68     		ldr	r3, [r3]	@ float
 5970 0478 F96A     		ldr	r1, [r7, #44]	@ float
 5971 047a 1846     		mov	r0, r3
 5972 047c FFF7FEFF 		bl	__aeabi_fmul
 5973 0480 0346     		mov	r3, r0
 5974 0482 1946     		mov	r1, r3
 5975 0484 2846     		mov	r0, r5
 5976 0486 FFF7FEFF 		bl	__aeabi_fadd
 5977 048a 0346     		mov	r3, r0
 5978 048c 2360     		str	r3, [r4]	@ float
 811:STM32F10x_Speex_Lib/libspeex/smallft.c ****       ch[(t8+=t0)-1]=wa3[i-2]*cr4-wa3[i-1]*ci4;
 5979              		.loc 2 811 0 discriminator 3
 5980 048e 7A69     		ldr	r2, [r7, #20]
 5981 0490 7B6D     		ldr	r3, [r7, #84]
 5982 0492 1344     		add	r3, r3, r2
 5983 0494 7B61     		str	r3, [r7, #20]
 5984 0496 7B69     		ldr	r3, [r7, #20]
 5985 0498 03F18043 		add	r3, r3, #1073741824
 5986 049c 013B     		subs	r3, r3, #1
 5987 049e 9B00     		lsls	r3, r3, #2
 5988 04a0 3A68     		ldr	r2, [r7]
 5989 04a2 D418     		adds	r4, r2, r3
 5990 04a4 7B6F     		ldr	r3, [r7, #116]
 5991 04a6 03F18043 		add	r3, r3, #1073741824
 5992 04aa 023B     		subs	r3, r3, #2
 5993 04ac 9B00     		lsls	r3, r3, #2
 5994 04ae D7F89020 		ldr	r2, [r7, #144]
 5995 04b2 1344     		add	r3, r3, r2
 5996 04b4 1B68     		ldr	r3, [r3]	@ float
 5997 04b6 396A     		ldr	r1, [r7, #32]	@ float
 5998 04b8 1846     		mov	r0, r3
 5999 04ba FFF7FEFF 		bl	__aeabi_fmul
 6000 04be 0346     		mov	r3, r0
 6001 04c0 1D46     		mov	r5, r3
 6002 04c2 7B6F     		ldr	r3, [r7, #116]
 6003 04c4 03F18043 		add	r3, r3, #1073741824
 6004 04c8 013B     		subs	r3, r3, #1
 6005 04ca 9B00     		lsls	r3, r3, #2
 6006 04cc D7F89020 		ldr	r2, [r7, #144]
 6007 04d0 1344     		add	r3, r3, r2
 6008 04d2 1B68     		ldr	r3, [r3]	@ float
 6009 04d4 B969     		ldr	r1, [r7, #24]	@ float
ARM GAS  /var/folders/kh/x4vltyy52lbg7p4pcyglc5080000gp/T//ccKDo44O.s 			page 124


 6010 04d6 1846     		mov	r0, r3
 6011 04d8 FFF7FEFF 		bl	__aeabi_fmul
 6012 04dc 0346     		mov	r3, r0
 6013 04de 1946     		mov	r1, r3
 6014 04e0 2846     		mov	r0, r5
 6015 04e2 FFF7FEFF 		bl	__aeabi_fsub
 6016 04e6 0346     		mov	r3, r0
 6017 04e8 2360     		str	r3, [r4]	@ float
 812:STM32F10x_Speex_Lib/libspeex/smallft.c ****       ch[t8]=wa3[i-2]*ci4+wa3[i-1]*cr4;
 6018              		.loc 2 812 0 discriminator 3
 6019 04ea 7B69     		ldr	r3, [r7, #20]
 6020 04ec 9B00     		lsls	r3, r3, #2
 6021 04ee 3A68     		ldr	r2, [r7]
 6022 04f0 D418     		adds	r4, r2, r3
 6023 04f2 7B6F     		ldr	r3, [r7, #116]
 6024 04f4 03F18043 		add	r3, r3, #1073741824
 6025 04f8 023B     		subs	r3, r3, #2
 6026 04fa 9B00     		lsls	r3, r3, #2
 6027 04fc D7F89020 		ldr	r2, [r7, #144]
 6028 0500 1344     		add	r3, r3, r2
 6029 0502 1B68     		ldr	r3, [r3]	@ float
 6030 0504 B969     		ldr	r1, [r7, #24]	@ float
 6031 0506 1846     		mov	r0, r3
 6032 0508 FFF7FEFF 		bl	__aeabi_fmul
 6033 050c 0346     		mov	r3, r0
 6034 050e 1D46     		mov	r5, r3
 6035 0510 7B6F     		ldr	r3, [r7, #116]
 6036 0512 03F18043 		add	r3, r3, #1073741824
 6037 0516 013B     		subs	r3, r3, #1
 6038 0518 9B00     		lsls	r3, r3, #2
 6039 051a D7F89020 		ldr	r2, [r7, #144]
 6040 051e 1344     		add	r3, r3, r2
 6041 0520 1B68     		ldr	r3, [r3]	@ float
 6042 0522 396A     		ldr	r1, [r7, #32]	@ float
 6043 0524 1846     		mov	r0, r3
 6044 0526 FFF7FEFF 		bl	__aeabi_fmul
 6045 052a 0346     		mov	r3, r0
 6046 052c 1946     		mov	r1, r3
 6047 052e 2846     		mov	r0, r5
 6048 0530 FFF7FEFF 		bl	__aeabi_fadd
 6049 0534 0346     		mov	r3, r0
 6050 0536 2360     		str	r3, [r4]	@ float
 784:STM32F10x_Speex_Lib/libspeex/smallft.c ****       t2+=2;
 6051              		.loc 2 784 0 discriminator 3
 6052 0538 7B6F     		ldr	r3, [r7, #116]
 6053 053a 0233     		adds	r3, r3, #2
 6054 053c 7B67     		str	r3, [r7, #116]
 6055              	.L232:
 784:STM32F10x_Speex_Lib/libspeex/smallft.c ****       t2+=2;
 6056              		.loc 2 784 0 is_stmt 0 discriminator 1
 6057 053e 7A6F     		ldr	r2, [r7, #116]
 6058 0540 FB68     		ldr	r3, [r7, #12]
 6059 0542 9A42     		cmp	r2, r3
 6060 0544 FFF61FAE 		blt	.L233
 813:STM32F10x_Speex_Lib/libspeex/smallft.c ****     }
 814:STM32F10x_Speex_Lib/libspeex/smallft.c ****     t1+=ido;
 6061              		.loc 2 814 0 is_stmt 1 discriminator 2
ARM GAS  /var/folders/kh/x4vltyy52lbg7p4pcyglc5080000gp/T//ccKDo44O.s 			page 125


 6062 0548 FA6E     		ldr	r2, [r7, #108]
 6063 054a FB68     		ldr	r3, [r7, #12]
 6064 054c 1344     		add	r3, r3, r2
 6065 054e FB66     		str	r3, [r7, #108]
 781:STM32F10x_Speex_Lib/libspeex/smallft.c ****     t5=(t4=(t3=(t2=t1<<2)+t6))+t6;
 6066              		.loc 2 781 0 discriminator 2
 6067 0550 3B6F     		ldr	r3, [r7, #112]
 6068 0552 0133     		adds	r3, r3, #1
 6069 0554 3B67     		str	r3, [r7, #112]
 6070              	.L231:
 781:STM32F10x_Speex_Lib/libspeex/smallft.c ****     t5=(t4=(t3=(t2=t1<<2)+t6))+t6;
 6071              		.loc 2 781 0 is_stmt 0 discriminator 1
 6072 0556 3A6F     		ldr	r2, [r7, #112]
 6073 0558 BB68     		ldr	r3, [r7, #8]
 6074 055a 9A42     		cmp	r2, r3
 6075 055c FFF601AE 		blt	.L234
 815:STM32F10x_Speex_Lib/libspeex/smallft.c ****   }
 816:STM32F10x_Speex_Lib/libspeex/smallft.c **** 
 817:STM32F10x_Speex_Lib/libspeex/smallft.c ****   if(ido%2 == 1)return;
 6076              		.loc 2 817 0 is_stmt 1
 6077 0560 FA68     		ldr	r2, [r7, #12]
 6078 0562 644B     		ldr	r3, .L241
 6079 0564 1340     		ands	r3, r3, r2
 6080 0566 002B     		cmp	r3, #0
 6081 0568 03DA     		bge	.L235
 6082 056a 013B     		subs	r3, r3, #1
 6083 056c 63F00103 		orn	r3, r3, #1
 6084 0570 0133     		adds	r3, r3, #1
 6085              	.L235:
 6086 0572 012B     		cmp	r3, #1
 6087 0574 00F0BA80 		beq	.L240
 6088 0578 00E0     		b	.L230
 6089              	.L239:
 778:STM32F10x_Speex_Lib/libspeex/smallft.c **** 
 6090              		.loc 2 778 0
 6091 057a 00BF     		nop
 6092              	.L230:
 818:STM32F10x_Speex_Lib/libspeex/smallft.c **** 
 819:STM32F10x_Speex_Lib/libspeex/smallft.c ****  L105:
 820:STM32F10x_Speex_Lib/libspeex/smallft.c **** 
 821:STM32F10x_Speex_Lib/libspeex/smallft.c ****   t1=ido;
 6093              		.loc 2 821 0
 6094 057c FB68     		ldr	r3, [r7, #12]
 6095 057e FB66     		str	r3, [r7, #108]
 822:STM32F10x_Speex_Lib/libspeex/smallft.c ****   t2=ido<<2;
 6096              		.loc 2 822 0
 6097 0580 FB68     		ldr	r3, [r7, #12]
 6098 0582 9B00     		lsls	r3, r3, #2
 6099 0584 BB66     		str	r3, [r7, #104]
 823:STM32F10x_Speex_Lib/libspeex/smallft.c ****   t3=ido-1;
 6100              		.loc 2 823 0
 6101 0586 FB68     		ldr	r3, [r7, #12]
 6102 0588 013B     		subs	r3, r3, #1
 6103 058a 7B66     		str	r3, [r7, #100]
 824:STM32F10x_Speex_Lib/libspeex/smallft.c ****   t4=ido+(ido<<1);
 6104              		.loc 2 824 0
 6105 058c FB68     		ldr	r3, [r7, #12]
ARM GAS  /var/folders/kh/x4vltyy52lbg7p4pcyglc5080000gp/T//ccKDo44O.s 			page 126


 6106 058e 5A00     		lsls	r2, r3, #1
 6107 0590 FB68     		ldr	r3, [r7, #12]
 6108 0592 1344     		add	r3, r3, r2
 6109 0594 3B66     		str	r3, [r7, #96]
 825:STM32F10x_Speex_Lib/libspeex/smallft.c ****   for(k=0;k<l1;k++){
 6110              		.loc 2 825 0
 6111 0596 0023     		movs	r3, #0
 6112 0598 3B67     		str	r3, [r7, #112]
 6113 059a 9FE0     		b	.L236
 6114              	.L237:
 826:STM32F10x_Speex_Lib/libspeex/smallft.c ****     t5=t3;
 6115              		.loc 2 826 0 discriminator 3
 6116 059c 7B6E     		ldr	r3, [r7, #100]
 6117 059e FB65     		str	r3, [r7, #92]
 827:STM32F10x_Speex_Lib/libspeex/smallft.c ****     ti1=cc[t1]+cc[t4];
 6118              		.loc 2 827 0 discriminator 3
 6119 05a0 FB6E     		ldr	r3, [r7, #108]
 6120 05a2 9B00     		lsls	r3, r3, #2
 6121 05a4 7A68     		ldr	r2, [r7, #4]
 6122 05a6 1344     		add	r3, r3, r2
 6123 05a8 1868     		ldr	r0, [r3]	@ float
 6124 05aa 3B6E     		ldr	r3, [r7, #96]
 6125 05ac 9B00     		lsls	r3, r3, #2
 6126 05ae 7A68     		ldr	r2, [r7, #4]
 6127 05b0 1344     		add	r3, r3, r2
 6128 05b2 1B68     		ldr	r3, [r3]	@ float
 6129 05b4 1946     		mov	r1, r3
 6130 05b6 FFF7FEFF 		bl	__aeabi_fadd
 6131 05ba 0346     		mov	r3, r0
 6132 05bc FB63     		str	r3, [r7, #60]	@ float
 828:STM32F10x_Speex_Lib/libspeex/smallft.c ****     ti2=cc[t4]-cc[t1];
 6133              		.loc 2 828 0 discriminator 3
 6134 05be 3B6E     		ldr	r3, [r7, #96]
 6135 05c0 9B00     		lsls	r3, r3, #2
 6136 05c2 7A68     		ldr	r2, [r7, #4]
 6137 05c4 1344     		add	r3, r3, r2
 6138 05c6 1868     		ldr	r0, [r3]	@ float
 6139 05c8 FB6E     		ldr	r3, [r7, #108]
 6140 05ca 9B00     		lsls	r3, r3, #2
 6141 05cc 7A68     		ldr	r2, [r7, #4]
 6142 05ce 1344     		add	r3, r3, r2
 6143 05d0 1B68     		ldr	r3, [r3]	@ float
 6144 05d2 1946     		mov	r1, r3
 6145 05d4 FFF7FEFF 		bl	__aeabi_fsub
 6146 05d8 0346     		mov	r3, r0
 6147 05da BB63     		str	r3, [r7, #56]	@ float
 829:STM32F10x_Speex_Lib/libspeex/smallft.c ****     tr1=cc[t1-1]-cc[t4-1];
 6148              		.loc 2 829 0 discriminator 3
 6149 05dc FB6E     		ldr	r3, [r7, #108]
 6150 05de 03F18043 		add	r3, r3, #1073741824
 6151 05e2 013B     		subs	r3, r3, #1
 6152 05e4 9B00     		lsls	r3, r3, #2
 6153 05e6 7A68     		ldr	r2, [r7, #4]
 6154 05e8 1344     		add	r3, r3, r2
 6155 05ea 1868     		ldr	r0, [r3]	@ float
 6156 05ec 3B6E     		ldr	r3, [r7, #96]
 6157 05ee 03F18043 		add	r3, r3, #1073741824
ARM GAS  /var/folders/kh/x4vltyy52lbg7p4pcyglc5080000gp/T//ccKDo44O.s 			page 127


 6158 05f2 013B     		subs	r3, r3, #1
 6159 05f4 9B00     		lsls	r3, r3, #2
 6160 05f6 7A68     		ldr	r2, [r7, #4]
 6161 05f8 1344     		add	r3, r3, r2
 6162 05fa 1B68     		ldr	r3, [r3]	@ float
 6163 05fc 1946     		mov	r1, r3
 6164 05fe FFF7FEFF 		bl	__aeabi_fsub
 6165 0602 0346     		mov	r3, r0
 6166 0604 7B64     		str	r3, [r7, #68]	@ float
 830:STM32F10x_Speex_Lib/libspeex/smallft.c ****     tr2=cc[t1-1]+cc[t4-1];
 6167              		.loc 2 830 0 discriminator 3
 6168 0606 FB6E     		ldr	r3, [r7, #108]
 6169 0608 03F18043 		add	r3, r3, #1073741824
 6170 060c 013B     		subs	r3, r3, #1
 6171 060e 9B00     		lsls	r3, r3, #2
 6172 0610 7A68     		ldr	r2, [r7, #4]
 6173 0612 1344     		add	r3, r3, r2
 6174 0614 1868     		ldr	r0, [r3]	@ float
 6175 0616 3B6E     		ldr	r3, [r7, #96]
 6176 0618 03F18043 		add	r3, r3, #1073741824
 6177 061c 013B     		subs	r3, r3, #1
 6178 061e 9B00     		lsls	r3, r3, #2
 6179 0620 7A68     		ldr	r2, [r7, #4]
 6180 0622 1344     		add	r3, r3, r2
 6181 0624 1B68     		ldr	r3, [r3]	@ float
 6182 0626 1946     		mov	r1, r3
 6183 0628 FFF7FEFF 		bl	__aeabi_fadd
 6184 062c 0346     		mov	r3, r0
 6185 062e 3B64     		str	r3, [r7, #64]	@ float
 831:STM32F10x_Speex_Lib/libspeex/smallft.c ****     ch[t5]=tr2+tr2;
 6186              		.loc 2 831 0 discriminator 3
 6187 0630 FB6D     		ldr	r3, [r7, #92]
 6188 0632 9B00     		lsls	r3, r3, #2
 6189 0634 3A68     		ldr	r2, [r7]
 6190 0636 D418     		adds	r4, r2, r3
 6191 0638 3B6C     		ldr	r3, [r7, #64]	@ float
 6192 063a 1946     		mov	r1, r3
 6193 063c 1846     		mov	r0, r3
 6194 063e FFF7FEFF 		bl	__aeabi_fadd
 6195 0642 0346     		mov	r3, r0
 6196 0644 2360     		str	r3, [r4]	@ float
 832:STM32F10x_Speex_Lib/libspeex/smallft.c ****     ch[t5+=t0]=sqrt2*(tr1-ti1);
 6197              		.loc 2 832 0 discriminator 3
 6198 0646 FA6D     		ldr	r2, [r7, #92]
 6199 0648 7B6D     		ldr	r3, [r7, #84]
 6200 064a 1344     		add	r3, r3, r2
 6201 064c FB65     		str	r3, [r7, #92]
 6202 064e FB6D     		ldr	r3, [r7, #92]
 6203 0650 9B00     		lsls	r3, r3, #2
 6204 0652 3A68     		ldr	r2, [r7]
 6205 0654 D418     		adds	r4, r2, r3
 6206 0656 F96B     		ldr	r1, [r7, #60]	@ float
 6207 0658 786C     		ldr	r0, [r7, #68]	@ float
 6208 065a FFF7FEFF 		bl	__aeabi_fsub
 6209 065e 0346     		mov	r3, r0
 6210 0660 1A46     		mov	r2, r3
 6211 0662 254B     		ldr	r3, .L241+4
ARM GAS  /var/folders/kh/x4vltyy52lbg7p4pcyglc5080000gp/T//ccKDo44O.s 			page 128


 6212 0664 1B68     		ldr	r3, [r3]	@ float
 6213 0666 1946     		mov	r1, r3
 6214 0668 1046     		mov	r0, r2
 6215 066a FFF7FEFF 		bl	__aeabi_fmul
 6216 066e 0346     		mov	r3, r0
 6217 0670 2360     		str	r3, [r4]	@ float
 833:STM32F10x_Speex_Lib/libspeex/smallft.c ****     ch[t5+=t0]=ti2+ti2;
 6218              		.loc 2 833 0 discriminator 3
 6219 0672 FA6D     		ldr	r2, [r7, #92]
 6220 0674 7B6D     		ldr	r3, [r7, #84]
 6221 0676 1344     		add	r3, r3, r2
 6222 0678 FB65     		str	r3, [r7, #92]
 6223 067a FB6D     		ldr	r3, [r7, #92]
 6224 067c 9B00     		lsls	r3, r3, #2
 6225 067e 3A68     		ldr	r2, [r7]
 6226 0680 D418     		adds	r4, r2, r3
 6227 0682 BB6B     		ldr	r3, [r7, #56]	@ float
 6228 0684 1946     		mov	r1, r3
 6229 0686 1846     		mov	r0, r3
 6230 0688 FFF7FEFF 		bl	__aeabi_fadd
 6231 068c 0346     		mov	r3, r0
 6232 068e 2360     		str	r3, [r4]	@ float
 834:STM32F10x_Speex_Lib/libspeex/smallft.c ****     ch[t5+=t0]=-sqrt2*(tr1+ti1);
 6233              		.loc 2 834 0 discriminator 3
 6234 0690 FA6D     		ldr	r2, [r7, #92]
 6235 0692 7B6D     		ldr	r3, [r7, #84]
 6236 0694 1344     		add	r3, r3, r2
 6237 0696 FB65     		str	r3, [r7, #92]
 6238 0698 FB6D     		ldr	r3, [r7, #92]
 6239 069a 9B00     		lsls	r3, r3, #2
 6240 069c 3A68     		ldr	r2, [r7]
 6241 069e D418     		adds	r4, r2, r3
 6242 06a0 154B     		ldr	r3, .L241+4
 6243 06a2 1B68     		ldr	r3, [r3]	@ float
 6244 06a4 83F00045 		eor	r5, r3, #-2147483648
 6245 06a8 F96B     		ldr	r1, [r7, #60]	@ float
 6246 06aa 786C     		ldr	r0, [r7, #68]	@ float
 6247 06ac FFF7FEFF 		bl	__aeabi_fadd
 6248 06b0 0346     		mov	r3, r0
 6249 06b2 1946     		mov	r1, r3
 6250 06b4 2846     		mov	r0, r5
 6251 06b6 FFF7FEFF 		bl	__aeabi_fmul
 6252 06ba 0346     		mov	r3, r0
 6253 06bc 2360     		str	r3, [r4]	@ float
 835:STM32F10x_Speex_Lib/libspeex/smallft.c **** 
 836:STM32F10x_Speex_Lib/libspeex/smallft.c ****     t3+=ido;
 6254              		.loc 2 836 0 discriminator 3
 6255 06be 7A6E     		ldr	r2, [r7, #100]
 6256 06c0 FB68     		ldr	r3, [r7, #12]
 6257 06c2 1344     		add	r3, r3, r2
 6258 06c4 7B66     		str	r3, [r7, #100]
 837:STM32F10x_Speex_Lib/libspeex/smallft.c ****     t1+=t2;
 6259              		.loc 2 837 0 discriminator 3
 6260 06c6 FA6E     		ldr	r2, [r7, #108]
 6261 06c8 BB6E     		ldr	r3, [r7, #104]
 6262 06ca 1344     		add	r3, r3, r2
 6263 06cc FB66     		str	r3, [r7, #108]
ARM GAS  /var/folders/kh/x4vltyy52lbg7p4pcyglc5080000gp/T//ccKDo44O.s 			page 129


 838:STM32F10x_Speex_Lib/libspeex/smallft.c ****     t4+=t2;
 6264              		.loc 2 838 0 discriminator 3
 6265 06ce 3A6E     		ldr	r2, [r7, #96]
 6266 06d0 BB6E     		ldr	r3, [r7, #104]
 6267 06d2 1344     		add	r3, r3, r2
 6268 06d4 3B66     		str	r3, [r7, #96]
 825:STM32F10x_Speex_Lib/libspeex/smallft.c ****     t5=t3;
 6269              		.loc 2 825 0 discriminator 3
 6270 06d6 3B6F     		ldr	r3, [r7, #112]
 6271 06d8 0133     		adds	r3, r3, #1
 6272 06da 3B67     		str	r3, [r7, #112]
 6273              	.L236:
 825:STM32F10x_Speex_Lib/libspeex/smallft.c ****     t5=t3;
 6274              		.loc 2 825 0 is_stmt 0 discriminator 1
 6275 06dc 3A6F     		ldr	r2, [r7, #112]
 6276 06de BB68     		ldr	r3, [r7, #8]
 6277 06e0 9A42     		cmp	r2, r3
 6278 06e2 FFF65BAF 		blt	.L237
 6279 06e6 02E0     		b	.L224
 6280              	.L238:
 777:STM32F10x_Speex_Lib/libspeex/smallft.c ****   if(ido==2)goto L105;
 6281              		.loc 2 777 0 is_stmt 1
 6282 06e8 00BF     		nop
 6283 06ea 00E0     		b	.L224
 6284              	.L240:
 817:STM32F10x_Speex_Lib/libspeex/smallft.c **** 
 6285              		.loc 2 817 0
 6286 06ec 00BF     		nop
 6287              	.L224:
 839:STM32F10x_Speex_Lib/libspeex/smallft.c ****   }
 840:STM32F10x_Speex_Lib/libspeex/smallft.c **** }
 6288              		.loc 2 840 0
 6289 06ee 7837     		adds	r7, r7, #120
 6290              	.LCFI53:
 6291              		.cfi_def_cfa_offset 16
 6292 06f0 BD46     		mov	sp, r7
 6293              	.LCFI54:
 6294              		.cfi_def_cfa_register 13
 6295              		@ sp needed
 6296 06f2 B0BD     		pop	{r4, r5, r7, pc}
 6297              	.L242:
 6298              		.align	2
 6299              	.L241:
 6300 06f4 01000080 		.word	-2147483647
 6301 06f8 00000000 		.word	sqrt2.6039
 6302              		.cfi_endproc
 6303              	.LFE17:
 6305              		.section	.text.dradbg,"ax",%progbits
 6306              		.align	2
 6307              		.thumb
 6308              		.thumb_func
 6310              	dradbg:
 6311              	.LFB18:
 841:STM32F10x_Speex_Lib/libspeex/smallft.c **** 
 842:STM32F10x_Speex_Lib/libspeex/smallft.c **** static void dradbg(int ido,int ip,int l1,int idl1,float *cc,float *c1,
 843:STM32F10x_Speex_Lib/libspeex/smallft.c ****             float *c2,float *ch,float *ch2,float *wa){
 6312              		.loc 2 843 0
ARM GAS  /var/folders/kh/x4vltyy52lbg7p4pcyglc5080000gp/T//ccKDo44O.s 			page 130


 6313              		.cfi_startproc
 6314              		@ args = 24, pretend = 0, frame = 152
 6315              		@ frame_needed = 1, uses_anonymous_args = 0
 6316 0000 B0B5     		push	{r4, r5, r7, lr}
 6317              	.LCFI55:
 6318              		.cfi_def_cfa_offset 16
 6319              		.cfi_offset 4, -16
 6320              		.cfi_offset 5, -12
 6321              		.cfi_offset 7, -8
 6322              		.cfi_offset 14, -4
 6323 0002 A6B0     		sub	sp, sp, #152
 6324              	.LCFI56:
 6325              		.cfi_def_cfa_offset 168
 6326 0004 00AF     		add	r7, sp, #0
 6327              	.LCFI57:
 6328              		.cfi_def_cfa_register 7
 6329 0006 F860     		str	r0, [r7, #12]
 6330 0008 B960     		str	r1, [r7, #8]
 6331 000a 7A60     		str	r2, [r7, #4]
 6332 000c 3B60     		str	r3, [r7]
 844:STM32F10x_Speex_Lib/libspeex/smallft.c ****   static float tpi=6.283185307179586f;
 845:STM32F10x_Speex_Lib/libspeex/smallft.c ****   int idij,ipph,i,j,k,l,ik,is,t0,t1,t2,t3,t4,t5,t6,t7,t8,t9,t10,
 846:STM32F10x_Speex_Lib/libspeex/smallft.c ****       t11,t12;
 847:STM32F10x_Speex_Lib/libspeex/smallft.c ****   float dc2,ai1,ai2,ar1,ar2,ds2;
 848:STM32F10x_Speex_Lib/libspeex/smallft.c ****   int nbd;
 849:STM32F10x_Speex_Lib/libspeex/smallft.c ****   float dcp,arg,dsp,ar1h,ar2h;
 850:STM32F10x_Speex_Lib/libspeex/smallft.c ****   int ipp2;
 851:STM32F10x_Speex_Lib/libspeex/smallft.c **** 
 852:STM32F10x_Speex_Lib/libspeex/smallft.c ****   t10=ip*ido;
 6333              		.loc 2 852 0
 6334 000e BB68     		ldr	r3, [r7, #8]
 6335 0010 FA68     		ldr	r2, [r7, #12]
 6336 0012 02FB03F3 		mul	r3, r2, r3
 6337 0016 FB63     		str	r3, [r7, #60]
 853:STM32F10x_Speex_Lib/libspeex/smallft.c ****   t0=l1*ido;
 6338              		.loc 2 853 0
 6339 0018 7B68     		ldr	r3, [r7, #4]
 6340 001a FA68     		ldr	r2, [r7, #12]
 6341 001c 02FB03F3 		mul	r3, r2, r3
 6342 0020 BB63     		str	r3, [r7, #56]
 854:STM32F10x_Speex_Lib/libspeex/smallft.c ****   arg=tpi/(float)ip;
 6343              		.loc 2 854 0
 6344 0022 AC4B     		ldr	r3, .L340
 6345 0024 1C68     		ldr	r4, [r3]	@ float
 6346 0026 B868     		ldr	r0, [r7, #8]
 6347 0028 FFF7FEFF 		bl	__aeabi_i2f
 6348 002c 0346     		mov	r3, r0
 6349 002e 1946     		mov	r1, r3
 6350 0030 2046     		mov	r0, r4
 6351 0032 FFF7FEFF 		bl	__aeabi_fdiv
 6352 0036 0346     		mov	r3, r0
 6353 0038 7B63     		str	r3, [r7, #52]	@ float
 855:STM32F10x_Speex_Lib/libspeex/smallft.c ****   dcp=cos(arg);
 6354              		.loc 2 855 0
 6355 003a 786B     		ldr	r0, [r7, #52]	@ float
 6356 003c FFF7FEFF 		bl	__aeabi_f2d
 6357 0040 0346     		mov	r3, r0
ARM GAS  /var/folders/kh/x4vltyy52lbg7p4pcyglc5080000gp/T//ccKDo44O.s 			page 131


 6358 0042 0C46     		mov	r4, r1
 6359 0044 1846     		mov	r0, r3
 6360 0046 2146     		mov	r1, r4
 6361 0048 FFF7FEFF 		bl	cos
 6362 004c 0346     		mov	r3, r0
 6363 004e 0C46     		mov	r4, r1
 6364 0050 1846     		mov	r0, r3
 6365 0052 2146     		mov	r1, r4
 6366 0054 FFF7FEFF 		bl	__aeabi_d2f
 6367 0058 0346     		mov	r3, r0
 6368 005a 3B63     		str	r3, [r7, #48]	@ float
 856:STM32F10x_Speex_Lib/libspeex/smallft.c ****   dsp=sin(arg);
 6369              		.loc 2 856 0
 6370 005c 786B     		ldr	r0, [r7, #52]	@ float
 6371 005e FFF7FEFF 		bl	__aeabi_f2d
 6372 0062 0346     		mov	r3, r0
 6373 0064 0C46     		mov	r4, r1
 6374 0066 1846     		mov	r0, r3
 6375 0068 2146     		mov	r1, r4
 6376 006a FFF7FEFF 		bl	sin
 6377 006e 0346     		mov	r3, r0
 6378 0070 0C46     		mov	r4, r1
 6379 0072 1846     		mov	r0, r3
 6380 0074 2146     		mov	r1, r4
 6381 0076 FFF7FEFF 		bl	__aeabi_d2f
 6382 007a 0346     		mov	r3, r0
 6383 007c FB62     		str	r3, [r7, #44]	@ float
 857:STM32F10x_Speex_Lib/libspeex/smallft.c ****   nbd=(ido-1)>>1;
 6384              		.loc 2 857 0
 6385 007e FB68     		ldr	r3, [r7, #12]
 6386 0080 013B     		subs	r3, r3, #1
 6387 0082 5B10     		asrs	r3, r3, #1
 6388 0084 BB62     		str	r3, [r7, #40]
 858:STM32F10x_Speex_Lib/libspeex/smallft.c ****   ipp2=ip;
 6389              		.loc 2 858 0
 6390 0086 BB68     		ldr	r3, [r7, #8]
 6391 0088 7B62     		str	r3, [r7, #36]
 859:STM32F10x_Speex_Lib/libspeex/smallft.c ****   ipph=(ip+1)>>1;
 6392              		.loc 2 859 0
 6393 008a BB68     		ldr	r3, [r7, #8]
 6394 008c 0133     		adds	r3, r3, #1
 6395 008e 5B10     		asrs	r3, r3, #1
 6396 0090 3B62     		str	r3, [r7, #32]
 860:STM32F10x_Speex_Lib/libspeex/smallft.c ****   if(ido<l1)goto L103;
 6397              		.loc 2 860 0
 6398 0092 FA68     		ldr	r2, [r7, #12]
 6399 0094 7B68     		ldr	r3, [r7, #4]
 6400 0096 9A42     		cmp	r2, r3
 6401 0098 3EDB     		blt	.L333
 861:STM32F10x_Speex_Lib/libspeex/smallft.c ****   
 862:STM32F10x_Speex_Lib/libspeex/smallft.c ****   t1=0;
 6402              		.loc 2 862 0
 6403 009a 0023     		movs	r3, #0
 6404 009c BB67     		str	r3, [r7, #120]
 863:STM32F10x_Speex_Lib/libspeex/smallft.c ****   t2=0;
 6405              		.loc 2 863 0
 6406 009e 0023     		movs	r3, #0
ARM GAS  /var/folders/kh/x4vltyy52lbg7p4pcyglc5080000gp/T//ccKDo44O.s 			page 132


 6407 00a0 7B67     		str	r3, [r7, #116]
 864:STM32F10x_Speex_Lib/libspeex/smallft.c ****   for(k=0;k<l1;k++){
 6408              		.loc 2 864 0
 6409 00a2 0023     		movs	r3, #0
 6410 00a4 C7F88830 		str	r3, [r7, #136]
 6411 00a8 30E0     		b	.L246
 6412              	.L249:
 865:STM32F10x_Speex_Lib/libspeex/smallft.c ****     t3=t1;
 6413              		.loc 2 865 0
 6414 00aa BB6F     		ldr	r3, [r7, #120]
 6415 00ac 3B67     		str	r3, [r7, #112]
 866:STM32F10x_Speex_Lib/libspeex/smallft.c ****     t4=t2;
 6416              		.loc 2 866 0
 6417 00ae 7B6F     		ldr	r3, [r7, #116]
 6418 00b0 FB66     		str	r3, [r7, #108]
 867:STM32F10x_Speex_Lib/libspeex/smallft.c ****     for(i=0;i<ido;i++){
 6419              		.loc 2 867 0
 6420 00b2 0023     		movs	r3, #0
 6421 00b4 C7F89030 		str	r3, [r7, #144]
 6422 00b8 16E0     		b	.L247
 6423              	.L248:
 868:STM32F10x_Speex_Lib/libspeex/smallft.c ****       ch[t3]=cc[t4];
 6424              		.loc 2 868 0 discriminator 3
 6425 00ba 3B6F     		ldr	r3, [r7, #112]
 6426 00bc 9B00     		lsls	r3, r3, #2
 6427 00be D7F8B420 		ldr	r2, [r7, #180]
 6428 00c2 1344     		add	r3, r3, r2
 6429 00c4 FA6E     		ldr	r2, [r7, #108]
 6430 00c6 9200     		lsls	r2, r2, #2
 6431 00c8 D7F8A810 		ldr	r1, [r7, #168]
 6432 00cc 0A44     		add	r2, r2, r1
 6433 00ce 1268     		ldr	r2, [r2]	@ float
 6434 00d0 1A60     		str	r2, [r3]	@ float
 869:STM32F10x_Speex_Lib/libspeex/smallft.c ****       t3++;
 6435              		.loc 2 869 0 discriminator 3
 6436 00d2 3B6F     		ldr	r3, [r7, #112]
 6437 00d4 0133     		adds	r3, r3, #1
 6438 00d6 3B67     		str	r3, [r7, #112]
 870:STM32F10x_Speex_Lib/libspeex/smallft.c ****       t4++;
 6439              		.loc 2 870 0 discriminator 3
 6440 00d8 FB6E     		ldr	r3, [r7, #108]
 6441 00da 0133     		adds	r3, r3, #1
 6442 00dc FB66     		str	r3, [r7, #108]
 867:STM32F10x_Speex_Lib/libspeex/smallft.c ****       ch[t3]=cc[t4];
 6443              		.loc 2 867 0 discriminator 3
 6444 00de D7F89030 		ldr	r3, [r7, #144]
 6445 00e2 0133     		adds	r3, r3, #1
 6446 00e4 C7F89030 		str	r3, [r7, #144]
 6447              	.L247:
 867:STM32F10x_Speex_Lib/libspeex/smallft.c ****       ch[t3]=cc[t4];
 6448              		.loc 2 867 0 is_stmt 0 discriminator 1
 6449 00e8 D7F89020 		ldr	r2, [r7, #144]
 6450 00ec FB68     		ldr	r3, [r7, #12]
 6451 00ee 9A42     		cmp	r2, r3
 6452 00f0 E3DB     		blt	.L248
 871:STM32F10x_Speex_Lib/libspeex/smallft.c ****     }
 872:STM32F10x_Speex_Lib/libspeex/smallft.c ****     t1+=ido;
ARM GAS  /var/folders/kh/x4vltyy52lbg7p4pcyglc5080000gp/T//ccKDo44O.s 			page 133


 6453              		.loc 2 872 0 is_stmt 1 discriminator 2
 6454 00f2 BA6F     		ldr	r2, [r7, #120]
 6455 00f4 FB68     		ldr	r3, [r7, #12]
 6456 00f6 1344     		add	r3, r3, r2
 6457 00f8 BB67     		str	r3, [r7, #120]
 873:STM32F10x_Speex_Lib/libspeex/smallft.c ****     t2+=t10;
 6458              		.loc 2 873 0 discriminator 2
 6459 00fa 7A6F     		ldr	r2, [r7, #116]
 6460 00fc FB6B     		ldr	r3, [r7, #60]
 6461 00fe 1344     		add	r3, r3, r2
 6462 0100 7B67     		str	r3, [r7, #116]
 864:STM32F10x_Speex_Lib/libspeex/smallft.c ****     t3=t1;
 6463              		.loc 2 864 0 discriminator 2
 6464 0102 D7F88830 		ldr	r3, [r7, #136]
 6465 0106 0133     		adds	r3, r3, #1
 6466 0108 C7F88830 		str	r3, [r7, #136]
 6467              	.L246:
 864:STM32F10x_Speex_Lib/libspeex/smallft.c ****     t3=t1;
 6468              		.loc 2 864 0 is_stmt 0 discriminator 1
 6469 010c D7F88820 		ldr	r2, [r7, #136]
 6470 0110 7B68     		ldr	r3, [r7, #4]
 6471 0112 9A42     		cmp	r2, r3
 6472 0114 C9DB     		blt	.L249
 874:STM32F10x_Speex_Lib/libspeex/smallft.c ****   }
 875:STM32F10x_Speex_Lib/libspeex/smallft.c ****   goto L106;
 6473              		.loc 2 875 0 is_stmt 1
 6474 0116 39E0     		b	.L250
 6475              	.L333:
 860:STM32F10x_Speex_Lib/libspeex/smallft.c ****   
 6476              		.loc 2 860 0
 6477 0118 00BF     		nop
 6478              	.L245:
 876:STM32F10x_Speex_Lib/libspeex/smallft.c **** 
 877:STM32F10x_Speex_Lib/libspeex/smallft.c ****  L103:
 878:STM32F10x_Speex_Lib/libspeex/smallft.c ****   t1=0;
 6479              		.loc 2 878 0
 6480 011a 0023     		movs	r3, #0
 6481 011c BB67     		str	r3, [r7, #120]
 879:STM32F10x_Speex_Lib/libspeex/smallft.c ****   for(i=0;i<ido;i++){
 6482              		.loc 2 879 0
 6483 011e 0023     		movs	r3, #0
 6484 0120 C7F89030 		str	r3, [r7, #144]
 6485 0124 2DE0     		b	.L251
 6486              	.L254:
 880:STM32F10x_Speex_Lib/libspeex/smallft.c ****     t2=t1;
 6487              		.loc 2 880 0
 6488 0126 BB6F     		ldr	r3, [r7, #120]
 6489 0128 7B67     		str	r3, [r7, #116]
 881:STM32F10x_Speex_Lib/libspeex/smallft.c ****     t3=t1;
 6490              		.loc 2 881 0
 6491 012a BB6F     		ldr	r3, [r7, #120]
 6492 012c 3B67     		str	r3, [r7, #112]
 882:STM32F10x_Speex_Lib/libspeex/smallft.c ****     for(k=0;k<l1;k++){
 6493              		.loc 2 882 0
 6494 012e 0023     		movs	r3, #0
 6495 0130 C7F88830 		str	r3, [r7, #136]
 6496 0134 18E0     		b	.L252
ARM GAS  /var/folders/kh/x4vltyy52lbg7p4pcyglc5080000gp/T//ccKDo44O.s 			page 134


 6497              	.L253:
 883:STM32F10x_Speex_Lib/libspeex/smallft.c ****       ch[t2]=cc[t3];
 6498              		.loc 2 883 0 discriminator 3
 6499 0136 7B6F     		ldr	r3, [r7, #116]
 6500 0138 9B00     		lsls	r3, r3, #2
 6501 013a D7F8B420 		ldr	r2, [r7, #180]
 6502 013e 1344     		add	r3, r3, r2
 6503 0140 3A6F     		ldr	r2, [r7, #112]
 6504 0142 9200     		lsls	r2, r2, #2
 6505 0144 D7F8A810 		ldr	r1, [r7, #168]
 6506 0148 0A44     		add	r2, r2, r1
 6507 014a 1268     		ldr	r2, [r2]	@ float
 6508 014c 1A60     		str	r2, [r3]	@ float
 884:STM32F10x_Speex_Lib/libspeex/smallft.c ****       t2+=ido;
 6509              		.loc 2 884 0 discriminator 3
 6510 014e 7A6F     		ldr	r2, [r7, #116]
 6511 0150 FB68     		ldr	r3, [r7, #12]
 6512 0152 1344     		add	r3, r3, r2
 6513 0154 7B67     		str	r3, [r7, #116]
 885:STM32F10x_Speex_Lib/libspeex/smallft.c ****       t3+=t10;
 6514              		.loc 2 885 0 discriminator 3
 6515 0156 3A6F     		ldr	r2, [r7, #112]
 6516 0158 FB6B     		ldr	r3, [r7, #60]
 6517 015a 1344     		add	r3, r3, r2
 6518 015c 3B67     		str	r3, [r7, #112]
 882:STM32F10x_Speex_Lib/libspeex/smallft.c ****       ch[t2]=cc[t3];
 6519              		.loc 2 882 0 discriminator 3
 6520 015e D7F88830 		ldr	r3, [r7, #136]
 6521 0162 0133     		adds	r3, r3, #1
 6522 0164 C7F88830 		str	r3, [r7, #136]
 6523              	.L252:
 882:STM32F10x_Speex_Lib/libspeex/smallft.c ****       ch[t2]=cc[t3];
 6524              		.loc 2 882 0 is_stmt 0 discriminator 1
 6525 0168 D7F88820 		ldr	r2, [r7, #136]
 6526 016c 7B68     		ldr	r3, [r7, #4]
 6527 016e 9A42     		cmp	r2, r3
 6528 0170 E1DB     		blt	.L253
 886:STM32F10x_Speex_Lib/libspeex/smallft.c ****     }
 887:STM32F10x_Speex_Lib/libspeex/smallft.c ****     t1++;
 6529              		.loc 2 887 0 is_stmt 1 discriminator 2
 6530 0172 BB6F     		ldr	r3, [r7, #120]
 6531 0174 0133     		adds	r3, r3, #1
 6532 0176 BB67     		str	r3, [r7, #120]
 879:STM32F10x_Speex_Lib/libspeex/smallft.c ****     t2=t1;
 6533              		.loc 2 879 0 discriminator 2
 6534 0178 D7F89030 		ldr	r3, [r7, #144]
 6535 017c 0133     		adds	r3, r3, #1
 6536 017e C7F89030 		str	r3, [r7, #144]
 6537              	.L251:
 879:STM32F10x_Speex_Lib/libspeex/smallft.c ****     t2=t1;
 6538              		.loc 2 879 0 is_stmt 0 discriminator 1
 6539 0182 D7F89020 		ldr	r2, [r7, #144]
 6540 0186 FB68     		ldr	r3, [r7, #12]
 6541 0188 9A42     		cmp	r2, r3
 6542 018a CCDB     		blt	.L254
 6543              	.L250:
 888:STM32F10x_Speex_Lib/libspeex/smallft.c ****   }
ARM GAS  /var/folders/kh/x4vltyy52lbg7p4pcyglc5080000gp/T//ccKDo44O.s 			page 135


 889:STM32F10x_Speex_Lib/libspeex/smallft.c **** 
 890:STM32F10x_Speex_Lib/libspeex/smallft.c ****  L106:
 891:STM32F10x_Speex_Lib/libspeex/smallft.c ****   t1=0;
 6544              		.loc 2 891 0 is_stmt 1
 6545 018c 0023     		movs	r3, #0
 6546 018e BB67     		str	r3, [r7, #120]
 892:STM32F10x_Speex_Lib/libspeex/smallft.c ****   t2=ipp2*t0;
 6547              		.loc 2 892 0
 6548 0190 7B6A     		ldr	r3, [r7, #36]
 6549 0192 BA6B     		ldr	r2, [r7, #56]
 6550 0194 02FB03F3 		mul	r3, r2, r3
 6551 0198 7B67     		str	r3, [r7, #116]
 893:STM32F10x_Speex_Lib/libspeex/smallft.c ****   t7=(t5=ido<<1);
 6552              		.loc 2 893 0
 6553 019a FB68     		ldr	r3, [r7, #12]
 6554 019c 5B00     		lsls	r3, r3, #1
 6555 019e BB66     		str	r3, [r7, #104]
 6556 01a0 BB6E     		ldr	r3, [r7, #104]
 6557 01a2 3B66     		str	r3, [r7, #96]
 894:STM32F10x_Speex_Lib/libspeex/smallft.c ****   for(j=1;j<ipph;j++){
 6558              		.loc 2 894 0
 6559 01a4 0123     		movs	r3, #1
 6560 01a6 C7F88C30 		str	r3, [r7, #140]
 6561 01aa 55E0     		b	.L255
 6562              	.L258:
 895:STM32F10x_Speex_Lib/libspeex/smallft.c ****     t1+=t0;
 6563              		.loc 2 895 0
 6564 01ac BA6F     		ldr	r2, [r7, #120]
 6565 01ae BB6B     		ldr	r3, [r7, #56]
 6566 01b0 1344     		add	r3, r3, r2
 6567 01b2 BB67     		str	r3, [r7, #120]
 896:STM32F10x_Speex_Lib/libspeex/smallft.c ****     t2-=t0;
 6568              		.loc 2 896 0
 6569 01b4 7A6F     		ldr	r2, [r7, #116]
 6570 01b6 BB6B     		ldr	r3, [r7, #56]
 6571 01b8 D31A     		subs	r3, r2, r3
 6572 01ba 7B67     		str	r3, [r7, #116]
 897:STM32F10x_Speex_Lib/libspeex/smallft.c ****     t3=t1;
 6573              		.loc 2 897 0
 6574 01bc BB6F     		ldr	r3, [r7, #120]
 6575 01be 3B67     		str	r3, [r7, #112]
 898:STM32F10x_Speex_Lib/libspeex/smallft.c ****     t4=t2;
 6576              		.loc 2 898 0
 6577 01c0 7B6F     		ldr	r3, [r7, #116]
 6578 01c2 FB66     		str	r3, [r7, #108]
 899:STM32F10x_Speex_Lib/libspeex/smallft.c ****     t6=t5;
 6579              		.loc 2 899 0
 6580 01c4 BB6E     		ldr	r3, [r7, #104]
 6581 01c6 7B66     		str	r3, [r7, #100]
 900:STM32F10x_Speex_Lib/libspeex/smallft.c ****     for(k=0;k<l1;k++){
 6582              		.loc 2 900 0
 6583 01c8 0023     		movs	r3, #0
 6584 01ca C7F88830 		str	r3, [r7, #136]
 6585 01ce 35E0     		b	.L256
 6586              	.L257:
 901:STM32F10x_Speex_Lib/libspeex/smallft.c ****       ch[t3]=cc[t6-1]+cc[t6-1];
 6587              		.loc 2 901 0 discriminator 3
ARM GAS  /var/folders/kh/x4vltyy52lbg7p4pcyglc5080000gp/T//ccKDo44O.s 			page 136


 6588 01d0 3B6F     		ldr	r3, [r7, #112]
 6589 01d2 9B00     		lsls	r3, r3, #2
 6590 01d4 D7F8B420 		ldr	r2, [r7, #180]
 6591 01d8 D418     		adds	r4, r2, r3
 6592 01da 7B6E     		ldr	r3, [r7, #100]
 6593 01dc 03F18043 		add	r3, r3, #1073741824
 6594 01e0 013B     		subs	r3, r3, #1
 6595 01e2 9B00     		lsls	r3, r3, #2
 6596 01e4 D7F8A820 		ldr	r2, [r7, #168]
 6597 01e8 1344     		add	r3, r3, r2
 6598 01ea 1B68     		ldr	r3, [r3]	@ float
 6599 01ec 1946     		mov	r1, r3
 6600 01ee 1846     		mov	r0, r3
 6601 01f0 FFF7FEFF 		bl	__aeabi_fadd
 6602 01f4 0346     		mov	r3, r0
 6603 01f6 2360     		str	r3, [r4]	@ float
 902:STM32F10x_Speex_Lib/libspeex/smallft.c ****       ch[t4]=cc[t6]+cc[t6];
 6604              		.loc 2 902 0 discriminator 3
 6605 01f8 FB6E     		ldr	r3, [r7, #108]
 6606 01fa 9B00     		lsls	r3, r3, #2
 6607 01fc D7F8B420 		ldr	r2, [r7, #180]
 6608 0200 D418     		adds	r4, r2, r3
 6609 0202 7B6E     		ldr	r3, [r7, #100]
 6610 0204 9B00     		lsls	r3, r3, #2
 6611 0206 D7F8A820 		ldr	r2, [r7, #168]
 6612 020a 1344     		add	r3, r3, r2
 6613 020c 1B68     		ldr	r3, [r3]	@ float
 6614 020e 1946     		mov	r1, r3
 6615 0210 1846     		mov	r0, r3
 6616 0212 FFF7FEFF 		bl	__aeabi_fadd
 6617 0216 0346     		mov	r3, r0
 6618 0218 2360     		str	r3, [r4]	@ float
 903:STM32F10x_Speex_Lib/libspeex/smallft.c ****       t3+=ido;
 6619              		.loc 2 903 0 discriminator 3
 6620 021a 3A6F     		ldr	r2, [r7, #112]
 6621 021c FB68     		ldr	r3, [r7, #12]
 6622 021e 1344     		add	r3, r3, r2
 6623 0220 3B67     		str	r3, [r7, #112]
 904:STM32F10x_Speex_Lib/libspeex/smallft.c ****       t4+=ido;
 6624              		.loc 2 904 0 discriminator 3
 6625 0222 FA6E     		ldr	r2, [r7, #108]
 6626 0224 FB68     		ldr	r3, [r7, #12]
 6627 0226 1344     		add	r3, r3, r2
 6628 0228 FB66     		str	r3, [r7, #108]
 905:STM32F10x_Speex_Lib/libspeex/smallft.c ****       t6+=t10;
 6629              		.loc 2 905 0 discriminator 3
 6630 022a 7A6E     		ldr	r2, [r7, #100]
 6631 022c FB6B     		ldr	r3, [r7, #60]
 6632 022e 1344     		add	r3, r3, r2
 6633 0230 7B66     		str	r3, [r7, #100]
 900:STM32F10x_Speex_Lib/libspeex/smallft.c ****       ch[t3]=cc[t6-1]+cc[t6-1];
 6634              		.loc 2 900 0 discriminator 3
 6635 0232 D7F88830 		ldr	r3, [r7, #136]
 6636 0236 0133     		adds	r3, r3, #1
 6637 0238 C7F88830 		str	r3, [r7, #136]
 6638              	.L256:
 900:STM32F10x_Speex_Lib/libspeex/smallft.c ****       ch[t3]=cc[t6-1]+cc[t6-1];
ARM GAS  /var/folders/kh/x4vltyy52lbg7p4pcyglc5080000gp/T//ccKDo44O.s 			page 137


 6639              		.loc 2 900 0 is_stmt 0 discriminator 1
 6640 023c D7F88820 		ldr	r2, [r7, #136]
 6641 0240 7B68     		ldr	r3, [r7, #4]
 6642 0242 9A42     		cmp	r2, r3
 6643 0244 C4DB     		blt	.L257
 906:STM32F10x_Speex_Lib/libspeex/smallft.c ****     }
 907:STM32F10x_Speex_Lib/libspeex/smallft.c ****     t5+=t7;
 6644              		.loc 2 907 0 is_stmt 1 discriminator 2
 6645 0246 BA6E     		ldr	r2, [r7, #104]
 6646 0248 3B6E     		ldr	r3, [r7, #96]
 6647 024a 1344     		add	r3, r3, r2
 6648 024c BB66     		str	r3, [r7, #104]
 894:STM32F10x_Speex_Lib/libspeex/smallft.c ****     t1+=t0;
 6649              		.loc 2 894 0 discriminator 2
 6650 024e D7F88C30 		ldr	r3, [r7, #140]
 6651 0252 0133     		adds	r3, r3, #1
 6652 0254 C7F88C30 		str	r3, [r7, #140]
 6653              	.L255:
 894:STM32F10x_Speex_Lib/libspeex/smallft.c ****     t1+=t0;
 6654              		.loc 2 894 0 is_stmt 0 discriminator 1
 6655 0258 D7F88C20 		ldr	r2, [r7, #140]
 6656 025c 3B6A     		ldr	r3, [r7, #32]
 6657 025e 9A42     		cmp	r2, r3
 6658 0260 A4DB     		blt	.L258
 908:STM32F10x_Speex_Lib/libspeex/smallft.c ****   }
 909:STM32F10x_Speex_Lib/libspeex/smallft.c **** 
 910:STM32F10x_Speex_Lib/libspeex/smallft.c ****   if (ido == 1)goto L116;
 6659              		.loc 2 910 0 is_stmt 1
 6660 0262 FB68     		ldr	r3, [r7, #12]
 6661 0264 012B     		cmp	r3, #1
 6662 0266 00F0B681 		beq	.L334
 911:STM32F10x_Speex_Lib/libspeex/smallft.c ****   if(nbd<l1)goto L112;
 6663              		.loc 2 911 0
 6664 026a BA6A     		ldr	r2, [r7, #40]
 6665 026c 7B68     		ldr	r3, [r7, #4]
 6666 026e 9A42     		cmp	r2, r3
 6667 0270 C0F2D680 		blt	.L335
 912:STM32F10x_Speex_Lib/libspeex/smallft.c **** 
 913:STM32F10x_Speex_Lib/libspeex/smallft.c ****   t1=0;
 6668              		.loc 2 913 0
 6669 0274 0023     		movs	r3, #0
 6670 0276 BB67     		str	r3, [r7, #120]
 914:STM32F10x_Speex_Lib/libspeex/smallft.c ****   t2=ipp2*t0;
 6671              		.loc 2 914 0
 6672 0278 7B6A     		ldr	r3, [r7, #36]
 6673 027a BA6B     		ldr	r2, [r7, #56]
 6674 027c 02FB03F3 		mul	r3, r2, r3
 6675 0280 7B67     		str	r3, [r7, #116]
 915:STM32F10x_Speex_Lib/libspeex/smallft.c ****   t7=0;
 6676              		.loc 2 915 0
 6677 0282 0023     		movs	r3, #0
 6678 0284 3B66     		str	r3, [r7, #96]
 916:STM32F10x_Speex_Lib/libspeex/smallft.c ****   for(j=1;j<ipph;j++){
 6679              		.loc 2 916 0
 6680 0286 0123     		movs	r3, #1
 6681 0288 C7F88C30 		str	r3, [r7, #140]
 6682 028c C1E0     		b	.L263
ARM GAS  /var/folders/kh/x4vltyy52lbg7p4pcyglc5080000gp/T//ccKDo44O.s 			page 138


 6683              	.L268:
 917:STM32F10x_Speex_Lib/libspeex/smallft.c ****     t1+=t0;
 6684              		.loc 2 917 0
 6685 028e BA6F     		ldr	r2, [r7, #120]
 6686 0290 BB6B     		ldr	r3, [r7, #56]
 6687 0292 1344     		add	r3, r3, r2
 6688 0294 BB67     		str	r3, [r7, #120]
 918:STM32F10x_Speex_Lib/libspeex/smallft.c ****     t2-=t0;
 6689              		.loc 2 918 0
 6690 0296 7A6F     		ldr	r2, [r7, #116]
 6691 0298 BB6B     		ldr	r3, [r7, #56]
 6692 029a D31A     		subs	r3, r2, r3
 6693 029c 7B67     		str	r3, [r7, #116]
 919:STM32F10x_Speex_Lib/libspeex/smallft.c ****     t3=t1;
 6694              		.loc 2 919 0
 6695 029e BB6F     		ldr	r3, [r7, #120]
 6696 02a0 3B67     		str	r3, [r7, #112]
 920:STM32F10x_Speex_Lib/libspeex/smallft.c ****     t4=t2;
 6697              		.loc 2 920 0
 6698 02a2 7B6F     		ldr	r3, [r7, #116]
 6699 02a4 FB66     		str	r3, [r7, #108]
 921:STM32F10x_Speex_Lib/libspeex/smallft.c **** 
 922:STM32F10x_Speex_Lib/libspeex/smallft.c ****     t7+=(ido<<1);
 6700              		.loc 2 922 0
 6701 02a6 FB68     		ldr	r3, [r7, #12]
 6702 02a8 5B00     		lsls	r3, r3, #1
 6703 02aa 3A6E     		ldr	r2, [r7, #96]
 6704 02ac 1344     		add	r3, r3, r2
 6705 02ae 3B66     		str	r3, [r7, #96]
 923:STM32F10x_Speex_Lib/libspeex/smallft.c ****     t8=t7;
 6706              		.loc 2 923 0
 6707 02b0 3B6E     		ldr	r3, [r7, #96]
 6708 02b2 FB65     		str	r3, [r7, #92]
 924:STM32F10x_Speex_Lib/libspeex/smallft.c ****     for(k=0;k<l1;k++){
 6709              		.loc 2 924 0
 6710 02b4 0023     		movs	r3, #0
 6711 02b6 C7F88830 		str	r3, [r7, #136]
 6712 02ba 9FE0     		b	.L264
 6713              	.L267:
 925:STM32F10x_Speex_Lib/libspeex/smallft.c ****       t5=t3;
 6714              		.loc 2 925 0
 6715 02bc 3B6F     		ldr	r3, [r7, #112]
 6716 02be BB66     		str	r3, [r7, #104]
 926:STM32F10x_Speex_Lib/libspeex/smallft.c ****       t6=t4;
 6717              		.loc 2 926 0
 6718 02c0 FB6E     		ldr	r3, [r7, #108]
 6719 02c2 7B66     		str	r3, [r7, #100]
 927:STM32F10x_Speex_Lib/libspeex/smallft.c ****       t9=t8;
 6720              		.loc 2 927 0
 6721 02c4 FB6D     		ldr	r3, [r7, #92]
 6722 02c6 BB65     		str	r3, [r7, #88]
 928:STM32F10x_Speex_Lib/libspeex/smallft.c ****       t11=t8;
 6723              		.loc 2 928 0
 6724 02c8 FB6D     		ldr	r3, [r7, #92]
 6725 02ca 7B65     		str	r3, [r7, #84]
 929:STM32F10x_Speex_Lib/libspeex/smallft.c ****       for(i=2;i<ido;i+=2){
 6726              		.loc 2 929 0
ARM GAS  /var/folders/kh/x4vltyy52lbg7p4pcyglc5080000gp/T//ccKDo44O.s 			page 139


 6727 02cc 0223     		movs	r3, #2
 6728 02ce C7F89030 		str	r3, [r7, #144]
 6729 02d2 7CE0     		b	.L265
 6730              	.L341:
 6731              		.align	2
 6732              	.L340:
 6733 02d4 00000000 		.word	tpi.6090
 6734              	.L266:
 930:STM32F10x_Speex_Lib/libspeex/smallft.c ****         t5+=2;
 6735              		.loc 2 930 0 discriminator 3
 6736 02d8 BB6E     		ldr	r3, [r7, #104]
 6737 02da 0233     		adds	r3, r3, #2
 6738 02dc BB66     		str	r3, [r7, #104]
 931:STM32F10x_Speex_Lib/libspeex/smallft.c ****         t6+=2;
 6739              		.loc 2 931 0 discriminator 3
 6740 02de 7B6E     		ldr	r3, [r7, #100]
 6741 02e0 0233     		adds	r3, r3, #2
 6742 02e2 7B66     		str	r3, [r7, #100]
 932:STM32F10x_Speex_Lib/libspeex/smallft.c ****         t9+=2;
 6743              		.loc 2 932 0 discriminator 3
 6744 02e4 BB6D     		ldr	r3, [r7, #88]
 6745 02e6 0233     		adds	r3, r3, #2
 6746 02e8 BB65     		str	r3, [r7, #88]
 933:STM32F10x_Speex_Lib/libspeex/smallft.c ****         t11-=2;
 6747              		.loc 2 933 0 discriminator 3
 6748 02ea 7B6D     		ldr	r3, [r7, #84]
 6749 02ec 023B     		subs	r3, r3, #2
 6750 02ee 7B65     		str	r3, [r7, #84]
 934:STM32F10x_Speex_Lib/libspeex/smallft.c ****         ch[t5-1]=cc[t9-1]+cc[t11-1];
 6751              		.loc 2 934 0 discriminator 3
 6752 02f0 BB6E     		ldr	r3, [r7, #104]
 6753 02f2 03F18043 		add	r3, r3, #1073741824
 6754 02f6 013B     		subs	r3, r3, #1
 6755 02f8 9B00     		lsls	r3, r3, #2
 6756 02fa D7F8B420 		ldr	r2, [r7, #180]
 6757 02fe D418     		adds	r4, r2, r3
 6758 0300 BB6D     		ldr	r3, [r7, #88]
 6759 0302 03F18043 		add	r3, r3, #1073741824
 6760 0306 013B     		subs	r3, r3, #1
 6761 0308 9B00     		lsls	r3, r3, #2
 6762 030a D7F8A820 		ldr	r2, [r7, #168]
 6763 030e 1344     		add	r3, r3, r2
 6764 0310 1868     		ldr	r0, [r3]	@ float
 6765 0312 7B6D     		ldr	r3, [r7, #84]
 6766 0314 03F18043 		add	r3, r3, #1073741824
 6767 0318 013B     		subs	r3, r3, #1
 6768 031a 9B00     		lsls	r3, r3, #2
 6769 031c D7F8A820 		ldr	r2, [r7, #168]
 6770 0320 1344     		add	r3, r3, r2
 6771 0322 1B68     		ldr	r3, [r3]	@ float
 6772 0324 1946     		mov	r1, r3
 6773 0326 FFF7FEFF 		bl	__aeabi_fadd
 6774 032a 0346     		mov	r3, r0
 6775 032c 2360     		str	r3, [r4]	@ float
 935:STM32F10x_Speex_Lib/libspeex/smallft.c ****         ch[t6-1]=cc[t9-1]-cc[t11-1];
 6776              		.loc 2 935 0 discriminator 3
 6777 032e 7B6E     		ldr	r3, [r7, #100]
ARM GAS  /var/folders/kh/x4vltyy52lbg7p4pcyglc5080000gp/T//ccKDo44O.s 			page 140


 6778 0330 03F18043 		add	r3, r3, #1073741824
 6779 0334 013B     		subs	r3, r3, #1
 6780 0336 9B00     		lsls	r3, r3, #2
 6781 0338 D7F8B420 		ldr	r2, [r7, #180]
 6782 033c D418     		adds	r4, r2, r3
 6783 033e BB6D     		ldr	r3, [r7, #88]
 6784 0340 03F18043 		add	r3, r3, #1073741824
 6785 0344 013B     		subs	r3, r3, #1
 6786 0346 9B00     		lsls	r3, r3, #2
 6787 0348 D7F8A820 		ldr	r2, [r7, #168]
 6788 034c 1344     		add	r3, r3, r2
 6789 034e 1868     		ldr	r0, [r3]	@ float
 6790 0350 7B6D     		ldr	r3, [r7, #84]
 6791 0352 03F18043 		add	r3, r3, #1073741824
 6792 0356 013B     		subs	r3, r3, #1
 6793 0358 9B00     		lsls	r3, r3, #2
 6794 035a D7F8A820 		ldr	r2, [r7, #168]
 6795 035e 1344     		add	r3, r3, r2
 6796 0360 1B68     		ldr	r3, [r3]	@ float
 6797 0362 1946     		mov	r1, r3
 6798 0364 FFF7FEFF 		bl	__aeabi_fsub
 6799 0368 0346     		mov	r3, r0
 6800 036a 2360     		str	r3, [r4]	@ float
 936:STM32F10x_Speex_Lib/libspeex/smallft.c ****         ch[t5]=cc[t9]-cc[t11];
 6801              		.loc 2 936 0 discriminator 3
 6802 036c BB6E     		ldr	r3, [r7, #104]
 6803 036e 9B00     		lsls	r3, r3, #2
 6804 0370 D7F8B420 		ldr	r2, [r7, #180]
 6805 0374 D418     		adds	r4, r2, r3
 6806 0376 BB6D     		ldr	r3, [r7, #88]
 6807 0378 9B00     		lsls	r3, r3, #2
 6808 037a D7F8A820 		ldr	r2, [r7, #168]
 6809 037e 1344     		add	r3, r3, r2
 6810 0380 1868     		ldr	r0, [r3]	@ float
 6811 0382 7B6D     		ldr	r3, [r7, #84]
 6812 0384 9B00     		lsls	r3, r3, #2
 6813 0386 D7F8A820 		ldr	r2, [r7, #168]
 6814 038a 1344     		add	r3, r3, r2
 6815 038c 1B68     		ldr	r3, [r3]	@ float
 6816 038e 1946     		mov	r1, r3
 6817 0390 FFF7FEFF 		bl	__aeabi_fsub
 6818 0394 0346     		mov	r3, r0
 6819 0396 2360     		str	r3, [r4]	@ float
 937:STM32F10x_Speex_Lib/libspeex/smallft.c ****         ch[t6]=cc[t9]+cc[t11];
 6820              		.loc 2 937 0 discriminator 3
 6821 0398 7B6E     		ldr	r3, [r7, #100]
 6822 039a 9B00     		lsls	r3, r3, #2
 6823 039c D7F8B420 		ldr	r2, [r7, #180]
 6824 03a0 D418     		adds	r4, r2, r3
 6825 03a2 BB6D     		ldr	r3, [r7, #88]
 6826 03a4 9B00     		lsls	r3, r3, #2
 6827 03a6 D7F8A820 		ldr	r2, [r7, #168]
 6828 03aa 1344     		add	r3, r3, r2
 6829 03ac 1868     		ldr	r0, [r3]	@ float
 6830 03ae 7B6D     		ldr	r3, [r7, #84]
 6831 03b0 9B00     		lsls	r3, r3, #2
 6832 03b2 D7F8A820 		ldr	r2, [r7, #168]
ARM GAS  /var/folders/kh/x4vltyy52lbg7p4pcyglc5080000gp/T//ccKDo44O.s 			page 141


 6833 03b6 1344     		add	r3, r3, r2
 6834 03b8 1B68     		ldr	r3, [r3]	@ float
 6835 03ba 1946     		mov	r1, r3
 6836 03bc FFF7FEFF 		bl	__aeabi_fadd
 6837 03c0 0346     		mov	r3, r0
 6838 03c2 2360     		str	r3, [r4]	@ float
 929:STM32F10x_Speex_Lib/libspeex/smallft.c ****         t5+=2;
 6839              		.loc 2 929 0 discriminator 3
 6840 03c4 D7F89030 		ldr	r3, [r7, #144]
 6841 03c8 0233     		adds	r3, r3, #2
 6842 03ca C7F89030 		str	r3, [r7, #144]
 6843              	.L265:
 929:STM32F10x_Speex_Lib/libspeex/smallft.c ****         t5+=2;
 6844              		.loc 2 929 0 is_stmt 0 discriminator 1
 6845 03ce D7F89020 		ldr	r2, [r7, #144]
 6846 03d2 FB68     		ldr	r3, [r7, #12]
 6847 03d4 9A42     		cmp	r2, r3
 6848 03d6 FFF67FAF 		blt	.L266
 938:STM32F10x_Speex_Lib/libspeex/smallft.c ****       }
 939:STM32F10x_Speex_Lib/libspeex/smallft.c ****       t3+=ido;
 6849              		.loc 2 939 0 is_stmt 1 discriminator 2
 6850 03da 3A6F     		ldr	r2, [r7, #112]
 6851 03dc FB68     		ldr	r3, [r7, #12]
 6852 03de 1344     		add	r3, r3, r2
 6853 03e0 3B67     		str	r3, [r7, #112]
 940:STM32F10x_Speex_Lib/libspeex/smallft.c ****       t4+=ido;
 6854              		.loc 2 940 0 discriminator 2
 6855 03e2 FA6E     		ldr	r2, [r7, #108]
 6856 03e4 FB68     		ldr	r3, [r7, #12]
 6857 03e6 1344     		add	r3, r3, r2
 6858 03e8 FB66     		str	r3, [r7, #108]
 941:STM32F10x_Speex_Lib/libspeex/smallft.c ****       t8+=t10;
 6859              		.loc 2 941 0 discriminator 2
 6860 03ea FA6D     		ldr	r2, [r7, #92]
 6861 03ec FB6B     		ldr	r3, [r7, #60]
 6862 03ee 1344     		add	r3, r3, r2
 6863 03f0 FB65     		str	r3, [r7, #92]
 924:STM32F10x_Speex_Lib/libspeex/smallft.c ****       t5=t3;
 6864              		.loc 2 924 0 discriminator 2
 6865 03f2 D7F88830 		ldr	r3, [r7, #136]
 6866 03f6 0133     		adds	r3, r3, #1
 6867 03f8 C7F88830 		str	r3, [r7, #136]
 6868              	.L264:
 924:STM32F10x_Speex_Lib/libspeex/smallft.c ****       t5=t3;
 6869              		.loc 2 924 0 is_stmt 0 discriminator 1
 6870 03fc D7F88820 		ldr	r2, [r7, #136]
 6871 0400 7B68     		ldr	r3, [r7, #4]
 6872 0402 9A42     		cmp	r2, r3
 6873 0404 FFF65AAF 		blt	.L267
 916:STM32F10x_Speex_Lib/libspeex/smallft.c ****     t1+=t0;
 6874              		.loc 2 916 0 is_stmt 1 discriminator 2
 6875 0408 D7F88C30 		ldr	r3, [r7, #140]
 6876 040c 0133     		adds	r3, r3, #1
 6877 040e C7F88C30 		str	r3, [r7, #140]
 6878              	.L263:
 916:STM32F10x_Speex_Lib/libspeex/smallft.c ****     t1+=t0;
 6879              		.loc 2 916 0 is_stmt 0 discriminator 1
ARM GAS  /var/folders/kh/x4vltyy52lbg7p4pcyglc5080000gp/T//ccKDo44O.s 			page 142


 6880 0412 D7F88C20 		ldr	r2, [r7, #140]
 6881 0416 3B6A     		ldr	r3, [r7, #32]
 6882 0418 9A42     		cmp	r2, r3
 6883 041a FFF638AF 		blt	.L268
 942:STM32F10x_Speex_Lib/libspeex/smallft.c ****     }
 943:STM32F10x_Speex_Lib/libspeex/smallft.c ****   }
 944:STM32F10x_Speex_Lib/libspeex/smallft.c ****   goto L116;
 6884              		.loc 2 944 0 is_stmt 1
 6885 041e DBE0     		b	.L260
 6886              	.L335:
 911:STM32F10x_Speex_Lib/libspeex/smallft.c **** 
 6887              		.loc 2 911 0
 6888 0420 00BF     		nop
 6889              	.L262:
 945:STM32F10x_Speex_Lib/libspeex/smallft.c **** 
 946:STM32F10x_Speex_Lib/libspeex/smallft.c ****  L112:
 947:STM32F10x_Speex_Lib/libspeex/smallft.c ****   t1=0;
 6890              		.loc 2 947 0
 6891 0422 0023     		movs	r3, #0
 6892 0424 BB67     		str	r3, [r7, #120]
 948:STM32F10x_Speex_Lib/libspeex/smallft.c ****   t2=ipp2*t0;
 6893              		.loc 2 948 0
 6894 0426 7B6A     		ldr	r3, [r7, #36]
 6895 0428 BA6B     		ldr	r2, [r7, #56]
 6896 042a 02FB03F3 		mul	r3, r2, r3
 6897 042e 7B67     		str	r3, [r7, #116]
 949:STM32F10x_Speex_Lib/libspeex/smallft.c ****   t7=0;
 6898              		.loc 2 949 0
 6899 0430 0023     		movs	r3, #0
 6900 0432 3B66     		str	r3, [r7, #96]
 950:STM32F10x_Speex_Lib/libspeex/smallft.c ****   for(j=1;j<ipph;j++){
 6901              		.loc 2 950 0
 6902 0434 0123     		movs	r3, #1
 6903 0436 C7F88C30 		str	r3, [r7, #140]
 6904 043a C5E0     		b	.L269
 6905              	.L274:
 951:STM32F10x_Speex_Lib/libspeex/smallft.c ****     t1+=t0;
 6906              		.loc 2 951 0
 6907 043c BA6F     		ldr	r2, [r7, #120]
 6908 043e BB6B     		ldr	r3, [r7, #56]
 6909 0440 1344     		add	r3, r3, r2
 6910 0442 BB67     		str	r3, [r7, #120]
 952:STM32F10x_Speex_Lib/libspeex/smallft.c ****     t2-=t0;
 6911              		.loc 2 952 0
 6912 0444 7A6F     		ldr	r2, [r7, #116]
 6913 0446 BB6B     		ldr	r3, [r7, #56]
 6914 0448 D31A     		subs	r3, r2, r3
 6915 044a 7B67     		str	r3, [r7, #116]
 953:STM32F10x_Speex_Lib/libspeex/smallft.c ****     t3=t1;
 6916              		.loc 2 953 0
 6917 044c BB6F     		ldr	r3, [r7, #120]
 6918 044e 3B67     		str	r3, [r7, #112]
 954:STM32F10x_Speex_Lib/libspeex/smallft.c ****     t4=t2;
 6919              		.loc 2 954 0
 6920 0450 7B6F     		ldr	r3, [r7, #116]
 6921 0452 FB66     		str	r3, [r7, #108]
 955:STM32F10x_Speex_Lib/libspeex/smallft.c ****     t7+=(ido<<1);
ARM GAS  /var/folders/kh/x4vltyy52lbg7p4pcyglc5080000gp/T//ccKDo44O.s 			page 143


 6922              		.loc 2 955 0
 6923 0454 FB68     		ldr	r3, [r7, #12]
 6924 0456 5B00     		lsls	r3, r3, #1
 6925 0458 3A6E     		ldr	r2, [r7, #96]
 6926 045a 1344     		add	r3, r3, r2
 6927 045c 3B66     		str	r3, [r7, #96]
 956:STM32F10x_Speex_Lib/libspeex/smallft.c ****     t8=t7;
 6928              		.loc 2 956 0
 6929 045e 3B6E     		ldr	r3, [r7, #96]
 6930 0460 FB65     		str	r3, [r7, #92]
 957:STM32F10x_Speex_Lib/libspeex/smallft.c ****     t9=t7;
 6931              		.loc 2 957 0
 6932 0462 3B6E     		ldr	r3, [r7, #96]
 6933 0464 BB65     		str	r3, [r7, #88]
 958:STM32F10x_Speex_Lib/libspeex/smallft.c ****     for(i=2;i<ido;i+=2){
 6934              		.loc 2 958 0
 6935 0466 0223     		movs	r3, #2
 6936 0468 C7F89030 		str	r3, [r7, #144]
 6937 046c A1E0     		b	.L270
 6938              	.L273:
 959:STM32F10x_Speex_Lib/libspeex/smallft.c ****       t3+=2;
 6939              		.loc 2 959 0
 6940 046e 3B6F     		ldr	r3, [r7, #112]
 6941 0470 0233     		adds	r3, r3, #2
 6942 0472 3B67     		str	r3, [r7, #112]
 960:STM32F10x_Speex_Lib/libspeex/smallft.c ****       t4+=2;
 6943              		.loc 2 960 0
 6944 0474 FB6E     		ldr	r3, [r7, #108]
 6945 0476 0233     		adds	r3, r3, #2
 6946 0478 FB66     		str	r3, [r7, #108]
 961:STM32F10x_Speex_Lib/libspeex/smallft.c ****       t8+=2;
 6947              		.loc 2 961 0
 6948 047a FB6D     		ldr	r3, [r7, #92]
 6949 047c 0233     		adds	r3, r3, #2
 6950 047e FB65     		str	r3, [r7, #92]
 962:STM32F10x_Speex_Lib/libspeex/smallft.c ****       t9-=2;
 6951              		.loc 2 962 0
 6952 0480 BB6D     		ldr	r3, [r7, #88]
 6953 0482 023B     		subs	r3, r3, #2
 6954 0484 BB65     		str	r3, [r7, #88]
 963:STM32F10x_Speex_Lib/libspeex/smallft.c ****       t5=t3;
 6955              		.loc 2 963 0
 6956 0486 3B6F     		ldr	r3, [r7, #112]
 6957 0488 BB66     		str	r3, [r7, #104]
 964:STM32F10x_Speex_Lib/libspeex/smallft.c ****       t6=t4;
 6958              		.loc 2 964 0
 6959 048a FB6E     		ldr	r3, [r7, #108]
 6960 048c 7B66     		str	r3, [r7, #100]
 965:STM32F10x_Speex_Lib/libspeex/smallft.c ****       t11=t8;
 6961              		.loc 2 965 0
 6962 048e FB6D     		ldr	r3, [r7, #92]
 6963 0490 7B65     		str	r3, [r7, #84]
 966:STM32F10x_Speex_Lib/libspeex/smallft.c ****       t12=t9;
 6964              		.loc 2 966 0
 6965 0492 BB6D     		ldr	r3, [r7, #88]
 6966 0494 3B65     		str	r3, [r7, #80]
 967:STM32F10x_Speex_Lib/libspeex/smallft.c ****       for(k=0;k<l1;k++){
ARM GAS  /var/folders/kh/x4vltyy52lbg7p4pcyglc5080000gp/T//ccKDo44O.s 			page 144


 6967              		.loc 2 967 0
 6968 0496 0023     		movs	r3, #0
 6969 0498 C7F88830 		str	r3, [r7, #136]
 6970 049c 7EE0     		b	.L271
 6971              	.L272:
 968:STM32F10x_Speex_Lib/libspeex/smallft.c ****         ch[t5-1]=cc[t11-1]+cc[t12-1];
 6972              		.loc 2 968 0 discriminator 3
 6973 049e BB6E     		ldr	r3, [r7, #104]
 6974 04a0 03F18043 		add	r3, r3, #1073741824
 6975 04a4 013B     		subs	r3, r3, #1
 6976 04a6 9B00     		lsls	r3, r3, #2
 6977 04a8 D7F8B420 		ldr	r2, [r7, #180]
 6978 04ac D418     		adds	r4, r2, r3
 6979 04ae 7B6D     		ldr	r3, [r7, #84]
 6980 04b0 03F18043 		add	r3, r3, #1073741824
 6981 04b4 013B     		subs	r3, r3, #1
 6982 04b6 9B00     		lsls	r3, r3, #2
 6983 04b8 D7F8A820 		ldr	r2, [r7, #168]
 6984 04bc 1344     		add	r3, r3, r2
 6985 04be 1868     		ldr	r0, [r3]	@ float
 6986 04c0 3B6D     		ldr	r3, [r7, #80]
 6987 04c2 03F18043 		add	r3, r3, #1073741824
 6988 04c6 013B     		subs	r3, r3, #1
 6989 04c8 9B00     		lsls	r3, r3, #2
 6990 04ca D7F8A820 		ldr	r2, [r7, #168]
 6991 04ce 1344     		add	r3, r3, r2
 6992 04d0 1B68     		ldr	r3, [r3]	@ float
 6993 04d2 1946     		mov	r1, r3
 6994 04d4 FFF7FEFF 		bl	__aeabi_fadd
 6995 04d8 0346     		mov	r3, r0
 6996 04da 2360     		str	r3, [r4]	@ float
 969:STM32F10x_Speex_Lib/libspeex/smallft.c ****         ch[t6-1]=cc[t11-1]-cc[t12-1];
 6997              		.loc 2 969 0 discriminator 3
 6998 04dc 7B6E     		ldr	r3, [r7, #100]
 6999 04de 03F18043 		add	r3, r3, #1073741824
 7000 04e2 013B     		subs	r3, r3, #1
 7001 04e4 9B00     		lsls	r3, r3, #2
 7002 04e6 D7F8B420 		ldr	r2, [r7, #180]
 7003 04ea D418     		adds	r4, r2, r3
 7004 04ec 7B6D     		ldr	r3, [r7, #84]
 7005 04ee 03F18043 		add	r3, r3, #1073741824
 7006 04f2 013B     		subs	r3, r3, #1
 7007 04f4 9B00     		lsls	r3, r3, #2
 7008 04f6 D7F8A820 		ldr	r2, [r7, #168]
 7009 04fa 1344     		add	r3, r3, r2
 7010 04fc 1868     		ldr	r0, [r3]	@ float
 7011 04fe 3B6D     		ldr	r3, [r7, #80]
 7012 0500 03F18043 		add	r3, r3, #1073741824
 7013 0504 013B     		subs	r3, r3, #1
 7014 0506 9B00     		lsls	r3, r3, #2
 7015 0508 D7F8A820 		ldr	r2, [r7, #168]
 7016 050c 1344     		add	r3, r3, r2
 7017 050e 1B68     		ldr	r3, [r3]	@ float
 7018 0510 1946     		mov	r1, r3
 7019 0512 FFF7FEFF 		bl	__aeabi_fsub
 7020 0516 0346     		mov	r3, r0
 7021 0518 2360     		str	r3, [r4]	@ float
ARM GAS  /var/folders/kh/x4vltyy52lbg7p4pcyglc5080000gp/T//ccKDo44O.s 			page 145


 970:STM32F10x_Speex_Lib/libspeex/smallft.c ****         ch[t5]=cc[t11]-cc[t12];
 7022              		.loc 2 970 0 discriminator 3
 7023 051a BB6E     		ldr	r3, [r7, #104]
 7024 051c 9B00     		lsls	r3, r3, #2
 7025 051e D7F8B420 		ldr	r2, [r7, #180]
 7026 0522 D418     		adds	r4, r2, r3
 7027 0524 7B6D     		ldr	r3, [r7, #84]
 7028 0526 9B00     		lsls	r3, r3, #2
 7029 0528 D7F8A820 		ldr	r2, [r7, #168]
 7030 052c 1344     		add	r3, r3, r2
 7031 052e 1868     		ldr	r0, [r3]	@ float
 7032 0530 3B6D     		ldr	r3, [r7, #80]
 7033 0532 9B00     		lsls	r3, r3, #2
 7034 0534 D7F8A820 		ldr	r2, [r7, #168]
 7035 0538 1344     		add	r3, r3, r2
 7036 053a 1B68     		ldr	r3, [r3]	@ float
 7037 053c 1946     		mov	r1, r3
 7038 053e FFF7FEFF 		bl	__aeabi_fsub
 7039 0542 0346     		mov	r3, r0
 7040 0544 2360     		str	r3, [r4]	@ float
 971:STM32F10x_Speex_Lib/libspeex/smallft.c ****         ch[t6]=cc[t11]+cc[t12];
 7041              		.loc 2 971 0 discriminator 3
 7042 0546 7B6E     		ldr	r3, [r7, #100]
 7043 0548 9B00     		lsls	r3, r3, #2
 7044 054a D7F8B420 		ldr	r2, [r7, #180]
 7045 054e D418     		adds	r4, r2, r3
 7046 0550 7B6D     		ldr	r3, [r7, #84]
 7047 0552 9B00     		lsls	r3, r3, #2
 7048 0554 D7F8A820 		ldr	r2, [r7, #168]
 7049 0558 1344     		add	r3, r3, r2
 7050 055a 1868     		ldr	r0, [r3]	@ float
 7051 055c 3B6D     		ldr	r3, [r7, #80]
 7052 055e 9B00     		lsls	r3, r3, #2
 7053 0560 D7F8A820 		ldr	r2, [r7, #168]
 7054 0564 1344     		add	r3, r3, r2
 7055 0566 1B68     		ldr	r3, [r3]	@ float
 7056 0568 1946     		mov	r1, r3
 7057 056a FFF7FEFF 		bl	__aeabi_fadd
 7058 056e 0346     		mov	r3, r0
 7059 0570 2360     		str	r3, [r4]	@ float
 972:STM32F10x_Speex_Lib/libspeex/smallft.c ****         t5+=ido;
 7060              		.loc 2 972 0 discriminator 3
 7061 0572 BA6E     		ldr	r2, [r7, #104]
 7062 0574 FB68     		ldr	r3, [r7, #12]
 7063 0576 1344     		add	r3, r3, r2
 7064 0578 BB66     		str	r3, [r7, #104]
 973:STM32F10x_Speex_Lib/libspeex/smallft.c ****         t6+=ido;
 7065              		.loc 2 973 0 discriminator 3
 7066 057a 7A6E     		ldr	r2, [r7, #100]
 7067 057c FB68     		ldr	r3, [r7, #12]
 7068 057e 1344     		add	r3, r3, r2
 7069 0580 7B66     		str	r3, [r7, #100]
 974:STM32F10x_Speex_Lib/libspeex/smallft.c ****         t11+=t10;
 7070              		.loc 2 974 0 discriminator 3
 7071 0582 7A6D     		ldr	r2, [r7, #84]
 7072 0584 FB6B     		ldr	r3, [r7, #60]
 7073 0586 1344     		add	r3, r3, r2
ARM GAS  /var/folders/kh/x4vltyy52lbg7p4pcyglc5080000gp/T//ccKDo44O.s 			page 146


 7074 0588 7B65     		str	r3, [r7, #84]
 975:STM32F10x_Speex_Lib/libspeex/smallft.c ****         t12+=t10;
 7075              		.loc 2 975 0 discriminator 3
 7076 058a 3A6D     		ldr	r2, [r7, #80]
 7077 058c FB6B     		ldr	r3, [r7, #60]
 7078 058e 1344     		add	r3, r3, r2
 7079 0590 3B65     		str	r3, [r7, #80]
 967:STM32F10x_Speex_Lib/libspeex/smallft.c ****         ch[t5-1]=cc[t11-1]+cc[t12-1];
 7080              		.loc 2 967 0 discriminator 3
 7081 0592 D7F88830 		ldr	r3, [r7, #136]
 7082 0596 0133     		adds	r3, r3, #1
 7083 0598 C7F88830 		str	r3, [r7, #136]
 7084              	.L271:
 967:STM32F10x_Speex_Lib/libspeex/smallft.c ****         ch[t5-1]=cc[t11-1]+cc[t12-1];
 7085              		.loc 2 967 0 is_stmt 0 discriminator 1
 7086 059c D7F88820 		ldr	r2, [r7, #136]
 7087 05a0 7B68     		ldr	r3, [r7, #4]
 7088 05a2 9A42     		cmp	r2, r3
 7089 05a4 FFF67BAF 		blt	.L272
 958:STM32F10x_Speex_Lib/libspeex/smallft.c ****       t3+=2;
 7090              		.loc 2 958 0 is_stmt 1 discriminator 2
 7091 05a8 D7F89030 		ldr	r3, [r7, #144]
 7092 05ac 0233     		adds	r3, r3, #2
 7093 05ae C7F89030 		str	r3, [r7, #144]
 7094              	.L270:
 958:STM32F10x_Speex_Lib/libspeex/smallft.c ****       t3+=2;
 7095              		.loc 2 958 0 is_stmt 0 discriminator 1
 7096 05b2 D7F89020 		ldr	r2, [r7, #144]
 7097 05b6 FB68     		ldr	r3, [r7, #12]
 7098 05b8 9A42     		cmp	r2, r3
 7099 05ba FFF658AF 		blt	.L273
 950:STM32F10x_Speex_Lib/libspeex/smallft.c ****     t1+=t0;
 7100              		.loc 2 950 0 is_stmt 1 discriminator 2
 7101 05be D7F88C30 		ldr	r3, [r7, #140]
 7102 05c2 0133     		adds	r3, r3, #1
 7103 05c4 C7F88C30 		str	r3, [r7, #140]
 7104              	.L269:
 950:STM32F10x_Speex_Lib/libspeex/smallft.c ****     t1+=t0;
 7105              		.loc 2 950 0 is_stmt 0 discriminator 1
 7106 05c8 D7F88C20 		ldr	r2, [r7, #140]
 7107 05cc 3B6A     		ldr	r3, [r7, #32]
 7108 05ce 9A42     		cmp	r2, r3
 7109 05d0 FFF634AF 		blt	.L274
 7110 05d4 00E0     		b	.L260
 7111              	.L334:
 910:STM32F10x_Speex_Lib/libspeex/smallft.c ****   if(nbd<l1)goto L112;
 7112              		.loc 2 910 0 is_stmt 1
 7113 05d6 00BF     		nop
 7114              	.L260:
 976:STM32F10x_Speex_Lib/libspeex/smallft.c ****       }
 977:STM32F10x_Speex_Lib/libspeex/smallft.c ****     }
 978:STM32F10x_Speex_Lib/libspeex/smallft.c ****   }
 979:STM32F10x_Speex_Lib/libspeex/smallft.c **** 
 980:STM32F10x_Speex_Lib/libspeex/smallft.c **** L116:
 981:STM32F10x_Speex_Lib/libspeex/smallft.c ****   ar1=1.f;
 7115              		.loc 2 981 0
 7116 05d8 4FF07E53 		mov	r3, #1065353216
ARM GAS  /var/folders/kh/x4vltyy52lbg7p4pcyglc5080000gp/T//ccKDo44O.s 			page 147


 7117 05dc 7B64     		str	r3, [r7, #68]	@ float
 982:STM32F10x_Speex_Lib/libspeex/smallft.c ****   ai1=0.f;
 7118              		.loc 2 982 0
 7119 05de 4FF00003 		mov	r3, #0
 7120 05e2 FB64     		str	r3, [r7, #76]	@ float
 983:STM32F10x_Speex_Lib/libspeex/smallft.c ****   t1=0;
 7121              		.loc 2 983 0
 7122 05e4 0023     		movs	r3, #0
 7123 05e6 BB67     		str	r3, [r7, #120]
 984:STM32F10x_Speex_Lib/libspeex/smallft.c ****   t9=(t2=ipp2*idl1);
 7124              		.loc 2 984 0
 7125 05e8 7B6A     		ldr	r3, [r7, #36]
 7126 05ea 3A68     		ldr	r2, [r7]
 7127 05ec 02FB03F3 		mul	r3, r2, r3
 7128 05f0 7B67     		str	r3, [r7, #116]
 7129 05f2 7B6F     		ldr	r3, [r7, #116]
 7130 05f4 BB65     		str	r3, [r7, #88]
 985:STM32F10x_Speex_Lib/libspeex/smallft.c ****   t3=(ip-1)*idl1;
 7131              		.loc 2 985 0
 7132 05f6 BB68     		ldr	r3, [r7, #8]
 7133 05f8 013B     		subs	r3, r3, #1
 7134 05fa 3A68     		ldr	r2, [r7]
 7135 05fc 02FB03F3 		mul	r3, r2, r3
 7136 0600 3B67     		str	r3, [r7, #112]
 986:STM32F10x_Speex_Lib/libspeex/smallft.c ****   for(l=1;l<ipph;l++){
 7137              		.loc 2 986 0
 7138 0602 0123     		movs	r3, #1
 7139 0604 C7F88430 		str	r3, [r7, #132]
 7140 0608 20E1     		b	.L275
 7141              	.L282:
 987:STM32F10x_Speex_Lib/libspeex/smallft.c ****     t1+=idl1;
 7142              		.loc 2 987 0
 7143 060a BA6F     		ldr	r2, [r7, #120]
 7144 060c 3B68     		ldr	r3, [r7]
 7145 060e 1344     		add	r3, r3, r2
 7146 0610 BB67     		str	r3, [r7, #120]
 988:STM32F10x_Speex_Lib/libspeex/smallft.c ****     t2-=idl1;
 7147              		.loc 2 988 0
 7148 0612 7A6F     		ldr	r2, [r7, #116]
 7149 0614 3B68     		ldr	r3, [r7]
 7150 0616 D31A     		subs	r3, r2, r3
 7151 0618 7B67     		str	r3, [r7, #116]
 989:STM32F10x_Speex_Lib/libspeex/smallft.c **** 
 990:STM32F10x_Speex_Lib/libspeex/smallft.c ****     ar1h=dcp*ar1-dsp*ai1;
 7152              		.loc 2 990 0
 7153 061a 796C     		ldr	r1, [r7, #68]	@ float
 7154 061c 386B     		ldr	r0, [r7, #48]	@ float
 7155 061e FFF7FEFF 		bl	__aeabi_fmul
 7156 0622 0346     		mov	r3, r0
 7157 0624 1C46     		mov	r4, r3
 7158 0626 F96C     		ldr	r1, [r7, #76]	@ float
 7159 0628 F86A     		ldr	r0, [r7, #44]	@ float
 7160 062a FFF7FEFF 		bl	__aeabi_fmul
 7161 062e 0346     		mov	r3, r0
 7162 0630 1946     		mov	r1, r3
 7163 0632 2046     		mov	r0, r4
 7164 0634 FFF7FEFF 		bl	__aeabi_fsub
ARM GAS  /var/folders/kh/x4vltyy52lbg7p4pcyglc5080000gp/T//ccKDo44O.s 			page 148


 7165 0638 0346     		mov	r3, r0
 7166 063a FB61     		str	r3, [r7, #28]	@ float
 991:STM32F10x_Speex_Lib/libspeex/smallft.c ****     ai1=dcp*ai1+dsp*ar1;
 7167              		.loc 2 991 0
 7168 063c F96C     		ldr	r1, [r7, #76]	@ float
 7169 063e 386B     		ldr	r0, [r7, #48]	@ float
 7170 0640 FFF7FEFF 		bl	__aeabi_fmul
 7171 0644 0346     		mov	r3, r0
 7172 0646 1C46     		mov	r4, r3
 7173 0648 796C     		ldr	r1, [r7, #68]	@ float
 7174 064a F86A     		ldr	r0, [r7, #44]	@ float
 7175 064c FFF7FEFF 		bl	__aeabi_fmul
 7176 0650 0346     		mov	r3, r0
 7177 0652 1946     		mov	r1, r3
 7178 0654 2046     		mov	r0, r4
 7179 0656 FFF7FEFF 		bl	__aeabi_fadd
 7180 065a 0346     		mov	r3, r0
 7181 065c FB64     		str	r3, [r7, #76]	@ float
 992:STM32F10x_Speex_Lib/libspeex/smallft.c ****     ar1=ar1h;
 7182              		.loc 2 992 0
 7183 065e FB69     		ldr	r3, [r7, #28]	@ float
 7184 0660 7B64     		str	r3, [r7, #68]	@ float
 993:STM32F10x_Speex_Lib/libspeex/smallft.c ****     t4=t1;
 7185              		.loc 2 993 0
 7186 0662 BB6F     		ldr	r3, [r7, #120]
 7187 0664 FB66     		str	r3, [r7, #108]
 994:STM32F10x_Speex_Lib/libspeex/smallft.c ****     t5=t2;
 7188              		.loc 2 994 0
 7189 0666 7B6F     		ldr	r3, [r7, #116]
 7190 0668 BB66     		str	r3, [r7, #104]
 995:STM32F10x_Speex_Lib/libspeex/smallft.c ****     t6=0;
 7191              		.loc 2 995 0
 7192 066a 0023     		movs	r3, #0
 7193 066c 7B66     		str	r3, [r7, #100]
 996:STM32F10x_Speex_Lib/libspeex/smallft.c ****     t7=idl1;
 7194              		.loc 2 996 0
 7195 066e 3B68     		ldr	r3, [r7]
 7196 0670 3B66     		str	r3, [r7, #96]
 997:STM32F10x_Speex_Lib/libspeex/smallft.c ****     t8=t3;
 7197              		.loc 2 997 0
 7198 0672 3B6F     		ldr	r3, [r7, #112]
 7199 0674 FB65     		str	r3, [r7, #92]
 998:STM32F10x_Speex_Lib/libspeex/smallft.c ****     for(ik=0;ik<idl1;ik++){
 7200              		.loc 2 998 0
 7201 0676 0023     		movs	r3, #0
 7202 0678 C7F88030 		str	r3, [r7, #128]
 7203 067c 3BE0     		b	.L276
 7204              	.L277:
 999:STM32F10x_Speex_Lib/libspeex/smallft.c ****       c2[t4++]=ch2[t6++]+ar1*ch2[t7++];
 7205              		.loc 2 999 0 discriminator 3
 7206 067e FB6E     		ldr	r3, [r7, #108]
 7207 0680 5A1C     		adds	r2, r3, #1
 7208 0682 FA66     		str	r2, [r7, #108]
 7209 0684 9B00     		lsls	r3, r3, #2
 7210 0686 D7F8B020 		ldr	r2, [r7, #176]
 7211 068a D418     		adds	r4, r2, r3
 7212 068c 7B6E     		ldr	r3, [r7, #100]
ARM GAS  /var/folders/kh/x4vltyy52lbg7p4pcyglc5080000gp/T//ccKDo44O.s 			page 149


 7213 068e 5A1C     		adds	r2, r3, #1
 7214 0690 7A66     		str	r2, [r7, #100]
 7215 0692 9B00     		lsls	r3, r3, #2
 7216 0694 D7F8B820 		ldr	r2, [r7, #184]
 7217 0698 1344     		add	r3, r3, r2
 7218 069a 1D68     		ldr	r5, [r3]	@ float
 7219 069c 3B6E     		ldr	r3, [r7, #96]
 7220 069e 5A1C     		adds	r2, r3, #1
 7221 06a0 3A66     		str	r2, [r7, #96]
 7222 06a2 9B00     		lsls	r3, r3, #2
 7223 06a4 D7F8B820 		ldr	r2, [r7, #184]
 7224 06a8 1344     		add	r3, r3, r2
 7225 06aa 1B68     		ldr	r3, [r3]	@ float
 7226 06ac 796C     		ldr	r1, [r7, #68]	@ float
 7227 06ae 1846     		mov	r0, r3
 7228 06b0 FFF7FEFF 		bl	__aeabi_fmul
 7229 06b4 0346     		mov	r3, r0
 7230 06b6 1946     		mov	r1, r3
 7231 06b8 2846     		mov	r0, r5
 7232 06ba FFF7FEFF 		bl	__aeabi_fadd
 7233 06be 0346     		mov	r3, r0
 7234 06c0 2360     		str	r3, [r4]	@ float
1000:STM32F10x_Speex_Lib/libspeex/smallft.c ****       c2[t5++]=ai1*ch2[t8++];
 7235              		.loc 2 1000 0 discriminator 3
 7236 06c2 BB6E     		ldr	r3, [r7, #104]
 7237 06c4 5A1C     		adds	r2, r3, #1
 7238 06c6 BA66     		str	r2, [r7, #104]
 7239 06c8 9B00     		lsls	r3, r3, #2
 7240 06ca D7F8B020 		ldr	r2, [r7, #176]
 7241 06ce D418     		adds	r4, r2, r3
 7242 06d0 FB6D     		ldr	r3, [r7, #92]
 7243 06d2 5A1C     		adds	r2, r3, #1
 7244 06d4 FA65     		str	r2, [r7, #92]
 7245 06d6 9B00     		lsls	r3, r3, #2
 7246 06d8 D7F8B820 		ldr	r2, [r7, #184]
 7247 06dc 1344     		add	r3, r3, r2
 7248 06de 1B68     		ldr	r3, [r3]	@ float
 7249 06e0 F96C     		ldr	r1, [r7, #76]	@ float
 7250 06e2 1846     		mov	r0, r3
 7251 06e4 FFF7FEFF 		bl	__aeabi_fmul
 7252 06e8 0346     		mov	r3, r0
 7253 06ea 2360     		str	r3, [r4]	@ float
 998:STM32F10x_Speex_Lib/libspeex/smallft.c ****     for(ik=0;ik<idl1;ik++){
 7254              		.loc 2 998 0 discriminator 3
 7255 06ec D7F88030 		ldr	r3, [r7, #128]
 7256 06f0 0133     		adds	r3, r3, #1
 7257 06f2 C7F88030 		str	r3, [r7, #128]
 7258              	.L276:
 998:STM32F10x_Speex_Lib/libspeex/smallft.c ****     for(ik=0;ik<idl1;ik++){
 7259              		.loc 2 998 0 is_stmt 0 discriminator 1
 7260 06f6 D7F88020 		ldr	r2, [r7, #128]
 7261 06fa 3B68     		ldr	r3, [r7]
 7262 06fc 9A42     		cmp	r2, r3
 7263 06fe BEDB     		blt	.L277
1001:STM32F10x_Speex_Lib/libspeex/smallft.c ****     }
1002:STM32F10x_Speex_Lib/libspeex/smallft.c ****     dc2=ar1;
 7264              		.loc 2 1002 0 is_stmt 1
ARM GAS  /var/folders/kh/x4vltyy52lbg7p4pcyglc5080000gp/T//ccKDo44O.s 			page 150


 7265 0700 7B6C     		ldr	r3, [r7, #68]	@ float
 7266 0702 BB61     		str	r3, [r7, #24]	@ float
1003:STM32F10x_Speex_Lib/libspeex/smallft.c ****     ds2=ai1;
 7267              		.loc 2 1003 0
 7268 0704 FB6C     		ldr	r3, [r7, #76]	@ float
 7269 0706 7B61     		str	r3, [r7, #20]	@ float
1004:STM32F10x_Speex_Lib/libspeex/smallft.c ****     ar2=ar1;
 7270              		.loc 2 1004 0
 7271 0708 7B6C     		ldr	r3, [r7, #68]	@ float
 7272 070a 3B64     		str	r3, [r7, #64]	@ float
1005:STM32F10x_Speex_Lib/libspeex/smallft.c ****     ai2=ai1;
 7273              		.loc 2 1005 0
 7274 070c FB6C     		ldr	r3, [r7, #76]	@ float
 7275 070e BB64     		str	r3, [r7, #72]	@ float
1006:STM32F10x_Speex_Lib/libspeex/smallft.c **** 
1007:STM32F10x_Speex_Lib/libspeex/smallft.c ****     t6=idl1;
 7276              		.loc 2 1007 0
 7277 0710 3B68     		ldr	r3, [r7]
 7278 0712 7B66     		str	r3, [r7, #100]
1008:STM32F10x_Speex_Lib/libspeex/smallft.c ****     t7=t9-idl1;
 7279              		.loc 2 1008 0
 7280 0714 BA6D     		ldr	r2, [r7, #88]
 7281 0716 3B68     		ldr	r3, [r7]
 7282 0718 D31A     		subs	r3, r2, r3
 7283 071a 3B66     		str	r3, [r7, #96]
1009:STM32F10x_Speex_Lib/libspeex/smallft.c ****     for(j=2;j<ipph;j++){
 7284              		.loc 2 1009 0
 7285 071c 0223     		movs	r3, #2
 7286 071e C7F88C30 		str	r3, [r7, #140]
 7287 0722 88E0     		b	.L278
 7288              	.L281:
1010:STM32F10x_Speex_Lib/libspeex/smallft.c ****       t6+=idl1;
 7289              		.loc 2 1010 0
 7290 0724 7A6E     		ldr	r2, [r7, #100]
 7291 0726 3B68     		ldr	r3, [r7]
 7292 0728 1344     		add	r3, r3, r2
 7293 072a 7B66     		str	r3, [r7, #100]
1011:STM32F10x_Speex_Lib/libspeex/smallft.c ****       t7-=idl1;
 7294              		.loc 2 1011 0
 7295 072c 3A6E     		ldr	r2, [r7, #96]
 7296 072e 3B68     		ldr	r3, [r7]
 7297 0730 D31A     		subs	r3, r2, r3
 7298 0732 3B66     		str	r3, [r7, #96]
1012:STM32F10x_Speex_Lib/libspeex/smallft.c ****       ar2h=dc2*ar2-ds2*ai2;
 7299              		.loc 2 1012 0
 7300 0734 396C     		ldr	r1, [r7, #64]	@ float
 7301 0736 B869     		ldr	r0, [r7, #24]	@ float
 7302 0738 FFF7FEFF 		bl	__aeabi_fmul
 7303 073c 0346     		mov	r3, r0
 7304 073e 1C46     		mov	r4, r3
 7305 0740 B96C     		ldr	r1, [r7, #72]	@ float
 7306 0742 7869     		ldr	r0, [r7, #20]	@ float
 7307 0744 FFF7FEFF 		bl	__aeabi_fmul
 7308 0748 0346     		mov	r3, r0
 7309 074a 1946     		mov	r1, r3
 7310 074c 2046     		mov	r0, r4
 7311 074e FFF7FEFF 		bl	__aeabi_fsub
ARM GAS  /var/folders/kh/x4vltyy52lbg7p4pcyglc5080000gp/T//ccKDo44O.s 			page 151


 7312 0752 0346     		mov	r3, r0
 7313 0754 3B61     		str	r3, [r7, #16]	@ float
1013:STM32F10x_Speex_Lib/libspeex/smallft.c ****       ai2=dc2*ai2+ds2*ar2;
 7314              		.loc 2 1013 0
 7315 0756 B96C     		ldr	r1, [r7, #72]	@ float
 7316 0758 B869     		ldr	r0, [r7, #24]	@ float
 7317 075a FFF7FEFF 		bl	__aeabi_fmul
 7318 075e 0346     		mov	r3, r0
 7319 0760 1C46     		mov	r4, r3
 7320 0762 396C     		ldr	r1, [r7, #64]	@ float
 7321 0764 7869     		ldr	r0, [r7, #20]	@ float
 7322 0766 FFF7FEFF 		bl	__aeabi_fmul
 7323 076a 0346     		mov	r3, r0
 7324 076c 1946     		mov	r1, r3
 7325 076e 2046     		mov	r0, r4
 7326 0770 FFF7FEFF 		bl	__aeabi_fadd
 7327 0774 0346     		mov	r3, r0
 7328 0776 BB64     		str	r3, [r7, #72]	@ float
1014:STM32F10x_Speex_Lib/libspeex/smallft.c ****       ar2=ar2h;
 7329              		.loc 2 1014 0
 7330 0778 3B69     		ldr	r3, [r7, #16]	@ float
 7331 077a 3B64     		str	r3, [r7, #64]	@ float
1015:STM32F10x_Speex_Lib/libspeex/smallft.c ****       t4=t1;
 7332              		.loc 2 1015 0
 7333 077c BB6F     		ldr	r3, [r7, #120]
 7334 077e FB66     		str	r3, [r7, #108]
1016:STM32F10x_Speex_Lib/libspeex/smallft.c ****       t5=t2;
 7335              		.loc 2 1016 0
 7336 0780 7B6F     		ldr	r3, [r7, #116]
 7337 0782 BB66     		str	r3, [r7, #104]
1017:STM32F10x_Speex_Lib/libspeex/smallft.c ****       t11=t6;
 7338              		.loc 2 1017 0
 7339 0784 7B6E     		ldr	r3, [r7, #100]
 7340 0786 7B65     		str	r3, [r7, #84]
1018:STM32F10x_Speex_Lib/libspeex/smallft.c ****       t12=t7;
 7341              		.loc 2 1018 0
 7342 0788 3B6E     		ldr	r3, [r7, #96]
 7343 078a 3B65     		str	r3, [r7, #80]
1019:STM32F10x_Speex_Lib/libspeex/smallft.c ****       for(ik=0;ik<idl1;ik++){
 7344              		.loc 2 1019 0
 7345 078c 0023     		movs	r3, #0
 7346 078e C7F88030 		str	r3, [r7, #128]
 7347 0792 46E0     		b	.L279
 7348              	.L280:
1020:STM32F10x_Speex_Lib/libspeex/smallft.c ****         c2[t4++]+=ar2*ch2[t11++];
 7349              		.loc 2 1020 0 discriminator 3
 7350 0794 7B6D     		ldr	r3, [r7, #84]
 7351 0796 5A1C     		adds	r2, r3, #1
 7352 0798 7A65     		str	r2, [r7, #84]
 7353 079a 9B00     		lsls	r3, r3, #2
 7354 079c D7F8B820 		ldr	r2, [r7, #184]
 7355 07a0 1344     		add	r3, r3, r2
 7356 07a2 1B68     		ldr	r3, [r3]	@ float
 7357 07a4 396C     		ldr	r1, [r7, #64]	@ float
 7358 07a6 1846     		mov	r0, r3
 7359 07a8 FFF7FEFF 		bl	__aeabi_fmul
 7360 07ac 0346     		mov	r3, r0
ARM GAS  /var/folders/kh/x4vltyy52lbg7p4pcyglc5080000gp/T//ccKDo44O.s 			page 152


 7361 07ae 1846     		mov	r0, r3
 7362 07b0 FB6E     		ldr	r3, [r7, #108]
 7363 07b2 5A1C     		adds	r2, r3, #1
 7364 07b4 FA66     		str	r2, [r7, #108]
 7365 07b6 1A46     		mov	r2, r3
 7366 07b8 9200     		lsls	r2, r2, #2
 7367 07ba D7F8B010 		ldr	r1, [r7, #176]
 7368 07be 8C18     		adds	r4, r1, r2
 7369 07c0 9B00     		lsls	r3, r3, #2
 7370 07c2 D7F8B020 		ldr	r2, [r7, #176]
 7371 07c6 1344     		add	r3, r3, r2
 7372 07c8 1B68     		ldr	r3, [r3]	@ float
 7373 07ca 0146     		mov	r1, r0
 7374 07cc 1846     		mov	r0, r3
 7375 07ce FFF7FEFF 		bl	__aeabi_fadd
 7376 07d2 0346     		mov	r3, r0
 7377 07d4 2360     		str	r3, [r4]	@ float
1021:STM32F10x_Speex_Lib/libspeex/smallft.c ****         c2[t5++]+=ai2*ch2[t12++];
 7378              		.loc 2 1021 0 discriminator 3
 7379 07d6 3B6D     		ldr	r3, [r7, #80]
 7380 07d8 5A1C     		adds	r2, r3, #1
 7381 07da 3A65     		str	r2, [r7, #80]
 7382 07dc 9B00     		lsls	r3, r3, #2
 7383 07de D7F8B820 		ldr	r2, [r7, #184]
 7384 07e2 1344     		add	r3, r3, r2
 7385 07e4 1B68     		ldr	r3, [r3]	@ float
 7386 07e6 B96C     		ldr	r1, [r7, #72]	@ float
 7387 07e8 1846     		mov	r0, r3
 7388 07ea FFF7FEFF 		bl	__aeabi_fmul
 7389 07ee 0346     		mov	r3, r0
 7390 07f0 1846     		mov	r0, r3
 7391 07f2 BB6E     		ldr	r3, [r7, #104]
 7392 07f4 5A1C     		adds	r2, r3, #1
 7393 07f6 BA66     		str	r2, [r7, #104]
 7394 07f8 1A46     		mov	r2, r3
 7395 07fa 9200     		lsls	r2, r2, #2
 7396 07fc D7F8B010 		ldr	r1, [r7, #176]
 7397 0800 8C18     		adds	r4, r1, r2
 7398 0802 9B00     		lsls	r3, r3, #2
 7399 0804 D7F8B020 		ldr	r2, [r7, #176]
 7400 0808 1344     		add	r3, r3, r2
 7401 080a 1B68     		ldr	r3, [r3]	@ float
 7402 080c 0146     		mov	r1, r0
 7403 080e 1846     		mov	r0, r3
 7404 0810 FFF7FEFF 		bl	__aeabi_fadd
 7405 0814 0346     		mov	r3, r0
 7406 0816 2360     		str	r3, [r4]	@ float
1019:STM32F10x_Speex_Lib/libspeex/smallft.c ****       for(ik=0;ik<idl1;ik++){
 7407              		.loc 2 1019 0 discriminator 3
 7408 0818 D7F88030 		ldr	r3, [r7, #128]
 7409 081c 0133     		adds	r3, r3, #1
 7410 081e C7F88030 		str	r3, [r7, #128]
 7411              	.L279:
1019:STM32F10x_Speex_Lib/libspeex/smallft.c ****       for(ik=0;ik<idl1;ik++){
 7412              		.loc 2 1019 0 is_stmt 0 discriminator 1
 7413 0822 D7F88020 		ldr	r2, [r7, #128]
 7414 0826 3B68     		ldr	r3, [r7]
ARM GAS  /var/folders/kh/x4vltyy52lbg7p4pcyglc5080000gp/T//ccKDo44O.s 			page 153


 7415 0828 9A42     		cmp	r2, r3
 7416 082a B3DB     		blt	.L280
1009:STM32F10x_Speex_Lib/libspeex/smallft.c ****       t6+=idl1;
 7417              		.loc 2 1009 0 is_stmt 1 discriminator 2
 7418 082c D7F88C30 		ldr	r3, [r7, #140]
 7419 0830 0133     		adds	r3, r3, #1
 7420 0832 C7F88C30 		str	r3, [r7, #140]
 7421              	.L278:
1009:STM32F10x_Speex_Lib/libspeex/smallft.c ****       t6+=idl1;
 7422              		.loc 2 1009 0 is_stmt 0 discriminator 1
 7423 0836 D7F88C20 		ldr	r2, [r7, #140]
 7424 083a 3B6A     		ldr	r3, [r7, #32]
 7425 083c 9A42     		cmp	r2, r3
 7426 083e FFF671AF 		blt	.L281
 986:STM32F10x_Speex_Lib/libspeex/smallft.c ****     t1+=idl1;
 7427              		.loc 2 986 0 is_stmt 1 discriminator 2
 7428 0842 D7F88430 		ldr	r3, [r7, #132]
 7429 0846 0133     		adds	r3, r3, #1
 7430 0848 C7F88430 		str	r3, [r7, #132]
 7431              	.L275:
 986:STM32F10x_Speex_Lib/libspeex/smallft.c ****     t1+=idl1;
 7432              		.loc 2 986 0 is_stmt 0 discriminator 1
 7433 084c D7F88420 		ldr	r2, [r7, #132]
 7434 0850 3B6A     		ldr	r3, [r7, #32]
 7435 0852 9A42     		cmp	r2, r3
 7436 0854 FFF6D9AE 		blt	.L282
1022:STM32F10x_Speex_Lib/libspeex/smallft.c ****       }
1023:STM32F10x_Speex_Lib/libspeex/smallft.c ****     }
1024:STM32F10x_Speex_Lib/libspeex/smallft.c ****   }
1025:STM32F10x_Speex_Lib/libspeex/smallft.c **** 
1026:STM32F10x_Speex_Lib/libspeex/smallft.c ****   t1=0;
 7437              		.loc 2 1026 0 is_stmt 1
 7438 0858 0023     		movs	r3, #0
 7439 085a BB67     		str	r3, [r7, #120]
1027:STM32F10x_Speex_Lib/libspeex/smallft.c ****   for(j=1;j<ipph;j++){
 7440              		.loc 2 1027 0
 7441 085c 0123     		movs	r3, #1
 7442 085e C7F88C30 		str	r3, [r7, #140]
 7443 0862 32E0     		b	.L283
 7444              	.L286:
1028:STM32F10x_Speex_Lib/libspeex/smallft.c ****     t1+=idl1;
 7445              		.loc 2 1028 0
 7446 0864 BA6F     		ldr	r2, [r7, #120]
 7447 0866 3B68     		ldr	r3, [r7]
 7448 0868 1344     		add	r3, r3, r2
 7449 086a BB67     		str	r3, [r7, #120]
1029:STM32F10x_Speex_Lib/libspeex/smallft.c ****     t2=t1;
 7450              		.loc 2 1029 0
 7451 086c BB6F     		ldr	r3, [r7, #120]
 7452 086e 7B67     		str	r3, [r7, #116]
1030:STM32F10x_Speex_Lib/libspeex/smallft.c ****     for(ik=0;ik<idl1;ik++)ch2[ik]+=ch2[t2++];
 7453              		.loc 2 1030 0
 7454 0870 0023     		movs	r3, #0
 7455 0872 C7F88030 		str	r3, [r7, #128]
 7456 0876 1EE0     		b	.L284
 7457              	.L285:
 7458              		.loc 2 1030 0 is_stmt 0 discriminator 3
ARM GAS  /var/folders/kh/x4vltyy52lbg7p4pcyglc5080000gp/T//ccKDo44O.s 			page 154


 7459 0878 7B6F     		ldr	r3, [r7, #116]
 7460 087a 5A1C     		adds	r2, r3, #1
 7461 087c 7A67     		str	r2, [r7, #116]
 7462 087e 9B00     		lsls	r3, r3, #2
 7463 0880 D7F8B820 		ldr	r2, [r7, #184]
 7464 0884 1344     		add	r3, r3, r2
 7465 0886 1968     		ldr	r1, [r3]	@ float
 7466 0888 D7F88030 		ldr	r3, [r7, #128]
 7467 088c 9B00     		lsls	r3, r3, #2
 7468 088e D7F8B820 		ldr	r2, [r7, #184]
 7469 0892 D418     		adds	r4, r2, r3
 7470 0894 D7F88030 		ldr	r3, [r7, #128]
 7471 0898 9B00     		lsls	r3, r3, #2
 7472 089a D7F8B820 		ldr	r2, [r7, #184]
 7473 089e 1344     		add	r3, r3, r2
 7474 08a0 1B68     		ldr	r3, [r3]	@ float
 7475 08a2 1846     		mov	r0, r3
 7476 08a4 FFF7FEFF 		bl	__aeabi_fadd
 7477 08a8 0346     		mov	r3, r0
 7478 08aa 2360     		str	r3, [r4]	@ float
 7479 08ac D7F88030 		ldr	r3, [r7, #128]
 7480 08b0 0133     		adds	r3, r3, #1
 7481 08b2 C7F88030 		str	r3, [r7, #128]
 7482              	.L284:
 7483              		.loc 2 1030 0 discriminator 1
 7484 08b6 D7F88020 		ldr	r2, [r7, #128]
 7485 08ba 3B68     		ldr	r3, [r7]
 7486 08bc 9A42     		cmp	r2, r3
 7487 08be DBDB     		blt	.L285
1027:STM32F10x_Speex_Lib/libspeex/smallft.c ****     t1+=idl1;
 7488              		.loc 2 1027 0 is_stmt 1 discriminator 2
 7489 08c0 D7F88C30 		ldr	r3, [r7, #140]
 7490 08c4 0133     		adds	r3, r3, #1
 7491 08c6 C7F88C30 		str	r3, [r7, #140]
 7492              	.L283:
1027:STM32F10x_Speex_Lib/libspeex/smallft.c ****     t1+=idl1;
 7493              		.loc 2 1027 0 is_stmt 0 discriminator 1
 7494 08ca D7F88C20 		ldr	r2, [r7, #140]
 7495 08ce 3B6A     		ldr	r3, [r7, #32]
 7496 08d0 9A42     		cmp	r2, r3
 7497 08d2 C7DB     		blt	.L286
1031:STM32F10x_Speex_Lib/libspeex/smallft.c ****   }
1032:STM32F10x_Speex_Lib/libspeex/smallft.c **** 
1033:STM32F10x_Speex_Lib/libspeex/smallft.c ****   t1=0;
 7498              		.loc 2 1033 0 is_stmt 1
 7499 08d4 0023     		movs	r3, #0
 7500 08d6 BB67     		str	r3, [r7, #120]
1034:STM32F10x_Speex_Lib/libspeex/smallft.c ****   t2=ipp2*t0;
 7501              		.loc 2 1034 0
 7502 08d8 7B6A     		ldr	r3, [r7, #36]
 7503 08da BA6B     		ldr	r2, [r7, #56]
 7504 08dc 02FB03F3 		mul	r3, r2, r3
 7505 08e0 7B67     		str	r3, [r7, #116]
1035:STM32F10x_Speex_Lib/libspeex/smallft.c ****   for(j=1;j<ipph;j++){
 7506              		.loc 2 1035 0
 7507 08e2 0123     		movs	r3, #1
 7508 08e4 C7F88C30 		str	r3, [r7, #140]
ARM GAS  /var/folders/kh/x4vltyy52lbg7p4pcyglc5080000gp/T//ccKDo44O.s 			page 155


 7509 08e8 52E0     		b	.L287
 7510              	.L290:
1036:STM32F10x_Speex_Lib/libspeex/smallft.c ****     t1+=t0;
 7511              		.loc 2 1036 0
 7512 08ea BA6F     		ldr	r2, [r7, #120]
 7513 08ec BB6B     		ldr	r3, [r7, #56]
 7514 08ee 1344     		add	r3, r3, r2
 7515 08f0 BB67     		str	r3, [r7, #120]
1037:STM32F10x_Speex_Lib/libspeex/smallft.c ****     t2-=t0;
 7516              		.loc 2 1037 0
 7517 08f2 7A6F     		ldr	r2, [r7, #116]
 7518 08f4 BB6B     		ldr	r3, [r7, #56]
 7519 08f6 D31A     		subs	r3, r2, r3
 7520 08f8 7B67     		str	r3, [r7, #116]
1038:STM32F10x_Speex_Lib/libspeex/smallft.c ****     t3=t1;
 7521              		.loc 2 1038 0
 7522 08fa BB6F     		ldr	r3, [r7, #120]
 7523 08fc 3B67     		str	r3, [r7, #112]
1039:STM32F10x_Speex_Lib/libspeex/smallft.c ****     t4=t2;
 7524              		.loc 2 1039 0
 7525 08fe 7B6F     		ldr	r3, [r7, #116]
 7526 0900 FB66     		str	r3, [r7, #108]
1040:STM32F10x_Speex_Lib/libspeex/smallft.c ****     for(k=0;k<l1;k++){
 7527              		.loc 2 1040 0
 7528 0902 0023     		movs	r3, #0
 7529 0904 C7F88830 		str	r3, [r7, #136]
 7530 0908 38E0     		b	.L288
 7531              	.L289:
1041:STM32F10x_Speex_Lib/libspeex/smallft.c ****       ch[t3]=c1[t3]-c1[t4];
 7532              		.loc 2 1041 0 discriminator 3
 7533 090a 3B6F     		ldr	r3, [r7, #112]
 7534 090c 9B00     		lsls	r3, r3, #2
 7535 090e D7F8B420 		ldr	r2, [r7, #180]
 7536 0912 D418     		adds	r4, r2, r3
 7537 0914 3B6F     		ldr	r3, [r7, #112]
 7538 0916 9B00     		lsls	r3, r3, #2
 7539 0918 D7F8AC20 		ldr	r2, [r7, #172]
 7540 091c 1344     		add	r3, r3, r2
 7541 091e 1868     		ldr	r0, [r3]	@ float
 7542 0920 FB6E     		ldr	r3, [r7, #108]
 7543 0922 9B00     		lsls	r3, r3, #2
 7544 0924 D7F8AC20 		ldr	r2, [r7, #172]
 7545 0928 1344     		add	r3, r3, r2
 7546 092a 1B68     		ldr	r3, [r3]	@ float
 7547 092c 1946     		mov	r1, r3
 7548 092e FFF7FEFF 		bl	__aeabi_fsub
 7549 0932 0346     		mov	r3, r0
 7550 0934 2360     		str	r3, [r4]	@ float
1042:STM32F10x_Speex_Lib/libspeex/smallft.c ****       ch[t4]=c1[t3]+c1[t4];
 7551              		.loc 2 1042 0 discriminator 3
 7552 0936 FB6E     		ldr	r3, [r7, #108]
 7553 0938 9B00     		lsls	r3, r3, #2
 7554 093a D7F8B420 		ldr	r2, [r7, #180]
 7555 093e D418     		adds	r4, r2, r3
 7556 0940 3B6F     		ldr	r3, [r7, #112]
 7557 0942 9B00     		lsls	r3, r3, #2
 7558 0944 D7F8AC20 		ldr	r2, [r7, #172]
ARM GAS  /var/folders/kh/x4vltyy52lbg7p4pcyglc5080000gp/T//ccKDo44O.s 			page 156


 7559 0948 1344     		add	r3, r3, r2
 7560 094a 1868     		ldr	r0, [r3]	@ float
 7561 094c FB6E     		ldr	r3, [r7, #108]
 7562 094e 9B00     		lsls	r3, r3, #2
 7563 0950 D7F8AC20 		ldr	r2, [r7, #172]
 7564 0954 1344     		add	r3, r3, r2
 7565 0956 1B68     		ldr	r3, [r3]	@ float
 7566 0958 1946     		mov	r1, r3
 7567 095a FFF7FEFF 		bl	__aeabi_fadd
 7568 095e 0346     		mov	r3, r0
 7569 0960 2360     		str	r3, [r4]	@ float
1043:STM32F10x_Speex_Lib/libspeex/smallft.c ****       t3+=ido;
 7570              		.loc 2 1043 0 discriminator 3
 7571 0962 3A6F     		ldr	r2, [r7, #112]
 7572 0964 FB68     		ldr	r3, [r7, #12]
 7573 0966 1344     		add	r3, r3, r2
 7574 0968 3B67     		str	r3, [r7, #112]
1044:STM32F10x_Speex_Lib/libspeex/smallft.c ****       t4+=ido;
 7575              		.loc 2 1044 0 discriminator 3
 7576 096a FA6E     		ldr	r2, [r7, #108]
 7577 096c FB68     		ldr	r3, [r7, #12]
 7578 096e 1344     		add	r3, r3, r2
 7579 0970 FB66     		str	r3, [r7, #108]
1040:STM32F10x_Speex_Lib/libspeex/smallft.c ****       ch[t3]=c1[t3]-c1[t4];
 7580              		.loc 2 1040 0 discriminator 3
 7581 0972 D7F88830 		ldr	r3, [r7, #136]
 7582 0976 0133     		adds	r3, r3, #1
 7583 0978 C7F88830 		str	r3, [r7, #136]
 7584              	.L288:
1040:STM32F10x_Speex_Lib/libspeex/smallft.c ****       ch[t3]=c1[t3]-c1[t4];
 7585              		.loc 2 1040 0 is_stmt 0 discriminator 1
 7586 097c D7F88820 		ldr	r2, [r7, #136]
 7587 0980 7B68     		ldr	r3, [r7, #4]
 7588 0982 9A42     		cmp	r2, r3
 7589 0984 C1DB     		blt	.L289
1035:STM32F10x_Speex_Lib/libspeex/smallft.c ****     t1+=t0;
 7590              		.loc 2 1035 0 is_stmt 1 discriminator 2
 7591 0986 D7F88C30 		ldr	r3, [r7, #140]
 7592 098a 0133     		adds	r3, r3, #1
 7593 098c C7F88C30 		str	r3, [r7, #140]
 7594              	.L287:
1035:STM32F10x_Speex_Lib/libspeex/smallft.c ****     t1+=t0;
 7595              		.loc 2 1035 0 is_stmt 0 discriminator 1
 7596 0990 D7F88C20 		ldr	r2, [r7, #140]
 7597 0994 3B6A     		ldr	r3, [r7, #32]
 7598 0996 9A42     		cmp	r2, r3
 7599 0998 A7DB     		blt	.L290
1045:STM32F10x_Speex_Lib/libspeex/smallft.c ****     }
1046:STM32F10x_Speex_Lib/libspeex/smallft.c ****   }
1047:STM32F10x_Speex_Lib/libspeex/smallft.c **** 
1048:STM32F10x_Speex_Lib/libspeex/smallft.c ****   if(ido==1)goto L132;
 7600              		.loc 2 1048 0 is_stmt 1
 7601 099a FB68     		ldr	r3, [r7, #12]
 7602 099c 012B     		cmp	r3, #1
 7603 099e 00F07E81 		beq	.L336
1049:STM32F10x_Speex_Lib/libspeex/smallft.c ****   if(nbd<l1)goto L128;
 7604              		.loc 2 1049 0
ARM GAS  /var/folders/kh/x4vltyy52lbg7p4pcyglc5080000gp/T//ccKDo44O.s 			page 157


 7605 09a2 BA6A     		ldr	r2, [r7, #40]
 7606 09a4 7B68     		ldr	r3, [r7, #4]
 7607 09a6 9A42     		cmp	r2, r3
 7608 09a8 C0F2BC80 		blt	.L337
1050:STM32F10x_Speex_Lib/libspeex/smallft.c **** 
1051:STM32F10x_Speex_Lib/libspeex/smallft.c ****   t1=0;
 7609              		.loc 2 1051 0
 7610 09ac 0023     		movs	r3, #0
 7611 09ae BB67     		str	r3, [r7, #120]
1052:STM32F10x_Speex_Lib/libspeex/smallft.c ****   t2=ipp2*t0;
 7612              		.loc 2 1052 0
 7613 09b0 7B6A     		ldr	r3, [r7, #36]
 7614 09b2 BA6B     		ldr	r2, [r7, #56]
 7615 09b4 02FB03F3 		mul	r3, r2, r3
 7616 09b8 7B67     		str	r3, [r7, #116]
1053:STM32F10x_Speex_Lib/libspeex/smallft.c ****   for(j=1;j<ipph;j++){
 7617              		.loc 2 1053 0
 7618 09ba 0123     		movs	r3, #1
 7619 09bc C7F88C30 		str	r3, [r7, #140]
 7620 09c0 A9E0     		b	.L295
 7621              	.L300:
1054:STM32F10x_Speex_Lib/libspeex/smallft.c ****     t1+=t0;
 7622              		.loc 2 1054 0
 7623 09c2 BA6F     		ldr	r2, [r7, #120]
 7624 09c4 BB6B     		ldr	r3, [r7, #56]
 7625 09c6 1344     		add	r3, r3, r2
 7626 09c8 BB67     		str	r3, [r7, #120]
1055:STM32F10x_Speex_Lib/libspeex/smallft.c ****     t2-=t0;
 7627              		.loc 2 1055 0
 7628 09ca 7A6F     		ldr	r2, [r7, #116]
 7629 09cc BB6B     		ldr	r3, [r7, #56]
 7630 09ce D31A     		subs	r3, r2, r3
 7631 09d0 7B67     		str	r3, [r7, #116]
1056:STM32F10x_Speex_Lib/libspeex/smallft.c ****     t3=t1;
 7632              		.loc 2 1056 0
 7633 09d2 BB6F     		ldr	r3, [r7, #120]
 7634 09d4 3B67     		str	r3, [r7, #112]
1057:STM32F10x_Speex_Lib/libspeex/smallft.c ****     t4=t2;
 7635              		.loc 2 1057 0
 7636 09d6 7B6F     		ldr	r3, [r7, #116]
 7637 09d8 FB66     		str	r3, [r7, #108]
1058:STM32F10x_Speex_Lib/libspeex/smallft.c ****     for(k=0;k<l1;k++){
 7638              		.loc 2 1058 0
 7639 09da 0023     		movs	r3, #0
 7640 09dc C7F88830 		str	r3, [r7, #136]
 7641 09e0 8EE0     		b	.L296
 7642              	.L299:
1059:STM32F10x_Speex_Lib/libspeex/smallft.c ****       t5=t3;
 7643              		.loc 2 1059 0
 7644 09e2 3B6F     		ldr	r3, [r7, #112]
 7645 09e4 BB66     		str	r3, [r7, #104]
1060:STM32F10x_Speex_Lib/libspeex/smallft.c ****       t6=t4;
 7646              		.loc 2 1060 0
 7647 09e6 FB6E     		ldr	r3, [r7, #108]
 7648 09e8 7B66     		str	r3, [r7, #100]
1061:STM32F10x_Speex_Lib/libspeex/smallft.c ****       for(i=2;i<ido;i+=2){
 7649              		.loc 2 1061 0
ARM GAS  /var/folders/kh/x4vltyy52lbg7p4pcyglc5080000gp/T//ccKDo44O.s 			page 158


 7650 09ea 0223     		movs	r3, #2
 7651 09ec C7F89030 		str	r3, [r7, #144]
 7652 09f0 74E0     		b	.L297
 7653              	.L298:
1062:STM32F10x_Speex_Lib/libspeex/smallft.c ****         t5+=2;
 7654              		.loc 2 1062 0 discriminator 3
 7655 09f2 BB6E     		ldr	r3, [r7, #104]
 7656 09f4 0233     		adds	r3, r3, #2
 7657 09f6 BB66     		str	r3, [r7, #104]
1063:STM32F10x_Speex_Lib/libspeex/smallft.c ****         t6+=2;
 7658              		.loc 2 1063 0 discriminator 3
 7659 09f8 7B6E     		ldr	r3, [r7, #100]
 7660 09fa 0233     		adds	r3, r3, #2
 7661 09fc 7B66     		str	r3, [r7, #100]
1064:STM32F10x_Speex_Lib/libspeex/smallft.c ****         ch[t5-1]=c1[t5-1]-c1[t6];
 7662              		.loc 2 1064 0 discriminator 3
 7663 09fe BB6E     		ldr	r3, [r7, #104]
 7664 0a00 03F18043 		add	r3, r3, #1073741824
 7665 0a04 013B     		subs	r3, r3, #1
 7666 0a06 9B00     		lsls	r3, r3, #2
 7667 0a08 D7F8B420 		ldr	r2, [r7, #180]
 7668 0a0c D418     		adds	r4, r2, r3
 7669 0a0e BB6E     		ldr	r3, [r7, #104]
 7670 0a10 03F18043 		add	r3, r3, #1073741824
 7671 0a14 013B     		subs	r3, r3, #1
 7672 0a16 9B00     		lsls	r3, r3, #2
 7673 0a18 D7F8AC20 		ldr	r2, [r7, #172]
 7674 0a1c 1344     		add	r3, r3, r2
 7675 0a1e 1868     		ldr	r0, [r3]	@ float
 7676 0a20 7B6E     		ldr	r3, [r7, #100]
 7677 0a22 9B00     		lsls	r3, r3, #2
 7678 0a24 D7F8AC20 		ldr	r2, [r7, #172]
 7679 0a28 1344     		add	r3, r3, r2
 7680 0a2a 1B68     		ldr	r3, [r3]	@ float
 7681 0a2c 1946     		mov	r1, r3
 7682 0a2e FFF7FEFF 		bl	__aeabi_fsub
 7683 0a32 0346     		mov	r3, r0
 7684 0a34 2360     		str	r3, [r4]	@ float
1065:STM32F10x_Speex_Lib/libspeex/smallft.c ****         ch[t6-1]=c1[t5-1]+c1[t6];
 7685              		.loc 2 1065 0 discriminator 3
 7686 0a36 7B6E     		ldr	r3, [r7, #100]
 7687 0a38 03F18043 		add	r3, r3, #1073741824
 7688 0a3c 013B     		subs	r3, r3, #1
 7689 0a3e 9B00     		lsls	r3, r3, #2
 7690 0a40 D7F8B420 		ldr	r2, [r7, #180]
 7691 0a44 D418     		adds	r4, r2, r3
 7692 0a46 BB6E     		ldr	r3, [r7, #104]
 7693 0a48 03F18043 		add	r3, r3, #1073741824
 7694 0a4c 013B     		subs	r3, r3, #1
 7695 0a4e 9B00     		lsls	r3, r3, #2
 7696 0a50 D7F8AC20 		ldr	r2, [r7, #172]
 7697 0a54 1344     		add	r3, r3, r2
 7698 0a56 1868     		ldr	r0, [r3]	@ float
 7699 0a58 7B6E     		ldr	r3, [r7, #100]
 7700 0a5a 9B00     		lsls	r3, r3, #2
 7701 0a5c D7F8AC20 		ldr	r2, [r7, #172]
 7702 0a60 1344     		add	r3, r3, r2
ARM GAS  /var/folders/kh/x4vltyy52lbg7p4pcyglc5080000gp/T//ccKDo44O.s 			page 159


 7703 0a62 1B68     		ldr	r3, [r3]	@ float
 7704 0a64 1946     		mov	r1, r3
 7705 0a66 FFF7FEFF 		bl	__aeabi_fadd
 7706 0a6a 0346     		mov	r3, r0
 7707 0a6c 2360     		str	r3, [r4]	@ float
1066:STM32F10x_Speex_Lib/libspeex/smallft.c ****         ch[t5]=c1[t5]+c1[t6-1];
 7708              		.loc 2 1066 0 discriminator 3
 7709 0a6e BB6E     		ldr	r3, [r7, #104]
 7710 0a70 9B00     		lsls	r3, r3, #2
 7711 0a72 D7F8B420 		ldr	r2, [r7, #180]
 7712 0a76 D418     		adds	r4, r2, r3
 7713 0a78 BB6E     		ldr	r3, [r7, #104]
 7714 0a7a 9B00     		lsls	r3, r3, #2
 7715 0a7c D7F8AC20 		ldr	r2, [r7, #172]
 7716 0a80 1344     		add	r3, r3, r2
 7717 0a82 1868     		ldr	r0, [r3]	@ float
 7718 0a84 7B6E     		ldr	r3, [r7, #100]
 7719 0a86 03F18043 		add	r3, r3, #1073741824
 7720 0a8a 013B     		subs	r3, r3, #1
 7721 0a8c 9B00     		lsls	r3, r3, #2
 7722 0a8e D7F8AC20 		ldr	r2, [r7, #172]
 7723 0a92 1344     		add	r3, r3, r2
 7724 0a94 1B68     		ldr	r3, [r3]	@ float
 7725 0a96 1946     		mov	r1, r3
 7726 0a98 FFF7FEFF 		bl	__aeabi_fadd
 7727 0a9c 0346     		mov	r3, r0
 7728 0a9e 2360     		str	r3, [r4]	@ float
1067:STM32F10x_Speex_Lib/libspeex/smallft.c ****         ch[t6]=c1[t5]-c1[t6-1];
 7729              		.loc 2 1067 0 discriminator 3
 7730 0aa0 7B6E     		ldr	r3, [r7, #100]
 7731 0aa2 9B00     		lsls	r3, r3, #2
 7732 0aa4 D7F8B420 		ldr	r2, [r7, #180]
 7733 0aa8 D418     		adds	r4, r2, r3
 7734 0aaa BB6E     		ldr	r3, [r7, #104]
 7735 0aac 9B00     		lsls	r3, r3, #2
 7736 0aae D7F8AC20 		ldr	r2, [r7, #172]
 7737 0ab2 1344     		add	r3, r3, r2
 7738 0ab4 1868     		ldr	r0, [r3]	@ float
 7739 0ab6 7B6E     		ldr	r3, [r7, #100]
 7740 0ab8 03F18043 		add	r3, r3, #1073741824
 7741 0abc 013B     		subs	r3, r3, #1
 7742 0abe 9B00     		lsls	r3, r3, #2
 7743 0ac0 D7F8AC20 		ldr	r2, [r7, #172]
 7744 0ac4 1344     		add	r3, r3, r2
 7745 0ac6 1B68     		ldr	r3, [r3]	@ float
 7746 0ac8 1946     		mov	r1, r3
 7747 0aca FFF7FEFF 		bl	__aeabi_fsub
 7748 0ace 0346     		mov	r3, r0
 7749 0ad0 2360     		str	r3, [r4]	@ float
1061:STM32F10x_Speex_Lib/libspeex/smallft.c ****         t5+=2;
 7750              		.loc 2 1061 0 discriminator 3
 7751 0ad2 D7F89030 		ldr	r3, [r7, #144]
 7752 0ad6 0233     		adds	r3, r3, #2
 7753 0ad8 C7F89030 		str	r3, [r7, #144]
 7754              	.L297:
1061:STM32F10x_Speex_Lib/libspeex/smallft.c ****         t5+=2;
 7755              		.loc 2 1061 0 is_stmt 0 discriminator 1
ARM GAS  /var/folders/kh/x4vltyy52lbg7p4pcyglc5080000gp/T//ccKDo44O.s 			page 160


 7756 0adc D7F89020 		ldr	r2, [r7, #144]
 7757 0ae0 FB68     		ldr	r3, [r7, #12]
 7758 0ae2 9A42     		cmp	r2, r3
 7759 0ae4 85DB     		blt	.L298
1068:STM32F10x_Speex_Lib/libspeex/smallft.c ****       }
1069:STM32F10x_Speex_Lib/libspeex/smallft.c ****       t3+=ido;
 7760              		.loc 2 1069 0 is_stmt 1 discriminator 2
 7761 0ae6 3A6F     		ldr	r2, [r7, #112]
 7762 0ae8 FB68     		ldr	r3, [r7, #12]
 7763 0aea 1344     		add	r3, r3, r2
 7764 0aec 3B67     		str	r3, [r7, #112]
1070:STM32F10x_Speex_Lib/libspeex/smallft.c ****       t4+=ido;
 7765              		.loc 2 1070 0 discriminator 2
 7766 0aee FA6E     		ldr	r2, [r7, #108]
 7767 0af0 FB68     		ldr	r3, [r7, #12]
 7768 0af2 1344     		add	r3, r3, r2
 7769 0af4 FB66     		str	r3, [r7, #108]
1058:STM32F10x_Speex_Lib/libspeex/smallft.c ****       t5=t3;
 7770              		.loc 2 1058 0 discriminator 2
 7771 0af6 D7F88830 		ldr	r3, [r7, #136]
 7772 0afa 0133     		adds	r3, r3, #1
 7773 0afc C7F88830 		str	r3, [r7, #136]
 7774              	.L296:
1058:STM32F10x_Speex_Lib/libspeex/smallft.c ****       t5=t3;
 7775              		.loc 2 1058 0 is_stmt 0 discriminator 1
 7776 0b00 D7F88820 		ldr	r2, [r7, #136]
 7777 0b04 7B68     		ldr	r3, [r7, #4]
 7778 0b06 9A42     		cmp	r2, r3
 7779 0b08 FFF66BAF 		blt	.L299
1053:STM32F10x_Speex_Lib/libspeex/smallft.c ****     t1+=t0;
 7780              		.loc 2 1053 0 is_stmt 1 discriminator 2
 7781 0b0c D7F88C30 		ldr	r3, [r7, #140]
 7782 0b10 0133     		adds	r3, r3, #1
 7783 0b12 C7F88C30 		str	r3, [r7, #140]
 7784              	.L295:
1053:STM32F10x_Speex_Lib/libspeex/smallft.c ****     t1+=t0;
 7785              		.loc 2 1053 0 is_stmt 0 discriminator 1
 7786 0b16 D7F88C20 		ldr	r2, [r7, #140]
 7787 0b1a 3B6A     		ldr	r3, [r7, #32]
 7788 0b1c 9A42     		cmp	r2, r3
 7789 0b1e FFF650AF 		blt	.L300
1071:STM32F10x_Speex_Lib/libspeex/smallft.c ****     }
1072:STM32F10x_Speex_Lib/libspeex/smallft.c ****   }
1073:STM32F10x_Speex_Lib/libspeex/smallft.c ****   goto L132;
 7790              		.loc 2 1073 0 is_stmt 1
 7791 0b22 BDE0     		b	.L292
 7792              	.L337:
1049:STM32F10x_Speex_Lib/libspeex/smallft.c **** 
 7793              		.loc 2 1049 0
 7794 0b24 00BF     		nop
 7795              	.L294:
1074:STM32F10x_Speex_Lib/libspeex/smallft.c **** 
1075:STM32F10x_Speex_Lib/libspeex/smallft.c ****  L128:
1076:STM32F10x_Speex_Lib/libspeex/smallft.c ****   t1=0;
 7796              		.loc 2 1076 0
 7797 0b26 0023     		movs	r3, #0
 7798 0b28 BB67     		str	r3, [r7, #120]
ARM GAS  /var/folders/kh/x4vltyy52lbg7p4pcyglc5080000gp/T//ccKDo44O.s 			page 161


1077:STM32F10x_Speex_Lib/libspeex/smallft.c ****   t2=ipp2*t0;
 7799              		.loc 2 1077 0
 7800 0b2a 7B6A     		ldr	r3, [r7, #36]
 7801 0b2c BA6B     		ldr	r2, [r7, #56]
 7802 0b2e 02FB03F3 		mul	r3, r2, r3
 7803 0b32 7B67     		str	r3, [r7, #116]
1078:STM32F10x_Speex_Lib/libspeex/smallft.c ****   for(j=1;j<ipph;j++){
 7804              		.loc 2 1078 0
 7805 0b34 0123     		movs	r3, #1
 7806 0b36 C7F88C30 		str	r3, [r7, #140]
 7807 0b3a A9E0     		b	.L301
 7808              	.L306:
1079:STM32F10x_Speex_Lib/libspeex/smallft.c ****     t1+=t0;
 7809              		.loc 2 1079 0
 7810 0b3c BA6F     		ldr	r2, [r7, #120]
 7811 0b3e BB6B     		ldr	r3, [r7, #56]
 7812 0b40 1344     		add	r3, r3, r2
 7813 0b42 BB67     		str	r3, [r7, #120]
1080:STM32F10x_Speex_Lib/libspeex/smallft.c ****     t2-=t0;
 7814              		.loc 2 1080 0
 7815 0b44 7A6F     		ldr	r2, [r7, #116]
 7816 0b46 BB6B     		ldr	r3, [r7, #56]
 7817 0b48 D31A     		subs	r3, r2, r3
 7818 0b4a 7B67     		str	r3, [r7, #116]
1081:STM32F10x_Speex_Lib/libspeex/smallft.c ****     t3=t1;
 7819              		.loc 2 1081 0
 7820 0b4c BB6F     		ldr	r3, [r7, #120]
 7821 0b4e 3B67     		str	r3, [r7, #112]
1082:STM32F10x_Speex_Lib/libspeex/smallft.c ****     t4=t2;
 7822              		.loc 2 1082 0
 7823 0b50 7B6F     		ldr	r3, [r7, #116]
 7824 0b52 FB66     		str	r3, [r7, #108]
1083:STM32F10x_Speex_Lib/libspeex/smallft.c ****     for(i=2;i<ido;i+=2){
 7825              		.loc 2 1083 0
 7826 0b54 0223     		movs	r3, #2
 7827 0b56 C7F89030 		str	r3, [r7, #144]
 7828 0b5a 8EE0     		b	.L302
 7829              	.L305:
1084:STM32F10x_Speex_Lib/libspeex/smallft.c ****       t3+=2;
 7830              		.loc 2 1084 0
 7831 0b5c 3B6F     		ldr	r3, [r7, #112]
 7832 0b5e 0233     		adds	r3, r3, #2
 7833 0b60 3B67     		str	r3, [r7, #112]
1085:STM32F10x_Speex_Lib/libspeex/smallft.c ****       t4+=2;
 7834              		.loc 2 1085 0
 7835 0b62 FB6E     		ldr	r3, [r7, #108]
 7836 0b64 0233     		adds	r3, r3, #2
 7837 0b66 FB66     		str	r3, [r7, #108]
1086:STM32F10x_Speex_Lib/libspeex/smallft.c ****       t5=t3;
 7838              		.loc 2 1086 0
 7839 0b68 3B6F     		ldr	r3, [r7, #112]
 7840 0b6a BB66     		str	r3, [r7, #104]
1087:STM32F10x_Speex_Lib/libspeex/smallft.c ****       t6=t4;
 7841              		.loc 2 1087 0
 7842 0b6c FB6E     		ldr	r3, [r7, #108]
 7843 0b6e 7B66     		str	r3, [r7, #100]
1088:STM32F10x_Speex_Lib/libspeex/smallft.c ****       for(k=0;k<l1;k++){
ARM GAS  /var/folders/kh/x4vltyy52lbg7p4pcyglc5080000gp/T//ccKDo44O.s 			page 162


 7844              		.loc 2 1088 0
 7845 0b70 0023     		movs	r3, #0
 7846 0b72 C7F88830 		str	r3, [r7, #136]
 7847 0b76 76E0     		b	.L303
 7848              	.L304:
1089:STM32F10x_Speex_Lib/libspeex/smallft.c ****         ch[t5-1]=c1[t5-1]-c1[t6];
 7849              		.loc 2 1089 0 discriminator 3
 7850 0b78 BB6E     		ldr	r3, [r7, #104]
 7851 0b7a 03F18043 		add	r3, r3, #1073741824
 7852 0b7e 013B     		subs	r3, r3, #1
 7853 0b80 9B00     		lsls	r3, r3, #2
 7854 0b82 D7F8B420 		ldr	r2, [r7, #180]
 7855 0b86 D418     		adds	r4, r2, r3
 7856 0b88 BB6E     		ldr	r3, [r7, #104]
 7857 0b8a 03F18043 		add	r3, r3, #1073741824
 7858 0b8e 013B     		subs	r3, r3, #1
 7859 0b90 9B00     		lsls	r3, r3, #2
 7860 0b92 D7F8AC20 		ldr	r2, [r7, #172]
 7861 0b96 1344     		add	r3, r3, r2
 7862 0b98 1868     		ldr	r0, [r3]	@ float
 7863 0b9a 7B6E     		ldr	r3, [r7, #100]
 7864 0b9c 9B00     		lsls	r3, r3, #2
 7865 0b9e D7F8AC20 		ldr	r2, [r7, #172]
 7866 0ba2 1344     		add	r3, r3, r2
 7867 0ba4 1B68     		ldr	r3, [r3]	@ float
 7868 0ba6 1946     		mov	r1, r3
 7869 0ba8 FFF7FEFF 		bl	__aeabi_fsub
 7870 0bac 0346     		mov	r3, r0
 7871 0bae 2360     		str	r3, [r4]	@ float
1090:STM32F10x_Speex_Lib/libspeex/smallft.c ****         ch[t6-1]=c1[t5-1]+c1[t6];
 7872              		.loc 2 1090 0 discriminator 3
 7873 0bb0 7B6E     		ldr	r3, [r7, #100]
 7874 0bb2 03F18043 		add	r3, r3, #1073741824
 7875 0bb6 013B     		subs	r3, r3, #1
 7876 0bb8 9B00     		lsls	r3, r3, #2
 7877 0bba D7F8B420 		ldr	r2, [r7, #180]
 7878 0bbe D418     		adds	r4, r2, r3
 7879 0bc0 BB6E     		ldr	r3, [r7, #104]
 7880 0bc2 03F18043 		add	r3, r3, #1073741824
 7881 0bc6 013B     		subs	r3, r3, #1
 7882 0bc8 9B00     		lsls	r3, r3, #2
 7883 0bca D7F8AC20 		ldr	r2, [r7, #172]
 7884 0bce 1344     		add	r3, r3, r2
 7885 0bd0 1868     		ldr	r0, [r3]	@ float
 7886 0bd2 7B6E     		ldr	r3, [r7, #100]
 7887 0bd4 9B00     		lsls	r3, r3, #2
 7888 0bd6 D7F8AC20 		ldr	r2, [r7, #172]
 7889 0bda 1344     		add	r3, r3, r2
 7890 0bdc 1B68     		ldr	r3, [r3]	@ float
 7891 0bde 1946     		mov	r1, r3
 7892 0be0 FFF7FEFF 		bl	__aeabi_fadd
 7893 0be4 0346     		mov	r3, r0
 7894 0be6 2360     		str	r3, [r4]	@ float
1091:STM32F10x_Speex_Lib/libspeex/smallft.c ****         ch[t5]=c1[t5]+c1[t6-1];
 7895              		.loc 2 1091 0 discriminator 3
 7896 0be8 BB6E     		ldr	r3, [r7, #104]
 7897 0bea 9B00     		lsls	r3, r3, #2
ARM GAS  /var/folders/kh/x4vltyy52lbg7p4pcyglc5080000gp/T//ccKDo44O.s 			page 163


 7898 0bec D7F8B420 		ldr	r2, [r7, #180]
 7899 0bf0 D418     		adds	r4, r2, r3
 7900 0bf2 BB6E     		ldr	r3, [r7, #104]
 7901 0bf4 9B00     		lsls	r3, r3, #2
 7902 0bf6 D7F8AC20 		ldr	r2, [r7, #172]
 7903 0bfa 1344     		add	r3, r3, r2
 7904 0bfc 1868     		ldr	r0, [r3]	@ float
 7905 0bfe 7B6E     		ldr	r3, [r7, #100]
 7906 0c00 03F18043 		add	r3, r3, #1073741824
 7907 0c04 013B     		subs	r3, r3, #1
 7908 0c06 9B00     		lsls	r3, r3, #2
 7909 0c08 D7F8AC20 		ldr	r2, [r7, #172]
 7910 0c0c 1344     		add	r3, r3, r2
 7911 0c0e 1B68     		ldr	r3, [r3]	@ float
 7912 0c10 1946     		mov	r1, r3
 7913 0c12 FFF7FEFF 		bl	__aeabi_fadd
 7914 0c16 0346     		mov	r3, r0
 7915 0c18 2360     		str	r3, [r4]	@ float
1092:STM32F10x_Speex_Lib/libspeex/smallft.c ****         ch[t6]=c1[t5]-c1[t6-1];
 7916              		.loc 2 1092 0 discriminator 3
 7917 0c1a 7B6E     		ldr	r3, [r7, #100]
 7918 0c1c 9B00     		lsls	r3, r3, #2
 7919 0c1e D7F8B420 		ldr	r2, [r7, #180]
 7920 0c22 D418     		adds	r4, r2, r3
 7921 0c24 BB6E     		ldr	r3, [r7, #104]
 7922 0c26 9B00     		lsls	r3, r3, #2
 7923 0c28 D7F8AC20 		ldr	r2, [r7, #172]
 7924 0c2c 1344     		add	r3, r3, r2
 7925 0c2e 1868     		ldr	r0, [r3]	@ float
 7926 0c30 7B6E     		ldr	r3, [r7, #100]
 7927 0c32 03F18043 		add	r3, r3, #1073741824
 7928 0c36 013B     		subs	r3, r3, #1
 7929 0c38 9B00     		lsls	r3, r3, #2
 7930 0c3a D7F8AC20 		ldr	r2, [r7, #172]
 7931 0c3e 1344     		add	r3, r3, r2
 7932 0c40 1B68     		ldr	r3, [r3]	@ float
 7933 0c42 1946     		mov	r1, r3
 7934 0c44 FFF7FEFF 		bl	__aeabi_fsub
 7935 0c48 0346     		mov	r3, r0
 7936 0c4a 2360     		str	r3, [r4]	@ float
1093:STM32F10x_Speex_Lib/libspeex/smallft.c ****         t5+=ido;
 7937              		.loc 2 1093 0 discriminator 3
 7938 0c4c BA6E     		ldr	r2, [r7, #104]
 7939 0c4e FB68     		ldr	r3, [r7, #12]
 7940 0c50 1344     		add	r3, r3, r2
 7941 0c52 BB66     		str	r3, [r7, #104]
1094:STM32F10x_Speex_Lib/libspeex/smallft.c ****         t6+=ido;
 7942              		.loc 2 1094 0 discriminator 3
 7943 0c54 7A6E     		ldr	r2, [r7, #100]
 7944 0c56 FB68     		ldr	r3, [r7, #12]
 7945 0c58 1344     		add	r3, r3, r2
 7946 0c5a 7B66     		str	r3, [r7, #100]
1088:STM32F10x_Speex_Lib/libspeex/smallft.c ****         ch[t5-1]=c1[t5-1]-c1[t6];
 7947              		.loc 2 1088 0 discriminator 3
 7948 0c5c D7F88830 		ldr	r3, [r7, #136]
 7949 0c60 0133     		adds	r3, r3, #1
 7950 0c62 C7F88830 		str	r3, [r7, #136]
ARM GAS  /var/folders/kh/x4vltyy52lbg7p4pcyglc5080000gp/T//ccKDo44O.s 			page 164


 7951              	.L303:
1088:STM32F10x_Speex_Lib/libspeex/smallft.c ****         ch[t5-1]=c1[t5-1]-c1[t6];
 7952              		.loc 2 1088 0 is_stmt 0 discriminator 1
 7953 0c66 D7F88820 		ldr	r2, [r7, #136]
 7954 0c6a 7B68     		ldr	r3, [r7, #4]
 7955 0c6c 9A42     		cmp	r2, r3
 7956 0c6e 83DB     		blt	.L304
1083:STM32F10x_Speex_Lib/libspeex/smallft.c ****       t3+=2;
 7957              		.loc 2 1083 0 is_stmt 1 discriminator 2
 7958 0c70 D7F89030 		ldr	r3, [r7, #144]
 7959 0c74 0233     		adds	r3, r3, #2
 7960 0c76 C7F89030 		str	r3, [r7, #144]
 7961              	.L302:
1083:STM32F10x_Speex_Lib/libspeex/smallft.c ****       t3+=2;
 7962              		.loc 2 1083 0 is_stmt 0 discriminator 1
 7963 0c7a D7F89020 		ldr	r2, [r7, #144]
 7964 0c7e FB68     		ldr	r3, [r7, #12]
 7965 0c80 9A42     		cmp	r2, r3
 7966 0c82 FFF66BAF 		blt	.L305
1078:STM32F10x_Speex_Lib/libspeex/smallft.c ****     t1+=t0;
 7967              		.loc 2 1078 0 is_stmt 1 discriminator 2
 7968 0c86 D7F88C30 		ldr	r3, [r7, #140]
 7969 0c8a 0133     		adds	r3, r3, #1
 7970 0c8c C7F88C30 		str	r3, [r7, #140]
 7971              	.L301:
1078:STM32F10x_Speex_Lib/libspeex/smallft.c ****     t1+=t0;
 7972              		.loc 2 1078 0 is_stmt 0 discriminator 1
 7973 0c90 D7F88C20 		ldr	r2, [r7, #140]
 7974 0c94 3B6A     		ldr	r3, [r7, #32]
 7975 0c96 9A42     		cmp	r2, r3
 7976 0c98 FFF650AF 		blt	.L306
 7977 0c9c 00E0     		b	.L292
 7978              	.L336:
1048:STM32F10x_Speex_Lib/libspeex/smallft.c ****   if(nbd<l1)goto L128;
 7979              		.loc 2 1048 0 is_stmt 1
 7980 0c9e 00BF     		nop
 7981              	.L292:
1095:STM32F10x_Speex_Lib/libspeex/smallft.c ****       }
1096:STM32F10x_Speex_Lib/libspeex/smallft.c ****     }
1097:STM32F10x_Speex_Lib/libspeex/smallft.c ****   }
1098:STM32F10x_Speex_Lib/libspeex/smallft.c **** 
1099:STM32F10x_Speex_Lib/libspeex/smallft.c **** L132:
1100:STM32F10x_Speex_Lib/libspeex/smallft.c ****   if(ido==1)return;
 7982              		.loc 2 1100 0
 7983 0ca0 FB68     		ldr	r3, [r7, #12]
 7984 0ca2 012B     		cmp	r3, #1
 7985 0ca4 00F0C681 		beq	.L338
1101:STM32F10x_Speex_Lib/libspeex/smallft.c **** 
1102:STM32F10x_Speex_Lib/libspeex/smallft.c ****   for(ik=0;ik<idl1;ik++)c2[ik]=ch2[ik];
 7986              		.loc 2 1102 0
 7987 0ca8 0023     		movs	r3, #0
 7988 0caa C7F88030 		str	r3, [r7, #128]
 7989 0cae 12E0     		b	.L309
 7990              	.L310:
 7991              		.loc 2 1102 0 is_stmt 0 discriminator 3
 7992 0cb0 D7F88030 		ldr	r3, [r7, #128]
 7993 0cb4 9B00     		lsls	r3, r3, #2
ARM GAS  /var/folders/kh/x4vltyy52lbg7p4pcyglc5080000gp/T//ccKDo44O.s 			page 165


 7994 0cb6 D7F8B020 		ldr	r2, [r7, #176]
 7995 0cba 1344     		add	r3, r3, r2
 7996 0cbc D7F88020 		ldr	r2, [r7, #128]
 7997 0cc0 9200     		lsls	r2, r2, #2
 7998 0cc2 D7F8B810 		ldr	r1, [r7, #184]
 7999 0cc6 0A44     		add	r2, r2, r1
 8000 0cc8 1268     		ldr	r2, [r2]	@ float
 8001 0cca 1A60     		str	r2, [r3]	@ float
 8002 0ccc D7F88030 		ldr	r3, [r7, #128]
 8003 0cd0 0133     		adds	r3, r3, #1
 8004 0cd2 C7F88030 		str	r3, [r7, #128]
 8005              	.L309:
 8006              		.loc 2 1102 0 discriminator 1
 8007 0cd6 D7F88020 		ldr	r2, [r7, #128]
 8008 0cda 3B68     		ldr	r3, [r7]
 8009 0cdc 9A42     		cmp	r2, r3
 8010 0cde E7DB     		blt	.L310
1103:STM32F10x_Speex_Lib/libspeex/smallft.c **** 
1104:STM32F10x_Speex_Lib/libspeex/smallft.c ****   t1=0;
 8011              		.loc 2 1104 0 is_stmt 1
 8012 0ce0 0023     		movs	r3, #0
 8013 0ce2 BB67     		str	r3, [r7, #120]
1105:STM32F10x_Speex_Lib/libspeex/smallft.c ****   for(j=1;j<ip;j++){
 8014              		.loc 2 1105 0
 8015 0ce4 0123     		movs	r3, #1
 8016 0ce6 C7F88C30 		str	r3, [r7, #140]
 8017 0cea 28E0     		b	.L311
 8018              	.L314:
1106:STM32F10x_Speex_Lib/libspeex/smallft.c ****     t2=(t1+=t0);
 8019              		.loc 2 1106 0
 8020 0cec BA6F     		ldr	r2, [r7, #120]
 8021 0cee BB6B     		ldr	r3, [r7, #56]
 8022 0cf0 1344     		add	r3, r3, r2
 8023 0cf2 BB67     		str	r3, [r7, #120]
 8024 0cf4 BB6F     		ldr	r3, [r7, #120]
 8025 0cf6 7B67     		str	r3, [r7, #116]
1107:STM32F10x_Speex_Lib/libspeex/smallft.c ****     for(k=0;k<l1;k++){
 8026              		.loc 2 1107 0
 8027 0cf8 0023     		movs	r3, #0
 8028 0cfa C7F88830 		str	r3, [r7, #136]
 8029 0cfe 14E0     		b	.L312
 8030              	.L313:
1108:STM32F10x_Speex_Lib/libspeex/smallft.c ****       c1[t2]=ch[t2];
 8031              		.loc 2 1108 0 discriminator 3
 8032 0d00 7B6F     		ldr	r3, [r7, #116]
 8033 0d02 9B00     		lsls	r3, r3, #2
 8034 0d04 D7F8AC20 		ldr	r2, [r7, #172]
 8035 0d08 1344     		add	r3, r3, r2
 8036 0d0a 7A6F     		ldr	r2, [r7, #116]
 8037 0d0c 9200     		lsls	r2, r2, #2
 8038 0d0e D7F8B410 		ldr	r1, [r7, #180]
 8039 0d12 0A44     		add	r2, r2, r1
 8040 0d14 1268     		ldr	r2, [r2]	@ float
 8041 0d16 1A60     		str	r2, [r3]	@ float
1109:STM32F10x_Speex_Lib/libspeex/smallft.c ****       t2+=ido;
 8042              		.loc 2 1109 0 discriminator 3
 8043 0d18 7A6F     		ldr	r2, [r7, #116]
ARM GAS  /var/folders/kh/x4vltyy52lbg7p4pcyglc5080000gp/T//ccKDo44O.s 			page 166


 8044 0d1a FB68     		ldr	r3, [r7, #12]
 8045 0d1c 1344     		add	r3, r3, r2
 8046 0d1e 7B67     		str	r3, [r7, #116]
1107:STM32F10x_Speex_Lib/libspeex/smallft.c ****     for(k=0;k<l1;k++){
 8047              		.loc 2 1107 0 discriminator 3
 8048 0d20 D7F88830 		ldr	r3, [r7, #136]
 8049 0d24 0133     		adds	r3, r3, #1
 8050 0d26 C7F88830 		str	r3, [r7, #136]
 8051              	.L312:
1107:STM32F10x_Speex_Lib/libspeex/smallft.c ****     for(k=0;k<l1;k++){
 8052              		.loc 2 1107 0 is_stmt 0 discriminator 1
 8053 0d2a D7F88820 		ldr	r2, [r7, #136]
 8054 0d2e 7B68     		ldr	r3, [r7, #4]
 8055 0d30 9A42     		cmp	r2, r3
 8056 0d32 E5DB     		blt	.L313
1105:STM32F10x_Speex_Lib/libspeex/smallft.c ****     t2=(t1+=t0);
 8057              		.loc 2 1105 0 is_stmt 1 discriminator 2
 8058 0d34 D7F88C30 		ldr	r3, [r7, #140]
 8059 0d38 0133     		adds	r3, r3, #1
 8060 0d3a C7F88C30 		str	r3, [r7, #140]
 8061              	.L311:
1105:STM32F10x_Speex_Lib/libspeex/smallft.c ****     t2=(t1+=t0);
 8062              		.loc 2 1105 0 is_stmt 0 discriminator 1
 8063 0d3e D7F88C20 		ldr	r2, [r7, #140]
 8064 0d42 BB68     		ldr	r3, [r7, #8]
 8065 0d44 9A42     		cmp	r2, r3
 8066 0d46 D1DB     		blt	.L314
1110:STM32F10x_Speex_Lib/libspeex/smallft.c ****     }
1111:STM32F10x_Speex_Lib/libspeex/smallft.c ****   }
1112:STM32F10x_Speex_Lib/libspeex/smallft.c **** 
1113:STM32F10x_Speex_Lib/libspeex/smallft.c ****   if(nbd>l1)goto L139;
 8067              		.loc 2 1113 0 is_stmt 1
 8068 0d48 BA6A     		ldr	r2, [r7, #40]
 8069 0d4a 7B68     		ldr	r3, [r7, #4]
 8070 0d4c 9A42     		cmp	r2, r3
 8071 0d4e 00F3B880 		bgt	.L339
1114:STM32F10x_Speex_Lib/libspeex/smallft.c **** 
1115:STM32F10x_Speex_Lib/libspeex/smallft.c ****   is= -ido-1;
 8072              		.loc 2 1115 0
 8073 0d52 FB68     		ldr	r3, [r7, #12]
 8074 0d54 DB43     		mvns	r3, r3
 8075 0d56 FB67     		str	r3, [r7, #124]
1116:STM32F10x_Speex_Lib/libspeex/smallft.c ****   t1=0;
 8076              		.loc 2 1116 0
 8077 0d58 0023     		movs	r3, #0
 8078 0d5a BB67     		str	r3, [r7, #120]
1117:STM32F10x_Speex_Lib/libspeex/smallft.c ****   for(j=1;j<ip;j++){
 8079              		.loc 2 1117 0
 8080 0d5c 0123     		movs	r3, #1
 8081 0d5e C7F88C30 		str	r3, [r7, #140]
 8082 0d62 A7E0     		b	.L317
 8083              	.L322:
1118:STM32F10x_Speex_Lib/libspeex/smallft.c ****     is+=ido;
 8084              		.loc 2 1118 0
 8085 0d64 FA6F     		ldr	r2, [r7, #124]
 8086 0d66 FB68     		ldr	r3, [r7, #12]
 8087 0d68 1344     		add	r3, r3, r2
ARM GAS  /var/folders/kh/x4vltyy52lbg7p4pcyglc5080000gp/T//ccKDo44O.s 			page 167


 8088 0d6a FB67     		str	r3, [r7, #124]
1119:STM32F10x_Speex_Lib/libspeex/smallft.c ****     t1+=t0;
 8089              		.loc 2 1119 0
 8090 0d6c BA6F     		ldr	r2, [r7, #120]
 8091 0d6e BB6B     		ldr	r3, [r7, #56]
 8092 0d70 1344     		add	r3, r3, r2
 8093 0d72 BB67     		str	r3, [r7, #120]
1120:STM32F10x_Speex_Lib/libspeex/smallft.c ****     idij=is;
 8094              		.loc 2 1120 0
 8095 0d74 FB6F     		ldr	r3, [r7, #124]
 8096 0d76 C7F89430 		str	r3, [r7, #148]
1121:STM32F10x_Speex_Lib/libspeex/smallft.c ****     t2=t1;
 8097              		.loc 2 1121 0
 8098 0d7a BB6F     		ldr	r3, [r7, #120]
 8099 0d7c 7B67     		str	r3, [r7, #116]
1122:STM32F10x_Speex_Lib/libspeex/smallft.c ****     for(i=2;i<ido;i+=2){
 8100              		.loc 2 1122 0
 8101 0d7e 0223     		movs	r3, #2
 8102 0d80 C7F89030 		str	r3, [r7, #144]
 8103 0d84 8BE0     		b	.L318
 8104              	.L321:
1123:STM32F10x_Speex_Lib/libspeex/smallft.c ****       t2+=2;
 8105              		.loc 2 1123 0
 8106 0d86 7B6F     		ldr	r3, [r7, #116]
 8107 0d88 0233     		adds	r3, r3, #2
 8108 0d8a 7B67     		str	r3, [r7, #116]
1124:STM32F10x_Speex_Lib/libspeex/smallft.c ****       idij+=2;
 8109              		.loc 2 1124 0
 8110 0d8c D7F89430 		ldr	r3, [r7, #148]
 8111 0d90 0233     		adds	r3, r3, #2
 8112 0d92 C7F89430 		str	r3, [r7, #148]
1125:STM32F10x_Speex_Lib/libspeex/smallft.c ****       t3=t2;
 8113              		.loc 2 1125 0
 8114 0d96 7B6F     		ldr	r3, [r7, #116]
 8115 0d98 3B67     		str	r3, [r7, #112]
1126:STM32F10x_Speex_Lib/libspeex/smallft.c ****       for(k=0;k<l1;k++){
 8116              		.loc 2 1126 0
 8117 0d9a 0023     		movs	r3, #0
 8118 0d9c C7F88830 		str	r3, [r7, #136]
 8119 0da0 73E0     		b	.L319
 8120              	.L320:
1127:STM32F10x_Speex_Lib/libspeex/smallft.c ****         c1[t3-1]=wa[idij-1]*ch[t3-1]-wa[idij]*ch[t3];
 8121              		.loc 2 1127 0 discriminator 3
 8122 0da2 3B6F     		ldr	r3, [r7, #112]
 8123 0da4 03F18043 		add	r3, r3, #1073741824
 8124 0da8 013B     		subs	r3, r3, #1
 8125 0daa 9B00     		lsls	r3, r3, #2
 8126 0dac D7F8AC20 		ldr	r2, [r7, #172]
 8127 0db0 D418     		adds	r4, r2, r3
 8128 0db2 D7F89430 		ldr	r3, [r7, #148]
 8129 0db6 03F18043 		add	r3, r3, #1073741824
 8130 0dba 013B     		subs	r3, r3, #1
 8131 0dbc 9B00     		lsls	r3, r3, #2
 8132 0dbe D7F8BC20 		ldr	r2, [r7, #188]
 8133 0dc2 1344     		add	r3, r3, r2
 8134 0dc4 1868     		ldr	r0, [r3]	@ float
 8135 0dc6 3B6F     		ldr	r3, [r7, #112]
ARM GAS  /var/folders/kh/x4vltyy52lbg7p4pcyglc5080000gp/T//ccKDo44O.s 			page 168


 8136 0dc8 03F18043 		add	r3, r3, #1073741824
 8137 0dcc 013B     		subs	r3, r3, #1
 8138 0dce 9B00     		lsls	r3, r3, #2
 8139 0dd0 D7F8B420 		ldr	r2, [r7, #180]
 8140 0dd4 1344     		add	r3, r3, r2
 8141 0dd6 1B68     		ldr	r3, [r3]	@ float
 8142 0dd8 1946     		mov	r1, r3
 8143 0dda FFF7FEFF 		bl	__aeabi_fmul
 8144 0dde 0346     		mov	r3, r0
 8145 0de0 1D46     		mov	r5, r3
 8146 0de2 D7F89430 		ldr	r3, [r7, #148]
 8147 0de6 9B00     		lsls	r3, r3, #2
 8148 0de8 D7F8BC20 		ldr	r2, [r7, #188]
 8149 0dec 1344     		add	r3, r3, r2
 8150 0dee 1868     		ldr	r0, [r3]	@ float
 8151 0df0 3B6F     		ldr	r3, [r7, #112]
 8152 0df2 9B00     		lsls	r3, r3, #2
 8153 0df4 D7F8B420 		ldr	r2, [r7, #180]
 8154 0df8 1344     		add	r3, r3, r2
 8155 0dfa 1B68     		ldr	r3, [r3]	@ float
 8156 0dfc 1946     		mov	r1, r3
 8157 0dfe FFF7FEFF 		bl	__aeabi_fmul
 8158 0e02 0346     		mov	r3, r0
 8159 0e04 1946     		mov	r1, r3
 8160 0e06 2846     		mov	r0, r5
 8161 0e08 FFF7FEFF 		bl	__aeabi_fsub
 8162 0e0c 0346     		mov	r3, r0
 8163 0e0e 2360     		str	r3, [r4]	@ float
1128:STM32F10x_Speex_Lib/libspeex/smallft.c ****         c1[t3]=wa[idij-1]*ch[t3]+wa[idij]*ch[t3-1];
 8164              		.loc 2 1128 0 discriminator 3
 8165 0e10 3B6F     		ldr	r3, [r7, #112]
 8166 0e12 9B00     		lsls	r3, r3, #2
 8167 0e14 D7F8AC20 		ldr	r2, [r7, #172]
 8168 0e18 D418     		adds	r4, r2, r3
 8169 0e1a D7F89430 		ldr	r3, [r7, #148]
 8170 0e1e 03F18043 		add	r3, r3, #1073741824
 8171 0e22 013B     		subs	r3, r3, #1
 8172 0e24 9B00     		lsls	r3, r3, #2
 8173 0e26 D7F8BC20 		ldr	r2, [r7, #188]
 8174 0e2a 1344     		add	r3, r3, r2
 8175 0e2c 1868     		ldr	r0, [r3]	@ float
 8176 0e2e 3B6F     		ldr	r3, [r7, #112]
 8177 0e30 9B00     		lsls	r3, r3, #2
 8178 0e32 D7F8B420 		ldr	r2, [r7, #180]
 8179 0e36 1344     		add	r3, r3, r2
 8180 0e38 1B68     		ldr	r3, [r3]	@ float
 8181 0e3a 1946     		mov	r1, r3
 8182 0e3c FFF7FEFF 		bl	__aeabi_fmul
 8183 0e40 0346     		mov	r3, r0
 8184 0e42 1D46     		mov	r5, r3
 8185 0e44 D7F89430 		ldr	r3, [r7, #148]
 8186 0e48 9B00     		lsls	r3, r3, #2
 8187 0e4a D7F8BC20 		ldr	r2, [r7, #188]
 8188 0e4e 1344     		add	r3, r3, r2
 8189 0e50 1868     		ldr	r0, [r3]	@ float
 8190 0e52 3B6F     		ldr	r3, [r7, #112]
 8191 0e54 03F18043 		add	r3, r3, #1073741824
ARM GAS  /var/folders/kh/x4vltyy52lbg7p4pcyglc5080000gp/T//ccKDo44O.s 			page 169


 8192 0e58 013B     		subs	r3, r3, #1
 8193 0e5a 9B00     		lsls	r3, r3, #2
 8194 0e5c D7F8B420 		ldr	r2, [r7, #180]
 8195 0e60 1344     		add	r3, r3, r2
 8196 0e62 1B68     		ldr	r3, [r3]	@ float
 8197 0e64 1946     		mov	r1, r3
 8198 0e66 FFF7FEFF 		bl	__aeabi_fmul
 8199 0e6a 0346     		mov	r3, r0
 8200 0e6c 1946     		mov	r1, r3
 8201 0e6e 2846     		mov	r0, r5
 8202 0e70 FFF7FEFF 		bl	__aeabi_fadd
 8203 0e74 0346     		mov	r3, r0
 8204 0e76 2360     		str	r3, [r4]	@ float
1129:STM32F10x_Speex_Lib/libspeex/smallft.c ****         t3+=ido;
 8205              		.loc 2 1129 0 discriminator 3
 8206 0e78 3A6F     		ldr	r2, [r7, #112]
 8207 0e7a FB68     		ldr	r3, [r7, #12]
 8208 0e7c 1344     		add	r3, r3, r2
 8209 0e7e 3B67     		str	r3, [r7, #112]
1126:STM32F10x_Speex_Lib/libspeex/smallft.c ****         c1[t3-1]=wa[idij-1]*ch[t3-1]-wa[idij]*ch[t3];
 8210              		.loc 2 1126 0 discriminator 3
 8211 0e80 D7F88830 		ldr	r3, [r7, #136]
 8212 0e84 0133     		adds	r3, r3, #1
 8213 0e86 C7F88830 		str	r3, [r7, #136]
 8214              	.L319:
1126:STM32F10x_Speex_Lib/libspeex/smallft.c ****         c1[t3-1]=wa[idij-1]*ch[t3-1]-wa[idij]*ch[t3];
 8215              		.loc 2 1126 0 is_stmt 0 discriminator 1
 8216 0e8a D7F88820 		ldr	r2, [r7, #136]
 8217 0e8e 7B68     		ldr	r3, [r7, #4]
 8218 0e90 9A42     		cmp	r2, r3
 8219 0e92 86DB     		blt	.L320
1122:STM32F10x_Speex_Lib/libspeex/smallft.c ****       t2+=2;
 8220              		.loc 2 1122 0 is_stmt 1 discriminator 2
 8221 0e94 D7F89030 		ldr	r3, [r7, #144]
 8222 0e98 0233     		adds	r3, r3, #2
 8223 0e9a C7F89030 		str	r3, [r7, #144]
 8224              	.L318:
1122:STM32F10x_Speex_Lib/libspeex/smallft.c ****       t2+=2;
 8225              		.loc 2 1122 0 is_stmt 0 discriminator 1
 8226 0e9e D7F89020 		ldr	r2, [r7, #144]
 8227 0ea2 FB68     		ldr	r3, [r7, #12]
 8228 0ea4 9A42     		cmp	r2, r3
 8229 0ea6 FFF66EAF 		blt	.L321
1117:STM32F10x_Speex_Lib/libspeex/smallft.c ****     is+=ido;
 8230              		.loc 2 1117 0 is_stmt 1 discriminator 2
 8231 0eaa D7F88C30 		ldr	r3, [r7, #140]
 8232 0eae 0133     		adds	r3, r3, #1
 8233 0eb0 C7F88C30 		str	r3, [r7, #140]
 8234              	.L317:
1117:STM32F10x_Speex_Lib/libspeex/smallft.c ****     is+=ido;
 8235              		.loc 2 1117 0 is_stmt 0 discriminator 1
 8236 0eb4 D7F88C20 		ldr	r2, [r7, #140]
 8237 0eb8 BB68     		ldr	r3, [r7, #8]
 8238 0eba 9A42     		cmp	r2, r3
 8239 0ebc FFF652AF 		blt	.L322
1130:STM32F10x_Speex_Lib/libspeex/smallft.c ****       }
1131:STM32F10x_Speex_Lib/libspeex/smallft.c ****     }
ARM GAS  /var/folders/kh/x4vltyy52lbg7p4pcyglc5080000gp/T//ccKDo44O.s 			page 170


1132:STM32F10x_Speex_Lib/libspeex/smallft.c ****   }
1133:STM32F10x_Speex_Lib/libspeex/smallft.c ****   return;
 8240              		.loc 2 1133 0 is_stmt 1
 8241 0ec0 B9E0     		b	.L243
 8242              	.L339:
1113:STM32F10x_Speex_Lib/libspeex/smallft.c **** 
 8243              		.loc 2 1113 0
 8244 0ec2 00BF     		nop
 8245              	.L316:
1134:STM32F10x_Speex_Lib/libspeex/smallft.c **** 
1135:STM32F10x_Speex_Lib/libspeex/smallft.c ****  L139:
1136:STM32F10x_Speex_Lib/libspeex/smallft.c ****   is= -ido-1;
 8246              		.loc 2 1136 0
 8247 0ec4 FB68     		ldr	r3, [r7, #12]
 8248 0ec6 DB43     		mvns	r3, r3
 8249 0ec8 FB67     		str	r3, [r7, #124]
1137:STM32F10x_Speex_Lib/libspeex/smallft.c ****   t1=0;
 8250              		.loc 2 1137 0
 8251 0eca 0023     		movs	r3, #0
 8252 0ecc BB67     		str	r3, [r7, #120]
1138:STM32F10x_Speex_Lib/libspeex/smallft.c ****   for(j=1;j<ip;j++){
 8253              		.loc 2 1138 0
 8254 0ece 0123     		movs	r3, #1
 8255 0ed0 C7F88C30 		str	r3, [r7, #140]
 8256 0ed4 A7E0     		b	.L323
 8257              	.L328:
1139:STM32F10x_Speex_Lib/libspeex/smallft.c ****     is+=ido;
 8258              		.loc 2 1139 0
 8259 0ed6 FA6F     		ldr	r2, [r7, #124]
 8260 0ed8 FB68     		ldr	r3, [r7, #12]
 8261 0eda 1344     		add	r3, r3, r2
 8262 0edc FB67     		str	r3, [r7, #124]
1140:STM32F10x_Speex_Lib/libspeex/smallft.c ****     t1+=t0;
 8263              		.loc 2 1140 0
 8264 0ede BA6F     		ldr	r2, [r7, #120]
 8265 0ee0 BB6B     		ldr	r3, [r7, #56]
 8266 0ee2 1344     		add	r3, r3, r2
 8267 0ee4 BB67     		str	r3, [r7, #120]
1141:STM32F10x_Speex_Lib/libspeex/smallft.c ****     t2=t1;
 8268              		.loc 2 1141 0
 8269 0ee6 BB6F     		ldr	r3, [r7, #120]
 8270 0ee8 7B67     		str	r3, [r7, #116]
1142:STM32F10x_Speex_Lib/libspeex/smallft.c ****     for(k=0;k<l1;k++){
 8271              		.loc 2 1142 0
 8272 0eea 0023     		movs	r3, #0
 8273 0eec C7F88830 		str	r3, [r7, #136]
 8274 0ef0 8EE0     		b	.L324
 8275              	.L327:
1143:STM32F10x_Speex_Lib/libspeex/smallft.c ****       idij=is;
 8276              		.loc 2 1143 0
 8277 0ef2 FB6F     		ldr	r3, [r7, #124]
 8278 0ef4 C7F89430 		str	r3, [r7, #148]
1144:STM32F10x_Speex_Lib/libspeex/smallft.c ****       t3=t2;
 8279              		.loc 2 1144 0
 8280 0ef8 7B6F     		ldr	r3, [r7, #116]
 8281 0efa 3B67     		str	r3, [r7, #112]
1145:STM32F10x_Speex_Lib/libspeex/smallft.c ****       for(i=2;i<ido;i+=2){
ARM GAS  /var/folders/kh/x4vltyy52lbg7p4pcyglc5080000gp/T//ccKDo44O.s 			page 171


 8282              		.loc 2 1145 0
 8283 0efc 0223     		movs	r3, #2
 8284 0efe C7F89030 		str	r3, [r7, #144]
 8285 0f02 77E0     		b	.L325
 8286              	.L326:
1146:STM32F10x_Speex_Lib/libspeex/smallft.c ****         idij+=2;
 8287              		.loc 2 1146 0 discriminator 3
 8288 0f04 D7F89430 		ldr	r3, [r7, #148]
 8289 0f08 0233     		adds	r3, r3, #2
 8290 0f0a C7F89430 		str	r3, [r7, #148]
1147:STM32F10x_Speex_Lib/libspeex/smallft.c ****         t3+=2;
 8291              		.loc 2 1147 0 discriminator 3
 8292 0f0e 3B6F     		ldr	r3, [r7, #112]
 8293 0f10 0233     		adds	r3, r3, #2
 8294 0f12 3B67     		str	r3, [r7, #112]
1148:STM32F10x_Speex_Lib/libspeex/smallft.c ****         c1[t3-1]=wa[idij-1]*ch[t3-1]-wa[idij]*ch[t3];
 8295              		.loc 2 1148 0 discriminator 3
 8296 0f14 3B6F     		ldr	r3, [r7, #112]
 8297 0f16 03F18043 		add	r3, r3, #1073741824
 8298 0f1a 013B     		subs	r3, r3, #1
 8299 0f1c 9B00     		lsls	r3, r3, #2
 8300 0f1e D7F8AC20 		ldr	r2, [r7, #172]
 8301 0f22 D418     		adds	r4, r2, r3
 8302 0f24 D7F89430 		ldr	r3, [r7, #148]
 8303 0f28 03F18043 		add	r3, r3, #1073741824
 8304 0f2c 013B     		subs	r3, r3, #1
 8305 0f2e 9B00     		lsls	r3, r3, #2
 8306 0f30 D7F8BC20 		ldr	r2, [r7, #188]
 8307 0f34 1344     		add	r3, r3, r2
 8308 0f36 1868     		ldr	r0, [r3]	@ float
 8309 0f38 3B6F     		ldr	r3, [r7, #112]
 8310 0f3a 03F18043 		add	r3, r3, #1073741824
 8311 0f3e 013B     		subs	r3, r3, #1
 8312 0f40 9B00     		lsls	r3, r3, #2
 8313 0f42 D7F8B420 		ldr	r2, [r7, #180]
 8314 0f46 1344     		add	r3, r3, r2
 8315 0f48 1B68     		ldr	r3, [r3]	@ float
 8316 0f4a 1946     		mov	r1, r3
 8317 0f4c FFF7FEFF 		bl	__aeabi_fmul
 8318 0f50 0346     		mov	r3, r0
 8319 0f52 1D46     		mov	r5, r3
 8320 0f54 D7F89430 		ldr	r3, [r7, #148]
 8321 0f58 9B00     		lsls	r3, r3, #2
 8322 0f5a D7F8BC20 		ldr	r2, [r7, #188]
 8323 0f5e 1344     		add	r3, r3, r2
 8324 0f60 1868     		ldr	r0, [r3]	@ float
 8325 0f62 3B6F     		ldr	r3, [r7, #112]
 8326 0f64 9B00     		lsls	r3, r3, #2
 8327 0f66 D7F8B420 		ldr	r2, [r7, #180]
 8328 0f6a 1344     		add	r3, r3, r2
 8329 0f6c 1B68     		ldr	r3, [r3]	@ float
 8330 0f6e 1946     		mov	r1, r3
 8331 0f70 FFF7FEFF 		bl	__aeabi_fmul
 8332 0f74 0346     		mov	r3, r0
 8333 0f76 1946     		mov	r1, r3
 8334 0f78 2846     		mov	r0, r5
 8335 0f7a FFF7FEFF 		bl	__aeabi_fsub
ARM GAS  /var/folders/kh/x4vltyy52lbg7p4pcyglc5080000gp/T//ccKDo44O.s 			page 172


 8336 0f7e 0346     		mov	r3, r0
 8337 0f80 2360     		str	r3, [r4]	@ float
1149:STM32F10x_Speex_Lib/libspeex/smallft.c ****         c1[t3]=wa[idij-1]*ch[t3]+wa[idij]*ch[t3-1];
 8338              		.loc 2 1149 0 discriminator 3
 8339 0f82 3B6F     		ldr	r3, [r7, #112]
 8340 0f84 9B00     		lsls	r3, r3, #2
 8341 0f86 D7F8AC20 		ldr	r2, [r7, #172]
 8342 0f8a D418     		adds	r4, r2, r3
 8343 0f8c D7F89430 		ldr	r3, [r7, #148]
 8344 0f90 03F18043 		add	r3, r3, #1073741824
 8345 0f94 013B     		subs	r3, r3, #1
 8346 0f96 9B00     		lsls	r3, r3, #2
 8347 0f98 D7F8BC20 		ldr	r2, [r7, #188]
 8348 0f9c 1344     		add	r3, r3, r2
 8349 0f9e 1868     		ldr	r0, [r3]	@ float
 8350 0fa0 3B6F     		ldr	r3, [r7, #112]
 8351 0fa2 9B00     		lsls	r3, r3, #2
 8352 0fa4 D7F8B420 		ldr	r2, [r7, #180]
 8353 0fa8 1344     		add	r3, r3, r2
 8354 0faa 1B68     		ldr	r3, [r3]	@ float
 8355 0fac 1946     		mov	r1, r3
 8356 0fae FFF7FEFF 		bl	__aeabi_fmul
 8357 0fb2 0346     		mov	r3, r0
 8358 0fb4 1D46     		mov	r5, r3
 8359 0fb6 D7F89430 		ldr	r3, [r7, #148]
 8360 0fba 9B00     		lsls	r3, r3, #2
 8361 0fbc D7F8BC20 		ldr	r2, [r7, #188]
 8362 0fc0 1344     		add	r3, r3, r2
 8363 0fc2 1868     		ldr	r0, [r3]	@ float
 8364 0fc4 3B6F     		ldr	r3, [r7, #112]
 8365 0fc6 03F18043 		add	r3, r3, #1073741824
 8366 0fca 013B     		subs	r3, r3, #1
 8367 0fcc 9B00     		lsls	r3, r3, #2
 8368 0fce D7F8B420 		ldr	r2, [r7, #180]
 8369 0fd2 1344     		add	r3, r3, r2
 8370 0fd4 1B68     		ldr	r3, [r3]	@ float
 8371 0fd6 1946     		mov	r1, r3
 8372 0fd8 FFF7FEFF 		bl	__aeabi_fmul
 8373 0fdc 0346     		mov	r3, r0
 8374 0fde 1946     		mov	r1, r3
 8375 0fe0 2846     		mov	r0, r5
 8376 0fe2 FFF7FEFF 		bl	__aeabi_fadd
 8377 0fe6 0346     		mov	r3, r0
 8378 0fe8 2360     		str	r3, [r4]	@ float
1145:STM32F10x_Speex_Lib/libspeex/smallft.c ****         idij+=2;
 8379              		.loc 2 1145 0 discriminator 3
 8380 0fea D7F89030 		ldr	r3, [r7, #144]
 8381 0fee 0233     		adds	r3, r3, #2
 8382 0ff0 C7F89030 		str	r3, [r7, #144]
 8383              	.L325:
1145:STM32F10x_Speex_Lib/libspeex/smallft.c ****         idij+=2;
 8384              		.loc 2 1145 0 is_stmt 0 discriminator 1
 8385 0ff4 D7F89020 		ldr	r2, [r7, #144]
 8386 0ff8 FB68     		ldr	r3, [r7, #12]
 8387 0ffa 9A42     		cmp	r2, r3
 8388 0ffc 82DB     		blt	.L326
1150:STM32F10x_Speex_Lib/libspeex/smallft.c ****       }
ARM GAS  /var/folders/kh/x4vltyy52lbg7p4pcyglc5080000gp/T//ccKDo44O.s 			page 173


1151:STM32F10x_Speex_Lib/libspeex/smallft.c ****       t2+=ido;
 8389              		.loc 2 1151 0 is_stmt 1 discriminator 2
 8390 0ffe 7A6F     		ldr	r2, [r7, #116]
 8391 1000 FB68     		ldr	r3, [r7, #12]
 8392 1002 1344     		add	r3, r3, r2
 8393 1004 7B67     		str	r3, [r7, #116]
1142:STM32F10x_Speex_Lib/libspeex/smallft.c ****       idij=is;
 8394              		.loc 2 1142 0 discriminator 2
 8395 1006 D7F88830 		ldr	r3, [r7, #136]
 8396 100a 0133     		adds	r3, r3, #1
 8397 100c C7F88830 		str	r3, [r7, #136]
 8398              	.L324:
1142:STM32F10x_Speex_Lib/libspeex/smallft.c ****       idij=is;
 8399              		.loc 2 1142 0 is_stmt 0 discriminator 1
 8400 1010 D7F88820 		ldr	r2, [r7, #136]
 8401 1014 7B68     		ldr	r3, [r7, #4]
 8402 1016 9A42     		cmp	r2, r3
 8403 1018 FFF66BAF 		blt	.L327
1138:STM32F10x_Speex_Lib/libspeex/smallft.c ****     is+=ido;
 8404              		.loc 2 1138 0 is_stmt 1 discriminator 2
 8405 101c D7F88C30 		ldr	r3, [r7, #140]
 8406 1020 0133     		adds	r3, r3, #1
 8407 1022 C7F88C30 		str	r3, [r7, #140]
 8408              	.L323:
1138:STM32F10x_Speex_Lib/libspeex/smallft.c ****     is+=ido;
 8409              		.loc 2 1138 0 is_stmt 0 discriminator 1
 8410 1026 D7F88C20 		ldr	r2, [r7, #140]
 8411 102a BB68     		ldr	r3, [r7, #8]
 8412 102c 9A42     		cmp	r2, r3
 8413 102e FFF652AF 		blt	.L328
 8414 1032 00E0     		b	.L243
 8415              	.L338:
1100:STM32F10x_Speex_Lib/libspeex/smallft.c **** 
 8416              		.loc 2 1100 0 is_stmt 1
 8417 1034 00BF     		nop
 8418              	.L243:
1152:STM32F10x_Speex_Lib/libspeex/smallft.c ****     }
1153:STM32F10x_Speex_Lib/libspeex/smallft.c ****   }
1154:STM32F10x_Speex_Lib/libspeex/smallft.c **** }
 8419              		.loc 2 1154 0
 8420 1036 9837     		adds	r7, r7, #152
 8421              	.LCFI58:
 8422              		.cfi_def_cfa_offset 16
 8423 1038 BD46     		mov	sp, r7
 8424              	.LCFI59:
 8425              		.cfi_def_cfa_register 13
 8426              		@ sp needed
 8427 103a B0BD     		pop	{r4, r5, r7, pc}
 8428              		.cfi_endproc
 8429              	.LFE18:
 8431              		.section	.text.drftb1,"ax",%progbits
 8432              		.align	2
 8433              		.thumb
 8434              		.thumb_func
 8436              	drftb1:
 8437              	.LFB19:
1155:STM32F10x_Speex_Lib/libspeex/smallft.c **** 
ARM GAS  /var/folders/kh/x4vltyy52lbg7p4pcyglc5080000gp/T//ccKDo44O.s 			page 174


1156:STM32F10x_Speex_Lib/libspeex/smallft.c **** static void drftb1(int n, float *c, float *ch, float *wa, int *ifac){
 8438              		.loc 2 1156 0
 8439              		.cfi_startproc
 8440              		@ args = 4, pretend = 0, frame = 64
 8441              		@ frame_needed = 1, uses_anonymous_args = 0
 8442 0000 80B5     		push	{r7, lr}
 8443              	.LCFI60:
 8444              		.cfi_def_cfa_offset 8
 8445              		.cfi_offset 7, -8
 8446              		.cfi_offset 14, -4
 8447 0002 96B0     		sub	sp, sp, #88
 8448              	.LCFI61:
 8449              		.cfi_def_cfa_offset 96
 8450 0004 06AF     		add	r7, sp, #24
 8451              	.LCFI62:
 8452              		.cfi_def_cfa 7, 72
 8453 0006 F860     		str	r0, [r7, #12]
 8454 0008 B960     		str	r1, [r7, #8]
 8455 000a 7A60     		str	r2, [r7, #4]
 8456 000c 3B60     		str	r3, [r7]
1157:STM32F10x_Speex_Lib/libspeex/smallft.c ****   int i,k1,l1,l2;
1158:STM32F10x_Speex_Lib/libspeex/smallft.c ****   int na;
1159:STM32F10x_Speex_Lib/libspeex/smallft.c ****   int nf,ip,iw,ix2,ix3,ido,idl1;
1160:STM32F10x_Speex_Lib/libspeex/smallft.c **** 
1161:STM32F10x_Speex_Lib/libspeex/smallft.c ****   nf=ifac[1];
 8457              		.loc 2 1161 0
 8458 000e BB6C     		ldr	r3, [r7, #72]
 8459 0010 5B68     		ldr	r3, [r3, #4]
 8460 0012 BB62     		str	r3, [r7, #40]
1162:STM32F10x_Speex_Lib/libspeex/smallft.c ****   na=0;
 8461              		.loc 2 1162 0
 8462 0014 0023     		movs	r3, #0
 8463 0016 3B63     		str	r3, [r7, #48]
1163:STM32F10x_Speex_Lib/libspeex/smallft.c ****   l1=1;
 8464              		.loc 2 1163 0
 8465 0018 0123     		movs	r3, #1
 8466 001a 7B63     		str	r3, [r7, #52]
1164:STM32F10x_Speex_Lib/libspeex/smallft.c ****   iw=1;
 8467              		.loc 2 1164 0
 8468 001c 0123     		movs	r3, #1
 8469 001e FB62     		str	r3, [r7, #44]
1165:STM32F10x_Speex_Lib/libspeex/smallft.c **** 
1166:STM32F10x_Speex_Lib/libspeex/smallft.c ****   for(k1=0;k1<nf;k1++){
 8470              		.loc 2 1166 0
 8471 0020 0023     		movs	r3, #0
 8472 0022 BB63     		str	r3, [r7, #56]
 8473 0024 14E1     		b	.L343
 8474              	.L359:
1167:STM32F10x_Speex_Lib/libspeex/smallft.c ****     ip=ifac[k1 + 2];
 8475              		.loc 2 1167 0
 8476 0026 BB6B     		ldr	r3, [r7, #56]
 8477 0028 0233     		adds	r3, r3, #2
 8478 002a 9B00     		lsls	r3, r3, #2
 8479 002c BA6C     		ldr	r2, [r7, #72]
 8480 002e 1344     		add	r3, r3, r2
 8481 0030 1B68     		ldr	r3, [r3]
 8482 0032 7B62     		str	r3, [r7, #36]
ARM GAS  /var/folders/kh/x4vltyy52lbg7p4pcyglc5080000gp/T//ccKDo44O.s 			page 175


1168:STM32F10x_Speex_Lib/libspeex/smallft.c ****     l2=ip*l1;
 8483              		.loc 2 1168 0
 8484 0034 7B6A     		ldr	r3, [r7, #36]
 8485 0036 7A6B     		ldr	r2, [r7, #52]
 8486 0038 02FB03F3 		mul	r3, r2, r3
 8487 003c 3B62     		str	r3, [r7, #32]
1169:STM32F10x_Speex_Lib/libspeex/smallft.c ****     ido=n/l2;
 8488              		.loc 2 1169 0
 8489 003e FA68     		ldr	r2, [r7, #12]
 8490 0040 3B6A     		ldr	r3, [r7, #32]
 8491 0042 92FBF3F3 		sdiv	r3, r2, r3
 8492 0046 FB61     		str	r3, [r7, #28]
1170:STM32F10x_Speex_Lib/libspeex/smallft.c ****     idl1=ido*l1;
 8493              		.loc 2 1170 0
 8494 0048 FB69     		ldr	r3, [r7, #28]
 8495 004a 7A6B     		ldr	r2, [r7, #52]
 8496 004c 02FB03F3 		mul	r3, r2, r3
 8497 0050 BB61     		str	r3, [r7, #24]
1171:STM32F10x_Speex_Lib/libspeex/smallft.c ****     if(ip!=4)goto L103;
 8498              		.loc 2 1171 0
 8499 0052 7B6A     		ldr	r3, [r7, #36]
 8500 0054 042B     		cmp	r3, #4
 8501 0056 4CD1     		bne	.L367
1172:STM32F10x_Speex_Lib/libspeex/smallft.c ****     ix2=iw+ido;
 8502              		.loc 2 1172 0
 8503 0058 FA6A     		ldr	r2, [r7, #44]
 8504 005a FB69     		ldr	r3, [r7, #28]
 8505 005c 1344     		add	r3, r3, r2
 8506 005e 7B61     		str	r3, [r7, #20]
1173:STM32F10x_Speex_Lib/libspeex/smallft.c ****     ix3=ix2+ido;
 8507              		.loc 2 1173 0
 8508 0060 7A69     		ldr	r2, [r7, #20]
 8509 0062 FB69     		ldr	r3, [r7, #28]
 8510 0064 1344     		add	r3, r3, r2
 8511 0066 3B61     		str	r3, [r7, #16]
1174:STM32F10x_Speex_Lib/libspeex/smallft.c **** 
1175:STM32F10x_Speex_Lib/libspeex/smallft.c ****     if(na!=0)
 8512              		.loc 2 1175 0
 8513 0068 3B6B     		ldr	r3, [r7, #48]
 8514 006a 002B     		cmp	r3, #0
 8515 006c 1ED0     		beq	.L346
1176:STM32F10x_Speex_Lib/libspeex/smallft.c ****       dradb4(ido,l1,ch,c,wa+iw-1,wa+ix2-1,wa+ix3-1);
 8516              		.loc 2 1176 0
 8517 006e FB6A     		ldr	r3, [r7, #44]
 8518 0070 03F18043 		add	r3, r3, #1073741824
 8519 0074 013B     		subs	r3, r3, #1
 8520 0076 9B00     		lsls	r3, r3, #2
 8521 0078 3A68     		ldr	r2, [r7]
 8522 007a 1A44     		add	r2, r2, r3
 8523 007c 7B69     		ldr	r3, [r7, #20]
 8524 007e 03F18043 		add	r3, r3, #1073741824
 8525 0082 013B     		subs	r3, r3, #1
 8526 0084 9B00     		lsls	r3, r3, #2
 8527 0086 3968     		ldr	r1, [r7]
 8528 0088 1944     		add	r1, r1, r3
 8529 008a 3B69     		ldr	r3, [r7, #16]
 8530 008c 03F18043 		add	r3, r3, #1073741824
ARM GAS  /var/folders/kh/x4vltyy52lbg7p4pcyglc5080000gp/T//ccKDo44O.s 			page 176


 8531 0090 013B     		subs	r3, r3, #1
 8532 0092 9B00     		lsls	r3, r3, #2
 8533 0094 3868     		ldr	r0, [r7]
 8534 0096 0344     		add	r3, r3, r0
 8535 0098 0293     		str	r3, [sp, #8]
 8536 009a 0191     		str	r1, [sp, #4]
 8537 009c 0092     		str	r2, [sp]
 8538 009e BB68     		ldr	r3, [r7, #8]
 8539 00a0 7A68     		ldr	r2, [r7, #4]
 8540 00a2 796B     		ldr	r1, [r7, #52]
 8541 00a4 F869     		ldr	r0, [r7, #28]
 8542 00a6 FFF7FEFF 		bl	dradb4
 8543 00aa 1DE0     		b	.L347
 8544              	.L346:
1177:STM32F10x_Speex_Lib/libspeex/smallft.c ****     else
1178:STM32F10x_Speex_Lib/libspeex/smallft.c ****       dradb4(ido,l1,c,ch,wa+iw-1,wa+ix2-1,wa+ix3-1);
 8545              		.loc 2 1178 0
 8546 00ac FB6A     		ldr	r3, [r7, #44]
 8547 00ae 03F18043 		add	r3, r3, #1073741824
 8548 00b2 013B     		subs	r3, r3, #1
 8549 00b4 9B00     		lsls	r3, r3, #2
 8550 00b6 3A68     		ldr	r2, [r7]
 8551 00b8 1A44     		add	r2, r2, r3
 8552 00ba 7B69     		ldr	r3, [r7, #20]
 8553 00bc 03F18043 		add	r3, r3, #1073741824
 8554 00c0 013B     		subs	r3, r3, #1
 8555 00c2 9B00     		lsls	r3, r3, #2
 8556 00c4 3968     		ldr	r1, [r7]
 8557 00c6 1944     		add	r1, r1, r3
 8558 00c8 3B69     		ldr	r3, [r7, #16]
 8559 00ca 03F18043 		add	r3, r3, #1073741824
 8560 00ce 013B     		subs	r3, r3, #1
 8561 00d0 9B00     		lsls	r3, r3, #2
 8562 00d2 3868     		ldr	r0, [r7]
 8563 00d4 0344     		add	r3, r3, r0
 8564 00d6 0293     		str	r3, [sp, #8]
 8565 00d8 0191     		str	r1, [sp, #4]
 8566 00da 0092     		str	r2, [sp]
 8567 00dc 7B68     		ldr	r3, [r7, #4]
 8568 00de BA68     		ldr	r2, [r7, #8]
 8569 00e0 796B     		ldr	r1, [r7, #52]
 8570 00e2 F869     		ldr	r0, [r7, #28]
 8571 00e4 FFF7FEFF 		bl	dradb4
 8572              	.L347:
1179:STM32F10x_Speex_Lib/libspeex/smallft.c ****     na=1-na;
 8573              		.loc 2 1179 0
 8574 00e8 3B6B     		ldr	r3, [r7, #48]
 8575 00ea C3F10103 		rsb	r3, r3, #1
 8576 00ee 3B63     		str	r3, [r7, #48]
1180:STM32F10x_Speex_Lib/libspeex/smallft.c ****     goto L115;
 8577              		.loc 2 1180 0
 8578 00f0 A1E0     		b	.L348
 8579              	.L367:
1171:STM32F10x_Speex_Lib/libspeex/smallft.c ****     ix2=iw+ido;
 8580              		.loc 2 1171 0
 8581 00f2 00BF     		nop
 8582              	.L345:
ARM GAS  /var/folders/kh/x4vltyy52lbg7p4pcyglc5080000gp/T//ccKDo44O.s 			page 177


1181:STM32F10x_Speex_Lib/libspeex/smallft.c **** 
1182:STM32F10x_Speex_Lib/libspeex/smallft.c ****   L103:
1183:STM32F10x_Speex_Lib/libspeex/smallft.c ****     if(ip!=2)goto L106;
 8583              		.loc 2 1183 0
 8584 00f4 7B6A     		ldr	r3, [r7, #36]
 8585 00f6 022B     		cmp	r3, #2
 8586 00f8 24D1     		bne	.L368
1184:STM32F10x_Speex_Lib/libspeex/smallft.c **** 
1185:STM32F10x_Speex_Lib/libspeex/smallft.c ****     if(na!=0)
 8587              		.loc 2 1185 0
 8588 00fa 3B6B     		ldr	r3, [r7, #48]
 8589 00fc 002B     		cmp	r3, #0
 8590 00fe 0ED0     		beq	.L351
1186:STM32F10x_Speex_Lib/libspeex/smallft.c ****       dradb2(ido,l1,ch,c,wa+iw-1);
 8591              		.loc 2 1186 0
 8592 0100 FB6A     		ldr	r3, [r7, #44]
 8593 0102 03F18043 		add	r3, r3, #1073741824
 8594 0106 013B     		subs	r3, r3, #1
 8595 0108 9B00     		lsls	r3, r3, #2
 8596 010a 3A68     		ldr	r2, [r7]
 8597 010c 1344     		add	r3, r3, r2
 8598 010e 0093     		str	r3, [sp]
 8599 0110 BB68     		ldr	r3, [r7, #8]
 8600 0112 7A68     		ldr	r2, [r7, #4]
 8601 0114 796B     		ldr	r1, [r7, #52]
 8602 0116 F869     		ldr	r0, [r7, #28]
 8603 0118 FFF7FEFF 		bl	dradb2
 8604 011c 0DE0     		b	.L352
 8605              	.L351:
1187:STM32F10x_Speex_Lib/libspeex/smallft.c ****     else
1188:STM32F10x_Speex_Lib/libspeex/smallft.c ****       dradb2(ido,l1,c,ch,wa+iw-1);
 8606              		.loc 2 1188 0
 8607 011e FB6A     		ldr	r3, [r7, #44]
 8608 0120 03F18043 		add	r3, r3, #1073741824
 8609 0124 013B     		subs	r3, r3, #1
 8610 0126 9B00     		lsls	r3, r3, #2
 8611 0128 3A68     		ldr	r2, [r7]
 8612 012a 1344     		add	r3, r3, r2
 8613 012c 0093     		str	r3, [sp]
 8614 012e 7B68     		ldr	r3, [r7, #4]
 8615 0130 BA68     		ldr	r2, [r7, #8]
 8616 0132 796B     		ldr	r1, [r7, #52]
 8617 0134 F869     		ldr	r0, [r7, #28]
 8618 0136 FFF7FEFF 		bl	dradb2
 8619              	.L352:
1189:STM32F10x_Speex_Lib/libspeex/smallft.c ****     na=1-na;
 8620              		.loc 2 1189 0
 8621 013a 3B6B     		ldr	r3, [r7, #48]
 8622 013c C3F10103 		rsb	r3, r3, #1
 8623 0140 3B63     		str	r3, [r7, #48]
1190:STM32F10x_Speex_Lib/libspeex/smallft.c ****     goto L115;
 8624              		.loc 2 1190 0
 8625 0142 78E0     		b	.L348
 8626              	.L368:
1183:STM32F10x_Speex_Lib/libspeex/smallft.c **** 
 8627              		.loc 2 1183 0
 8628 0144 00BF     		nop
ARM GAS  /var/folders/kh/x4vltyy52lbg7p4pcyglc5080000gp/T//ccKDo44O.s 			page 178


 8629              	.L350:
1191:STM32F10x_Speex_Lib/libspeex/smallft.c **** 
1192:STM32F10x_Speex_Lib/libspeex/smallft.c ****   L106:
1193:STM32F10x_Speex_Lib/libspeex/smallft.c ****     if(ip!=3)goto L109;
 8630              		.loc 2 1193 0
 8631 0146 7B6A     		ldr	r3, [r7, #36]
 8632 0148 032B     		cmp	r3, #3
 8633 014a 38D1     		bne	.L369
1194:STM32F10x_Speex_Lib/libspeex/smallft.c **** 
1195:STM32F10x_Speex_Lib/libspeex/smallft.c ****     ix2=iw+ido;
 8634              		.loc 2 1195 0
 8635 014c FA6A     		ldr	r2, [r7, #44]
 8636 014e FB69     		ldr	r3, [r7, #28]
 8637 0150 1344     		add	r3, r3, r2
 8638 0152 7B61     		str	r3, [r7, #20]
1196:STM32F10x_Speex_Lib/libspeex/smallft.c ****     if(na!=0)
 8639              		.loc 2 1196 0
 8640 0154 3B6B     		ldr	r3, [r7, #48]
 8641 0156 002B     		cmp	r3, #0
 8642 0158 16D0     		beq	.L355
1197:STM32F10x_Speex_Lib/libspeex/smallft.c ****       dradb3(ido,l1,ch,c,wa+iw-1,wa+ix2-1);
 8643              		.loc 2 1197 0
 8644 015a FB6A     		ldr	r3, [r7, #44]
 8645 015c 03F18043 		add	r3, r3, #1073741824
 8646 0160 013B     		subs	r3, r3, #1
 8647 0162 9B00     		lsls	r3, r3, #2
 8648 0164 3A68     		ldr	r2, [r7]
 8649 0166 1A44     		add	r2, r2, r3
 8650 0168 7B69     		ldr	r3, [r7, #20]
 8651 016a 03F18043 		add	r3, r3, #1073741824
 8652 016e 013B     		subs	r3, r3, #1
 8653 0170 9B00     		lsls	r3, r3, #2
 8654 0172 3968     		ldr	r1, [r7]
 8655 0174 0B44     		add	r3, r3, r1
 8656 0176 0193     		str	r3, [sp, #4]
 8657 0178 0092     		str	r2, [sp]
 8658 017a BB68     		ldr	r3, [r7, #8]
 8659 017c 7A68     		ldr	r2, [r7, #4]
 8660 017e 796B     		ldr	r1, [r7, #52]
 8661 0180 F869     		ldr	r0, [r7, #28]
 8662 0182 FFF7FEFF 		bl	dradb3
 8663 0186 15E0     		b	.L356
 8664              	.L355:
1198:STM32F10x_Speex_Lib/libspeex/smallft.c ****     else
1199:STM32F10x_Speex_Lib/libspeex/smallft.c ****       dradb3(ido,l1,c,ch,wa+iw-1,wa+ix2-1);
 8665              		.loc 2 1199 0
 8666 0188 FB6A     		ldr	r3, [r7, #44]
 8667 018a 03F18043 		add	r3, r3, #1073741824
 8668 018e 013B     		subs	r3, r3, #1
 8669 0190 9B00     		lsls	r3, r3, #2
 8670 0192 3A68     		ldr	r2, [r7]
 8671 0194 1A44     		add	r2, r2, r3
 8672 0196 7B69     		ldr	r3, [r7, #20]
 8673 0198 03F18043 		add	r3, r3, #1073741824
 8674 019c 013B     		subs	r3, r3, #1
 8675 019e 9B00     		lsls	r3, r3, #2
 8676 01a0 3968     		ldr	r1, [r7]
ARM GAS  /var/folders/kh/x4vltyy52lbg7p4pcyglc5080000gp/T//ccKDo44O.s 			page 179


 8677 01a2 0B44     		add	r3, r3, r1
 8678 01a4 0193     		str	r3, [sp, #4]
 8679 01a6 0092     		str	r2, [sp]
 8680 01a8 7B68     		ldr	r3, [r7, #4]
 8681 01aa BA68     		ldr	r2, [r7, #8]
 8682 01ac 796B     		ldr	r1, [r7, #52]
 8683 01ae F869     		ldr	r0, [r7, #28]
 8684 01b0 FFF7FEFF 		bl	dradb3
 8685              	.L356:
1200:STM32F10x_Speex_Lib/libspeex/smallft.c ****     na=1-na;
 8686              		.loc 2 1200 0
 8687 01b4 3B6B     		ldr	r3, [r7, #48]
 8688 01b6 C3F10103 		rsb	r3, r3, #1
 8689 01ba 3B63     		str	r3, [r7, #48]
1201:STM32F10x_Speex_Lib/libspeex/smallft.c ****     goto L115;
 8690              		.loc 2 1201 0
 8691 01bc 3BE0     		b	.L348
 8692              	.L369:
1193:STM32F10x_Speex_Lib/libspeex/smallft.c **** 
 8693              		.loc 2 1193 0
 8694 01be 00BF     		nop
 8695              	.L354:
1202:STM32F10x_Speex_Lib/libspeex/smallft.c **** 
1203:STM32F10x_Speex_Lib/libspeex/smallft.c ****   L109:
1204:STM32F10x_Speex_Lib/libspeex/smallft.c **** /*    The radix five case can be translated later..... */
1205:STM32F10x_Speex_Lib/libspeex/smallft.c **** /*    if(ip!=5)goto L112;
1206:STM32F10x_Speex_Lib/libspeex/smallft.c **** 
1207:STM32F10x_Speex_Lib/libspeex/smallft.c ****     ix2=iw+ido;
1208:STM32F10x_Speex_Lib/libspeex/smallft.c ****     ix3=ix2+ido;
1209:STM32F10x_Speex_Lib/libspeex/smallft.c ****     ix4=ix3+ido;
1210:STM32F10x_Speex_Lib/libspeex/smallft.c ****     if(na!=0)
1211:STM32F10x_Speex_Lib/libspeex/smallft.c ****       dradb5(ido,l1,ch,c,wa+iw-1,wa+ix2-1,wa+ix3-1,wa+ix4-1);
1212:STM32F10x_Speex_Lib/libspeex/smallft.c ****     else
1213:STM32F10x_Speex_Lib/libspeex/smallft.c ****       dradb5(ido,l1,c,ch,wa+iw-1,wa+ix2-1,wa+ix3-1,wa+ix4-1);
1214:STM32F10x_Speex_Lib/libspeex/smallft.c ****     na=1-na;
1215:STM32F10x_Speex_Lib/libspeex/smallft.c ****     goto L115;
1216:STM32F10x_Speex_Lib/libspeex/smallft.c **** 
1217:STM32F10x_Speex_Lib/libspeex/smallft.c ****   L112:*/
1218:STM32F10x_Speex_Lib/libspeex/smallft.c ****     if(na!=0)
 8696              		.loc 2 1218 0
 8697 01c0 3B6B     		ldr	r3, [r7, #48]
 8698 01c2 002B     		cmp	r3, #0
 8699 01c4 18D0     		beq	.L357
1219:STM32F10x_Speex_Lib/libspeex/smallft.c ****       dradbg(ido,ip,l1,idl1,ch,ch,ch,c,c,wa+iw-1);
 8700              		.loc 2 1219 0
 8701 01c6 FB6A     		ldr	r3, [r7, #44]
 8702 01c8 03F18043 		add	r3, r3, #1073741824
 8703 01cc 013B     		subs	r3, r3, #1
 8704 01ce 9B00     		lsls	r3, r3, #2
 8705 01d0 3A68     		ldr	r2, [r7]
 8706 01d2 1344     		add	r3, r3, r2
 8707 01d4 0593     		str	r3, [sp, #20]
 8708 01d6 BB68     		ldr	r3, [r7, #8]
 8709 01d8 0493     		str	r3, [sp, #16]
 8710 01da BB68     		ldr	r3, [r7, #8]
 8711 01dc 0393     		str	r3, [sp, #12]
 8712 01de 7B68     		ldr	r3, [r7, #4]
ARM GAS  /var/folders/kh/x4vltyy52lbg7p4pcyglc5080000gp/T//ccKDo44O.s 			page 180


 8713 01e0 0293     		str	r3, [sp, #8]
 8714 01e2 7B68     		ldr	r3, [r7, #4]
 8715 01e4 0193     		str	r3, [sp, #4]
 8716 01e6 7B68     		ldr	r3, [r7, #4]
 8717 01e8 0093     		str	r3, [sp]
 8718 01ea BB69     		ldr	r3, [r7, #24]
 8719 01ec 7A6B     		ldr	r2, [r7, #52]
 8720 01ee 796A     		ldr	r1, [r7, #36]
 8721 01f0 F869     		ldr	r0, [r7, #28]
 8722 01f2 FFF7FEFF 		bl	dradbg
 8723 01f6 17E0     		b	.L358
 8724              	.L357:
1220:STM32F10x_Speex_Lib/libspeex/smallft.c ****     else
1221:STM32F10x_Speex_Lib/libspeex/smallft.c ****       dradbg(ido,ip,l1,idl1,c,c,c,ch,ch,wa+iw-1);
 8725              		.loc 2 1221 0
 8726 01f8 FB6A     		ldr	r3, [r7, #44]
 8727 01fa 03F18043 		add	r3, r3, #1073741824
 8728 01fe 013B     		subs	r3, r3, #1
 8729 0200 9B00     		lsls	r3, r3, #2
 8730 0202 3A68     		ldr	r2, [r7]
 8731 0204 1344     		add	r3, r3, r2
 8732 0206 0593     		str	r3, [sp, #20]
 8733 0208 7B68     		ldr	r3, [r7, #4]
 8734 020a 0493     		str	r3, [sp, #16]
 8735 020c 7B68     		ldr	r3, [r7, #4]
 8736 020e 0393     		str	r3, [sp, #12]
 8737 0210 BB68     		ldr	r3, [r7, #8]
 8738 0212 0293     		str	r3, [sp, #8]
 8739 0214 BB68     		ldr	r3, [r7, #8]
 8740 0216 0193     		str	r3, [sp, #4]
 8741 0218 BB68     		ldr	r3, [r7, #8]
 8742 021a 0093     		str	r3, [sp]
 8743 021c BB69     		ldr	r3, [r7, #24]
 8744 021e 7A6B     		ldr	r2, [r7, #52]
 8745 0220 796A     		ldr	r1, [r7, #36]
 8746 0222 F869     		ldr	r0, [r7, #28]
 8747 0224 FFF7FEFF 		bl	dradbg
 8748              	.L358:
1222:STM32F10x_Speex_Lib/libspeex/smallft.c ****     if(ido==1)na=1-na;
 8749              		.loc 2 1222 0
 8750 0228 FB69     		ldr	r3, [r7, #28]
 8751 022a 012B     		cmp	r3, #1
 8752 022c 03D1     		bne	.L348
 8753              		.loc 2 1222 0 is_stmt 0 discriminator 1
 8754 022e 3B6B     		ldr	r3, [r7, #48]
 8755 0230 C3F10103 		rsb	r3, r3, #1
 8756 0234 3B63     		str	r3, [r7, #48]
 8757              	.L348:
1223:STM32F10x_Speex_Lib/libspeex/smallft.c **** 
1224:STM32F10x_Speex_Lib/libspeex/smallft.c ****   L115:
1225:STM32F10x_Speex_Lib/libspeex/smallft.c ****     l1=l2;
 8758              		.loc 2 1225 0 is_stmt 1 discriminator 2
 8759 0236 3B6A     		ldr	r3, [r7, #32]
 8760 0238 7B63     		str	r3, [r7, #52]
1226:STM32F10x_Speex_Lib/libspeex/smallft.c ****     iw+=(ip-1)*ido;
 8761              		.loc 2 1226 0 discriminator 2
 8762 023a 7B6A     		ldr	r3, [r7, #36]
ARM GAS  /var/folders/kh/x4vltyy52lbg7p4pcyglc5080000gp/T//ccKDo44O.s 			page 181


 8763 023c 013B     		subs	r3, r3, #1
 8764 023e FA69     		ldr	r2, [r7, #28]
 8765 0240 02FB03F3 		mul	r3, r2, r3
 8766 0244 FA6A     		ldr	r2, [r7, #44]
 8767 0246 1344     		add	r3, r3, r2
 8768 0248 FB62     		str	r3, [r7, #44]
1166:STM32F10x_Speex_Lib/libspeex/smallft.c ****     ip=ifac[k1 + 2];
 8769              		.loc 2 1166 0 discriminator 2
 8770 024a BB6B     		ldr	r3, [r7, #56]
 8771 024c 0133     		adds	r3, r3, #1
 8772 024e BB63     		str	r3, [r7, #56]
 8773              	.L343:
1166:STM32F10x_Speex_Lib/libspeex/smallft.c ****     ip=ifac[k1 + 2];
 8774              		.loc 2 1166 0 is_stmt 0 discriminator 1
 8775 0250 BA6B     		ldr	r2, [r7, #56]
 8776 0252 BB6A     		ldr	r3, [r7, #40]
 8777 0254 9A42     		cmp	r2, r3
 8778 0256 FFF6E6AE 		blt	.L359
1227:STM32F10x_Speex_Lib/libspeex/smallft.c ****   }
1228:STM32F10x_Speex_Lib/libspeex/smallft.c **** 
1229:STM32F10x_Speex_Lib/libspeex/smallft.c ****   if(na==0)return;
 8779              		.loc 2 1229 0 is_stmt 1
 8780 025a 3B6B     		ldr	r3, [r7, #48]
 8781 025c 002B     		cmp	r3, #0
 8782 025e 14D0     		beq	.L370
1230:STM32F10x_Speex_Lib/libspeex/smallft.c **** 
1231:STM32F10x_Speex_Lib/libspeex/smallft.c ****   for(i=0;i<n;i++)c[i]=ch[i];
 8783              		.loc 2 1231 0
 8784 0260 0023     		movs	r3, #0
 8785 0262 FB63     		str	r3, [r7, #60]
 8786 0264 0CE0     		b	.L362
 8787              	.L363:
 8788              		.loc 2 1231 0 is_stmt 0 discriminator 3
 8789 0266 FB6B     		ldr	r3, [r7, #60]
 8790 0268 9B00     		lsls	r3, r3, #2
 8791 026a BA68     		ldr	r2, [r7, #8]
 8792 026c 1344     		add	r3, r3, r2
 8793 026e FA6B     		ldr	r2, [r7, #60]
 8794 0270 9200     		lsls	r2, r2, #2
 8795 0272 7968     		ldr	r1, [r7, #4]
 8796 0274 0A44     		add	r2, r2, r1
 8797 0276 1268     		ldr	r2, [r2]	@ float
 8798 0278 1A60     		str	r2, [r3]	@ float
 8799 027a FB6B     		ldr	r3, [r7, #60]
 8800 027c 0133     		adds	r3, r3, #1
 8801 027e FB63     		str	r3, [r7, #60]
 8802              	.L362:
 8803              		.loc 2 1231 0 discriminator 1
 8804 0280 FA6B     		ldr	r2, [r7, #60]
 8805 0282 FB68     		ldr	r3, [r7, #12]
 8806 0284 9A42     		cmp	r2, r3
 8807 0286 EEDB     		blt	.L363
 8808 0288 00E0     		b	.L342
 8809              	.L370:
1229:STM32F10x_Speex_Lib/libspeex/smallft.c **** 
 8810              		.loc 2 1229 0 is_stmt 1
 8811 028a 00BF     		nop
ARM GAS  /var/folders/kh/x4vltyy52lbg7p4pcyglc5080000gp/T//ccKDo44O.s 			page 182


 8812              	.L342:
1232:STM32F10x_Speex_Lib/libspeex/smallft.c **** }
 8813              		.loc 2 1232 0
 8814 028c 4037     		adds	r7, r7, #64
 8815              	.LCFI63:
 8816              		.cfi_def_cfa_offset 8
 8817 028e BD46     		mov	sp, r7
 8818              	.LCFI64:
 8819              		.cfi_def_cfa_register 13
 8820              		@ sp needed
 8821 0290 80BD     		pop	{r7, pc}
 8822              		.cfi_endproc
 8823              	.LFE19:
 8825 0292 00BF     		.section	.text.spx_drft_forward,"ax",%progbits
 8826              		.align	2
 8827              		.global	spx_drft_forward
 8828              		.thumb
 8829              		.thumb_func
 8831              	spx_drft_forward:
 8832              	.LFB20:
1233:STM32F10x_Speex_Lib/libspeex/smallft.c **** 
1234:STM32F10x_Speex_Lib/libspeex/smallft.c **** void spx_drft_forward(struct drft_lookup *l,float *data){
 8833              		.loc 2 1234 0
 8834              		.cfi_startproc
 8835              		@ args = 0, pretend = 0, frame = 8
 8836              		@ frame_needed = 1, uses_anonymous_args = 0
 8837 0000 80B5     		push	{r7, lr}
 8838              	.LCFI65:
 8839              		.cfi_def_cfa_offset 8
 8840              		.cfi_offset 7, -8
 8841              		.cfi_offset 14, -4
 8842 0002 84B0     		sub	sp, sp, #16
 8843              	.LCFI66:
 8844              		.cfi_def_cfa_offset 24
 8845 0004 02AF     		add	r7, sp, #8
 8846              	.LCFI67:
 8847              		.cfi_def_cfa 7, 16
 8848 0006 7860     		str	r0, [r7, #4]
 8849 0008 3960     		str	r1, [r7]
1235:STM32F10x_Speex_Lib/libspeex/smallft.c ****   if(l->n==1)return;
 8850              		.loc 2 1235 0
 8851 000a 7B68     		ldr	r3, [r7, #4]
 8852 000c 1B68     		ldr	r3, [r3]
 8853 000e 012B     		cmp	r3, #1
 8854 0010 12D0     		beq	.L374
1236:STM32F10x_Speex_Lib/libspeex/smallft.c ****   drftf1(l->n,data,l->trigcache,l->trigcache+l->n,l->splitcache);
 8855              		.loc 2 1236 0
 8856 0012 7B68     		ldr	r3, [r7, #4]
 8857 0014 1868     		ldr	r0, [r3]
 8858 0016 7B68     		ldr	r3, [r7, #4]
 8859 0018 5968     		ldr	r1, [r3, #4]
 8860 001a 7B68     		ldr	r3, [r7, #4]
 8861 001c 5A68     		ldr	r2, [r3, #4]
 8862 001e 7B68     		ldr	r3, [r7, #4]
 8863 0020 1B68     		ldr	r3, [r3]
 8864 0022 9B00     		lsls	r3, r3, #2
 8865 0024 1A44     		add	r2, r2, r3
ARM GAS  /var/folders/kh/x4vltyy52lbg7p4pcyglc5080000gp/T//ccKDo44O.s 			page 183


 8866 0026 7B68     		ldr	r3, [r7, #4]
 8867 0028 9B68     		ldr	r3, [r3, #8]
 8868 002a 0093     		str	r3, [sp]
 8869 002c 1346     		mov	r3, r2
 8870 002e 0A46     		mov	r2, r1
 8871 0030 3968     		ldr	r1, [r7]
 8872 0032 FFF7FEFF 		bl	drftf1
 8873 0036 00E0     		b	.L371
 8874              	.L374:
1235:STM32F10x_Speex_Lib/libspeex/smallft.c ****   if(l->n==1)return;
 8875              		.loc 2 1235 0
 8876 0038 00BF     		nop
 8877              	.L371:
1237:STM32F10x_Speex_Lib/libspeex/smallft.c **** }
 8878              		.loc 2 1237 0
 8879 003a 0837     		adds	r7, r7, #8
 8880              	.LCFI68:
 8881              		.cfi_def_cfa_offset 8
 8882 003c BD46     		mov	sp, r7
 8883              	.LCFI69:
 8884              		.cfi_def_cfa_register 13
 8885              		@ sp needed
 8886 003e 80BD     		pop	{r7, pc}
 8887              		.cfi_endproc
 8888              	.LFE20:
 8890              		.section	.text.spx_drft_backward,"ax",%progbits
 8891              		.align	2
 8892              		.global	spx_drft_backward
 8893              		.thumb
 8894              		.thumb_func
 8896              	spx_drft_backward:
 8897              	.LFB21:
1238:STM32F10x_Speex_Lib/libspeex/smallft.c **** 
1239:STM32F10x_Speex_Lib/libspeex/smallft.c **** void spx_drft_backward(struct drft_lookup *l,float *data){
 8898              		.loc 2 1239 0
 8899              		.cfi_startproc
 8900              		@ args = 0, pretend = 0, frame = 8
 8901              		@ frame_needed = 1, uses_anonymous_args = 0
 8902 0000 80B5     		push	{r7, lr}
 8903              	.LCFI70:
 8904              		.cfi_def_cfa_offset 8
 8905              		.cfi_offset 7, -8
 8906              		.cfi_offset 14, -4
 8907 0002 84B0     		sub	sp, sp, #16
 8908              	.LCFI71:
 8909              		.cfi_def_cfa_offset 24
 8910 0004 02AF     		add	r7, sp, #8
 8911              	.LCFI72:
 8912              		.cfi_def_cfa 7, 16
 8913 0006 7860     		str	r0, [r7, #4]
 8914 0008 3960     		str	r1, [r7]
1240:STM32F10x_Speex_Lib/libspeex/smallft.c ****   if (l->n==1)return;
 8915              		.loc 2 1240 0
 8916 000a 7B68     		ldr	r3, [r7, #4]
 8917 000c 1B68     		ldr	r3, [r3]
 8918 000e 012B     		cmp	r3, #1
 8919 0010 12D0     		beq	.L378
ARM GAS  /var/folders/kh/x4vltyy52lbg7p4pcyglc5080000gp/T//ccKDo44O.s 			page 184


1241:STM32F10x_Speex_Lib/libspeex/smallft.c ****   drftb1(l->n,data,l->trigcache,l->trigcache+l->n,l->splitcache);
 8920              		.loc 2 1241 0
 8921 0012 7B68     		ldr	r3, [r7, #4]
 8922 0014 1868     		ldr	r0, [r3]
 8923 0016 7B68     		ldr	r3, [r7, #4]
 8924 0018 5968     		ldr	r1, [r3, #4]
 8925 001a 7B68     		ldr	r3, [r7, #4]
 8926 001c 5A68     		ldr	r2, [r3, #4]
 8927 001e 7B68     		ldr	r3, [r7, #4]
 8928 0020 1B68     		ldr	r3, [r3]
 8929 0022 9B00     		lsls	r3, r3, #2
 8930 0024 1A44     		add	r2, r2, r3
 8931 0026 7B68     		ldr	r3, [r7, #4]
 8932 0028 9B68     		ldr	r3, [r3, #8]
 8933 002a 0093     		str	r3, [sp]
 8934 002c 1346     		mov	r3, r2
 8935 002e 0A46     		mov	r2, r1
 8936 0030 3968     		ldr	r1, [r7]
 8937 0032 FFF7FEFF 		bl	drftb1
 8938 0036 00E0     		b	.L375
 8939              	.L378:
1240:STM32F10x_Speex_Lib/libspeex/smallft.c ****   if (l->n==1)return;
 8940              		.loc 2 1240 0
 8941 0038 00BF     		nop
 8942              	.L375:
1242:STM32F10x_Speex_Lib/libspeex/smallft.c **** }
 8943              		.loc 2 1242 0
 8944 003a 0837     		adds	r7, r7, #8
 8945              	.LCFI73:
 8946              		.cfi_def_cfa_offset 8
 8947 003c BD46     		mov	sp, r7
 8948              	.LCFI74:
 8949              		.cfi_def_cfa_register 13
 8950              		@ sp needed
 8951 003e 80BD     		pop	{r7, pc}
 8952              		.cfi_endproc
 8953              	.LFE21:
 8955              		.section	.text.spx_drft_init,"ax",%progbits
 8956              		.align	2
 8957              		.global	spx_drft_init
 8958              		.thumb
 8959              		.thumb_func
 8961              	spx_drft_init:
 8962              	.LFB22:
1243:STM32F10x_Speex_Lib/libspeex/smallft.c **** 
1244:STM32F10x_Speex_Lib/libspeex/smallft.c **** void spx_drft_init(struct drft_lookup *l,int n)
1245:STM32F10x_Speex_Lib/libspeex/smallft.c **** {
 8963              		.loc 2 1245 0
 8964              		.cfi_startproc
 8965              		@ args = 0, pretend = 0, frame = 8
 8966              		@ frame_needed = 1, uses_anonymous_args = 0
 8967 0000 80B5     		push	{r7, lr}
 8968              	.LCFI75:
 8969              		.cfi_def_cfa_offset 8
 8970              		.cfi_offset 7, -8
 8971              		.cfi_offset 14, -4
 8972 0002 82B0     		sub	sp, sp, #8
ARM GAS  /var/folders/kh/x4vltyy52lbg7p4pcyglc5080000gp/T//ccKDo44O.s 			page 185


 8973              	.LCFI76:
 8974              		.cfi_def_cfa_offset 16
 8975 0004 00AF     		add	r7, sp, #0
 8976              	.LCFI77:
 8977              		.cfi_def_cfa_register 7
 8978 0006 7860     		str	r0, [r7, #4]
 8979 0008 3960     		str	r1, [r7]
1246:STM32F10x_Speex_Lib/libspeex/smallft.c ****   l->n=n;
 8980              		.loc 2 1246 0
 8981 000a 7B68     		ldr	r3, [r7, #4]
 8982 000c 3A68     		ldr	r2, [r7]
 8983 000e 1A60     		str	r2, [r3]
1247:STM32F10x_Speex_Lib/libspeex/smallft.c ****   l->trigcache=(float*)speex_alloc(3*n*sizeof(*l->trigcache));
 8984              		.loc 2 1247 0
 8985 0010 3A68     		ldr	r2, [r7]
 8986 0012 1346     		mov	r3, r2
 8987 0014 5B00     		lsls	r3, r3, #1
 8988 0016 1344     		add	r3, r3, r2
 8989 0018 9B00     		lsls	r3, r3, #2
 8990 001a 1846     		mov	r0, r3
 8991 001c FFF7FEFF 		bl	speex_alloc
 8992 0020 0246     		mov	r2, r0
 8993 0022 7B68     		ldr	r3, [r7, #4]
 8994 0024 5A60     		str	r2, [r3, #4]
1248:STM32F10x_Speex_Lib/libspeex/smallft.c ****   l->splitcache=(int*)speex_alloc(32*sizeof(*l->splitcache));
 8995              		.loc 2 1248 0
 8996 0026 8020     		movs	r0, #128
 8997 0028 FFF7FEFF 		bl	speex_alloc
 8998 002c 0246     		mov	r2, r0
 8999 002e 7B68     		ldr	r3, [r7, #4]
 9000 0030 9A60     		str	r2, [r3, #8]
1249:STM32F10x_Speex_Lib/libspeex/smallft.c ****   fdrffti(n, l->trigcache, l->splitcache);
 9001              		.loc 2 1249 0
 9002 0032 7B68     		ldr	r3, [r7, #4]
 9003 0034 5968     		ldr	r1, [r3, #4]
 9004 0036 7B68     		ldr	r3, [r7, #4]
 9005 0038 9B68     		ldr	r3, [r3, #8]
 9006 003a 1A46     		mov	r2, r3
 9007 003c 3868     		ldr	r0, [r7]
 9008 003e FFF7FEFF 		bl	fdrffti
1250:STM32F10x_Speex_Lib/libspeex/smallft.c **** }
 9009              		.loc 2 1250 0
 9010 0042 00BF     		nop
 9011 0044 0837     		adds	r7, r7, #8
 9012              	.LCFI78:
 9013              		.cfi_def_cfa_offset 8
 9014 0046 BD46     		mov	sp, r7
 9015              	.LCFI79:
 9016              		.cfi_def_cfa_register 13
 9017              		@ sp needed
 9018 0048 80BD     		pop	{r7, pc}
 9019              		.cfi_endproc
 9020              	.LFE22:
 9022 004a 00BF     		.section	.text.spx_drft_clear,"ax",%progbits
 9023              		.align	2
 9024              		.global	spx_drft_clear
 9025              		.thumb
ARM GAS  /var/folders/kh/x4vltyy52lbg7p4pcyglc5080000gp/T//ccKDo44O.s 			page 186


 9026              		.thumb_func
 9028              	spx_drft_clear:
 9029              	.LFB23:
1251:STM32F10x_Speex_Lib/libspeex/smallft.c **** 
1252:STM32F10x_Speex_Lib/libspeex/smallft.c **** void spx_drft_clear(struct drft_lookup *l)
1253:STM32F10x_Speex_Lib/libspeex/smallft.c **** {
 9030              		.loc 2 1253 0
 9031              		.cfi_startproc
 9032              		@ args = 0, pretend = 0, frame = 8
 9033              		@ frame_needed = 1, uses_anonymous_args = 0
 9034 0000 80B5     		push	{r7, lr}
 9035              	.LCFI80:
 9036              		.cfi_def_cfa_offset 8
 9037              		.cfi_offset 7, -8
 9038              		.cfi_offset 14, -4
 9039 0002 82B0     		sub	sp, sp, #8
 9040              	.LCFI81:
 9041              		.cfi_def_cfa_offset 16
 9042 0004 00AF     		add	r7, sp, #0
 9043              	.LCFI82:
 9044              		.cfi_def_cfa_register 7
 9045 0006 7860     		str	r0, [r7, #4]
1254:STM32F10x_Speex_Lib/libspeex/smallft.c ****   if(l)
 9046              		.loc 2 1254 0
 9047 0008 7B68     		ldr	r3, [r7, #4]
 9048 000a 002B     		cmp	r3, #0
 9049 000c 11D0     		beq	.L383
1255:STM32F10x_Speex_Lib/libspeex/smallft.c ****   {
1256:STM32F10x_Speex_Lib/libspeex/smallft.c ****     if(l->trigcache)
 9050              		.loc 2 1256 0
 9051 000e 7B68     		ldr	r3, [r7, #4]
 9052 0010 5B68     		ldr	r3, [r3, #4]
 9053 0012 002B     		cmp	r3, #0
 9054 0014 04D0     		beq	.L382
1257:STM32F10x_Speex_Lib/libspeex/smallft.c ****       speex_free(l->trigcache);
 9055              		.loc 2 1257 0
 9056 0016 7B68     		ldr	r3, [r7, #4]
 9057 0018 5B68     		ldr	r3, [r3, #4]
 9058 001a 1846     		mov	r0, r3
 9059 001c FFF7FEFF 		bl	speex_free
 9060              	.L382:
1258:STM32F10x_Speex_Lib/libspeex/smallft.c ****     if(l->splitcache)
 9061              		.loc 2 1258 0
 9062 0020 7B68     		ldr	r3, [r7, #4]
 9063 0022 9B68     		ldr	r3, [r3, #8]
 9064 0024 002B     		cmp	r3, #0
 9065 0026 04D0     		beq	.L383
1259:STM32F10x_Speex_Lib/libspeex/smallft.c ****       speex_free(l->splitcache);
 9066              		.loc 2 1259 0
 9067 0028 7B68     		ldr	r3, [r7, #4]
 9068 002a 9B68     		ldr	r3, [r3, #8]
 9069 002c 1846     		mov	r0, r3
 9070 002e FFF7FEFF 		bl	speex_free
 9071              	.L383:
1260:STM32F10x_Speex_Lib/libspeex/smallft.c ****   }
1261:STM32F10x_Speex_Lib/libspeex/smallft.c **** }
 9072              		.loc 2 1261 0
ARM GAS  /var/folders/kh/x4vltyy52lbg7p4pcyglc5080000gp/T//ccKDo44O.s 			page 187


 9073 0032 00BF     		nop
 9074 0034 0837     		adds	r7, r7, #8
 9075              	.LCFI83:
 9076              		.cfi_def_cfa_offset 8
 9077 0036 BD46     		mov	sp, r7
 9078              	.LCFI84:
 9079              		.cfi_def_cfa_register 13
 9080              		@ sp needed
 9081 0038 80BD     		pop	{r7, pc}
 9082              		.cfi_endproc
 9083              	.LFE23:
 9085 003a 00BF     		.section	.data.ntryh.5646,"aw",%progbits
 9086              		.align	2
 9089              	ntryh.5646:
 9090 0000 04000000 		.word	4
 9091 0004 02000000 		.word	2
 9092 0008 03000000 		.word	3
 9093 000c 05000000 		.word	5
 9094              		.section	.data.tpi.5647,"aw",%progbits
 9095              		.align	2
 9098              	tpi.5647:
 9099 0000 DB0FC940 		.word	1086918619
 9100              		.section	.data.hsqt2.5730,"aw",%progbits
 9101              		.align	2
 9104              	hsqt2.5730:
 9105 0000 F304353F 		.word	1060439283
 9106              		.section	.data.tpi.5779,"aw",%progbits
 9107              		.align	2
 9110              	tpi.5779:
 9111 0000 DB0FC940 		.word	1086918619
 9112              		.section	.data.taur.5996,"aw",%progbits
 9113              		.align	2
 9116              	taur.5996:
 9117 0000 000000BF 		.word	3204448256
 9118              		.section	.data.taui.5997,"aw",%progbits
 9119              		.align	2
 9122              	taui.5997:
 9123 0000 D7B35D3F 		.word	1063105495
 9124              		.section	.data.sqrt2.6039,"aw",%progbits
 9125              		.align	2
 9128              	sqrt2.6039:
 9129 0000 F304B53F 		.word	1068827891
 9130              		.section	.data.tpi.6090,"aw",%progbits
 9131              		.align	2
 9134              	tpi.6090:
 9135 0000 DB0FC940 		.word	1086918619
 9136              		.text
 9137              	.Letext0:
 9138              		.file 3 "STM32F10x_Speex_Lib/libspeex/smallft.h"
ARM GAS  /var/folders/kh/x4vltyy52lbg7p4pcyglc5080000gp/T//ccKDo44O.s 			page 188


DEFINED SYMBOLS
                            *ABS*:0000000000000000 smallft.c
/var/folders/kh/x4vltyy52lbg7p4pcyglc5080000gp/T//ccKDo44O.s:20     .text.speex_alloc:0000000000000000 $t
/var/folders/kh/x4vltyy52lbg7p4pcyglc5080000gp/T//ccKDo44O.s:24     .text.speex_alloc:0000000000000000 speex_alloc
/var/folders/kh/x4vltyy52lbg7p4pcyglc5080000gp/T//ccKDo44O.s:63     .text.speex_free:0000000000000000 $t
/var/folders/kh/x4vltyy52lbg7p4pcyglc5080000gp/T//ccKDo44O.s:67     .text.speex_free:0000000000000000 speex_free
/var/folders/kh/x4vltyy52lbg7p4pcyglc5080000gp/T//ccKDo44O.s:108    .text.drfti1:0000000000000000 $t
/var/folders/kh/x4vltyy52lbg7p4pcyglc5080000gp/T//ccKDo44O.s:112    .text.drfti1:0000000000000000 drfti1
/var/folders/kh/x4vltyy52lbg7p4pcyglc5080000gp/T//ccKDo44O.s:463    .text.drfti1:0000000000000224 $d
/var/folders/kh/x4vltyy52lbg7p4pcyglc5080000gp/T//ccKDo44O.s:9089   .data.ntryh.5646:0000000000000000 ntryh.5646
/var/folders/kh/x4vltyy52lbg7p4pcyglc5080000gp/T//ccKDo44O.s:9098   .data.tpi.5647:0000000000000000 tpi.5647
/var/folders/kh/x4vltyy52lbg7p4pcyglc5080000gp/T//ccKDo44O.s:469    .text.fdrffti:0000000000000000 $t
/var/folders/kh/x4vltyy52lbg7p4pcyglc5080000gp/T//ccKDo44O.s:473    .text.fdrffti:0000000000000000 fdrffti
/var/folders/kh/x4vltyy52lbg7p4pcyglc5080000gp/T//ccKDo44O.s:525    .text.dradf2:0000000000000000 $t
/var/folders/kh/x4vltyy52lbg7p4pcyglc5080000gp/T//ccKDo44O.s:529    .text.dradf2:0000000000000000 dradf2
/var/folders/kh/x4vltyy52lbg7p4pcyglc5080000gp/T//ccKDo44O.s:975    .text.dradf2:000000000000030c $d
/var/folders/kh/x4vltyy52lbg7p4pcyglc5080000gp/T//ccKDo44O.s:980    .text.dradf4:0000000000000000 $t
/var/folders/kh/x4vltyy52lbg7p4pcyglc5080000gp/T//ccKDo44O.s:984    .text.dradf4:0000000000000000 dradf4
/var/folders/kh/x4vltyy52lbg7p4pcyglc5080000gp/T//ccKDo44O.s:1868   .text.dradf4:00000000000006c4 $d
/var/folders/kh/x4vltyy52lbg7p4pcyglc5080000gp/T//ccKDo44O.s:9104   .data.hsqt2.5730:0000000000000000 hsqt2.5730
/var/folders/kh/x4vltyy52lbg7p4pcyglc5080000gp/T//ccKDo44O.s:1873   .text.dradfg:0000000000000000 $t
/var/folders/kh/x4vltyy52lbg7p4pcyglc5080000gp/T//ccKDo44O.s:1877   .text.dradfg:0000000000000000 dradfg
/var/folders/kh/x4vltyy52lbg7p4pcyglc5080000gp/T//ccKDo44O.s:2260   .text.dradfg:00000000000002ec $d
/var/folders/kh/x4vltyy52lbg7p4pcyglc5080000gp/T//ccKDo44O.s:9110   .data.tpi.5779:0000000000000000 tpi.5779
/var/folders/kh/x4vltyy52lbg7p4pcyglc5080000gp/T//ccKDo44O.s:2263   .text.dradfg:00000000000002f0 $t
/var/folders/kh/x4vltyy52lbg7p4pcyglc5080000gp/T//ccKDo44O.s:3991   .text.drftf1:0000000000000000 $t
/var/folders/kh/x4vltyy52lbg7p4pcyglc5080000gp/T//ccKDo44O.s:3995   .text.drftf1:0000000000000000 drftf1
/var/folders/kh/x4vltyy52lbg7p4pcyglc5080000gp/T//ccKDo44O.s:4333   .text.dradb2:0000000000000000 $t
/var/folders/kh/x4vltyy52lbg7p4pcyglc5080000gp/T//ccKDo44O.s:4337   .text.dradb2:0000000000000000 dradb2
/var/folders/kh/x4vltyy52lbg7p4pcyglc5080000gp/T//ccKDo44O.s:4779   .text.dradb2:0000000000000308 $d
/var/folders/kh/x4vltyy52lbg7p4pcyglc5080000gp/T//ccKDo44O.s:4784   .text.dradb3:0000000000000000 $t
/var/folders/kh/x4vltyy52lbg7p4pcyglc5080000gp/T//ccKDo44O.s:4788   .text.dradb3:0000000000000000 dradb3
/var/folders/kh/x4vltyy52lbg7p4pcyglc5080000gp/T//ccKDo44O.s:5001   .text.dradb3:0000000000000160 $d
/var/folders/kh/x4vltyy52lbg7p4pcyglc5080000gp/T//ccKDo44O.s:9116   .data.taur.5996:0000000000000000 taur.5996
/var/folders/kh/x4vltyy52lbg7p4pcyglc5080000gp/T//ccKDo44O.s:9122   .data.taui.5997:0000000000000000 taui.5997
/var/folders/kh/x4vltyy52lbg7p4pcyglc5080000gp/T//ccKDo44O.s:5005   .text.dradb3:0000000000000168 $t
/var/folders/kh/x4vltyy52lbg7p4pcyglc5080000gp/T//ccKDo44O.s:5363   .text.dradb3:0000000000000468 $d
/var/folders/kh/x4vltyy52lbg7p4pcyglc5080000gp/T//ccKDo44O.s:5368   .text.dradb3:0000000000000470 $t
/var/folders/kh/x4vltyy52lbg7p4pcyglc5080000gp/T//ccKDo44O.s:5390   .text.dradb4:0000000000000000 $t
/var/folders/kh/x4vltyy52lbg7p4pcyglc5080000gp/T//ccKDo44O.s:5394   .text.dradb4:0000000000000000 dradb4
/var/folders/kh/x4vltyy52lbg7p4pcyglc5080000gp/T//ccKDo44O.s:6300   .text.dradb4:00000000000006f4 $d
/var/folders/kh/x4vltyy52lbg7p4pcyglc5080000gp/T//ccKDo44O.s:9128   .data.sqrt2.6039:0000000000000000 sqrt2.6039
/var/folders/kh/x4vltyy52lbg7p4pcyglc5080000gp/T//ccKDo44O.s:6306   .text.dradbg:0000000000000000 $t
/var/folders/kh/x4vltyy52lbg7p4pcyglc5080000gp/T//ccKDo44O.s:6310   .text.dradbg:0000000000000000 dradbg
/var/folders/kh/x4vltyy52lbg7p4pcyglc5080000gp/T//ccKDo44O.s:6733   .text.dradbg:00000000000002d4 $d
/var/folders/kh/x4vltyy52lbg7p4pcyglc5080000gp/T//ccKDo44O.s:9134   .data.tpi.6090:0000000000000000 tpi.6090
/var/folders/kh/x4vltyy52lbg7p4pcyglc5080000gp/T//ccKDo44O.s:6736   .text.dradbg:00000000000002d8 $t
/var/folders/kh/x4vltyy52lbg7p4pcyglc5080000gp/T//ccKDo44O.s:8432   .text.drftb1:0000000000000000 $t
/var/folders/kh/x4vltyy52lbg7p4pcyglc5080000gp/T//ccKDo44O.s:8436   .text.drftb1:0000000000000000 drftb1
/var/folders/kh/x4vltyy52lbg7p4pcyglc5080000gp/T//ccKDo44O.s:8826   .text.spx_drft_forward:0000000000000000 $t
/var/folders/kh/x4vltyy52lbg7p4pcyglc5080000gp/T//ccKDo44O.s:8831   .text.spx_drft_forward:0000000000000000 spx_drft_forward
/var/folders/kh/x4vltyy52lbg7p4pcyglc5080000gp/T//ccKDo44O.s:8891   .text.spx_drft_backward:0000000000000000 $t
/var/folders/kh/x4vltyy52lbg7p4pcyglc5080000gp/T//ccKDo44O.s:8896   .text.spx_drft_backward:0000000000000000 spx_drft_backward
/var/folders/kh/x4vltyy52lbg7p4pcyglc5080000gp/T//ccKDo44O.s:8956   .text.spx_drft_init:0000000000000000 $t
/var/folders/kh/x4vltyy52lbg7p4pcyglc5080000gp/T//ccKDo44O.s:8961   .text.spx_drft_init:0000000000000000 spx_drft_init
/var/folders/kh/x4vltyy52lbg7p4pcyglc5080000gp/T//ccKDo44O.s:9023   .text.spx_drft_clear:0000000000000000 $t
/var/folders/kh/x4vltyy52lbg7p4pcyglc5080000gp/T//ccKDo44O.s:9028   .text.spx_drft_clear:0000000000000000 spx_drft_clear
ARM GAS  /var/folders/kh/x4vltyy52lbg7p4pcyglc5080000gp/T//ccKDo44O.s 			page 189


/var/folders/kh/x4vltyy52lbg7p4pcyglc5080000gp/T//ccKDo44O.s:9086   .data.ntryh.5646:0000000000000000 $d
/var/folders/kh/x4vltyy52lbg7p4pcyglc5080000gp/T//ccKDo44O.s:9095   .data.tpi.5647:0000000000000000 $d
/var/folders/kh/x4vltyy52lbg7p4pcyglc5080000gp/T//ccKDo44O.s:9101   .data.hsqt2.5730:0000000000000000 $d
/var/folders/kh/x4vltyy52lbg7p4pcyglc5080000gp/T//ccKDo44O.s:9107   .data.tpi.5779:0000000000000000 $d
/var/folders/kh/x4vltyy52lbg7p4pcyglc5080000gp/T//ccKDo44O.s:9113   .data.taur.5996:0000000000000000 $d
/var/folders/kh/x4vltyy52lbg7p4pcyglc5080000gp/T//ccKDo44O.s:9119   .data.taui.5997:0000000000000000 $d
/var/folders/kh/x4vltyy52lbg7p4pcyglc5080000gp/T//ccKDo44O.s:9125   .data.sqrt2.6039:0000000000000000 $d
/var/folders/kh/x4vltyy52lbg7p4pcyglc5080000gp/T//ccKDo44O.s:9131   .data.tpi.6090:0000000000000000 $d
                     .debug_frame:0000000000000010 $d

UNDEFINED SYMBOLS
calloc
free
__aeabi_i2f
__aeabi_fdiv
__aeabi_fmul
__aeabi_fadd
__aeabi_f2d
__aeabi_d2f
cos
sin
__aeabi_fsub
