ARM GAS  /var/folders/kh/x4vltyy52lbg7p4pcyglc5080000gp/T//cccbl2Nm.s 			page 1


   1              		.syntax unified
   2              		.cpu cortex-m3
   3              		.fpu softvfp
   4              		.eabi_attribute 20, 1
   5              		.eabi_attribute 21, 1
   6              		.eabi_attribute 23, 3
   7              		.eabi_attribute 24, 1
   8              		.eabi_attribute 25, 1
   9              		.eabi_attribute 26, 1
  10              		.eabi_attribute 30, 6
  11              		.eabi_attribute 34, 1
  12              		.eabi_attribute 18, 4
  13              		.thumb
  14              		.syntax unified
  15              		.file	"stm32f1xx_hal_i2c.c"
  16              		.text
  17              	.Ltext0:
  18              		.cfi_sections	.debug_frame
  19              		.section	.text.HAL_I2C_Init,"ax",%progbits
  20              		.align	2
  21              		.global	HAL_I2C_Init
  22              		.thumb
  23              		.thumb_func
  25              	HAL_I2C_Init:
  26              	.LFB64:
  27              		.file 1 "Drivers/STM32F1xx_HAL_Driver/Src/stm32f1xx_hal_i2c.c"
   1:Drivers/STM32F1xx_HAL_Driver/Src/stm32f1xx_hal_i2c.c **** /**
   2:Drivers/STM32F1xx_HAL_Driver/Src/stm32f1xx_hal_i2c.c ****   ******************************************************************************
   3:Drivers/STM32F1xx_HAL_Driver/Src/stm32f1xx_hal_i2c.c ****   * @file    stm32f1xx_hal_i2c.c
   4:Drivers/STM32F1xx_HAL_Driver/Src/stm32f1xx_hal_i2c.c ****   * @author  MCD Application Team
   5:Drivers/STM32F1xx_HAL_Driver/Src/stm32f1xx_hal_i2c.c ****   * @version V1.0.4
   6:Drivers/STM32F1xx_HAL_Driver/Src/stm32f1xx_hal_i2c.c ****   * @date    29-April-2016
   7:Drivers/STM32F1xx_HAL_Driver/Src/stm32f1xx_hal_i2c.c ****   * @brief   I2C HAL module driver.
   8:Drivers/STM32F1xx_HAL_Driver/Src/stm32f1xx_hal_i2c.c ****   *          This file provides firmware functions to manage the following
   9:Drivers/STM32F1xx_HAL_Driver/Src/stm32f1xx_hal_i2c.c ****   *          functionalities of the Inter Integrated Circuit (I2C) peripheral:
  10:Drivers/STM32F1xx_HAL_Driver/Src/stm32f1xx_hal_i2c.c ****   *           + Initialization and de-initialization functions
  11:Drivers/STM32F1xx_HAL_Driver/Src/stm32f1xx_hal_i2c.c ****   *           + IO operation functions
  12:Drivers/STM32F1xx_HAL_Driver/Src/stm32f1xx_hal_i2c.c ****   *           + Peripheral Control functions
  13:Drivers/STM32F1xx_HAL_Driver/Src/stm32f1xx_hal_i2c.c ****   *           + Peripheral State functions
  14:Drivers/STM32F1xx_HAL_Driver/Src/stm32f1xx_hal_i2c.c ****   *         
  15:Drivers/STM32F1xx_HAL_Driver/Src/stm32f1xx_hal_i2c.c ****   @verbatim
  16:Drivers/STM32F1xx_HAL_Driver/Src/stm32f1xx_hal_i2c.c ****   ==============================================================================
  17:Drivers/STM32F1xx_HAL_Driver/Src/stm32f1xx_hal_i2c.c ****                         ##### How to use this driver #####
  18:Drivers/STM32F1xx_HAL_Driver/Src/stm32f1xx_hal_i2c.c ****   ==============================================================================
  19:Drivers/STM32F1xx_HAL_Driver/Src/stm32f1xx_hal_i2c.c ****   [..]
  20:Drivers/STM32F1xx_HAL_Driver/Src/stm32f1xx_hal_i2c.c ****     The I2C HAL driver can be used as follows:
  21:Drivers/STM32F1xx_HAL_Driver/Src/stm32f1xx_hal_i2c.c **** 
  22:Drivers/STM32F1xx_HAL_Driver/Src/stm32f1xx_hal_i2c.c ****     (#) Declare a I2C_HandleTypeDef handle structure, for example:
  23:Drivers/STM32F1xx_HAL_Driver/Src/stm32f1xx_hal_i2c.c ****         I2C_HandleTypeDef  hi2c;
  24:Drivers/STM32F1xx_HAL_Driver/Src/stm32f1xx_hal_i2c.c **** 
  25:Drivers/STM32F1xx_HAL_Driver/Src/stm32f1xx_hal_i2c.c ****     (#)Initialize the I2C low level resources by implementing the HAL_I2C_MspInit() API:
  26:Drivers/STM32F1xx_HAL_Driver/Src/stm32f1xx_hal_i2c.c ****         (##) Enable the I2Cx interface clock
  27:Drivers/STM32F1xx_HAL_Driver/Src/stm32f1xx_hal_i2c.c ****         (##) I2C pins configuration
  28:Drivers/STM32F1xx_HAL_Driver/Src/stm32f1xx_hal_i2c.c ****             (+++) Enable the clock for the I2C GPIOs
  29:Drivers/STM32F1xx_HAL_Driver/Src/stm32f1xx_hal_i2c.c ****             (+++) Configure I2C pins as alternate function open-drain
  30:Drivers/STM32F1xx_HAL_Driver/Src/stm32f1xx_hal_i2c.c ****         (##) NVIC configuration if you need to use interrupt process
  31:Drivers/STM32F1xx_HAL_Driver/Src/stm32f1xx_hal_i2c.c ****             (+++) Configure the I2Cx interrupt priority
ARM GAS  /var/folders/kh/x4vltyy52lbg7p4pcyglc5080000gp/T//cccbl2Nm.s 			page 2


  32:Drivers/STM32F1xx_HAL_Driver/Src/stm32f1xx_hal_i2c.c ****             (+++) Enable the NVIC I2C IRQ Channel
  33:Drivers/STM32F1xx_HAL_Driver/Src/stm32f1xx_hal_i2c.c ****         (##) DMA Configuration if you need to use DMA process
  34:Drivers/STM32F1xx_HAL_Driver/Src/stm32f1xx_hal_i2c.c ****             (+++) Declare a DMA_HandleTypeDef handle structure for the transmit or receive channel
  35:Drivers/STM32F1xx_HAL_Driver/Src/stm32f1xx_hal_i2c.c ****             (+++) Enable the DMAx interface clock using
  36:Drivers/STM32F1xx_HAL_Driver/Src/stm32f1xx_hal_i2c.c ****             (+++) Configure the DMA handle parameters
  37:Drivers/STM32F1xx_HAL_Driver/Src/stm32f1xx_hal_i2c.c ****             (+++) Configure the DMA Tx or Rx channel
  38:Drivers/STM32F1xx_HAL_Driver/Src/stm32f1xx_hal_i2c.c ****             (+++) Associate the initialized DMA handle to the hi2c DMA Tx or Rx handle
  39:Drivers/STM32F1xx_HAL_Driver/Src/stm32f1xx_hal_i2c.c ****             (+++) Configure the priority and enable the NVIC for the transfer complete interrupt on
  40:Drivers/STM32F1xx_HAL_Driver/Src/stm32f1xx_hal_i2c.c ****                   the DMA Tx or Rx channel
  41:Drivers/STM32F1xx_HAL_Driver/Src/stm32f1xx_hal_i2c.c **** 
  42:Drivers/STM32F1xx_HAL_Driver/Src/stm32f1xx_hal_i2c.c ****     (#) Configure the Communication Speed, Duty cycle, Addressing mode, Own Address1,
  43:Drivers/STM32F1xx_HAL_Driver/Src/stm32f1xx_hal_i2c.c ****         Dual Addressing mode, Own Address2, General call and Nostretch mode in the hi2c Init struct
  44:Drivers/STM32F1xx_HAL_Driver/Src/stm32f1xx_hal_i2c.c **** 
  45:Drivers/STM32F1xx_HAL_Driver/Src/stm32f1xx_hal_i2c.c ****     (#) Initialize the I2C registers by calling the HAL_I2C_Init(), configures also the low level H
  46:Drivers/STM32F1xx_HAL_Driver/Src/stm32f1xx_hal_i2c.c ****         (GPIO, CLOCK, NVIC...etc) by calling the customized HAL_I2C_MspInit(&hi2c) API.
  47:Drivers/STM32F1xx_HAL_Driver/Src/stm32f1xx_hal_i2c.c **** 
  48:Drivers/STM32F1xx_HAL_Driver/Src/stm32f1xx_hal_i2c.c ****     (#) To check if target device is ready for communication, use the function HAL_I2C_IsDeviceRead
  49:Drivers/STM32F1xx_HAL_Driver/Src/stm32f1xx_hal_i2c.c **** 
  50:Drivers/STM32F1xx_HAL_Driver/Src/stm32f1xx_hal_i2c.c ****     (#) For I2C IO and IO MEM operations, three operation modes are available within this driver :
  51:Drivers/STM32F1xx_HAL_Driver/Src/stm32f1xx_hal_i2c.c **** 
  52:Drivers/STM32F1xx_HAL_Driver/Src/stm32f1xx_hal_i2c.c ****     *** Polling mode IO operation ***
  53:Drivers/STM32F1xx_HAL_Driver/Src/stm32f1xx_hal_i2c.c ****     =================================
  54:Drivers/STM32F1xx_HAL_Driver/Src/stm32f1xx_hal_i2c.c ****     [..]
  55:Drivers/STM32F1xx_HAL_Driver/Src/stm32f1xx_hal_i2c.c ****       (+) Transmit in master mode an amount of data in blocking mode using HAL_I2C_Master_Transmit(
  56:Drivers/STM32F1xx_HAL_Driver/Src/stm32f1xx_hal_i2c.c ****       (+) Receive in master mode an amount of data in blocking mode using HAL_I2C_Master_Receive()
  57:Drivers/STM32F1xx_HAL_Driver/Src/stm32f1xx_hal_i2c.c ****       (+) Transmit in slave mode an amount of data in blocking mode using HAL_I2C_Slave_Transmit()
  58:Drivers/STM32F1xx_HAL_Driver/Src/stm32f1xx_hal_i2c.c ****       (+) Receive in slave mode an amount of data in blocking mode using HAL_I2C_Slave_Receive()
  59:Drivers/STM32F1xx_HAL_Driver/Src/stm32f1xx_hal_i2c.c **** 
  60:Drivers/STM32F1xx_HAL_Driver/Src/stm32f1xx_hal_i2c.c ****     *** Polling mode IO MEM operation ***
  61:Drivers/STM32F1xx_HAL_Driver/Src/stm32f1xx_hal_i2c.c ****     =====================================
  62:Drivers/STM32F1xx_HAL_Driver/Src/stm32f1xx_hal_i2c.c ****     [..]
  63:Drivers/STM32F1xx_HAL_Driver/Src/stm32f1xx_hal_i2c.c ****       (+) Write an amount of data in blocking mode to a specific memory address using HAL_I2C_Mem_W
  64:Drivers/STM32F1xx_HAL_Driver/Src/stm32f1xx_hal_i2c.c ****       (+) Read an amount of data in blocking mode from a specific memory address using HAL_I2C_Mem_
  65:Drivers/STM32F1xx_HAL_Driver/Src/stm32f1xx_hal_i2c.c **** 
  66:Drivers/STM32F1xx_HAL_Driver/Src/stm32f1xx_hal_i2c.c **** 
  67:Drivers/STM32F1xx_HAL_Driver/Src/stm32f1xx_hal_i2c.c ****     *** Interrupt mode IO operation ***
  68:Drivers/STM32F1xx_HAL_Driver/Src/stm32f1xx_hal_i2c.c ****     ===================================
  69:Drivers/STM32F1xx_HAL_Driver/Src/stm32f1xx_hal_i2c.c ****     [..]
  70:Drivers/STM32F1xx_HAL_Driver/Src/stm32f1xx_hal_i2c.c ****       (+) The I2C interrupts should have the highest priority in the application in order 
  71:Drivers/STM32F1xx_HAL_Driver/Src/stm32f1xx_hal_i2c.c ****           to make them uninterruptible.
  72:Drivers/STM32F1xx_HAL_Driver/Src/stm32f1xx_hal_i2c.c ****       (+) Transmit in master mode an amount of data in non-blocking mode using HAL_I2C_Master_Trans
  73:Drivers/STM32F1xx_HAL_Driver/Src/stm32f1xx_hal_i2c.c ****       (+) At transmission end of transfer, HAL_I2C_MasterTxCpltCallback() is executed and user can
  74:Drivers/STM32F1xx_HAL_Driver/Src/stm32f1xx_hal_i2c.c ****            add his own code by customization of function pointer HAL_I2C_MasterTxCpltCallback()
  75:Drivers/STM32F1xx_HAL_Driver/Src/stm32f1xx_hal_i2c.c ****       (+) Receive in master mode an amount of data in non-blocking mode using HAL_I2C_Master_Receiv
  76:Drivers/STM32F1xx_HAL_Driver/Src/stm32f1xx_hal_i2c.c ****       (+) At reception end of transfer, HAL_I2C_MasterRxCpltCallback() is executed and user can
  77:Drivers/STM32F1xx_HAL_Driver/Src/stm32f1xx_hal_i2c.c ****            add his own code by customization of function pointer HAL_I2C_MasterRxCpltCallback()
  78:Drivers/STM32F1xx_HAL_Driver/Src/stm32f1xx_hal_i2c.c ****       (+) Transmit in slave mode an amount of data in non-blocking mode using HAL_I2C_Slave_Transmi
  79:Drivers/STM32F1xx_HAL_Driver/Src/stm32f1xx_hal_i2c.c ****       (+) At transmission end of transfer, HAL_I2C_SlaveTxCpltCallback() is executed and user can
  80:Drivers/STM32F1xx_HAL_Driver/Src/stm32f1xx_hal_i2c.c ****            add his own code by customization of function pointer HAL_I2C_SlaveTxCpltCallback()
  81:Drivers/STM32F1xx_HAL_Driver/Src/stm32f1xx_hal_i2c.c ****       (+) Receive in slave mode an amount of data in non-blocking mode using HAL_I2C_Slave_Receive_
  82:Drivers/STM32F1xx_HAL_Driver/Src/stm32f1xx_hal_i2c.c ****       (+) At reception end of transfer, HAL_I2C_SlaveRxCpltCallback() is executed and user can
  83:Drivers/STM32F1xx_HAL_Driver/Src/stm32f1xx_hal_i2c.c ****            add his own code by customization of function pointer HAL_I2C_SlaveRxCpltCallback()
  84:Drivers/STM32F1xx_HAL_Driver/Src/stm32f1xx_hal_i2c.c ****       (+) In case of transfer Error, HAL_I2C_ErrorCallback() function is executed and user can
  85:Drivers/STM32F1xx_HAL_Driver/Src/stm32f1xx_hal_i2c.c ****            add his own code by customization of function pointer HAL_I2C_ErrorCallback()
  86:Drivers/STM32F1xx_HAL_Driver/Src/stm32f1xx_hal_i2c.c **** 
  87:Drivers/STM32F1xx_HAL_Driver/Src/stm32f1xx_hal_i2c.c ****     *** Interrupt mode IO MEM operation ***
  88:Drivers/STM32F1xx_HAL_Driver/Src/stm32f1xx_hal_i2c.c ****     =======================================
ARM GAS  /var/folders/kh/x4vltyy52lbg7p4pcyglc5080000gp/T//cccbl2Nm.s 			page 3


  89:Drivers/STM32F1xx_HAL_Driver/Src/stm32f1xx_hal_i2c.c ****     [..]
  90:Drivers/STM32F1xx_HAL_Driver/Src/stm32f1xx_hal_i2c.c ****       (+) The I2C interrupts should have the highest priority in the application in order 
  91:Drivers/STM32F1xx_HAL_Driver/Src/stm32f1xx_hal_i2c.c ****           to make them uninterruptible.
  92:Drivers/STM32F1xx_HAL_Driver/Src/stm32f1xx_hal_i2c.c ****       (+) Write an amount of data in non-blocking mode with Interrupt to a specific memory address 
  93:Drivers/STM32F1xx_HAL_Driver/Src/stm32f1xx_hal_i2c.c ****           HAL_I2C_Mem_Write_IT()
  94:Drivers/STM32F1xx_HAL_Driver/Src/stm32f1xx_hal_i2c.c ****       (+) At Memory end of write transfer, HAL_I2C_MemTxCpltCallback() is executed and user can
  95:Drivers/STM32F1xx_HAL_Driver/Src/stm32f1xx_hal_i2c.c ****            add his own code by customization of function pointer HAL_I2C_MemTxCpltCallback()
  96:Drivers/STM32F1xx_HAL_Driver/Src/stm32f1xx_hal_i2c.c ****       (+) Read an amount of data in non-blocking mode with Interrupt from a specific memory address
  97:Drivers/STM32F1xx_HAL_Driver/Src/stm32f1xx_hal_i2c.c ****           HAL_I2C_Mem_Read_IT()
  98:Drivers/STM32F1xx_HAL_Driver/Src/stm32f1xx_hal_i2c.c ****       (+) At Memory end of read transfer, HAL_I2C_MemRxCpltCallback() is executed and user can
  99:Drivers/STM32F1xx_HAL_Driver/Src/stm32f1xx_hal_i2c.c ****            add his own code by customization of function pointer HAL_I2C_MemRxCpltCallback()
 100:Drivers/STM32F1xx_HAL_Driver/Src/stm32f1xx_hal_i2c.c ****       (+) In case of transfer Error, HAL_I2C_ErrorCallback() function is executed and user can
 101:Drivers/STM32F1xx_HAL_Driver/Src/stm32f1xx_hal_i2c.c ****            add his own code by customization of function pointer HAL_I2C_ErrorCallback()
 102:Drivers/STM32F1xx_HAL_Driver/Src/stm32f1xx_hal_i2c.c **** 
 103:Drivers/STM32F1xx_HAL_Driver/Src/stm32f1xx_hal_i2c.c ****     *** DMA mode IO operation ***
 104:Drivers/STM32F1xx_HAL_Driver/Src/stm32f1xx_hal_i2c.c ****     ==============================
 105:Drivers/STM32F1xx_HAL_Driver/Src/stm32f1xx_hal_i2c.c ****     [..]
 106:Drivers/STM32F1xx_HAL_Driver/Src/stm32f1xx_hal_i2c.c ****       (+) Transmit in master mode an amount of data in non-blocking mode (DMA) using
 107:Drivers/STM32F1xx_HAL_Driver/Src/stm32f1xx_hal_i2c.c ****           HAL_I2C_Master_Transmit_DMA()
 108:Drivers/STM32F1xx_HAL_Driver/Src/stm32f1xx_hal_i2c.c ****       (+) At transmission end of transfer, HAL_I2C_MasterTxCpltCallback() is executed and user can
 109:Drivers/STM32F1xx_HAL_Driver/Src/stm32f1xx_hal_i2c.c ****            add his own code by customization of function pointer HAL_I2C_MasterTxCpltCallback()
 110:Drivers/STM32F1xx_HAL_Driver/Src/stm32f1xx_hal_i2c.c ****       (+) Receive in master mode an amount of data in non-blocking mode (DMA) using
 111:Drivers/STM32F1xx_HAL_Driver/Src/stm32f1xx_hal_i2c.c ****           HAL_I2C_Master_Receive_DMA()
 112:Drivers/STM32F1xx_HAL_Driver/Src/stm32f1xx_hal_i2c.c ****       (+) At reception end of transfer, HAL_I2C_MasterRxCpltCallback() is executed and user can
 113:Drivers/STM32F1xx_HAL_Driver/Src/stm32f1xx_hal_i2c.c ****            add his own code by customization of function pointer HAL_I2C_MasterRxCpltCallback()
 114:Drivers/STM32F1xx_HAL_Driver/Src/stm32f1xx_hal_i2c.c ****       (+) Transmit in slave mode an amount of data in non-blocking mode (DMA) using
 115:Drivers/STM32F1xx_HAL_Driver/Src/stm32f1xx_hal_i2c.c ****           HAL_I2C_Slave_Transmit_DMA()
 116:Drivers/STM32F1xx_HAL_Driver/Src/stm32f1xx_hal_i2c.c ****       (+) At transmission end of transfer, HAL_I2C_SlaveTxCpltCallback() is executed and user can
 117:Drivers/STM32F1xx_HAL_Driver/Src/stm32f1xx_hal_i2c.c ****            add his own code by customization of function pointer HAL_I2C_SlaveTxCpltCallback()
 118:Drivers/STM32F1xx_HAL_Driver/Src/stm32f1xx_hal_i2c.c ****       (+) Receive in slave mode an amount of data in non-blocking mode (DMA) using
 119:Drivers/STM32F1xx_HAL_Driver/Src/stm32f1xx_hal_i2c.c ****           HAL_I2C_Slave_Receive_DMA()
 120:Drivers/STM32F1xx_HAL_Driver/Src/stm32f1xx_hal_i2c.c ****       (+) At reception end of transfer, HAL_I2C_SlaveRxCpltCallback() is executed and user can
 121:Drivers/STM32F1xx_HAL_Driver/Src/stm32f1xx_hal_i2c.c ****            add his own code by customization of function pointer HAL_I2C_SlaveRxCpltCallback()
 122:Drivers/STM32F1xx_HAL_Driver/Src/stm32f1xx_hal_i2c.c ****       (+) In case of transfer Error, HAL_I2C_ErrorCallback() function is executed and user can
 123:Drivers/STM32F1xx_HAL_Driver/Src/stm32f1xx_hal_i2c.c ****            add his own code by customization of function pointer HAL_I2C_ErrorCallback()
 124:Drivers/STM32F1xx_HAL_Driver/Src/stm32f1xx_hal_i2c.c **** 
 125:Drivers/STM32F1xx_HAL_Driver/Src/stm32f1xx_hal_i2c.c ****     *** DMA mode IO MEM operation ***
 126:Drivers/STM32F1xx_HAL_Driver/Src/stm32f1xx_hal_i2c.c ****     =================================
 127:Drivers/STM32F1xx_HAL_Driver/Src/stm32f1xx_hal_i2c.c ****     [..]
 128:Drivers/STM32F1xx_HAL_Driver/Src/stm32f1xx_hal_i2c.c ****       (+) Write an amount of data in non-blocking mode with DMA to a specific memory address using
 129:Drivers/STM32F1xx_HAL_Driver/Src/stm32f1xx_hal_i2c.c ****           HAL_I2C_Mem_Write_DMA()
 130:Drivers/STM32F1xx_HAL_Driver/Src/stm32f1xx_hal_i2c.c ****       (+) At Memory end of write transfer, HAL_I2C_MemTxCpltCallback() is executed and user can
 131:Drivers/STM32F1xx_HAL_Driver/Src/stm32f1xx_hal_i2c.c ****            add his own code by customization of function pointer HAL_I2C_MemTxCpltCallback()
 132:Drivers/STM32F1xx_HAL_Driver/Src/stm32f1xx_hal_i2c.c ****       (+) Read an amount of data in non-blocking mode with DMA from a specific memory address using
 133:Drivers/STM32F1xx_HAL_Driver/Src/stm32f1xx_hal_i2c.c ****           HAL_I2C_Mem_Read_DMA()
 134:Drivers/STM32F1xx_HAL_Driver/Src/stm32f1xx_hal_i2c.c ****       (+) At Memory end of read transfer, HAL_I2C_MemRxCpltCallback() is executed and user can
 135:Drivers/STM32F1xx_HAL_Driver/Src/stm32f1xx_hal_i2c.c ****            add his own code by customization of function pointer HAL_I2C_MemRxCpltCallback()
 136:Drivers/STM32F1xx_HAL_Driver/Src/stm32f1xx_hal_i2c.c ****       (+) In case of transfer Error, HAL_I2C_ErrorCallback() function is executed and user can
 137:Drivers/STM32F1xx_HAL_Driver/Src/stm32f1xx_hal_i2c.c ****            add his own code by customization of function pointer HAL_I2C_ErrorCallback()
 138:Drivers/STM32F1xx_HAL_Driver/Src/stm32f1xx_hal_i2c.c **** 
 139:Drivers/STM32F1xx_HAL_Driver/Src/stm32f1xx_hal_i2c.c **** 
 140:Drivers/STM32F1xx_HAL_Driver/Src/stm32f1xx_hal_i2c.c ****      *** I2C HAL driver macros list ***
 141:Drivers/STM32F1xx_HAL_Driver/Src/stm32f1xx_hal_i2c.c ****      ==================================
 142:Drivers/STM32F1xx_HAL_Driver/Src/stm32f1xx_hal_i2c.c ****      [..]
 143:Drivers/STM32F1xx_HAL_Driver/Src/stm32f1xx_hal_i2c.c ****        Below the list of most used macros in I2C HAL driver.
 144:Drivers/STM32F1xx_HAL_Driver/Src/stm32f1xx_hal_i2c.c **** 
 145:Drivers/STM32F1xx_HAL_Driver/Src/stm32f1xx_hal_i2c.c ****       (+) __HAL_I2C_ENABLE: Enable the I2C peripheral
ARM GAS  /var/folders/kh/x4vltyy52lbg7p4pcyglc5080000gp/T//cccbl2Nm.s 			page 4


 146:Drivers/STM32F1xx_HAL_Driver/Src/stm32f1xx_hal_i2c.c ****       (+) __HAL_I2C_DISABLE: Disable the I2C peripheral
 147:Drivers/STM32F1xx_HAL_Driver/Src/stm32f1xx_hal_i2c.c ****       (+) __HAL_I2C_GET_FLAG:    Check whether the specified I2C flag is set or not
 148:Drivers/STM32F1xx_HAL_Driver/Src/stm32f1xx_hal_i2c.c ****       (+) __HAL_I2C_CLEAR_FLAG : Clear the specified I2C pending flag
 149:Drivers/STM32F1xx_HAL_Driver/Src/stm32f1xx_hal_i2c.c ****       (+) __HAL_I2C_ENABLE_IT: Enable the specified I2C interrupt
 150:Drivers/STM32F1xx_HAL_Driver/Src/stm32f1xx_hal_i2c.c ****       (+) __HAL_I2C_DISABLE_IT: Disable the specified I2C interrupt
 151:Drivers/STM32F1xx_HAL_Driver/Src/stm32f1xx_hal_i2c.c ****        (@) You can refer to the I2C HAL driver header file for more useful macros
 152:Drivers/STM32F1xx_HAL_Driver/Src/stm32f1xx_hal_i2c.c **** 
 153:Drivers/STM32F1xx_HAL_Driver/Src/stm32f1xx_hal_i2c.c **** 
 154:Drivers/STM32F1xx_HAL_Driver/Src/stm32f1xx_hal_i2c.c ****      *** I2C Workarounds linked to Silicon Limitation ***
 155:Drivers/STM32F1xx_HAL_Driver/Src/stm32f1xx_hal_i2c.c ****      ====================================================
 156:Drivers/STM32F1xx_HAL_Driver/Src/stm32f1xx_hal_i2c.c ****      [..]
 157:Drivers/STM32F1xx_HAL_Driver/Src/stm32f1xx_hal_i2c.c ****        Below the list of all silicon limitations implemented for HAL on STM32F1xx product.
 158:Drivers/STM32F1xx_HAL_Driver/Src/stm32f1xx_hal_i2c.c ****        (@) See ErrataSheet to know full silicon limitation list of your product.
 159:Drivers/STM32F1xx_HAL_Driver/Src/stm32f1xx_hal_i2c.c **** 
 160:Drivers/STM32F1xx_HAL_Driver/Src/stm32f1xx_hal_i2c.c ****        (#) Workarounds Implemented inside I2C HAL Driver
 161:Drivers/STM32F1xx_HAL_Driver/Src/stm32f1xx_hal_i2c.c ****           (##) Wrong data read into data register (Polling and Interrupt mode)
 162:Drivers/STM32F1xx_HAL_Driver/Src/stm32f1xx_hal_i2c.c ****           (##) Start cannot be generated after a misplaced Stop
 163:Drivers/STM32F1xx_HAL_Driver/Src/stm32f1xx_hal_i2c.c ****           (##) Some software events must be managed before the current byte is being transferred: 
 164:Drivers/STM32F1xx_HAL_Driver/Src/stm32f1xx_hal_i2c.c ****                Workaround: Use DMA in general, except when the Master is receiving a single byte.
 165:Drivers/STM32F1xx_HAL_Driver/Src/stm32f1xx_hal_i2c.c ****                For Interupt mode, I2C should have the highest priority in the application.
 166:Drivers/STM32F1xx_HAL_Driver/Src/stm32f1xx_hal_i2c.c ****           (##) Mismatch on the "Setup time for a repeated Start condition" timing parameter:
 167:Drivers/STM32F1xx_HAL_Driver/Src/stm32f1xx_hal_i2c.c ****                Workaround: Reduce the frequency down to 88 kHz or use the I2C Fast-mode if 
 168:Drivers/STM32F1xx_HAL_Driver/Src/stm32f1xx_hal_i2c.c ****                supported by the slave.
 169:Drivers/STM32F1xx_HAL_Driver/Src/stm32f1xx_hal_i2c.c ****           (##) Data valid time (tVD;DAT) violated without the OVR flag being set:
 170:Drivers/STM32F1xx_HAL_Driver/Src/stm32f1xx_hal_i2c.c ****                Workaround: If the slave device allows it, use the clock stretching mechanism 
 171:Drivers/STM32F1xx_HAL_Driver/Src/stm32f1xx_hal_i2c.c ****                by programming NoStretchMode = I2C_NOSTRETCH_DISABLE in HAL_I2C_Init.
 172:Drivers/STM32F1xx_HAL_Driver/Src/stm32f1xx_hal_i2c.c **** 
 173:Drivers/STM32F1xx_HAL_Driver/Src/stm32f1xx_hal_i2c.c ****   @endverbatim
 174:Drivers/STM32F1xx_HAL_Driver/Src/stm32f1xx_hal_i2c.c ****   ******************************************************************************
 175:Drivers/STM32F1xx_HAL_Driver/Src/stm32f1xx_hal_i2c.c ****   * @attention
 176:Drivers/STM32F1xx_HAL_Driver/Src/stm32f1xx_hal_i2c.c ****   *
 177:Drivers/STM32F1xx_HAL_Driver/Src/stm32f1xx_hal_i2c.c ****   * <h2><center>&copy; COPYRIGHT(c) 2016 STMicroelectronics</center></h2>
 178:Drivers/STM32F1xx_HAL_Driver/Src/stm32f1xx_hal_i2c.c ****   *
 179:Drivers/STM32F1xx_HAL_Driver/Src/stm32f1xx_hal_i2c.c ****   * Redistribution and use in source and binary forms, with or without modification,
 180:Drivers/STM32F1xx_HAL_Driver/Src/stm32f1xx_hal_i2c.c ****   * are permitted provided that the following conditions are met:
 181:Drivers/STM32F1xx_HAL_Driver/Src/stm32f1xx_hal_i2c.c ****   *   1. Redistributions of source code must retain the above copyright notice,
 182:Drivers/STM32F1xx_HAL_Driver/Src/stm32f1xx_hal_i2c.c ****   *      this list of conditions and the following disclaimer.
 183:Drivers/STM32F1xx_HAL_Driver/Src/stm32f1xx_hal_i2c.c ****   *   2. Redistributions in binary form must reproduce the above copyright notice,
 184:Drivers/STM32F1xx_HAL_Driver/Src/stm32f1xx_hal_i2c.c ****   *      this list of conditions and the following disclaimer in the documentation
 185:Drivers/STM32F1xx_HAL_Driver/Src/stm32f1xx_hal_i2c.c ****   *      and/or other materials provided with the distribution.
 186:Drivers/STM32F1xx_HAL_Driver/Src/stm32f1xx_hal_i2c.c ****   *   3. Neither the name of STMicroelectronics nor the names of its contributors
 187:Drivers/STM32F1xx_HAL_Driver/Src/stm32f1xx_hal_i2c.c ****   *      may be used to endorse or promote products derived from this software
 188:Drivers/STM32F1xx_HAL_Driver/Src/stm32f1xx_hal_i2c.c ****   *      without specific prior written permission.
 189:Drivers/STM32F1xx_HAL_Driver/Src/stm32f1xx_hal_i2c.c ****   *
 190:Drivers/STM32F1xx_HAL_Driver/Src/stm32f1xx_hal_i2c.c ****   * THIS SOFTWARE IS PROVIDED BY THE COPYRIGHT HOLDERS AND CONTRIBUTORS "AS IS"
 191:Drivers/STM32F1xx_HAL_Driver/Src/stm32f1xx_hal_i2c.c ****   * AND ANY EXPRESS OR IMPLIED WARRANTIES, INCLUDING, BUT NOT LIMITED TO, THE
 192:Drivers/STM32F1xx_HAL_Driver/Src/stm32f1xx_hal_i2c.c ****   * IMPLIED WARRANTIES OF MERCHANTABILITY AND FITNESS FOR A PARTICULAR PURPOSE ARE
 193:Drivers/STM32F1xx_HAL_Driver/Src/stm32f1xx_hal_i2c.c ****   * DISCLAIMED. IN NO EVENT SHALL THE COPYRIGHT HOLDER OR CONTRIBUTORS BE LIABLE
 194:Drivers/STM32F1xx_HAL_Driver/Src/stm32f1xx_hal_i2c.c ****   * FOR ANY DIRECT, INDIRECT, INCIDENTAL, SPECIAL, EXEMPLARY, OR CONSEQUENTIAL
 195:Drivers/STM32F1xx_HAL_Driver/Src/stm32f1xx_hal_i2c.c ****   * DAMAGES (INCLUDING, BUT NOT LIMITED TO, PROCUREMENT OF SUBSTITUTE GOODS OR
 196:Drivers/STM32F1xx_HAL_Driver/Src/stm32f1xx_hal_i2c.c ****   * SERVICES; LOSS OF USE, DATA, OR PROFITS; OR BUSINESS INTERRUPTION) HOWEVER
 197:Drivers/STM32F1xx_HAL_Driver/Src/stm32f1xx_hal_i2c.c ****   * CAUSED AND ON ANY THEORY OF LIABILITY, WHETHER IN CONTRACT, STRICT LIABILITY,
 198:Drivers/STM32F1xx_HAL_Driver/Src/stm32f1xx_hal_i2c.c ****   * OR TORT (INCLUDING NEGLIGENCE OR OTHERWISE) ARISING IN ANY WAY OUT OF THE USE
 199:Drivers/STM32F1xx_HAL_Driver/Src/stm32f1xx_hal_i2c.c ****   * OF THIS SOFTWARE, EVEN IF ADVISED OF THE POSSIBILITY OF SUCH DAMAGE.
 200:Drivers/STM32F1xx_HAL_Driver/Src/stm32f1xx_hal_i2c.c ****   *
 201:Drivers/STM32F1xx_HAL_Driver/Src/stm32f1xx_hal_i2c.c ****   ******************************************************************************
 202:Drivers/STM32F1xx_HAL_Driver/Src/stm32f1xx_hal_i2c.c ****   */
ARM GAS  /var/folders/kh/x4vltyy52lbg7p4pcyglc5080000gp/T//cccbl2Nm.s 			page 5


 203:Drivers/STM32F1xx_HAL_Driver/Src/stm32f1xx_hal_i2c.c **** 
 204:Drivers/STM32F1xx_HAL_Driver/Src/stm32f1xx_hal_i2c.c **** /* Includes ------------------------------------------------------------------*/
 205:Drivers/STM32F1xx_HAL_Driver/Src/stm32f1xx_hal_i2c.c **** #include "stm32f1xx_hal.h"
 206:Drivers/STM32F1xx_HAL_Driver/Src/stm32f1xx_hal_i2c.c **** 
 207:Drivers/STM32F1xx_HAL_Driver/Src/stm32f1xx_hal_i2c.c **** /** @addtogroup STM32F1xx_HAL_Driver
 208:Drivers/STM32F1xx_HAL_Driver/Src/stm32f1xx_hal_i2c.c ****   * @{
 209:Drivers/STM32F1xx_HAL_Driver/Src/stm32f1xx_hal_i2c.c ****   */
 210:Drivers/STM32F1xx_HAL_Driver/Src/stm32f1xx_hal_i2c.c **** 
 211:Drivers/STM32F1xx_HAL_Driver/Src/stm32f1xx_hal_i2c.c **** /** @defgroup I2C I2C
 212:Drivers/STM32F1xx_HAL_Driver/Src/stm32f1xx_hal_i2c.c ****   * @brief I2C HAL module driver
 213:Drivers/STM32F1xx_HAL_Driver/Src/stm32f1xx_hal_i2c.c ****   * @{
 214:Drivers/STM32F1xx_HAL_Driver/Src/stm32f1xx_hal_i2c.c ****   */
 215:Drivers/STM32F1xx_HAL_Driver/Src/stm32f1xx_hal_i2c.c **** 
 216:Drivers/STM32F1xx_HAL_Driver/Src/stm32f1xx_hal_i2c.c **** #ifdef HAL_I2C_MODULE_ENABLED
 217:Drivers/STM32F1xx_HAL_Driver/Src/stm32f1xx_hal_i2c.c **** 
 218:Drivers/STM32F1xx_HAL_Driver/Src/stm32f1xx_hal_i2c.c **** /* Private typedef -----------------------------------------------------------*/
 219:Drivers/STM32F1xx_HAL_Driver/Src/stm32f1xx_hal_i2c.c **** /* Private constants ---------------------------------------------------------*/
 220:Drivers/STM32F1xx_HAL_Driver/Src/stm32f1xx_hal_i2c.c **** /** @addtogroup I2C_Private_Constants I2C Private Constants
 221:Drivers/STM32F1xx_HAL_Driver/Src/stm32f1xx_hal_i2c.c ****   * @{
 222:Drivers/STM32F1xx_HAL_Driver/Src/stm32f1xx_hal_i2c.c ****   */
 223:Drivers/STM32F1xx_HAL_Driver/Src/stm32f1xx_hal_i2c.c **** #define I2C_TIMEOUT_FLAG          ((uint32_t)35)     /*!< Timeout 35 ms */
 224:Drivers/STM32F1xx_HAL_Driver/Src/stm32f1xx_hal_i2c.c **** #define I2C_TIMEOUT_ADDR_SLAVE    ((uint32_t)10000)  /*!< Timeout 10 s  */
 225:Drivers/STM32F1xx_HAL_Driver/Src/stm32f1xx_hal_i2c.c **** #define I2C_TIMEOUT_BUSY_FLAG     ((uint32_t)10000)  /*!< Timeout 10 s  */
 226:Drivers/STM32F1xx_HAL_Driver/Src/stm32f1xx_hal_i2c.c **** /**
 227:Drivers/STM32F1xx_HAL_Driver/Src/stm32f1xx_hal_i2c.c ****   * @}
 228:Drivers/STM32F1xx_HAL_Driver/Src/stm32f1xx_hal_i2c.c ****   */ 
 229:Drivers/STM32F1xx_HAL_Driver/Src/stm32f1xx_hal_i2c.c **** 
 230:Drivers/STM32F1xx_HAL_Driver/Src/stm32f1xx_hal_i2c.c **** /* Private macro -------------------------------------------------------------*/
 231:Drivers/STM32F1xx_HAL_Driver/Src/stm32f1xx_hal_i2c.c **** /* Private variables ---------------------------------------------------------*/
 232:Drivers/STM32F1xx_HAL_Driver/Src/stm32f1xx_hal_i2c.c **** /* Private function prototypes -----------------------------------------------*/
 233:Drivers/STM32F1xx_HAL_Driver/Src/stm32f1xx_hal_i2c.c **** /** @addtogroup I2C_Private_Functions I2C Private Functions
 234:Drivers/STM32F1xx_HAL_Driver/Src/stm32f1xx_hal_i2c.c ****   * @{
 235:Drivers/STM32F1xx_HAL_Driver/Src/stm32f1xx_hal_i2c.c ****   */
 236:Drivers/STM32F1xx_HAL_Driver/Src/stm32f1xx_hal_i2c.c **** static void I2C_DMAMasterTransmitCplt(DMA_HandleTypeDef *hdma);
 237:Drivers/STM32F1xx_HAL_Driver/Src/stm32f1xx_hal_i2c.c **** static void I2C_DMAMasterReceiveCplt(DMA_HandleTypeDef *hdma);
 238:Drivers/STM32F1xx_HAL_Driver/Src/stm32f1xx_hal_i2c.c **** static void I2C_DMASlaveTransmitCplt(DMA_HandleTypeDef *hdma);
 239:Drivers/STM32F1xx_HAL_Driver/Src/stm32f1xx_hal_i2c.c **** static void I2C_DMASlaveReceiveCplt(DMA_HandleTypeDef *hdma);
 240:Drivers/STM32F1xx_HAL_Driver/Src/stm32f1xx_hal_i2c.c **** static void I2C_DMAMemTransmitCplt(DMA_HandleTypeDef *hdma);
 241:Drivers/STM32F1xx_HAL_Driver/Src/stm32f1xx_hal_i2c.c **** static void I2C_DMAMemReceiveCplt(DMA_HandleTypeDef *hdma);
 242:Drivers/STM32F1xx_HAL_Driver/Src/stm32f1xx_hal_i2c.c **** static void I2C_DMAError(DMA_HandleTypeDef *hdma);
 243:Drivers/STM32F1xx_HAL_Driver/Src/stm32f1xx_hal_i2c.c **** 
 244:Drivers/STM32F1xx_HAL_Driver/Src/stm32f1xx_hal_i2c.c **** static HAL_StatusTypeDef I2C_MasterRequestWrite(I2C_HandleTypeDef *hi2c, uint16_t DevAddress, uint3
 245:Drivers/STM32F1xx_HAL_Driver/Src/stm32f1xx_hal_i2c.c **** static HAL_StatusTypeDef I2C_MasterRequestRead(I2C_HandleTypeDef *hi2c, uint16_t DevAddress, uint32
 246:Drivers/STM32F1xx_HAL_Driver/Src/stm32f1xx_hal_i2c.c **** static HAL_StatusTypeDef I2C_RequestMemoryWrite(I2C_HandleTypeDef *hi2c, uint16_t DevAddress, uint1
 247:Drivers/STM32F1xx_HAL_Driver/Src/stm32f1xx_hal_i2c.c **** static HAL_StatusTypeDef I2C_RequestMemoryRead(I2C_HandleTypeDef *hi2c, uint16_t DevAddress, uint16
 248:Drivers/STM32F1xx_HAL_Driver/Src/stm32f1xx_hal_i2c.c **** static HAL_StatusTypeDef I2C_WaitOnFlagUntilTimeout(I2C_HandleTypeDef *hi2c, uint32_t Flag, FlagSta
 249:Drivers/STM32F1xx_HAL_Driver/Src/stm32f1xx_hal_i2c.c **** static HAL_StatusTypeDef I2C_WaitOnMasterAddressFlagUntilTimeout(I2C_HandleTypeDef *hi2c, uint32_t 
 250:Drivers/STM32F1xx_HAL_Driver/Src/stm32f1xx_hal_i2c.c **** static HAL_StatusTypeDef I2C_WaitOnTXEFlagUntilTimeout(I2C_HandleTypeDef *hi2c, uint32_t Timeout);
 251:Drivers/STM32F1xx_HAL_Driver/Src/stm32f1xx_hal_i2c.c **** static HAL_StatusTypeDef I2C_WaitOnBTFFlagUntilTimeout(I2C_HandleTypeDef *hi2c, uint32_t Timeout);
 252:Drivers/STM32F1xx_HAL_Driver/Src/stm32f1xx_hal_i2c.c **** static HAL_StatusTypeDef I2C_WaitOnRXNEFlagUntilTimeout(I2C_HandleTypeDef *hi2c, uint32_t Timeout);
 253:Drivers/STM32F1xx_HAL_Driver/Src/stm32f1xx_hal_i2c.c **** static HAL_StatusTypeDef I2C_WaitOnSTOPFlagUntilTimeout(I2C_HandleTypeDef *hi2c, uint32_t Timeout);
 254:Drivers/STM32F1xx_HAL_Driver/Src/stm32f1xx_hal_i2c.c **** static HAL_StatusTypeDef I2C_IsAcknowledgeFailed(I2C_HandleTypeDef *hi2c);
 255:Drivers/STM32F1xx_HAL_Driver/Src/stm32f1xx_hal_i2c.c **** 
 256:Drivers/STM32F1xx_HAL_Driver/Src/stm32f1xx_hal_i2c.c **** static HAL_StatusTypeDef I2C_MasterTransmit_TXE(I2C_HandleTypeDef *hi2c);
 257:Drivers/STM32F1xx_HAL_Driver/Src/stm32f1xx_hal_i2c.c **** static HAL_StatusTypeDef I2C_MasterTransmit_BTF(I2C_HandleTypeDef *hi2c);
 258:Drivers/STM32F1xx_HAL_Driver/Src/stm32f1xx_hal_i2c.c **** static HAL_StatusTypeDef I2C_MasterReceive_RXNE(I2C_HandleTypeDef *hi2c);
 259:Drivers/STM32F1xx_HAL_Driver/Src/stm32f1xx_hal_i2c.c **** static HAL_StatusTypeDef I2C_MasterReceive_BTF(I2C_HandleTypeDef *hi2c);
ARM GAS  /var/folders/kh/x4vltyy52lbg7p4pcyglc5080000gp/T//cccbl2Nm.s 			page 6


 260:Drivers/STM32F1xx_HAL_Driver/Src/stm32f1xx_hal_i2c.c **** 
 261:Drivers/STM32F1xx_HAL_Driver/Src/stm32f1xx_hal_i2c.c **** static HAL_StatusTypeDef I2C_SlaveTransmit_TXE(I2C_HandleTypeDef *hi2c);
 262:Drivers/STM32F1xx_HAL_Driver/Src/stm32f1xx_hal_i2c.c **** static HAL_StatusTypeDef I2C_SlaveTransmit_BTF(I2C_HandleTypeDef *hi2c);
 263:Drivers/STM32F1xx_HAL_Driver/Src/stm32f1xx_hal_i2c.c **** static HAL_StatusTypeDef I2C_SlaveReceive_RXNE(I2C_HandleTypeDef *hi2c);
 264:Drivers/STM32F1xx_HAL_Driver/Src/stm32f1xx_hal_i2c.c **** static HAL_StatusTypeDef I2C_SlaveReceive_BTF(I2C_HandleTypeDef *hi2c);
 265:Drivers/STM32F1xx_HAL_Driver/Src/stm32f1xx_hal_i2c.c **** static HAL_StatusTypeDef I2C_Slave_ADDR(I2C_HandleTypeDef *hi2c);
 266:Drivers/STM32F1xx_HAL_Driver/Src/stm32f1xx_hal_i2c.c **** static HAL_StatusTypeDef I2C_Slave_STOPF(I2C_HandleTypeDef *hi2c);
 267:Drivers/STM32F1xx_HAL_Driver/Src/stm32f1xx_hal_i2c.c **** static HAL_StatusTypeDef I2C_Slave_AF(I2C_HandleTypeDef *hi2c);
 268:Drivers/STM32F1xx_HAL_Driver/Src/stm32f1xx_hal_i2c.c **** 
 269:Drivers/STM32F1xx_HAL_Driver/Src/stm32f1xx_hal_i2c.c **** static uint32_t I2C_Configure_Speed(I2C_HandleTypeDef *hi2c, uint32_t I2CClkSrcFreq);
 270:Drivers/STM32F1xx_HAL_Driver/Src/stm32f1xx_hal_i2c.c **** /**
 271:Drivers/STM32F1xx_HAL_Driver/Src/stm32f1xx_hal_i2c.c ****   * @}
 272:Drivers/STM32F1xx_HAL_Driver/Src/stm32f1xx_hal_i2c.c ****   */ 
 273:Drivers/STM32F1xx_HAL_Driver/Src/stm32f1xx_hal_i2c.c ****   
 274:Drivers/STM32F1xx_HAL_Driver/Src/stm32f1xx_hal_i2c.c **** /* Exported functions ---------------------------------------------------------*/
 275:Drivers/STM32F1xx_HAL_Driver/Src/stm32f1xx_hal_i2c.c **** 
 276:Drivers/STM32F1xx_HAL_Driver/Src/stm32f1xx_hal_i2c.c **** /** @defgroup I2C_Exported_Functions I2C Exported Functions
 277:Drivers/STM32F1xx_HAL_Driver/Src/stm32f1xx_hal_i2c.c ****   * @{
 278:Drivers/STM32F1xx_HAL_Driver/Src/stm32f1xx_hal_i2c.c ****   */
 279:Drivers/STM32F1xx_HAL_Driver/Src/stm32f1xx_hal_i2c.c **** 
 280:Drivers/STM32F1xx_HAL_Driver/Src/stm32f1xx_hal_i2c.c **** /** @defgroup I2C_Exported_Functions_Group1 Initialization and de-initialization functions
 281:Drivers/STM32F1xx_HAL_Driver/Src/stm32f1xx_hal_i2c.c ****  *  @brief    Initialization and Configuration functions
 282:Drivers/STM32F1xx_HAL_Driver/Src/stm32f1xx_hal_i2c.c ****  *
 283:Drivers/STM32F1xx_HAL_Driver/Src/stm32f1xx_hal_i2c.c **** @verbatim
 284:Drivers/STM32F1xx_HAL_Driver/Src/stm32f1xx_hal_i2c.c ****  ===============================================================================
 285:Drivers/STM32F1xx_HAL_Driver/Src/stm32f1xx_hal_i2c.c ****               ##### Initialization and de-initialization functions #####
 286:Drivers/STM32F1xx_HAL_Driver/Src/stm32f1xx_hal_i2c.c ****  ===============================================================================
 287:Drivers/STM32F1xx_HAL_Driver/Src/stm32f1xx_hal_i2c.c ****     [..]  This subsection provides a set of functions allowing to initialize and
 288:Drivers/STM32F1xx_HAL_Driver/Src/stm32f1xx_hal_i2c.c ****           de-initialiaze the I2Cx peripheral:
 289:Drivers/STM32F1xx_HAL_Driver/Src/stm32f1xx_hal_i2c.c **** 
 290:Drivers/STM32F1xx_HAL_Driver/Src/stm32f1xx_hal_i2c.c ****       (+) User must Implement HAL_I2C_MspInit() function in which he configures
 291:Drivers/STM32F1xx_HAL_Driver/Src/stm32f1xx_hal_i2c.c ****           all related peripherals resources (CLOCK, GPIO, DMA, IT and NVIC).
 292:Drivers/STM32F1xx_HAL_Driver/Src/stm32f1xx_hal_i2c.c **** 
 293:Drivers/STM32F1xx_HAL_Driver/Src/stm32f1xx_hal_i2c.c ****       (+) Call the function HAL_I2C_Init() to configure the selected device with
 294:Drivers/STM32F1xx_HAL_Driver/Src/stm32f1xx_hal_i2c.c ****           the selected configuration:
 295:Drivers/STM32F1xx_HAL_Driver/Src/stm32f1xx_hal_i2c.c ****         (++) Communication Speed
 296:Drivers/STM32F1xx_HAL_Driver/Src/stm32f1xx_hal_i2c.c ****         (++) Duty cycle
 297:Drivers/STM32F1xx_HAL_Driver/Src/stm32f1xx_hal_i2c.c ****         (++) Addressing mode
 298:Drivers/STM32F1xx_HAL_Driver/Src/stm32f1xx_hal_i2c.c ****         (++) Own Address 1
 299:Drivers/STM32F1xx_HAL_Driver/Src/stm32f1xx_hal_i2c.c ****         (++) Dual Addressing mode
 300:Drivers/STM32F1xx_HAL_Driver/Src/stm32f1xx_hal_i2c.c ****         (++) Own Address 2
 301:Drivers/STM32F1xx_HAL_Driver/Src/stm32f1xx_hal_i2c.c ****         (++) General call mode
 302:Drivers/STM32F1xx_HAL_Driver/Src/stm32f1xx_hal_i2c.c ****         (++) Nostretch mode
 303:Drivers/STM32F1xx_HAL_Driver/Src/stm32f1xx_hal_i2c.c **** 
 304:Drivers/STM32F1xx_HAL_Driver/Src/stm32f1xx_hal_i2c.c ****       (+) Call the function HAL_I2C_DeInit() to restore the default configuration
 305:Drivers/STM32F1xx_HAL_Driver/Src/stm32f1xx_hal_i2c.c ****           of the selected I2Cx periperal.
 306:Drivers/STM32F1xx_HAL_Driver/Src/stm32f1xx_hal_i2c.c **** 
 307:Drivers/STM32F1xx_HAL_Driver/Src/stm32f1xx_hal_i2c.c **** @endverbatim
 308:Drivers/STM32F1xx_HAL_Driver/Src/stm32f1xx_hal_i2c.c ****   * @{
 309:Drivers/STM32F1xx_HAL_Driver/Src/stm32f1xx_hal_i2c.c ****   */
 310:Drivers/STM32F1xx_HAL_Driver/Src/stm32f1xx_hal_i2c.c **** 
 311:Drivers/STM32F1xx_HAL_Driver/Src/stm32f1xx_hal_i2c.c **** /**
 312:Drivers/STM32F1xx_HAL_Driver/Src/stm32f1xx_hal_i2c.c ****   * @brief  Initializes the I2C according to the specified parameters
 313:Drivers/STM32F1xx_HAL_Driver/Src/stm32f1xx_hal_i2c.c ****   *         in the I2C_InitTypeDef and initialize the associated handle.
 314:Drivers/STM32F1xx_HAL_Driver/Src/stm32f1xx_hal_i2c.c ****   * @param  hi2c Pointer to a I2C_HandleTypeDef structure that contains
 315:Drivers/STM32F1xx_HAL_Driver/Src/stm32f1xx_hal_i2c.c ****   *                the configuration information for the specified I2C.
 316:Drivers/STM32F1xx_HAL_Driver/Src/stm32f1xx_hal_i2c.c ****   * @retval HAL status
ARM GAS  /var/folders/kh/x4vltyy52lbg7p4pcyglc5080000gp/T//cccbl2Nm.s 			page 7


 317:Drivers/STM32F1xx_HAL_Driver/Src/stm32f1xx_hal_i2c.c ****   */
 318:Drivers/STM32F1xx_HAL_Driver/Src/stm32f1xx_hal_i2c.c **** HAL_StatusTypeDef HAL_I2C_Init(I2C_HandleTypeDef *hi2c)
 319:Drivers/STM32F1xx_HAL_Driver/Src/stm32f1xx_hal_i2c.c **** {
  28              		.loc 1 319 0
  29              		.cfi_startproc
  30              		@ args = 0, pretend = 0, frame = 16
  31              		@ frame_needed = 1, uses_anonymous_args = 0
  32 0000 90B5     		push	{r4, r7, lr}
  33              	.LCFI0:
  34              		.cfi_def_cfa_offset 12
  35              		.cfi_offset 4, -12
  36              		.cfi_offset 7, -8
  37              		.cfi_offset 14, -4
  38 0002 85B0     		sub	sp, sp, #20
  39              	.LCFI1:
  40              		.cfi_def_cfa_offset 32
  41 0004 00AF     		add	r7, sp, #0
  42              	.LCFI2:
  43              		.cfi_def_cfa_register 7
  44 0006 7860     		str	r0, [r7, #4]
 320:Drivers/STM32F1xx_HAL_Driver/Src/stm32f1xx_hal_i2c.c ****   uint32_t freqrange = 0;
  45              		.loc 1 320 0
  46 0008 0023     		movs	r3, #0
  47 000a FB60     		str	r3, [r7, #12]
 321:Drivers/STM32F1xx_HAL_Driver/Src/stm32f1xx_hal_i2c.c ****   uint32_t pclk1 = 0;
  48              		.loc 1 321 0
  49 000c 0023     		movs	r3, #0
  50 000e BB60     		str	r3, [r7, #8]
 322:Drivers/STM32F1xx_HAL_Driver/Src/stm32f1xx_hal_i2c.c **** 
 323:Drivers/STM32F1xx_HAL_Driver/Src/stm32f1xx_hal_i2c.c ****   /* Check the I2C handle allocation */
 324:Drivers/STM32F1xx_HAL_Driver/Src/stm32f1xx_hal_i2c.c ****   if(hi2c == NULL)
  51              		.loc 1 324 0
  52 0010 7B68     		ldr	r3, [r7, #4]
  53 0012 002B     		cmp	r3, #0
  54 0014 01D1     		bne	.L2
 325:Drivers/STM32F1xx_HAL_Driver/Src/stm32f1xx_hal_i2c.c ****   {
 326:Drivers/STM32F1xx_HAL_Driver/Src/stm32f1xx_hal_i2c.c ****     return HAL_ERROR;
  55              		.loc 1 326 0
  56 0016 0123     		movs	r3, #1
  57 0018 6EE0     		b	.L3
  58              	.L2:
 327:Drivers/STM32F1xx_HAL_Driver/Src/stm32f1xx_hal_i2c.c ****   }
 328:Drivers/STM32F1xx_HAL_Driver/Src/stm32f1xx_hal_i2c.c **** 
 329:Drivers/STM32F1xx_HAL_Driver/Src/stm32f1xx_hal_i2c.c ****   /* Check the parameters */
 330:Drivers/STM32F1xx_HAL_Driver/Src/stm32f1xx_hal_i2c.c ****   assert_param(IS_I2C_ALL_INSTANCE(hi2c->Instance));
 331:Drivers/STM32F1xx_HAL_Driver/Src/stm32f1xx_hal_i2c.c ****   assert_param(IS_I2C_CLOCK_SPEED(hi2c->Init.ClockSpeed));
 332:Drivers/STM32F1xx_HAL_Driver/Src/stm32f1xx_hal_i2c.c ****   assert_param(IS_I2C_DUTY_CYCLE(hi2c->Init.DutyCycle));
 333:Drivers/STM32F1xx_HAL_Driver/Src/stm32f1xx_hal_i2c.c ****   assert_param(IS_I2C_OWN_ADDRESS1(hi2c->Init.OwnAddress1));
 334:Drivers/STM32F1xx_HAL_Driver/Src/stm32f1xx_hal_i2c.c ****   assert_param(IS_I2C_ADDRESSING_MODE(hi2c->Init.AddressingMode));
 335:Drivers/STM32F1xx_HAL_Driver/Src/stm32f1xx_hal_i2c.c ****   assert_param(IS_I2C_DUAL_ADDRESS(hi2c->Init.DualAddressMode));
 336:Drivers/STM32F1xx_HAL_Driver/Src/stm32f1xx_hal_i2c.c ****   assert_param(IS_I2C_OWN_ADDRESS2(hi2c->Init.OwnAddress2));
 337:Drivers/STM32F1xx_HAL_Driver/Src/stm32f1xx_hal_i2c.c ****   assert_param(IS_I2C_GENERAL_CALL(hi2c->Init.GeneralCallMode));
 338:Drivers/STM32F1xx_HAL_Driver/Src/stm32f1xx_hal_i2c.c ****   assert_param(IS_I2C_NO_STRETCH(hi2c->Init.NoStretchMode));
 339:Drivers/STM32F1xx_HAL_Driver/Src/stm32f1xx_hal_i2c.c **** 
 340:Drivers/STM32F1xx_HAL_Driver/Src/stm32f1xx_hal_i2c.c ****   if(hi2c->State == HAL_I2C_STATE_RESET)
  59              		.loc 1 340 0
  60 001a 7B68     		ldr	r3, [r7, #4]
ARM GAS  /var/folders/kh/x4vltyy52lbg7p4pcyglc5080000gp/T//cccbl2Nm.s 			page 8


  61 001c 93F83530 		ldrb	r3, [r3, #53]
  62 0020 DBB2     		uxtb	r3, r3
  63 0022 002B     		cmp	r3, #0
  64 0024 06D1     		bne	.L4
 341:Drivers/STM32F1xx_HAL_Driver/Src/stm32f1xx_hal_i2c.c ****   {
 342:Drivers/STM32F1xx_HAL_Driver/Src/stm32f1xx_hal_i2c.c ****     /* Allocate lock resource and initialize it */
 343:Drivers/STM32F1xx_HAL_Driver/Src/stm32f1xx_hal_i2c.c ****     hi2c->Lock = HAL_UNLOCKED;
  65              		.loc 1 343 0
  66 0026 7B68     		ldr	r3, [r7, #4]
  67 0028 0022     		movs	r2, #0
  68 002a 83F83420 		strb	r2, [r3, #52]
 344:Drivers/STM32F1xx_HAL_Driver/Src/stm32f1xx_hal_i2c.c ****     
 345:Drivers/STM32F1xx_HAL_Driver/Src/stm32f1xx_hal_i2c.c ****     /* Init the low level hardware : GPIO, CLOCK, NVIC */
 346:Drivers/STM32F1xx_HAL_Driver/Src/stm32f1xx_hal_i2c.c ****     HAL_I2C_MspInit(hi2c);
  69              		.loc 1 346 0
  70 002e 7868     		ldr	r0, [r7, #4]
  71 0030 FFF7FEFF 		bl	HAL_I2C_MspInit
  72              	.L4:
 347:Drivers/STM32F1xx_HAL_Driver/Src/stm32f1xx_hal_i2c.c ****   }
 348:Drivers/STM32F1xx_HAL_Driver/Src/stm32f1xx_hal_i2c.c **** 
 349:Drivers/STM32F1xx_HAL_Driver/Src/stm32f1xx_hal_i2c.c ****   hi2c->State = HAL_I2C_STATE_BUSY;
  73              		.loc 1 349 0
  74 0034 7B68     		ldr	r3, [r7, #4]
  75 0036 2422     		movs	r2, #36
  76 0038 83F83520 		strb	r2, [r3, #53]
 350:Drivers/STM32F1xx_HAL_Driver/Src/stm32f1xx_hal_i2c.c **** 
 351:Drivers/STM32F1xx_HAL_Driver/Src/stm32f1xx_hal_i2c.c ****   /* Disable the selected I2C peripheral */
 352:Drivers/STM32F1xx_HAL_Driver/Src/stm32f1xx_hal_i2c.c ****   __HAL_I2C_DISABLE(hi2c);
  77              		.loc 1 352 0
  78 003c 7B68     		ldr	r3, [r7, #4]
  79 003e 1B68     		ldr	r3, [r3]
  80 0040 7A68     		ldr	r2, [r7, #4]
  81 0042 1268     		ldr	r2, [r2]
  82 0044 1268     		ldr	r2, [r2]
  83 0046 22F00102 		bic	r2, r2, #1
  84 004a 1A60     		str	r2, [r3]
 353:Drivers/STM32F1xx_HAL_Driver/Src/stm32f1xx_hal_i2c.c **** 
 354:Drivers/STM32F1xx_HAL_Driver/Src/stm32f1xx_hal_i2c.c ****   /* Get PCLK1 frequency */
 355:Drivers/STM32F1xx_HAL_Driver/Src/stm32f1xx_hal_i2c.c ****   pclk1 = HAL_RCC_GetPCLK1Freq();
  85              		.loc 1 355 0
  86 004c FFF7FEFF 		bl	HAL_RCC_GetPCLK1Freq
  87 0050 B860     		str	r0, [r7, #8]
 356:Drivers/STM32F1xx_HAL_Driver/Src/stm32f1xx_hal_i2c.c **** 
 357:Drivers/STM32F1xx_HAL_Driver/Src/stm32f1xx_hal_i2c.c ****   /* Calculate frequency range */
 358:Drivers/STM32F1xx_HAL_Driver/Src/stm32f1xx_hal_i2c.c ****   freqrange = I2C_FREQ_RANGE(pclk1);
  88              		.loc 1 358 0
  89 0052 BB68     		ldr	r3, [r7, #8]
  90 0054 2A4A     		ldr	r2, .L7
  91 0056 A2FB0323 		umull	r2, r3, r2, r3
  92 005a 9B0C     		lsrs	r3, r3, #18
  93 005c FB60     		str	r3, [r7, #12]
 359:Drivers/STM32F1xx_HAL_Driver/Src/stm32f1xx_hal_i2c.c **** 
 360:Drivers/STM32F1xx_HAL_Driver/Src/stm32f1xx_hal_i2c.c ****   /*---------------------------- I2Cx CR2 Configuration ----------------------*/
 361:Drivers/STM32F1xx_HAL_Driver/Src/stm32f1xx_hal_i2c.c ****   /* Configure I2Cx: Frequency range */
 362:Drivers/STM32F1xx_HAL_Driver/Src/stm32f1xx_hal_i2c.c ****   hi2c->Instance->CR2 = freqrange;
  94              		.loc 1 362 0
  95 005e 7B68     		ldr	r3, [r7, #4]
ARM GAS  /var/folders/kh/x4vltyy52lbg7p4pcyglc5080000gp/T//cccbl2Nm.s 			page 9


  96 0060 1B68     		ldr	r3, [r3]
  97 0062 FA68     		ldr	r2, [r7, #12]
  98 0064 5A60     		str	r2, [r3, #4]
 363:Drivers/STM32F1xx_HAL_Driver/Src/stm32f1xx_hal_i2c.c **** 
 364:Drivers/STM32F1xx_HAL_Driver/Src/stm32f1xx_hal_i2c.c ****   /*---------------------------- I2Cx TRISE Configuration --------------------*/
 365:Drivers/STM32F1xx_HAL_Driver/Src/stm32f1xx_hal_i2c.c ****   /* Configure I2Cx: Rise Time */
 366:Drivers/STM32F1xx_HAL_Driver/Src/stm32f1xx_hal_i2c.c ****   hi2c->Instance->TRISE = I2C_RISE_TIME(freqrange, hi2c->Init.ClockSpeed);
  99              		.loc 1 366 0
 100 0066 7B68     		ldr	r3, [r7, #4]
 101 0068 1A68     		ldr	r2, [r3]
 102 006a 7B68     		ldr	r3, [r7, #4]
 103 006c 5B68     		ldr	r3, [r3, #4]
 104 006e 2549     		ldr	r1, .L7+4
 105 0070 8B42     		cmp	r3, r1
 106 0072 02D8     		bhi	.L5
 107              		.loc 1 366 0 is_stmt 0 discriminator 1
 108 0074 FB68     		ldr	r3, [r7, #12]
 109 0076 0133     		adds	r3, r3, #1
 110 0078 09E0     		b	.L6
 111              	.L5:
 112              		.loc 1 366 0 discriminator 2
 113 007a FB68     		ldr	r3, [r7, #12]
 114 007c 4FF49671 		mov	r1, #300
 115 0080 01FB03F3 		mul	r3, r1, r3
 116 0084 2049     		ldr	r1, .L7+8
 117 0086 A1FB0313 		umull	r1, r3, r1, r3
 118 008a 9B09     		lsrs	r3, r3, #6
 119 008c 0133     		adds	r3, r3, #1
 120              	.L6:
 121              		.loc 1 366 0 discriminator 4
 122 008e 1362     		str	r3, [r2, #32]
 367:Drivers/STM32F1xx_HAL_Driver/Src/stm32f1xx_hal_i2c.c **** 
 368:Drivers/STM32F1xx_HAL_Driver/Src/stm32f1xx_hal_i2c.c ****   /*---------------------------- I2Cx CCR Configuration ----------------------*/
 369:Drivers/STM32F1xx_HAL_Driver/Src/stm32f1xx_hal_i2c.c ****   /* Configure I2Cx: Speed */
 370:Drivers/STM32F1xx_HAL_Driver/Src/stm32f1xx_hal_i2c.c ****   hi2c->Instance->CCR = I2C_Configure_Speed(hi2c, pclk1);
 123              		.loc 1 370 0 is_stmt 1 discriminator 4
 124 0090 7B68     		ldr	r3, [r7, #4]
 125 0092 1C68     		ldr	r4, [r3]
 126 0094 B968     		ldr	r1, [r7, #8]
 127 0096 7868     		ldr	r0, [r7, #4]
 128 0098 FFF7FEFF 		bl	I2C_Configure_Speed
 129 009c 0346     		mov	r3, r0
 130 009e E361     		str	r3, [r4, #28]
 371:Drivers/STM32F1xx_HAL_Driver/Src/stm32f1xx_hal_i2c.c **** 
 372:Drivers/STM32F1xx_HAL_Driver/Src/stm32f1xx_hal_i2c.c ****   /*---------------------------- I2Cx CR1 Configuration ----------------------*/
 373:Drivers/STM32F1xx_HAL_Driver/Src/stm32f1xx_hal_i2c.c ****   /* Configure I2Cx: Generalcall and NoStretch mode */
 374:Drivers/STM32F1xx_HAL_Driver/Src/stm32f1xx_hal_i2c.c ****   hi2c->Instance->CR1 = (hi2c->Init.GeneralCallMode | hi2c->Init.NoStretchMode);
 131              		.loc 1 374 0 discriminator 4
 132 00a0 7B68     		ldr	r3, [r7, #4]
 133 00a2 1B68     		ldr	r3, [r3]
 134 00a4 7A68     		ldr	r2, [r7, #4]
 135 00a6 D169     		ldr	r1, [r2, #28]
 136 00a8 7A68     		ldr	r2, [r7, #4]
 137 00aa 126A     		ldr	r2, [r2, #32]
 138 00ac 0A43     		orrs	r2, r2, r1
 139 00ae 1A60     		str	r2, [r3]
 375:Drivers/STM32F1xx_HAL_Driver/Src/stm32f1xx_hal_i2c.c **** 
ARM GAS  /var/folders/kh/x4vltyy52lbg7p4pcyglc5080000gp/T//cccbl2Nm.s 			page 10


 376:Drivers/STM32F1xx_HAL_Driver/Src/stm32f1xx_hal_i2c.c ****   /*---------------------------- I2Cx OAR1 Configuration ---------------------*/
 377:Drivers/STM32F1xx_HAL_Driver/Src/stm32f1xx_hal_i2c.c ****   /* Configure I2Cx: Own Address1 and addressing mode */
 378:Drivers/STM32F1xx_HAL_Driver/Src/stm32f1xx_hal_i2c.c ****   hi2c->Instance->OAR1 = (hi2c->Init.AddressingMode | hi2c->Init.OwnAddress1);
 140              		.loc 1 378 0 discriminator 4
 141 00b0 7B68     		ldr	r3, [r7, #4]
 142 00b2 1B68     		ldr	r3, [r3]
 143 00b4 7A68     		ldr	r2, [r7, #4]
 144 00b6 1169     		ldr	r1, [r2, #16]
 145 00b8 7A68     		ldr	r2, [r7, #4]
 146 00ba D268     		ldr	r2, [r2, #12]
 147 00bc 0A43     		orrs	r2, r2, r1
 148 00be 9A60     		str	r2, [r3, #8]
 379:Drivers/STM32F1xx_HAL_Driver/Src/stm32f1xx_hal_i2c.c **** 
 380:Drivers/STM32F1xx_HAL_Driver/Src/stm32f1xx_hal_i2c.c ****   /*---------------------------- I2Cx OAR2 Configuration ---------------------*/
 381:Drivers/STM32F1xx_HAL_Driver/Src/stm32f1xx_hal_i2c.c ****   /* Configure I2Cx: Dual mode and Own Address2 */
 382:Drivers/STM32F1xx_HAL_Driver/Src/stm32f1xx_hal_i2c.c ****   hi2c->Instance->OAR2 = (hi2c->Init.DualAddressMode | hi2c->Init.OwnAddress2);
 149              		.loc 1 382 0 discriminator 4
 150 00c0 7B68     		ldr	r3, [r7, #4]
 151 00c2 1B68     		ldr	r3, [r3]
 152 00c4 7A68     		ldr	r2, [r7, #4]
 153 00c6 5169     		ldr	r1, [r2, #20]
 154 00c8 7A68     		ldr	r2, [r7, #4]
 155 00ca 9269     		ldr	r2, [r2, #24]
 156 00cc 0A43     		orrs	r2, r2, r1
 157 00ce DA60     		str	r2, [r3, #12]
 383:Drivers/STM32F1xx_HAL_Driver/Src/stm32f1xx_hal_i2c.c **** 
 384:Drivers/STM32F1xx_HAL_Driver/Src/stm32f1xx_hal_i2c.c ****   /* Enable the selected I2C peripheral */
 385:Drivers/STM32F1xx_HAL_Driver/Src/stm32f1xx_hal_i2c.c ****   __HAL_I2C_ENABLE(hi2c);
 158              		.loc 1 385 0 discriminator 4
 159 00d0 7B68     		ldr	r3, [r7, #4]
 160 00d2 1B68     		ldr	r3, [r3]
 161 00d4 7A68     		ldr	r2, [r7, #4]
 162 00d6 1268     		ldr	r2, [r2]
 163 00d8 1268     		ldr	r2, [r2]
 164 00da 42F00102 		orr	r2, r2, #1
 165 00de 1A60     		str	r2, [r3]
 386:Drivers/STM32F1xx_HAL_Driver/Src/stm32f1xx_hal_i2c.c **** 
 387:Drivers/STM32F1xx_HAL_Driver/Src/stm32f1xx_hal_i2c.c ****   hi2c->ErrorCode = HAL_I2C_ERROR_NONE;
 166              		.loc 1 387 0 discriminator 4
 167 00e0 7B68     		ldr	r3, [r7, #4]
 168 00e2 0022     		movs	r2, #0
 169 00e4 9A63     		str	r2, [r3, #56]
 388:Drivers/STM32F1xx_HAL_Driver/Src/stm32f1xx_hal_i2c.c ****   hi2c->State = HAL_I2C_STATE_READY;
 170              		.loc 1 388 0 discriminator 4
 171 00e6 7B68     		ldr	r3, [r7, #4]
 172 00e8 2022     		movs	r2, #32
 173 00ea 83F83520 		strb	r2, [r3, #53]
 389:Drivers/STM32F1xx_HAL_Driver/Src/stm32f1xx_hal_i2c.c ****   hi2c->Mode = HAL_I2C_MODE_NONE;
 174              		.loc 1 389 0 discriminator 4
 175 00ee 7B68     		ldr	r3, [r7, #4]
 176 00f0 0022     		movs	r2, #0
 177 00f2 83F83620 		strb	r2, [r3, #54]
 390:Drivers/STM32F1xx_HAL_Driver/Src/stm32f1xx_hal_i2c.c **** 
 391:Drivers/STM32F1xx_HAL_Driver/Src/stm32f1xx_hal_i2c.c ****   return HAL_OK;
 178              		.loc 1 391 0 discriminator 4
 179 00f6 0023     		movs	r3, #0
 180              	.L3:
ARM GAS  /var/folders/kh/x4vltyy52lbg7p4pcyglc5080000gp/T//cccbl2Nm.s 			page 11


 392:Drivers/STM32F1xx_HAL_Driver/Src/stm32f1xx_hal_i2c.c **** }
 181              		.loc 1 392 0
 182 00f8 1846     		mov	r0, r3
 183 00fa 1437     		adds	r7, r7, #20
 184              	.LCFI3:
 185              		.cfi_def_cfa_offset 12
 186 00fc BD46     		mov	sp, r7
 187              	.LCFI4:
 188              		.cfi_def_cfa_register 13
 189              		@ sp needed
 190 00fe 90BD     		pop	{r4, r7, pc}
 191              	.L8:
 192              		.align	2
 193              	.L7:
 194 0100 83DE1B43 		.word	1125899907
 195 0104 A0860100 		.word	100000
 196 0108 D34D6210 		.word	274877907
 197              		.cfi_endproc
 198              	.LFE64:
 200              		.section	.text.HAL_I2C_DeInit,"ax",%progbits
 201              		.align	2
 202              		.global	HAL_I2C_DeInit
 203              		.thumb
 204              		.thumb_func
 206              	HAL_I2C_DeInit:
 207              	.LFB65:
 393:Drivers/STM32F1xx_HAL_Driver/Src/stm32f1xx_hal_i2c.c **** 
 394:Drivers/STM32F1xx_HAL_Driver/Src/stm32f1xx_hal_i2c.c **** /**
 395:Drivers/STM32F1xx_HAL_Driver/Src/stm32f1xx_hal_i2c.c ****   * @brief  DeInitialize the I2C peripheral. 
 396:Drivers/STM32F1xx_HAL_Driver/Src/stm32f1xx_hal_i2c.c ****   * @param  hi2c Pointer to a I2C_HandleTypeDef structure that contains
 397:Drivers/STM32F1xx_HAL_Driver/Src/stm32f1xx_hal_i2c.c ****   *                the configuration information for the specified I2C.
 398:Drivers/STM32F1xx_HAL_Driver/Src/stm32f1xx_hal_i2c.c ****   * @retval HAL status
 399:Drivers/STM32F1xx_HAL_Driver/Src/stm32f1xx_hal_i2c.c ****   */
 400:Drivers/STM32F1xx_HAL_Driver/Src/stm32f1xx_hal_i2c.c **** HAL_StatusTypeDef HAL_I2C_DeInit(I2C_HandleTypeDef *hi2c)
 401:Drivers/STM32F1xx_HAL_Driver/Src/stm32f1xx_hal_i2c.c **** {
 208              		.loc 1 401 0
 209              		.cfi_startproc
 210              		@ args = 0, pretend = 0, frame = 8
 211              		@ frame_needed = 1, uses_anonymous_args = 0
 212 0000 80B5     		push	{r7, lr}
 213              	.LCFI5:
 214              		.cfi_def_cfa_offset 8
 215              		.cfi_offset 7, -8
 216              		.cfi_offset 14, -4
 217 0002 82B0     		sub	sp, sp, #8
 218              	.LCFI6:
 219              		.cfi_def_cfa_offset 16
 220 0004 00AF     		add	r7, sp, #0
 221              	.LCFI7:
 222              		.cfi_def_cfa_register 7
 223 0006 7860     		str	r0, [r7, #4]
 402:Drivers/STM32F1xx_HAL_Driver/Src/stm32f1xx_hal_i2c.c ****   /* Check the I2C handle allocation */
 403:Drivers/STM32F1xx_HAL_Driver/Src/stm32f1xx_hal_i2c.c ****   if(hi2c == NULL)
 224              		.loc 1 403 0
 225 0008 7B68     		ldr	r3, [r7, #4]
 226 000a 002B     		cmp	r3, #0
 227 000c 01D1     		bne	.L10
ARM GAS  /var/folders/kh/x4vltyy52lbg7p4pcyglc5080000gp/T//cccbl2Nm.s 			page 12


 404:Drivers/STM32F1xx_HAL_Driver/Src/stm32f1xx_hal_i2c.c ****   {
 405:Drivers/STM32F1xx_HAL_Driver/Src/stm32f1xx_hal_i2c.c ****     return HAL_ERROR;
 228              		.loc 1 405 0
 229 000e 0123     		movs	r3, #1
 230 0010 1EE0     		b	.L11
 231              	.L10:
 406:Drivers/STM32F1xx_HAL_Driver/Src/stm32f1xx_hal_i2c.c ****   }
 407:Drivers/STM32F1xx_HAL_Driver/Src/stm32f1xx_hal_i2c.c **** 
 408:Drivers/STM32F1xx_HAL_Driver/Src/stm32f1xx_hal_i2c.c ****   /* Check the parameters */
 409:Drivers/STM32F1xx_HAL_Driver/Src/stm32f1xx_hal_i2c.c ****   assert_param(IS_I2C_ALL_INSTANCE(hi2c->Instance));
 410:Drivers/STM32F1xx_HAL_Driver/Src/stm32f1xx_hal_i2c.c **** 
 411:Drivers/STM32F1xx_HAL_Driver/Src/stm32f1xx_hal_i2c.c ****   hi2c->State = HAL_I2C_STATE_BUSY;
 232              		.loc 1 411 0
 233 0012 7B68     		ldr	r3, [r7, #4]
 234 0014 2422     		movs	r2, #36
 235 0016 83F83520 		strb	r2, [r3, #53]
 412:Drivers/STM32F1xx_HAL_Driver/Src/stm32f1xx_hal_i2c.c **** 
 413:Drivers/STM32F1xx_HAL_Driver/Src/stm32f1xx_hal_i2c.c ****   /* Disable the I2C Peripheral Clock */
 414:Drivers/STM32F1xx_HAL_Driver/Src/stm32f1xx_hal_i2c.c ****   __HAL_I2C_DISABLE(hi2c);
 236              		.loc 1 414 0
 237 001a 7B68     		ldr	r3, [r7, #4]
 238 001c 1B68     		ldr	r3, [r3]
 239 001e 7A68     		ldr	r2, [r7, #4]
 240 0020 1268     		ldr	r2, [r2]
 241 0022 1268     		ldr	r2, [r2]
 242 0024 22F00102 		bic	r2, r2, #1
 243 0028 1A60     		str	r2, [r3]
 415:Drivers/STM32F1xx_HAL_Driver/Src/stm32f1xx_hal_i2c.c **** 
 416:Drivers/STM32F1xx_HAL_Driver/Src/stm32f1xx_hal_i2c.c ****   /* DeInit the low level hardware: GPIO, CLOCK, NVIC */
 417:Drivers/STM32F1xx_HAL_Driver/Src/stm32f1xx_hal_i2c.c ****   HAL_I2C_MspDeInit(hi2c);
 244              		.loc 1 417 0
 245 002a 7868     		ldr	r0, [r7, #4]
 246 002c FFF7FEFF 		bl	HAL_I2C_MspDeInit
 418:Drivers/STM32F1xx_HAL_Driver/Src/stm32f1xx_hal_i2c.c **** 
 419:Drivers/STM32F1xx_HAL_Driver/Src/stm32f1xx_hal_i2c.c ****   hi2c->ErrorCode = HAL_I2C_ERROR_NONE;
 247              		.loc 1 419 0
 248 0030 7B68     		ldr	r3, [r7, #4]
 249 0032 0022     		movs	r2, #0
 250 0034 9A63     		str	r2, [r3, #56]
 420:Drivers/STM32F1xx_HAL_Driver/Src/stm32f1xx_hal_i2c.c ****   hi2c->State = HAL_I2C_STATE_RESET;
 251              		.loc 1 420 0
 252 0036 7B68     		ldr	r3, [r7, #4]
 253 0038 0022     		movs	r2, #0
 254 003a 83F83520 		strb	r2, [r3, #53]
 421:Drivers/STM32F1xx_HAL_Driver/Src/stm32f1xx_hal_i2c.c ****   hi2c->Mode = HAL_I2C_MODE_NONE;
 255              		.loc 1 421 0
 256 003e 7B68     		ldr	r3, [r7, #4]
 257 0040 0022     		movs	r2, #0
 258 0042 83F83620 		strb	r2, [r3, #54]
 422:Drivers/STM32F1xx_HAL_Driver/Src/stm32f1xx_hal_i2c.c **** 
 423:Drivers/STM32F1xx_HAL_Driver/Src/stm32f1xx_hal_i2c.c ****   /* Release Lock */
 424:Drivers/STM32F1xx_HAL_Driver/Src/stm32f1xx_hal_i2c.c ****   __HAL_UNLOCK(hi2c);
 259              		.loc 1 424 0
 260 0046 7B68     		ldr	r3, [r7, #4]
 261 0048 0022     		movs	r2, #0
 262 004a 83F83420 		strb	r2, [r3, #52]
 425:Drivers/STM32F1xx_HAL_Driver/Src/stm32f1xx_hal_i2c.c **** 
ARM GAS  /var/folders/kh/x4vltyy52lbg7p4pcyglc5080000gp/T//cccbl2Nm.s 			page 13


 426:Drivers/STM32F1xx_HAL_Driver/Src/stm32f1xx_hal_i2c.c ****   return HAL_OK;
 263              		.loc 1 426 0
 264 004e 0023     		movs	r3, #0
 265              	.L11:
 427:Drivers/STM32F1xx_HAL_Driver/Src/stm32f1xx_hal_i2c.c **** }
 266              		.loc 1 427 0
 267 0050 1846     		mov	r0, r3
 268 0052 0837     		adds	r7, r7, #8
 269              	.LCFI8:
 270              		.cfi_def_cfa_offset 8
 271 0054 BD46     		mov	sp, r7
 272              	.LCFI9:
 273              		.cfi_def_cfa_register 13
 274              		@ sp needed
 275 0056 80BD     		pop	{r7, pc}
 276              		.cfi_endproc
 277              	.LFE65:
 279              		.section	.text.HAL_I2C_MspInit,"ax",%progbits
 280              		.align	2
 281              		.weak	HAL_I2C_MspInit
 282              		.thumb
 283              		.thumb_func
 285              	HAL_I2C_MspInit:
 286              	.LFB66:
 428:Drivers/STM32F1xx_HAL_Driver/Src/stm32f1xx_hal_i2c.c **** 
 429:Drivers/STM32F1xx_HAL_Driver/Src/stm32f1xx_hal_i2c.c **** /**
 430:Drivers/STM32F1xx_HAL_Driver/Src/stm32f1xx_hal_i2c.c ****   * @brief Initialize the I2C MSP.
 431:Drivers/STM32F1xx_HAL_Driver/Src/stm32f1xx_hal_i2c.c ****   * @param  hi2c Pointer to a I2C_HandleTypeDef structure that contains
 432:Drivers/STM32F1xx_HAL_Driver/Src/stm32f1xx_hal_i2c.c ****   *                the configuration information for the specified I2C.
 433:Drivers/STM32F1xx_HAL_Driver/Src/stm32f1xx_hal_i2c.c ****   * @retval None
 434:Drivers/STM32F1xx_HAL_Driver/Src/stm32f1xx_hal_i2c.c ****   */
 435:Drivers/STM32F1xx_HAL_Driver/Src/stm32f1xx_hal_i2c.c ****  __weak void HAL_I2C_MspInit(I2C_HandleTypeDef *hi2c)
 436:Drivers/STM32F1xx_HAL_Driver/Src/stm32f1xx_hal_i2c.c **** {
 287              		.loc 1 436 0
 288              		.cfi_startproc
 289              		@ args = 0, pretend = 0, frame = 8
 290              		@ frame_needed = 1, uses_anonymous_args = 0
 291              		@ link register save eliminated.
 292 0000 80B4     		push	{r7}
 293              	.LCFI10:
 294              		.cfi_def_cfa_offset 4
 295              		.cfi_offset 7, -4
 296 0002 83B0     		sub	sp, sp, #12
 297              	.LCFI11:
 298              		.cfi_def_cfa_offset 16
 299 0004 00AF     		add	r7, sp, #0
 300              	.LCFI12:
 301              		.cfi_def_cfa_register 7
 302 0006 7860     		str	r0, [r7, #4]
 437:Drivers/STM32F1xx_HAL_Driver/Src/stm32f1xx_hal_i2c.c ****   /* Prevent unused argument(s) compilation warning */
 438:Drivers/STM32F1xx_HAL_Driver/Src/stm32f1xx_hal_i2c.c ****   UNUSED(hi2c);
 439:Drivers/STM32F1xx_HAL_Driver/Src/stm32f1xx_hal_i2c.c ****   /* NOTE : This function should not be modified, when the callback is needed,
 440:Drivers/STM32F1xx_HAL_Driver/Src/stm32f1xx_hal_i2c.c ****             the HAL_I2C_MspInit could be implemented in the user file
 441:Drivers/STM32F1xx_HAL_Driver/Src/stm32f1xx_hal_i2c.c ****    */
 442:Drivers/STM32F1xx_HAL_Driver/Src/stm32f1xx_hal_i2c.c **** }
 303              		.loc 1 442 0
 304 0008 00BF     		nop
ARM GAS  /var/folders/kh/x4vltyy52lbg7p4pcyglc5080000gp/T//cccbl2Nm.s 			page 14


 305 000a 0C37     		adds	r7, r7, #12
 306              	.LCFI13:
 307              		.cfi_def_cfa_offset 4
 308 000c BD46     		mov	sp, r7
 309              	.LCFI14:
 310              		.cfi_def_cfa_register 13
 311              		@ sp needed
 312 000e 80BC     		pop	{r7}
 313              	.LCFI15:
 314              		.cfi_restore 7
 315              		.cfi_def_cfa_offset 0
 316 0010 7047     		bx	lr
 317              		.cfi_endproc
 318              	.LFE66:
 320 0012 00BF     		.section	.text.HAL_I2C_MspDeInit,"ax",%progbits
 321              		.align	2
 322              		.weak	HAL_I2C_MspDeInit
 323              		.thumb
 324              		.thumb_func
 326              	HAL_I2C_MspDeInit:
 327              	.LFB67:
 443:Drivers/STM32F1xx_HAL_Driver/Src/stm32f1xx_hal_i2c.c **** 
 444:Drivers/STM32F1xx_HAL_Driver/Src/stm32f1xx_hal_i2c.c **** /**
 445:Drivers/STM32F1xx_HAL_Driver/Src/stm32f1xx_hal_i2c.c ****   * @brief DeInitialize the I2C MSP.
 446:Drivers/STM32F1xx_HAL_Driver/Src/stm32f1xx_hal_i2c.c ****   * @param  hi2c Pointer to a I2C_HandleTypeDef structure that contains
 447:Drivers/STM32F1xx_HAL_Driver/Src/stm32f1xx_hal_i2c.c ****   *                the configuration information for the specified I2C.
 448:Drivers/STM32F1xx_HAL_Driver/Src/stm32f1xx_hal_i2c.c ****   * @retval None
 449:Drivers/STM32F1xx_HAL_Driver/Src/stm32f1xx_hal_i2c.c ****   */
 450:Drivers/STM32F1xx_HAL_Driver/Src/stm32f1xx_hal_i2c.c ****  __weak void HAL_I2C_MspDeInit(I2C_HandleTypeDef *hi2c)
 451:Drivers/STM32F1xx_HAL_Driver/Src/stm32f1xx_hal_i2c.c **** {
 328              		.loc 1 451 0
 329              		.cfi_startproc
 330              		@ args = 0, pretend = 0, frame = 8
 331              		@ frame_needed = 1, uses_anonymous_args = 0
 332              		@ link register save eliminated.
 333 0000 80B4     		push	{r7}
 334              	.LCFI16:
 335              		.cfi_def_cfa_offset 4
 336              		.cfi_offset 7, -4
 337 0002 83B0     		sub	sp, sp, #12
 338              	.LCFI17:
 339              		.cfi_def_cfa_offset 16
 340 0004 00AF     		add	r7, sp, #0
 341              	.LCFI18:
 342              		.cfi_def_cfa_register 7
 343 0006 7860     		str	r0, [r7, #4]
 452:Drivers/STM32F1xx_HAL_Driver/Src/stm32f1xx_hal_i2c.c ****   /* Prevent unused argument(s) compilation warning */
 453:Drivers/STM32F1xx_HAL_Driver/Src/stm32f1xx_hal_i2c.c ****   UNUSED(hi2c);
 454:Drivers/STM32F1xx_HAL_Driver/Src/stm32f1xx_hal_i2c.c ****   /* NOTE : This function should not be modified, when the callback is needed,
 455:Drivers/STM32F1xx_HAL_Driver/Src/stm32f1xx_hal_i2c.c ****             the HAL_I2C_MspDeInit could be implemented in the user file
 456:Drivers/STM32F1xx_HAL_Driver/Src/stm32f1xx_hal_i2c.c ****    */
 457:Drivers/STM32F1xx_HAL_Driver/Src/stm32f1xx_hal_i2c.c **** }
 344              		.loc 1 457 0
 345 0008 00BF     		nop
 346 000a 0C37     		adds	r7, r7, #12
 347              	.LCFI19:
 348              		.cfi_def_cfa_offset 4
ARM GAS  /var/folders/kh/x4vltyy52lbg7p4pcyglc5080000gp/T//cccbl2Nm.s 			page 15


 349 000c BD46     		mov	sp, r7
 350              	.LCFI20:
 351              		.cfi_def_cfa_register 13
 352              		@ sp needed
 353 000e 80BC     		pop	{r7}
 354              	.LCFI21:
 355              		.cfi_restore 7
 356              		.cfi_def_cfa_offset 0
 357 0010 7047     		bx	lr
 358              		.cfi_endproc
 359              	.LFE67:
 361 0012 00BF     		.section	.text.HAL_I2C_Master_Transmit,"ax",%progbits
 362              		.align	2
 363              		.global	HAL_I2C_Master_Transmit
 364              		.thumb
 365              		.thumb_func
 367              	HAL_I2C_Master_Transmit:
 368              	.LFB68:
 458:Drivers/STM32F1xx_HAL_Driver/Src/stm32f1xx_hal_i2c.c **** 
 459:Drivers/STM32F1xx_HAL_Driver/Src/stm32f1xx_hal_i2c.c **** /**
 460:Drivers/STM32F1xx_HAL_Driver/Src/stm32f1xx_hal_i2c.c ****   * @}
 461:Drivers/STM32F1xx_HAL_Driver/Src/stm32f1xx_hal_i2c.c ****   */
 462:Drivers/STM32F1xx_HAL_Driver/Src/stm32f1xx_hal_i2c.c **** 
 463:Drivers/STM32F1xx_HAL_Driver/Src/stm32f1xx_hal_i2c.c **** /** @defgroup I2C_Exported_Functions_Group2 Input and Output operation functions
 464:Drivers/STM32F1xx_HAL_Driver/Src/stm32f1xx_hal_i2c.c ****  *  @brief   Data transfers functions
 465:Drivers/STM32F1xx_HAL_Driver/Src/stm32f1xx_hal_i2c.c ****  *
 466:Drivers/STM32F1xx_HAL_Driver/Src/stm32f1xx_hal_i2c.c **** @verbatim
 467:Drivers/STM32F1xx_HAL_Driver/Src/stm32f1xx_hal_i2c.c ****  ===============================================================================
 468:Drivers/STM32F1xx_HAL_Driver/Src/stm32f1xx_hal_i2c.c ****                       ##### IO operation functions #####
 469:Drivers/STM32F1xx_HAL_Driver/Src/stm32f1xx_hal_i2c.c ****  ===============================================================================
 470:Drivers/STM32F1xx_HAL_Driver/Src/stm32f1xx_hal_i2c.c ****     [..]
 471:Drivers/STM32F1xx_HAL_Driver/Src/stm32f1xx_hal_i2c.c ****     This subsection provides a set of functions allowing to manage the I2C data
 472:Drivers/STM32F1xx_HAL_Driver/Src/stm32f1xx_hal_i2c.c ****     transfers.
 473:Drivers/STM32F1xx_HAL_Driver/Src/stm32f1xx_hal_i2c.c **** 
 474:Drivers/STM32F1xx_HAL_Driver/Src/stm32f1xx_hal_i2c.c ****     (#) There are two modes of transfer:
 475:Drivers/STM32F1xx_HAL_Driver/Src/stm32f1xx_hal_i2c.c ****        (++) Blocking mode : The communication is performed in the polling mode.
 476:Drivers/STM32F1xx_HAL_Driver/Src/stm32f1xx_hal_i2c.c ****             The status of all data processing is returned by the same function
 477:Drivers/STM32F1xx_HAL_Driver/Src/stm32f1xx_hal_i2c.c ****             after finishing transfer.
 478:Drivers/STM32F1xx_HAL_Driver/Src/stm32f1xx_hal_i2c.c ****        (++) No-Blocking mode : The communication is performed using Interrupts 
 479:Drivers/STM32F1xx_HAL_Driver/Src/stm32f1xx_hal_i2c.c ****             or DMA. These functions return the status of the transfer startup.
 480:Drivers/STM32F1xx_HAL_Driver/Src/stm32f1xx_hal_i2c.c ****             The end of the data processing will be indicated through the
 481:Drivers/STM32F1xx_HAL_Driver/Src/stm32f1xx_hal_i2c.c ****             dedicated I2C IRQ when using Interrupt mode or the DMA IRQ when
 482:Drivers/STM32F1xx_HAL_Driver/Src/stm32f1xx_hal_i2c.c ****             using DMA mode.
 483:Drivers/STM32F1xx_HAL_Driver/Src/stm32f1xx_hal_i2c.c **** 
 484:Drivers/STM32F1xx_HAL_Driver/Src/stm32f1xx_hal_i2c.c ****     (#) Blocking mode functions are :
 485:Drivers/STM32F1xx_HAL_Driver/Src/stm32f1xx_hal_i2c.c ****         (++) HAL_I2C_Master_Transmit()
 486:Drivers/STM32F1xx_HAL_Driver/Src/stm32f1xx_hal_i2c.c ****         (++) HAL_I2C_Master_Receive()
 487:Drivers/STM32F1xx_HAL_Driver/Src/stm32f1xx_hal_i2c.c ****         (++) HAL_I2C_Slave_Transmit()
 488:Drivers/STM32F1xx_HAL_Driver/Src/stm32f1xx_hal_i2c.c ****         (++) HAL_I2C_Slave_Receive()
 489:Drivers/STM32F1xx_HAL_Driver/Src/stm32f1xx_hal_i2c.c ****         (++) HAL_I2C_Mem_Write()
 490:Drivers/STM32F1xx_HAL_Driver/Src/stm32f1xx_hal_i2c.c ****         (++) HAL_I2C_Mem_Read()
 491:Drivers/STM32F1xx_HAL_Driver/Src/stm32f1xx_hal_i2c.c ****         (++) HAL_I2C_IsDeviceReady()
 492:Drivers/STM32F1xx_HAL_Driver/Src/stm32f1xx_hal_i2c.c **** 
 493:Drivers/STM32F1xx_HAL_Driver/Src/stm32f1xx_hal_i2c.c ****     (#) No-Blocking mode functions with Interrupt are :
 494:Drivers/STM32F1xx_HAL_Driver/Src/stm32f1xx_hal_i2c.c ****         (++) HAL_I2C_Master_Transmit_IT()
 495:Drivers/STM32F1xx_HAL_Driver/Src/stm32f1xx_hal_i2c.c ****         (++) HAL_I2C_Master_Receive_IT()
 496:Drivers/STM32F1xx_HAL_Driver/Src/stm32f1xx_hal_i2c.c ****         (++) HAL_I2C_Slave_Transmit_IT()
ARM GAS  /var/folders/kh/x4vltyy52lbg7p4pcyglc5080000gp/T//cccbl2Nm.s 			page 16


 497:Drivers/STM32F1xx_HAL_Driver/Src/stm32f1xx_hal_i2c.c ****         (++) HAL_I2C_Slave_Receive_IT()
 498:Drivers/STM32F1xx_HAL_Driver/Src/stm32f1xx_hal_i2c.c ****         (++) HAL_I2C_Mem_Write_IT()
 499:Drivers/STM32F1xx_HAL_Driver/Src/stm32f1xx_hal_i2c.c ****         (++) HAL_I2C_Mem_Read_IT()
 500:Drivers/STM32F1xx_HAL_Driver/Src/stm32f1xx_hal_i2c.c **** 
 501:Drivers/STM32F1xx_HAL_Driver/Src/stm32f1xx_hal_i2c.c ****     (#) No-Blocking mode functions with DMA are :
 502:Drivers/STM32F1xx_HAL_Driver/Src/stm32f1xx_hal_i2c.c ****         (++) HAL_I2C_Master_Transmit_DMA()
 503:Drivers/STM32F1xx_HAL_Driver/Src/stm32f1xx_hal_i2c.c ****         (++) HAL_I2C_Master_Receive_DMA()
 504:Drivers/STM32F1xx_HAL_Driver/Src/stm32f1xx_hal_i2c.c ****         (++) HAL_I2C_Slave_Transmit_DMA()
 505:Drivers/STM32F1xx_HAL_Driver/Src/stm32f1xx_hal_i2c.c ****         (++) HAL_I2C_Slave_Receive_DMA()
 506:Drivers/STM32F1xx_HAL_Driver/Src/stm32f1xx_hal_i2c.c ****         (++) HAL_I2C_Mem_Write_DMA()
 507:Drivers/STM32F1xx_HAL_Driver/Src/stm32f1xx_hal_i2c.c ****         (++) HAL_I2C_Mem_Read_DMA()
 508:Drivers/STM32F1xx_HAL_Driver/Src/stm32f1xx_hal_i2c.c **** 
 509:Drivers/STM32F1xx_HAL_Driver/Src/stm32f1xx_hal_i2c.c ****     (#) A set of Transfer Complete Callbacks are provided in non Blocking mode:
 510:Drivers/STM32F1xx_HAL_Driver/Src/stm32f1xx_hal_i2c.c ****         (++) HAL_I2C_MemTxCpltCallback()
 511:Drivers/STM32F1xx_HAL_Driver/Src/stm32f1xx_hal_i2c.c ****         (++) HAL_I2C_MemRxCpltCallback()
 512:Drivers/STM32F1xx_HAL_Driver/Src/stm32f1xx_hal_i2c.c ****         (++) HAL_I2C_MasterTxCpltCallback()
 513:Drivers/STM32F1xx_HAL_Driver/Src/stm32f1xx_hal_i2c.c ****         (++) HAL_I2C_MasterRxCpltCallback()
 514:Drivers/STM32F1xx_HAL_Driver/Src/stm32f1xx_hal_i2c.c ****         (++) HAL_I2C_SlaveTxCpltCallback()
 515:Drivers/STM32F1xx_HAL_Driver/Src/stm32f1xx_hal_i2c.c ****         (++) HAL_I2C_SlaveRxCpltCallback()
 516:Drivers/STM32F1xx_HAL_Driver/Src/stm32f1xx_hal_i2c.c ****         (++) HAL_I2C_ErrorCallback()
 517:Drivers/STM32F1xx_HAL_Driver/Src/stm32f1xx_hal_i2c.c **** 
 518:Drivers/STM32F1xx_HAL_Driver/Src/stm32f1xx_hal_i2c.c **** @endverbatim
 519:Drivers/STM32F1xx_HAL_Driver/Src/stm32f1xx_hal_i2c.c ****   * @{
 520:Drivers/STM32F1xx_HAL_Driver/Src/stm32f1xx_hal_i2c.c ****   */
 521:Drivers/STM32F1xx_HAL_Driver/Src/stm32f1xx_hal_i2c.c **** 
 522:Drivers/STM32F1xx_HAL_Driver/Src/stm32f1xx_hal_i2c.c **** /**
 523:Drivers/STM32F1xx_HAL_Driver/Src/stm32f1xx_hal_i2c.c ****   * @brief  Transmits in master mode an amount of data in blocking mode.
 524:Drivers/STM32F1xx_HAL_Driver/Src/stm32f1xx_hal_i2c.c ****   * @param  hi2c Pointer to a I2C_HandleTypeDef structure that contains
 525:Drivers/STM32F1xx_HAL_Driver/Src/stm32f1xx_hal_i2c.c ****   *                the configuration information for the specified I2C.
 526:Drivers/STM32F1xx_HAL_Driver/Src/stm32f1xx_hal_i2c.c ****   * @param  DevAddress Target device address
 527:Drivers/STM32F1xx_HAL_Driver/Src/stm32f1xx_hal_i2c.c ****   * @param  pData Pointer to data buffer
 528:Drivers/STM32F1xx_HAL_Driver/Src/stm32f1xx_hal_i2c.c ****   * @param  Size Amount of data to be sent
 529:Drivers/STM32F1xx_HAL_Driver/Src/stm32f1xx_hal_i2c.c ****   * @param  Timeout Timeout duration
 530:Drivers/STM32F1xx_HAL_Driver/Src/stm32f1xx_hal_i2c.c ****   * @retval HAL status
 531:Drivers/STM32F1xx_HAL_Driver/Src/stm32f1xx_hal_i2c.c ****   */
 532:Drivers/STM32F1xx_HAL_Driver/Src/stm32f1xx_hal_i2c.c **** HAL_StatusTypeDef HAL_I2C_Master_Transmit(I2C_HandleTypeDef *hi2c, uint16_t DevAddress, uint8_t *pD
 533:Drivers/STM32F1xx_HAL_Driver/Src/stm32f1xx_hal_i2c.c **** {
 369              		.loc 1 533 0
 370              		.cfi_startproc
 371              		@ args = 4, pretend = 0, frame = 24
 372              		@ frame_needed = 1, uses_anonymous_args = 0
 373 0000 80B5     		push	{r7, lr}
 374              	.LCFI22:
 375              		.cfi_def_cfa_offset 8
 376              		.cfi_offset 7, -8
 377              		.cfi_offset 14, -4
 378 0002 86B0     		sub	sp, sp, #24
 379              	.LCFI23:
 380              		.cfi_def_cfa_offset 32
 381 0004 00AF     		add	r7, sp, #0
 382              	.LCFI24:
 383              		.cfi_def_cfa_register 7
 384 0006 F860     		str	r0, [r7, #12]
 385 0008 7A60     		str	r2, [r7, #4]
 386 000a 1A46     		mov	r2, r3
 387 000c 0B46     		mov	r3, r1	@ movhi
 388 000e 7B81     		strh	r3, [r7, #10]	@ movhi
ARM GAS  /var/folders/kh/x4vltyy52lbg7p4pcyglc5080000gp/T//cccbl2Nm.s 			page 17


 389 0010 1346     		mov	r3, r2	@ movhi
 390 0012 3B81     		strh	r3, [r7, #8]	@ movhi
 534:Drivers/STM32F1xx_HAL_Driver/Src/stm32f1xx_hal_i2c.c ****   if(hi2c->State == HAL_I2C_STATE_READY)
 391              		.loc 1 534 0
 392 0014 FB68     		ldr	r3, [r7, #12]
 393 0016 93F83530 		ldrb	r3, [r3, #53]
 394 001a DBB2     		uxtb	r3, r3
 395 001c 202B     		cmp	r3, #32
 396 001e 40F0B680 		bne	.L15
 535:Drivers/STM32F1xx_HAL_Driver/Src/stm32f1xx_hal_i2c.c ****   {
 536:Drivers/STM32F1xx_HAL_Driver/Src/stm32f1xx_hal_i2c.c ****     if((pData == NULL) || (Size == 0))
 397              		.loc 1 536 0
 398 0022 7B68     		ldr	r3, [r7, #4]
 399 0024 002B     		cmp	r3, #0
 400 0026 02D0     		beq	.L16
 401              		.loc 1 536 0 is_stmt 0 discriminator 1
 402 0028 3B89     		ldrh	r3, [r7, #8]
 403 002a 002B     		cmp	r3, #0
 404 002c 01D1     		bne	.L17
 405              	.L16:
 537:Drivers/STM32F1xx_HAL_Driver/Src/stm32f1xx_hal_i2c.c ****     {
 538:Drivers/STM32F1xx_HAL_Driver/Src/stm32f1xx_hal_i2c.c ****       return  HAL_ERROR;
 406              		.loc 1 538 0 is_stmt 1
 407 002e 0123     		movs	r3, #1
 408 0030 AEE0     		b	.L18
 409              	.L17:
 539:Drivers/STM32F1xx_HAL_Driver/Src/stm32f1xx_hal_i2c.c ****     }
 540:Drivers/STM32F1xx_HAL_Driver/Src/stm32f1xx_hal_i2c.c **** 
 541:Drivers/STM32F1xx_HAL_Driver/Src/stm32f1xx_hal_i2c.c ****     /* Wait until BUSY flag is reset */
 542:Drivers/STM32F1xx_HAL_Driver/Src/stm32f1xx_hal_i2c.c ****     if(I2C_WaitOnFlagUntilTimeout(hi2c, I2C_FLAG_BUSY, SET, I2C_TIMEOUT_BUSY_FLAG) != HAL_OK)
 410              		.loc 1 542 0
 411 0032 42F21073 		movw	r3, #10000
 412 0036 0122     		movs	r2, #1
 413 0038 5749     		ldr	r1, .L29
 414 003a F868     		ldr	r0, [r7, #12]
 415 003c FFF7FEFF 		bl	I2C_WaitOnFlagUntilTimeout
 416 0040 0346     		mov	r3, r0
 417 0042 002B     		cmp	r3, #0
 418 0044 01D0     		beq	.L19
 543:Drivers/STM32F1xx_HAL_Driver/Src/stm32f1xx_hal_i2c.c ****     {
 544:Drivers/STM32F1xx_HAL_Driver/Src/stm32f1xx_hal_i2c.c ****       return HAL_BUSY;
 419              		.loc 1 544 0
 420 0046 0223     		movs	r3, #2
 421 0048 A2E0     		b	.L18
 422              	.L19:
 545:Drivers/STM32F1xx_HAL_Driver/Src/stm32f1xx_hal_i2c.c ****     }
 546:Drivers/STM32F1xx_HAL_Driver/Src/stm32f1xx_hal_i2c.c **** 
 547:Drivers/STM32F1xx_HAL_Driver/Src/stm32f1xx_hal_i2c.c ****     /* Process Locked */
 548:Drivers/STM32F1xx_HAL_Driver/Src/stm32f1xx_hal_i2c.c ****     __HAL_LOCK(hi2c);
 423              		.loc 1 548 0
 424 004a FB68     		ldr	r3, [r7, #12]
 425 004c 93F83430 		ldrb	r3, [r3, #52]	@ zero_extendqisi2
 426 0050 012B     		cmp	r3, #1
 427 0052 01D1     		bne	.L20
 428              		.loc 1 548 0 is_stmt 0 discriminator 1
 429 0054 0223     		movs	r3, #2
 430 0056 9BE0     		b	.L18
ARM GAS  /var/folders/kh/x4vltyy52lbg7p4pcyglc5080000gp/T//cccbl2Nm.s 			page 18


 431              	.L20:
 432              		.loc 1 548 0 discriminator 2
 433 0058 FB68     		ldr	r3, [r7, #12]
 434 005a 0122     		movs	r2, #1
 435 005c 83F83420 		strb	r2, [r3, #52]
 549:Drivers/STM32F1xx_HAL_Driver/Src/stm32f1xx_hal_i2c.c **** 
 550:Drivers/STM32F1xx_HAL_Driver/Src/stm32f1xx_hal_i2c.c ****     /* Disable Pos */
 551:Drivers/STM32F1xx_HAL_Driver/Src/stm32f1xx_hal_i2c.c ****     CLEAR_BIT(hi2c->Instance->CR1, I2C_CR1_POS);
 436              		.loc 1 551 0 is_stmt 1 discriminator 2
 437 0060 FB68     		ldr	r3, [r7, #12]
 438 0062 1B68     		ldr	r3, [r3]
 439 0064 FA68     		ldr	r2, [r7, #12]
 440 0066 1268     		ldr	r2, [r2]
 441 0068 1268     		ldr	r2, [r2]
 442 006a 22F40062 		bic	r2, r2, #2048
 443 006e 1A60     		str	r2, [r3]
 552:Drivers/STM32F1xx_HAL_Driver/Src/stm32f1xx_hal_i2c.c **** 
 553:Drivers/STM32F1xx_HAL_Driver/Src/stm32f1xx_hal_i2c.c ****     hi2c->State = HAL_I2C_STATE_BUSY_TX;
 444              		.loc 1 553 0 discriminator 2
 445 0070 FB68     		ldr	r3, [r7, #12]
 446 0072 2122     		movs	r2, #33
 447 0074 83F83520 		strb	r2, [r3, #53]
 554:Drivers/STM32F1xx_HAL_Driver/Src/stm32f1xx_hal_i2c.c ****     hi2c->Mode = HAL_I2C_MODE_MASTER;
 448              		.loc 1 554 0 discriminator 2
 449 0078 FB68     		ldr	r3, [r7, #12]
 450 007a 1022     		movs	r2, #16
 451 007c 83F83620 		strb	r2, [r3, #54]
 555:Drivers/STM32F1xx_HAL_Driver/Src/stm32f1xx_hal_i2c.c ****     hi2c->ErrorCode = HAL_I2C_ERROR_NONE;
 452              		.loc 1 555 0 discriminator 2
 453 0080 FB68     		ldr	r3, [r7, #12]
 454 0082 0022     		movs	r2, #0
 455 0084 9A63     		str	r2, [r3, #56]
 556:Drivers/STM32F1xx_HAL_Driver/Src/stm32f1xx_hal_i2c.c **** 
 557:Drivers/STM32F1xx_HAL_Driver/Src/stm32f1xx_hal_i2c.c ****     /* Send Slave Address */
 558:Drivers/STM32F1xx_HAL_Driver/Src/stm32f1xx_hal_i2c.c ****     if(I2C_MasterRequestWrite(hi2c, DevAddress, Timeout) != HAL_OK)
 456              		.loc 1 558 0 discriminator 2
 457 0086 7B89     		ldrh	r3, [r7, #10]
 458 0088 3A6A     		ldr	r2, [r7, #32]
 459 008a 1946     		mov	r1, r3
 460 008c F868     		ldr	r0, [r7, #12]
 461 008e FFF7FEFF 		bl	I2C_MasterRequestWrite
 462 0092 0346     		mov	r3, r0
 463 0094 002B     		cmp	r3, #0
 464 0096 0FD0     		beq	.L21
 559:Drivers/STM32F1xx_HAL_Driver/Src/stm32f1xx_hal_i2c.c ****     {
 560:Drivers/STM32F1xx_HAL_Driver/Src/stm32f1xx_hal_i2c.c ****       if(hi2c->ErrorCode == HAL_I2C_ERROR_AF)
 465              		.loc 1 560 0
 466 0098 FB68     		ldr	r3, [r7, #12]
 467 009a 9B6B     		ldr	r3, [r3, #56]
 468 009c 042B     		cmp	r3, #4
 469 009e 05D1     		bne	.L22
 561:Drivers/STM32F1xx_HAL_Driver/Src/stm32f1xx_hal_i2c.c ****       {
 562:Drivers/STM32F1xx_HAL_Driver/Src/stm32f1xx_hal_i2c.c ****         /* Process Unlocked */
 563:Drivers/STM32F1xx_HAL_Driver/Src/stm32f1xx_hal_i2c.c ****         __HAL_UNLOCK(hi2c);
 470              		.loc 1 563 0
 471 00a0 FB68     		ldr	r3, [r7, #12]
 472 00a2 0022     		movs	r2, #0
ARM GAS  /var/folders/kh/x4vltyy52lbg7p4pcyglc5080000gp/T//cccbl2Nm.s 			page 19


 473 00a4 83F83420 		strb	r2, [r3, #52]
 564:Drivers/STM32F1xx_HAL_Driver/Src/stm32f1xx_hal_i2c.c ****         return HAL_ERROR;
 474              		.loc 1 564 0
 475 00a8 0123     		movs	r3, #1
 476 00aa 71E0     		b	.L18
 477              	.L22:
 565:Drivers/STM32F1xx_HAL_Driver/Src/stm32f1xx_hal_i2c.c ****       }
 566:Drivers/STM32F1xx_HAL_Driver/Src/stm32f1xx_hal_i2c.c ****       else
 567:Drivers/STM32F1xx_HAL_Driver/Src/stm32f1xx_hal_i2c.c ****       {
 568:Drivers/STM32F1xx_HAL_Driver/Src/stm32f1xx_hal_i2c.c ****         /* Process Unlocked */
 569:Drivers/STM32F1xx_HAL_Driver/Src/stm32f1xx_hal_i2c.c ****         __HAL_UNLOCK(hi2c);
 478              		.loc 1 569 0
 479 00ac FB68     		ldr	r3, [r7, #12]
 480 00ae 0022     		movs	r2, #0
 481 00b0 83F83420 		strb	r2, [r3, #52]
 570:Drivers/STM32F1xx_HAL_Driver/Src/stm32f1xx_hal_i2c.c ****         return HAL_TIMEOUT;
 482              		.loc 1 570 0
 483 00b4 0323     		movs	r3, #3
 484 00b6 6BE0     		b	.L18
 485              	.L21:
 486              	.LBB40:
 571:Drivers/STM32F1xx_HAL_Driver/Src/stm32f1xx_hal_i2c.c ****       }
 572:Drivers/STM32F1xx_HAL_Driver/Src/stm32f1xx_hal_i2c.c ****     }
 573:Drivers/STM32F1xx_HAL_Driver/Src/stm32f1xx_hal_i2c.c **** 
 574:Drivers/STM32F1xx_HAL_Driver/Src/stm32f1xx_hal_i2c.c ****     /* Clear ADDR flag */
 575:Drivers/STM32F1xx_HAL_Driver/Src/stm32f1xx_hal_i2c.c ****     __HAL_I2C_CLEAR_ADDRFLAG(hi2c);
 487              		.loc 1 575 0
 488 00b8 FB68     		ldr	r3, [r7, #12]
 489 00ba 1B68     		ldr	r3, [r3]
 490 00bc 5B69     		ldr	r3, [r3, #20]
 491 00be 7B61     		str	r3, [r7, #20]
 492 00c0 FB68     		ldr	r3, [r7, #12]
 493 00c2 1B68     		ldr	r3, [r3]
 494 00c4 9B69     		ldr	r3, [r3, #24]
 495 00c6 7B61     		str	r3, [r7, #20]
 496 00c8 7B69     		ldr	r3, [r7, #20]
 497              	.LBE40:
 576:Drivers/STM32F1xx_HAL_Driver/Src/stm32f1xx_hal_i2c.c **** 
 577:Drivers/STM32F1xx_HAL_Driver/Src/stm32f1xx_hal_i2c.c ****     while(Size > 0)
 498              		.loc 1 577 0
 499 00ca 34E0     		b	.L23
 500              	.L26:
 578:Drivers/STM32F1xx_HAL_Driver/Src/stm32f1xx_hal_i2c.c ****     {
 579:Drivers/STM32F1xx_HAL_Driver/Src/stm32f1xx_hal_i2c.c ****       /* Wait until TXE flag is set */
 580:Drivers/STM32F1xx_HAL_Driver/Src/stm32f1xx_hal_i2c.c ****       if(I2C_WaitOnTXEFlagUntilTimeout(hi2c, Timeout) != HAL_OK)
 501              		.loc 1 580 0
 502 00cc 396A     		ldr	r1, [r7, #32]
 503 00ce F868     		ldr	r0, [r7, #12]
 504 00d0 FFF7FEFF 		bl	I2C_WaitOnTXEFlagUntilTimeout
 505 00d4 0346     		mov	r3, r0
 506 00d6 002B     		cmp	r3, #0
 507 00d8 0FD0     		beq	.L24
 581:Drivers/STM32F1xx_HAL_Driver/Src/stm32f1xx_hal_i2c.c ****       {
 582:Drivers/STM32F1xx_HAL_Driver/Src/stm32f1xx_hal_i2c.c ****         if(hi2c->ErrorCode == HAL_I2C_ERROR_AF)
 508              		.loc 1 582 0
 509 00da FB68     		ldr	r3, [r7, #12]
 510 00dc 9B6B     		ldr	r3, [r3, #56]
ARM GAS  /var/folders/kh/x4vltyy52lbg7p4pcyglc5080000gp/T//cccbl2Nm.s 			page 20


 511 00de 042B     		cmp	r3, #4
 512 00e0 09D1     		bne	.L25
 583:Drivers/STM32F1xx_HAL_Driver/Src/stm32f1xx_hal_i2c.c ****         {
 584:Drivers/STM32F1xx_HAL_Driver/Src/stm32f1xx_hal_i2c.c ****           /* Generate Stop */
 585:Drivers/STM32F1xx_HAL_Driver/Src/stm32f1xx_hal_i2c.c ****           SET_BIT(hi2c->Instance->CR1,I2C_CR1_STOP);
 513              		.loc 1 585 0
 514 00e2 FB68     		ldr	r3, [r7, #12]
 515 00e4 1B68     		ldr	r3, [r3]
 516 00e6 FA68     		ldr	r2, [r7, #12]
 517 00e8 1268     		ldr	r2, [r2]
 518 00ea 1268     		ldr	r2, [r2]
 519 00ec 42F40072 		orr	r2, r2, #512
 520 00f0 1A60     		str	r2, [r3]
 586:Drivers/STM32F1xx_HAL_Driver/Src/stm32f1xx_hal_i2c.c ****           return HAL_ERROR;
 521              		.loc 1 586 0
 522 00f2 0123     		movs	r3, #1
 523 00f4 4CE0     		b	.L18
 524              	.L25:
 587:Drivers/STM32F1xx_HAL_Driver/Src/stm32f1xx_hal_i2c.c ****         }
 588:Drivers/STM32F1xx_HAL_Driver/Src/stm32f1xx_hal_i2c.c ****         else
 589:Drivers/STM32F1xx_HAL_Driver/Src/stm32f1xx_hal_i2c.c ****         {
 590:Drivers/STM32F1xx_HAL_Driver/Src/stm32f1xx_hal_i2c.c ****           return HAL_TIMEOUT;
 525              		.loc 1 590 0
 526 00f6 0323     		movs	r3, #3
 527 00f8 4AE0     		b	.L18
 528              	.L24:
 591:Drivers/STM32F1xx_HAL_Driver/Src/stm32f1xx_hal_i2c.c ****         }
 592:Drivers/STM32F1xx_HAL_Driver/Src/stm32f1xx_hal_i2c.c ****       }
 593:Drivers/STM32F1xx_HAL_Driver/Src/stm32f1xx_hal_i2c.c **** 
 594:Drivers/STM32F1xx_HAL_Driver/Src/stm32f1xx_hal_i2c.c ****       /* Write data to DR */
 595:Drivers/STM32F1xx_HAL_Driver/Src/stm32f1xx_hal_i2c.c ****       hi2c->Instance->DR = (*pData++);
 529              		.loc 1 595 0
 530 00fa FB68     		ldr	r3, [r7, #12]
 531 00fc 1A68     		ldr	r2, [r3]
 532 00fe 7B68     		ldr	r3, [r7, #4]
 533 0100 591C     		adds	r1, r3, #1
 534 0102 7960     		str	r1, [r7, #4]
 535 0104 1B78     		ldrb	r3, [r3]	@ zero_extendqisi2
 536 0106 1361     		str	r3, [r2, #16]
 596:Drivers/STM32F1xx_HAL_Driver/Src/stm32f1xx_hal_i2c.c ****       Size--;
 537              		.loc 1 596 0
 538 0108 3B89     		ldrh	r3, [r7, #8]
 539 010a 013B     		subs	r3, r3, #1
 540 010c 3B81     		strh	r3, [r7, #8]	@ movhi
 597:Drivers/STM32F1xx_HAL_Driver/Src/stm32f1xx_hal_i2c.c **** 
 598:Drivers/STM32F1xx_HAL_Driver/Src/stm32f1xx_hal_i2c.c ****       if((__HAL_I2C_GET_FLAG(hi2c, I2C_FLAG_BTF) == SET) && (Size != 0))
 541              		.loc 1 598 0
 542 010e FB68     		ldr	r3, [r7, #12]
 543 0110 1B68     		ldr	r3, [r3]
 544 0112 5B69     		ldr	r3, [r3, #20]
 545 0114 03F00403 		and	r3, r3, #4
 546 0118 002B     		cmp	r3, #0
 547 011a 0CD0     		beq	.L23
 548              		.loc 1 598 0 is_stmt 0 discriminator 1
 549 011c 3B89     		ldrh	r3, [r7, #8]
 550 011e 002B     		cmp	r3, #0
 551 0120 09D0     		beq	.L23
ARM GAS  /var/folders/kh/x4vltyy52lbg7p4pcyglc5080000gp/T//cccbl2Nm.s 			page 21


 599:Drivers/STM32F1xx_HAL_Driver/Src/stm32f1xx_hal_i2c.c ****       {
 600:Drivers/STM32F1xx_HAL_Driver/Src/stm32f1xx_hal_i2c.c ****         /* Write data to DR */
 601:Drivers/STM32F1xx_HAL_Driver/Src/stm32f1xx_hal_i2c.c ****         hi2c->Instance->DR = (*pData++);
 552              		.loc 1 601 0 is_stmt 1
 553 0122 FB68     		ldr	r3, [r7, #12]
 554 0124 1A68     		ldr	r2, [r3]
 555 0126 7B68     		ldr	r3, [r7, #4]
 556 0128 591C     		adds	r1, r3, #1
 557 012a 7960     		str	r1, [r7, #4]
 558 012c 1B78     		ldrb	r3, [r3]	@ zero_extendqisi2
 559 012e 1361     		str	r3, [r2, #16]
 602:Drivers/STM32F1xx_HAL_Driver/Src/stm32f1xx_hal_i2c.c ****         Size--;
 560              		.loc 1 602 0
 561 0130 3B89     		ldrh	r3, [r7, #8]
 562 0132 013B     		subs	r3, r3, #1
 563 0134 3B81     		strh	r3, [r7, #8]	@ movhi
 564              	.L23:
 577:Drivers/STM32F1xx_HAL_Driver/Src/stm32f1xx_hal_i2c.c ****     {
 565              		.loc 1 577 0
 566 0136 3B89     		ldrh	r3, [r7, #8]
 567 0138 002B     		cmp	r3, #0
 568 013a C7D1     		bne	.L26
 603:Drivers/STM32F1xx_HAL_Driver/Src/stm32f1xx_hal_i2c.c ****       }
 604:Drivers/STM32F1xx_HAL_Driver/Src/stm32f1xx_hal_i2c.c ****     }
 605:Drivers/STM32F1xx_HAL_Driver/Src/stm32f1xx_hal_i2c.c **** 
 606:Drivers/STM32F1xx_HAL_Driver/Src/stm32f1xx_hal_i2c.c ****     /* Wait until BTF flag is set */
 607:Drivers/STM32F1xx_HAL_Driver/Src/stm32f1xx_hal_i2c.c ****     if(I2C_WaitOnBTFFlagUntilTimeout(hi2c, Timeout) != HAL_OK)
 569              		.loc 1 607 0
 570 013c 396A     		ldr	r1, [r7, #32]
 571 013e F868     		ldr	r0, [r7, #12]
 572 0140 FFF7FEFF 		bl	I2C_WaitOnBTFFlagUntilTimeout
 573 0144 0346     		mov	r3, r0
 574 0146 002B     		cmp	r3, #0
 575 0148 0FD0     		beq	.L27
 608:Drivers/STM32F1xx_HAL_Driver/Src/stm32f1xx_hal_i2c.c ****     {
 609:Drivers/STM32F1xx_HAL_Driver/Src/stm32f1xx_hal_i2c.c ****       if(hi2c->ErrorCode == HAL_I2C_ERROR_AF)
 576              		.loc 1 609 0
 577 014a FB68     		ldr	r3, [r7, #12]
 578 014c 9B6B     		ldr	r3, [r3, #56]
 579 014e 042B     		cmp	r3, #4
 580 0150 09D1     		bne	.L28
 610:Drivers/STM32F1xx_HAL_Driver/Src/stm32f1xx_hal_i2c.c ****       {
 611:Drivers/STM32F1xx_HAL_Driver/Src/stm32f1xx_hal_i2c.c ****         /* Generate Stop */
 612:Drivers/STM32F1xx_HAL_Driver/Src/stm32f1xx_hal_i2c.c ****         SET_BIT(hi2c->Instance->CR1,I2C_CR1_STOP);
 581              		.loc 1 612 0
 582 0152 FB68     		ldr	r3, [r7, #12]
 583 0154 1B68     		ldr	r3, [r3]
 584 0156 FA68     		ldr	r2, [r7, #12]
 585 0158 1268     		ldr	r2, [r2]
 586 015a 1268     		ldr	r2, [r2]
 587 015c 42F40072 		orr	r2, r2, #512
 588 0160 1A60     		str	r2, [r3]
 613:Drivers/STM32F1xx_HAL_Driver/Src/stm32f1xx_hal_i2c.c ****         return HAL_ERROR;
 589              		.loc 1 613 0
 590 0162 0123     		movs	r3, #1
 591 0164 14E0     		b	.L18
 592              	.L28:
ARM GAS  /var/folders/kh/x4vltyy52lbg7p4pcyglc5080000gp/T//cccbl2Nm.s 			page 22


 614:Drivers/STM32F1xx_HAL_Driver/Src/stm32f1xx_hal_i2c.c ****       }
 615:Drivers/STM32F1xx_HAL_Driver/Src/stm32f1xx_hal_i2c.c ****       else
 616:Drivers/STM32F1xx_HAL_Driver/Src/stm32f1xx_hal_i2c.c ****       {
 617:Drivers/STM32F1xx_HAL_Driver/Src/stm32f1xx_hal_i2c.c ****         return HAL_TIMEOUT;
 593              		.loc 1 617 0
 594 0166 0323     		movs	r3, #3
 595 0168 12E0     		b	.L18
 596              	.L27:
 618:Drivers/STM32F1xx_HAL_Driver/Src/stm32f1xx_hal_i2c.c ****       }
 619:Drivers/STM32F1xx_HAL_Driver/Src/stm32f1xx_hal_i2c.c ****     }
 620:Drivers/STM32F1xx_HAL_Driver/Src/stm32f1xx_hal_i2c.c **** 
 621:Drivers/STM32F1xx_HAL_Driver/Src/stm32f1xx_hal_i2c.c ****     /* Generate Stop */
 622:Drivers/STM32F1xx_HAL_Driver/Src/stm32f1xx_hal_i2c.c ****     SET_BIT(hi2c->Instance->CR1, I2C_CR1_STOP);
 597              		.loc 1 622 0
 598 016a FB68     		ldr	r3, [r7, #12]
 599 016c 1B68     		ldr	r3, [r3]
 600 016e FA68     		ldr	r2, [r7, #12]
 601 0170 1268     		ldr	r2, [r2]
 602 0172 1268     		ldr	r2, [r2]
 603 0174 42F40072 		orr	r2, r2, #512
 604 0178 1A60     		str	r2, [r3]
 623:Drivers/STM32F1xx_HAL_Driver/Src/stm32f1xx_hal_i2c.c **** 
 624:Drivers/STM32F1xx_HAL_Driver/Src/stm32f1xx_hal_i2c.c ****     hi2c->State = HAL_I2C_STATE_READY;
 605              		.loc 1 624 0
 606 017a FB68     		ldr	r3, [r7, #12]
 607 017c 2022     		movs	r2, #32
 608 017e 83F83520 		strb	r2, [r3, #53]
 625:Drivers/STM32F1xx_HAL_Driver/Src/stm32f1xx_hal_i2c.c **** 
 626:Drivers/STM32F1xx_HAL_Driver/Src/stm32f1xx_hal_i2c.c ****     /* Process Unlocked */
 627:Drivers/STM32F1xx_HAL_Driver/Src/stm32f1xx_hal_i2c.c ****     __HAL_UNLOCK(hi2c);
 609              		.loc 1 627 0
 610 0182 FB68     		ldr	r3, [r7, #12]
 611 0184 0022     		movs	r2, #0
 612 0186 83F83420 		strb	r2, [r3, #52]
 628:Drivers/STM32F1xx_HAL_Driver/Src/stm32f1xx_hal_i2c.c **** 
 629:Drivers/STM32F1xx_HAL_Driver/Src/stm32f1xx_hal_i2c.c ****     return HAL_OK;
 613              		.loc 1 629 0
 614 018a 0023     		movs	r3, #0
 615 018c 00E0     		b	.L18
 616              	.L15:
 630:Drivers/STM32F1xx_HAL_Driver/Src/stm32f1xx_hal_i2c.c ****   }
 631:Drivers/STM32F1xx_HAL_Driver/Src/stm32f1xx_hal_i2c.c ****   else
 632:Drivers/STM32F1xx_HAL_Driver/Src/stm32f1xx_hal_i2c.c ****   {
 633:Drivers/STM32F1xx_HAL_Driver/Src/stm32f1xx_hal_i2c.c ****     return HAL_BUSY;
 617              		.loc 1 633 0
 618 018e 0223     		movs	r3, #2
 619              	.L18:
 634:Drivers/STM32F1xx_HAL_Driver/Src/stm32f1xx_hal_i2c.c ****   }
 635:Drivers/STM32F1xx_HAL_Driver/Src/stm32f1xx_hal_i2c.c **** }
 620              		.loc 1 635 0
 621 0190 1846     		mov	r0, r3
 622 0192 1837     		adds	r7, r7, #24
 623              	.LCFI25:
 624              		.cfi_def_cfa_offset 8
 625 0194 BD46     		mov	sp, r7
 626              	.LCFI26:
 627              		.cfi_def_cfa_register 13
ARM GAS  /var/folders/kh/x4vltyy52lbg7p4pcyglc5080000gp/T//cccbl2Nm.s 			page 23


 628              		@ sp needed
 629 0196 80BD     		pop	{r7, pc}
 630              	.L30:
 631              		.align	2
 632              	.L29:
 633 0198 02001000 		.word	1048578
 634              		.cfi_endproc
 635              	.LFE68:
 637              		.section	.text.HAL_I2C_Master_Receive,"ax",%progbits
 638              		.align	2
 639              		.global	HAL_I2C_Master_Receive
 640              		.thumb
 641              		.thumb_func
 643              	HAL_I2C_Master_Receive:
 644              	.LFB69:
 636:Drivers/STM32F1xx_HAL_Driver/Src/stm32f1xx_hal_i2c.c **** 
 637:Drivers/STM32F1xx_HAL_Driver/Src/stm32f1xx_hal_i2c.c **** /**
 638:Drivers/STM32F1xx_HAL_Driver/Src/stm32f1xx_hal_i2c.c ****   * @brief  Receives in master mode an amount of data in blocking mode. 
 639:Drivers/STM32F1xx_HAL_Driver/Src/stm32f1xx_hal_i2c.c ****   * @param  hi2c Pointer to a I2C_HandleTypeDef structure that contains
 640:Drivers/STM32F1xx_HAL_Driver/Src/stm32f1xx_hal_i2c.c ****   *                the configuration information for the specified I2C.
 641:Drivers/STM32F1xx_HAL_Driver/Src/stm32f1xx_hal_i2c.c ****   * @param  DevAddress Target device address
 642:Drivers/STM32F1xx_HAL_Driver/Src/stm32f1xx_hal_i2c.c ****   * @param  pData Pointer to data buffer
 643:Drivers/STM32F1xx_HAL_Driver/Src/stm32f1xx_hal_i2c.c ****   * @param  Size Amount of data to be sent
 644:Drivers/STM32F1xx_HAL_Driver/Src/stm32f1xx_hal_i2c.c ****   * @param  Timeout Timeout duration
 645:Drivers/STM32F1xx_HAL_Driver/Src/stm32f1xx_hal_i2c.c ****   * @retval HAL status
 646:Drivers/STM32F1xx_HAL_Driver/Src/stm32f1xx_hal_i2c.c ****   */
 647:Drivers/STM32F1xx_HAL_Driver/Src/stm32f1xx_hal_i2c.c **** HAL_StatusTypeDef HAL_I2C_Master_Receive(I2C_HandleTypeDef *hi2c, uint16_t DevAddress, uint8_t *pDa
 648:Drivers/STM32F1xx_HAL_Driver/Src/stm32f1xx_hal_i2c.c **** {
 645              		.loc 1 648 0
 646              		.cfi_startproc
 647              		@ args = 4, pretend = 0, frame = 32
 648              		@ frame_needed = 1, uses_anonymous_args = 0
 649 0000 80B5     		push	{r7, lr}
 650              	.LCFI27:
 651              		.cfi_def_cfa_offset 8
 652              		.cfi_offset 7, -8
 653              		.cfi_offset 14, -4
 654 0002 88B0     		sub	sp, sp, #32
 655              	.LCFI28:
 656              		.cfi_def_cfa_offset 40
 657 0004 00AF     		add	r7, sp, #0
 658              	.LCFI29:
 659              		.cfi_def_cfa_register 7
 660 0006 F860     		str	r0, [r7, #12]
 661 0008 7A60     		str	r2, [r7, #4]
 662 000a 1A46     		mov	r2, r3
 663 000c 0B46     		mov	r3, r1	@ movhi
 664 000e 7B81     		strh	r3, [r7, #10]	@ movhi
 665 0010 1346     		mov	r3, r2	@ movhi
 666 0012 3B81     		strh	r3, [r7, #8]	@ movhi
 649:Drivers/STM32F1xx_HAL_Driver/Src/stm32f1xx_hal_i2c.c ****   if(hi2c->State == HAL_I2C_STATE_READY)
 667              		.loc 1 649 0
 668 0014 FB68     		ldr	r3, [r7, #12]
 669 0016 93F83530 		ldrb	r3, [r3, #53]
 670 001a DBB2     		uxtb	r3, r3
 671 001c 202B     		cmp	r3, #32
 672 001e 40F07981 		bne	.L32
ARM GAS  /var/folders/kh/x4vltyy52lbg7p4pcyglc5080000gp/T//cccbl2Nm.s 			page 24


 650:Drivers/STM32F1xx_HAL_Driver/Src/stm32f1xx_hal_i2c.c ****   {
 651:Drivers/STM32F1xx_HAL_Driver/Src/stm32f1xx_hal_i2c.c ****     if((pData == NULL) || (Size == 0))
 673              		.loc 1 651 0
 674 0022 7B68     		ldr	r3, [r7, #4]
 675 0024 002B     		cmp	r3, #0
 676 0026 02D0     		beq	.L33
 677              		.loc 1 651 0 is_stmt 0 discriminator 1
 678 0028 3B89     		ldrh	r3, [r7, #8]
 679 002a 002B     		cmp	r3, #0
 680 002c 01D1     		bne	.L34
 681              	.L33:
 652:Drivers/STM32F1xx_HAL_Driver/Src/stm32f1xx_hal_i2c.c ****     {
 653:Drivers/STM32F1xx_HAL_Driver/Src/stm32f1xx_hal_i2c.c ****       return  HAL_ERROR;
 682              		.loc 1 653 0 is_stmt 1
 683 002e 0123     		movs	r3, #1
 684 0030 71E1     		b	.L35
 685              	.L34:
 654:Drivers/STM32F1xx_HAL_Driver/Src/stm32f1xx_hal_i2c.c ****     }
 655:Drivers/STM32F1xx_HAL_Driver/Src/stm32f1xx_hal_i2c.c **** 
 656:Drivers/STM32F1xx_HAL_Driver/Src/stm32f1xx_hal_i2c.c ****     /* Wait until BUSY flag is reset */
 657:Drivers/STM32F1xx_HAL_Driver/Src/stm32f1xx_hal_i2c.c ****     if(I2C_WaitOnFlagUntilTimeout(hi2c, I2C_FLAG_BUSY, SET, I2C_TIMEOUT_BUSY_FLAG) != HAL_OK)
 686              		.loc 1 657 0
 687 0032 42F21073 		movw	r3, #10000
 688 0036 0122     		movs	r2, #1
 689 0038 9549     		ldr	r1, .L56
 690 003a F868     		ldr	r0, [r7, #12]
 691 003c FFF7FEFF 		bl	I2C_WaitOnFlagUntilTimeout
 692 0040 0346     		mov	r3, r0
 693 0042 002B     		cmp	r3, #0
 694 0044 01D0     		beq	.L36
 658:Drivers/STM32F1xx_HAL_Driver/Src/stm32f1xx_hal_i2c.c ****     {
 659:Drivers/STM32F1xx_HAL_Driver/Src/stm32f1xx_hal_i2c.c ****       return HAL_BUSY;
 695              		.loc 1 659 0
 696 0046 0223     		movs	r3, #2
 697 0048 65E1     		b	.L35
 698              	.L36:
 660:Drivers/STM32F1xx_HAL_Driver/Src/stm32f1xx_hal_i2c.c ****     }
 661:Drivers/STM32F1xx_HAL_Driver/Src/stm32f1xx_hal_i2c.c **** 
 662:Drivers/STM32F1xx_HAL_Driver/Src/stm32f1xx_hal_i2c.c ****     /* Process Locked */
 663:Drivers/STM32F1xx_HAL_Driver/Src/stm32f1xx_hal_i2c.c ****     __HAL_LOCK(hi2c);
 699              		.loc 1 663 0
 700 004a FB68     		ldr	r3, [r7, #12]
 701 004c 93F83430 		ldrb	r3, [r3, #52]	@ zero_extendqisi2
 702 0050 012B     		cmp	r3, #1
 703 0052 01D1     		bne	.L37
 704              		.loc 1 663 0 is_stmt 0 discriminator 1
 705 0054 0223     		movs	r3, #2
 706 0056 5EE1     		b	.L35
 707              	.L37:
 708              		.loc 1 663 0 discriminator 2
 709 0058 FB68     		ldr	r3, [r7, #12]
 710 005a 0122     		movs	r2, #1
 711 005c 83F83420 		strb	r2, [r3, #52]
 664:Drivers/STM32F1xx_HAL_Driver/Src/stm32f1xx_hal_i2c.c **** 
 665:Drivers/STM32F1xx_HAL_Driver/Src/stm32f1xx_hal_i2c.c ****     /* Disable Pos */
 666:Drivers/STM32F1xx_HAL_Driver/Src/stm32f1xx_hal_i2c.c ****     CLEAR_BIT(hi2c->Instance->CR1, I2C_CR1_POS);
 712              		.loc 1 666 0 is_stmt 1 discriminator 2
ARM GAS  /var/folders/kh/x4vltyy52lbg7p4pcyglc5080000gp/T//cccbl2Nm.s 			page 25


 713 0060 FB68     		ldr	r3, [r7, #12]
 714 0062 1B68     		ldr	r3, [r3]
 715 0064 FA68     		ldr	r2, [r7, #12]
 716 0066 1268     		ldr	r2, [r2]
 717 0068 1268     		ldr	r2, [r2]
 718 006a 22F40062 		bic	r2, r2, #2048
 719 006e 1A60     		str	r2, [r3]
 667:Drivers/STM32F1xx_HAL_Driver/Src/stm32f1xx_hal_i2c.c **** 
 668:Drivers/STM32F1xx_HAL_Driver/Src/stm32f1xx_hal_i2c.c ****     hi2c->State = HAL_I2C_STATE_BUSY_RX;
 720              		.loc 1 668 0 discriminator 2
 721 0070 FB68     		ldr	r3, [r7, #12]
 722 0072 2222     		movs	r2, #34
 723 0074 83F83520 		strb	r2, [r3, #53]
 669:Drivers/STM32F1xx_HAL_Driver/Src/stm32f1xx_hal_i2c.c ****     hi2c->Mode = HAL_I2C_MODE_MASTER;
 724              		.loc 1 669 0 discriminator 2
 725 0078 FB68     		ldr	r3, [r7, #12]
 726 007a 1022     		movs	r2, #16
 727 007c 83F83620 		strb	r2, [r3, #54]
 670:Drivers/STM32F1xx_HAL_Driver/Src/stm32f1xx_hal_i2c.c ****     hi2c->ErrorCode = HAL_I2C_ERROR_NONE;
 728              		.loc 1 670 0 discriminator 2
 729 0080 FB68     		ldr	r3, [r7, #12]
 730 0082 0022     		movs	r2, #0
 731 0084 9A63     		str	r2, [r3, #56]
 671:Drivers/STM32F1xx_HAL_Driver/Src/stm32f1xx_hal_i2c.c **** 
 672:Drivers/STM32F1xx_HAL_Driver/Src/stm32f1xx_hal_i2c.c ****     /* Send Slave Address */
 673:Drivers/STM32F1xx_HAL_Driver/Src/stm32f1xx_hal_i2c.c ****     if(I2C_MasterRequestRead(hi2c, DevAddress, Timeout) != HAL_OK)
 732              		.loc 1 673 0 discriminator 2
 733 0086 7B89     		ldrh	r3, [r7, #10]
 734 0088 BA6A     		ldr	r2, [r7, #40]
 735 008a 1946     		mov	r1, r3
 736 008c F868     		ldr	r0, [r7, #12]
 737 008e FFF7FEFF 		bl	I2C_MasterRequestRead
 738 0092 0346     		mov	r3, r0
 739 0094 002B     		cmp	r3, #0
 740 0096 0FD0     		beq	.L38
 674:Drivers/STM32F1xx_HAL_Driver/Src/stm32f1xx_hal_i2c.c ****     {
 675:Drivers/STM32F1xx_HAL_Driver/Src/stm32f1xx_hal_i2c.c ****       if(hi2c->ErrorCode == HAL_I2C_ERROR_AF)
 741              		.loc 1 675 0
 742 0098 FB68     		ldr	r3, [r7, #12]
 743 009a 9B6B     		ldr	r3, [r3, #56]
 744 009c 042B     		cmp	r3, #4
 745 009e 05D1     		bne	.L39
 676:Drivers/STM32F1xx_HAL_Driver/Src/stm32f1xx_hal_i2c.c ****       {
 677:Drivers/STM32F1xx_HAL_Driver/Src/stm32f1xx_hal_i2c.c ****         /* Process Unlocked */
 678:Drivers/STM32F1xx_HAL_Driver/Src/stm32f1xx_hal_i2c.c ****         __HAL_UNLOCK(hi2c);
 746              		.loc 1 678 0
 747 00a0 FB68     		ldr	r3, [r7, #12]
 748 00a2 0022     		movs	r2, #0
 749 00a4 83F83420 		strb	r2, [r3, #52]
 679:Drivers/STM32F1xx_HAL_Driver/Src/stm32f1xx_hal_i2c.c ****         return HAL_ERROR;
 750              		.loc 1 679 0
 751 00a8 0123     		movs	r3, #1
 752 00aa 34E1     		b	.L35
 753              	.L39:
 680:Drivers/STM32F1xx_HAL_Driver/Src/stm32f1xx_hal_i2c.c ****       }
 681:Drivers/STM32F1xx_HAL_Driver/Src/stm32f1xx_hal_i2c.c ****       else
 682:Drivers/STM32F1xx_HAL_Driver/Src/stm32f1xx_hal_i2c.c ****       {
ARM GAS  /var/folders/kh/x4vltyy52lbg7p4pcyglc5080000gp/T//cccbl2Nm.s 			page 26


 683:Drivers/STM32F1xx_HAL_Driver/Src/stm32f1xx_hal_i2c.c ****         /* Process Unlocked */
 684:Drivers/STM32F1xx_HAL_Driver/Src/stm32f1xx_hal_i2c.c ****         __HAL_UNLOCK(hi2c);
 754              		.loc 1 684 0
 755 00ac FB68     		ldr	r3, [r7, #12]
 756 00ae 0022     		movs	r2, #0
 757 00b0 83F83420 		strb	r2, [r3, #52]
 685:Drivers/STM32F1xx_HAL_Driver/Src/stm32f1xx_hal_i2c.c ****         return HAL_TIMEOUT;
 758              		.loc 1 685 0
 759 00b4 0323     		movs	r3, #3
 760 00b6 2EE1     		b	.L35
 761              	.L38:
 686:Drivers/STM32F1xx_HAL_Driver/Src/stm32f1xx_hal_i2c.c ****       }
 687:Drivers/STM32F1xx_HAL_Driver/Src/stm32f1xx_hal_i2c.c ****     }
 688:Drivers/STM32F1xx_HAL_Driver/Src/stm32f1xx_hal_i2c.c **** 
 689:Drivers/STM32F1xx_HAL_Driver/Src/stm32f1xx_hal_i2c.c ****     if(Size == 1)
 762              		.loc 1 689 0
 763 00b8 3B89     		ldrh	r3, [r7, #8]
 764 00ba 012B     		cmp	r3, #1
 765 00bc 1BD1     		bne	.L40
 690:Drivers/STM32F1xx_HAL_Driver/Src/stm32f1xx_hal_i2c.c ****     {
 691:Drivers/STM32F1xx_HAL_Driver/Src/stm32f1xx_hal_i2c.c ****       /* Disable Acknowledge */
 692:Drivers/STM32F1xx_HAL_Driver/Src/stm32f1xx_hal_i2c.c ****       CLEAR_BIT(hi2c->Instance->CR1, I2C_CR1_ACK);
 766              		.loc 1 692 0
 767 00be FB68     		ldr	r3, [r7, #12]
 768 00c0 1B68     		ldr	r3, [r3]
 769 00c2 FA68     		ldr	r2, [r7, #12]
 770 00c4 1268     		ldr	r2, [r2]
 771 00c6 1268     		ldr	r2, [r2]
 772 00c8 22F48062 		bic	r2, r2, #1024
 773 00cc 1A60     		str	r2, [r3]
 774              	.LBB41:
 775              	.LBB42:
 776              		.file 2 "Drivers/CMSIS/Include/cmsis_gcc.h"
   1:Drivers/CMSIS/Include/cmsis_gcc.h **** /**************************************************************************//**
   2:Drivers/CMSIS/Include/cmsis_gcc.h ****  * @file     cmsis_gcc.h
   3:Drivers/CMSIS/Include/cmsis_gcc.h ****  * @brief    CMSIS Cortex-M Core Function/Instruction Header File
   4:Drivers/CMSIS/Include/cmsis_gcc.h ****  * @version  V4.30
   5:Drivers/CMSIS/Include/cmsis_gcc.h ****  * @date     20. October 2015
   6:Drivers/CMSIS/Include/cmsis_gcc.h ****  ******************************************************************************/
   7:Drivers/CMSIS/Include/cmsis_gcc.h **** /* Copyright (c) 2009 - 2015 ARM LIMITED
   8:Drivers/CMSIS/Include/cmsis_gcc.h **** 
   9:Drivers/CMSIS/Include/cmsis_gcc.h ****    All rights reserved.
  10:Drivers/CMSIS/Include/cmsis_gcc.h ****    Redistribution and use in source and binary forms, with or without
  11:Drivers/CMSIS/Include/cmsis_gcc.h ****    modification, are permitted provided that the following conditions are met:
  12:Drivers/CMSIS/Include/cmsis_gcc.h ****    - Redistributions of source code must retain the above copyright
  13:Drivers/CMSIS/Include/cmsis_gcc.h ****      notice, this list of conditions and the following disclaimer.
  14:Drivers/CMSIS/Include/cmsis_gcc.h ****    - Redistributions in binary form must reproduce the above copyright
  15:Drivers/CMSIS/Include/cmsis_gcc.h ****      notice, this list of conditions and the following disclaimer in the
  16:Drivers/CMSIS/Include/cmsis_gcc.h ****      documentation and/or other materials provided with the distribution.
  17:Drivers/CMSIS/Include/cmsis_gcc.h ****    - Neither the name of ARM nor the names of its contributors may be used
  18:Drivers/CMSIS/Include/cmsis_gcc.h ****      to endorse or promote products derived from this software without
  19:Drivers/CMSIS/Include/cmsis_gcc.h ****      specific prior written permission.
  20:Drivers/CMSIS/Include/cmsis_gcc.h ****    *
  21:Drivers/CMSIS/Include/cmsis_gcc.h ****    THIS SOFTWARE IS PROVIDED BY THE COPYRIGHT HOLDERS AND CONTRIBUTORS "AS IS"
  22:Drivers/CMSIS/Include/cmsis_gcc.h ****    AND ANY EXPRESS OR IMPLIED WARRANTIES, INCLUDING, BUT NOT LIMITED TO, THE
  23:Drivers/CMSIS/Include/cmsis_gcc.h ****    IMPLIED WARRANTIES OF MERCHANTABILITY AND FITNESS FOR A PARTICULAR PURPOSE
  24:Drivers/CMSIS/Include/cmsis_gcc.h ****    ARE DISCLAIMED. IN NO EVENT SHALL COPYRIGHT HOLDERS AND CONTRIBUTORS BE
ARM GAS  /var/folders/kh/x4vltyy52lbg7p4pcyglc5080000gp/T//cccbl2Nm.s 			page 27


  25:Drivers/CMSIS/Include/cmsis_gcc.h ****    LIABLE FOR ANY DIRECT, INDIRECT, INCIDENTAL, SPECIAL, EXEMPLARY, OR
  26:Drivers/CMSIS/Include/cmsis_gcc.h ****    CONSEQUENTIAL DAMAGES (INCLUDING, BUT NOT LIMITED TO, PROCUREMENT OF
  27:Drivers/CMSIS/Include/cmsis_gcc.h ****    SUBSTITUTE GOODS OR SERVICES; LOSS OF USE, DATA, OR PROFITS; OR BUSINESS
  28:Drivers/CMSIS/Include/cmsis_gcc.h ****    INTERRUPTION) HOWEVER CAUSED AND ON ANY THEORY OF LIABILITY, WHETHER IN
  29:Drivers/CMSIS/Include/cmsis_gcc.h ****    CONTRACT, STRICT LIABILITY, OR TORT (INCLUDING NEGLIGENCE OR OTHERWISE)
  30:Drivers/CMSIS/Include/cmsis_gcc.h ****    ARISING IN ANY WAY OUT OF THE USE OF THIS SOFTWARE, EVEN IF ADVISED OF THE
  31:Drivers/CMSIS/Include/cmsis_gcc.h ****    POSSIBILITY OF SUCH DAMAGE.
  32:Drivers/CMSIS/Include/cmsis_gcc.h ****    ---------------------------------------------------------------------------*/
  33:Drivers/CMSIS/Include/cmsis_gcc.h **** 
  34:Drivers/CMSIS/Include/cmsis_gcc.h **** 
  35:Drivers/CMSIS/Include/cmsis_gcc.h **** #ifndef __CMSIS_GCC_H
  36:Drivers/CMSIS/Include/cmsis_gcc.h **** #define __CMSIS_GCC_H
  37:Drivers/CMSIS/Include/cmsis_gcc.h **** 
  38:Drivers/CMSIS/Include/cmsis_gcc.h **** /* ignore some GCC warnings */
  39:Drivers/CMSIS/Include/cmsis_gcc.h **** #if defined ( __GNUC__ )
  40:Drivers/CMSIS/Include/cmsis_gcc.h **** #pragma GCC diagnostic push
  41:Drivers/CMSIS/Include/cmsis_gcc.h **** #pragma GCC diagnostic ignored "-Wsign-conversion"
  42:Drivers/CMSIS/Include/cmsis_gcc.h **** #pragma GCC diagnostic ignored "-Wconversion"
  43:Drivers/CMSIS/Include/cmsis_gcc.h **** #pragma GCC diagnostic ignored "-Wunused-parameter"
  44:Drivers/CMSIS/Include/cmsis_gcc.h **** #endif
  45:Drivers/CMSIS/Include/cmsis_gcc.h **** 
  46:Drivers/CMSIS/Include/cmsis_gcc.h **** 
  47:Drivers/CMSIS/Include/cmsis_gcc.h **** /* ###########################  Core Function Access  ########################### */
  48:Drivers/CMSIS/Include/cmsis_gcc.h **** /** \ingroup  CMSIS_Core_FunctionInterface
  49:Drivers/CMSIS/Include/cmsis_gcc.h ****     \defgroup CMSIS_Core_RegAccFunctions CMSIS Core Register Access Functions
  50:Drivers/CMSIS/Include/cmsis_gcc.h ****   @{
  51:Drivers/CMSIS/Include/cmsis_gcc.h ****  */
  52:Drivers/CMSIS/Include/cmsis_gcc.h **** 
  53:Drivers/CMSIS/Include/cmsis_gcc.h **** /**
  54:Drivers/CMSIS/Include/cmsis_gcc.h ****   \brief   Enable IRQ Interrupts
  55:Drivers/CMSIS/Include/cmsis_gcc.h ****   \details Enables IRQ interrupts by clearing the I-bit in the CPSR.
  56:Drivers/CMSIS/Include/cmsis_gcc.h ****            Can only be executed in Privileged modes.
  57:Drivers/CMSIS/Include/cmsis_gcc.h ****  */
  58:Drivers/CMSIS/Include/cmsis_gcc.h **** __attribute__( ( always_inline ) ) __STATIC_INLINE void __enable_irq(void)
  59:Drivers/CMSIS/Include/cmsis_gcc.h **** {
  60:Drivers/CMSIS/Include/cmsis_gcc.h ****   __ASM volatile ("cpsie i" : : : "memory");
  61:Drivers/CMSIS/Include/cmsis_gcc.h **** }
  62:Drivers/CMSIS/Include/cmsis_gcc.h **** 
  63:Drivers/CMSIS/Include/cmsis_gcc.h **** 
  64:Drivers/CMSIS/Include/cmsis_gcc.h **** /**
  65:Drivers/CMSIS/Include/cmsis_gcc.h ****   \brief   Disable IRQ Interrupts
  66:Drivers/CMSIS/Include/cmsis_gcc.h ****   \details Disables IRQ interrupts by setting the I-bit in the CPSR.
  67:Drivers/CMSIS/Include/cmsis_gcc.h ****   Can only be executed in Privileged modes.
  68:Drivers/CMSIS/Include/cmsis_gcc.h ****  */
  69:Drivers/CMSIS/Include/cmsis_gcc.h **** __attribute__( ( always_inline ) ) __STATIC_INLINE void __disable_irq(void)
  70:Drivers/CMSIS/Include/cmsis_gcc.h **** {
  71:Drivers/CMSIS/Include/cmsis_gcc.h ****   __ASM volatile ("cpsid i" : : : "memory");
 777              		.loc 2 71 0
 778              		.syntax unified
 779              	@ 71 "Drivers/CMSIS/Include/cmsis_gcc.h" 1
 780 00ce 72B6     		cpsid i
 781              	@ 0 "" 2
 782              		.thumb
 783              		.syntax unified
 784              	.LBE42:
 785              	.LBE41:
 786              	.LBB43:
ARM GAS  /var/folders/kh/x4vltyy52lbg7p4pcyglc5080000gp/T//cccbl2Nm.s 			page 28


 693:Drivers/STM32F1xx_HAL_Driver/Src/stm32f1xx_hal_i2c.c **** 
 694:Drivers/STM32F1xx_HAL_Driver/Src/stm32f1xx_hal_i2c.c ****       /* Disable all active IRQs around ADDR clearing and STOP programming because the EV6_3
 695:Drivers/STM32F1xx_HAL_Driver/Src/stm32f1xx_hal_i2c.c ****          software sequence must complete before the current byte end of transfer */
 696:Drivers/STM32F1xx_HAL_Driver/Src/stm32f1xx_hal_i2c.c ****       __disable_irq();
 697:Drivers/STM32F1xx_HAL_Driver/Src/stm32f1xx_hal_i2c.c **** 
 698:Drivers/STM32F1xx_HAL_Driver/Src/stm32f1xx_hal_i2c.c ****       /* Clear ADDR flag */
 699:Drivers/STM32F1xx_HAL_Driver/Src/stm32f1xx_hal_i2c.c ****       __HAL_I2C_CLEAR_ADDRFLAG(hi2c);
 787              		.loc 1 699 0
 788 00d0 FB68     		ldr	r3, [r7, #12]
 789 00d2 1B68     		ldr	r3, [r3]
 790 00d4 5B69     		ldr	r3, [r3, #20]
 791 00d6 FB61     		str	r3, [r7, #28]
 792 00d8 FB68     		ldr	r3, [r7, #12]
 793 00da 1B68     		ldr	r3, [r3]
 794 00dc 9B69     		ldr	r3, [r3, #24]
 795 00de FB61     		str	r3, [r7, #28]
 796 00e0 FB69     		ldr	r3, [r7, #28]
 797              	.LBE43:
 700:Drivers/STM32F1xx_HAL_Driver/Src/stm32f1xx_hal_i2c.c **** 
 701:Drivers/STM32F1xx_HAL_Driver/Src/stm32f1xx_hal_i2c.c ****       /* Generate Stop */
 702:Drivers/STM32F1xx_HAL_Driver/Src/stm32f1xx_hal_i2c.c ****       SET_BIT(hi2c->Instance->CR1, I2C_CR1_STOP);
 798              		.loc 1 702 0
 799 00e2 FB68     		ldr	r3, [r7, #12]
 800 00e4 1B68     		ldr	r3, [r3]
 801 00e6 FA68     		ldr	r2, [r7, #12]
 802 00e8 1268     		ldr	r2, [r2]
 803 00ea 1268     		ldr	r2, [r2]
 804 00ec 42F40072 		orr	r2, r2, #512
 805 00f0 1A60     		str	r2, [r3]
 806              	.LBB44:
 807              	.LBB45:
  60:Drivers/CMSIS/Include/cmsis_gcc.h **** }
 808              		.loc 2 60 0
 809              		.syntax unified
 810              	@ 60 "Drivers/CMSIS/Include/cmsis_gcc.h" 1
 811 00f2 62B6     		cpsie i
 812              	@ 0 "" 2
 813              		.thumb
 814              		.syntax unified
 815              	.LBE45:
 816              	.LBE44:
 817 00f4 FCE0     		b	.L43
 818              	.L40:
 703:Drivers/STM32F1xx_HAL_Driver/Src/stm32f1xx_hal_i2c.c **** 	  
 704:Drivers/STM32F1xx_HAL_Driver/Src/stm32f1xx_hal_i2c.c ****       /* Re-enable IRQs */
 705:Drivers/STM32F1xx_HAL_Driver/Src/stm32f1xx_hal_i2c.c ****       __enable_irq(); 
 706:Drivers/STM32F1xx_HAL_Driver/Src/stm32f1xx_hal_i2c.c ****     }
 707:Drivers/STM32F1xx_HAL_Driver/Src/stm32f1xx_hal_i2c.c ****     else if(Size == 2)
 819              		.loc 1 707 0
 820 00f6 3B89     		ldrh	r3, [r7, #8]
 821 00f8 022B     		cmp	r3, #2
 822 00fa 1BD1     		bne	.L42
 708:Drivers/STM32F1xx_HAL_Driver/Src/stm32f1xx_hal_i2c.c ****     {
 709:Drivers/STM32F1xx_HAL_Driver/Src/stm32f1xx_hal_i2c.c ****       /* Enable Pos */
 710:Drivers/STM32F1xx_HAL_Driver/Src/stm32f1xx_hal_i2c.c ****       SET_BIT(hi2c->Instance->CR1, I2C_CR1_POS);
 823              		.loc 1 710 0
 824 00fc FB68     		ldr	r3, [r7, #12]
ARM GAS  /var/folders/kh/x4vltyy52lbg7p4pcyglc5080000gp/T//cccbl2Nm.s 			page 29


 825 00fe 1B68     		ldr	r3, [r3]
 826 0100 FA68     		ldr	r2, [r7, #12]
 827 0102 1268     		ldr	r2, [r2]
 828 0104 1268     		ldr	r2, [r2]
 829 0106 42F40062 		orr	r2, r2, #2048
 830 010a 1A60     		str	r2, [r3]
 831              	.LBB46:
 832              	.LBB47:
 833              		.loc 2 71 0
 834              		.syntax unified
 835              	@ 71 "Drivers/CMSIS/Include/cmsis_gcc.h" 1
 836 010c 72B6     		cpsid i
 837              	@ 0 "" 2
 838              		.thumb
 839              		.syntax unified
 840              	.LBE47:
 841              	.LBE46:
 842              	.LBB48:
 711:Drivers/STM32F1xx_HAL_Driver/Src/stm32f1xx_hal_i2c.c **** 
 712:Drivers/STM32F1xx_HAL_Driver/Src/stm32f1xx_hal_i2c.c ****       /* Disable all active IRQs around ADDR clearing and STOP programming because the EV6_3
 713:Drivers/STM32F1xx_HAL_Driver/Src/stm32f1xx_hal_i2c.c ****          software sequence must complete before the current byte end of transfer */
 714:Drivers/STM32F1xx_HAL_Driver/Src/stm32f1xx_hal_i2c.c ****       __disable_irq();
 715:Drivers/STM32F1xx_HAL_Driver/Src/stm32f1xx_hal_i2c.c **** 
 716:Drivers/STM32F1xx_HAL_Driver/Src/stm32f1xx_hal_i2c.c ****       /* Clear ADDR flag */
 717:Drivers/STM32F1xx_HAL_Driver/Src/stm32f1xx_hal_i2c.c ****       __HAL_I2C_CLEAR_ADDRFLAG(hi2c);
 843              		.loc 1 717 0
 844 010e FB68     		ldr	r3, [r7, #12]
 845 0110 1B68     		ldr	r3, [r3]
 846 0112 5B69     		ldr	r3, [r3, #20]
 847 0114 BB61     		str	r3, [r7, #24]
 848 0116 FB68     		ldr	r3, [r7, #12]
 849 0118 1B68     		ldr	r3, [r3]
 850 011a 9B69     		ldr	r3, [r3, #24]
 851 011c BB61     		str	r3, [r7, #24]
 852 011e BB69     		ldr	r3, [r7, #24]
 853              	.LBE48:
 718:Drivers/STM32F1xx_HAL_Driver/Src/stm32f1xx_hal_i2c.c **** 
 719:Drivers/STM32F1xx_HAL_Driver/Src/stm32f1xx_hal_i2c.c ****       /* Disable Acknowledge */
 720:Drivers/STM32F1xx_HAL_Driver/Src/stm32f1xx_hal_i2c.c ****       CLEAR_BIT(hi2c->Instance->CR1, I2C_CR1_ACK);
 854              		.loc 1 720 0
 855 0120 FB68     		ldr	r3, [r7, #12]
 856 0122 1B68     		ldr	r3, [r3]
 857 0124 FA68     		ldr	r2, [r7, #12]
 858 0126 1268     		ldr	r2, [r2]
 859 0128 1268     		ldr	r2, [r2]
 860 012a 22F48062 		bic	r2, r2, #1024
 861 012e 1A60     		str	r2, [r3]
 862              	.LBB49:
 863              	.LBB50:
  60:Drivers/CMSIS/Include/cmsis_gcc.h **** }
 864              		.loc 2 60 0
 865              		.syntax unified
 866              	@ 60 "Drivers/CMSIS/Include/cmsis_gcc.h" 1
 867 0130 62B6     		cpsie i
 868              	@ 0 "" 2
 869              		.thumb
 870              		.syntax unified
ARM GAS  /var/folders/kh/x4vltyy52lbg7p4pcyglc5080000gp/T//cccbl2Nm.s 			page 30


 871              	.LBE50:
 872              	.LBE49:
 873 0132 DDE0     		b	.L43
 874              	.L42:
 721:Drivers/STM32F1xx_HAL_Driver/Src/stm32f1xx_hal_i2c.c **** 
 722:Drivers/STM32F1xx_HAL_Driver/Src/stm32f1xx_hal_i2c.c ****        /* Re-enable IRQs */
 723:Drivers/STM32F1xx_HAL_Driver/Src/stm32f1xx_hal_i2c.c ****        __enable_irq(); 
 724:Drivers/STM32F1xx_HAL_Driver/Src/stm32f1xx_hal_i2c.c ****     }
 725:Drivers/STM32F1xx_HAL_Driver/Src/stm32f1xx_hal_i2c.c ****     else
 726:Drivers/STM32F1xx_HAL_Driver/Src/stm32f1xx_hal_i2c.c ****     {
 727:Drivers/STM32F1xx_HAL_Driver/Src/stm32f1xx_hal_i2c.c ****       /* Enable Acknowledge */
 728:Drivers/STM32F1xx_HAL_Driver/Src/stm32f1xx_hal_i2c.c ****       SET_BIT(hi2c->Instance->CR1, I2C_CR1_ACK);
 875              		.loc 1 728 0
 876 0134 FB68     		ldr	r3, [r7, #12]
 877 0136 1B68     		ldr	r3, [r3]
 878 0138 FA68     		ldr	r2, [r7, #12]
 879 013a 1268     		ldr	r2, [r2]
 880 013c 1268     		ldr	r2, [r2]
 881 013e 42F48062 		orr	r2, r2, #1024
 882 0142 1A60     		str	r2, [r3]
 883              	.LBB51:
 729:Drivers/STM32F1xx_HAL_Driver/Src/stm32f1xx_hal_i2c.c **** 
 730:Drivers/STM32F1xx_HAL_Driver/Src/stm32f1xx_hal_i2c.c ****       /* Clear ADDR flag */
 731:Drivers/STM32F1xx_HAL_Driver/Src/stm32f1xx_hal_i2c.c ****       __HAL_I2C_CLEAR_ADDRFLAG(hi2c);
 884              		.loc 1 731 0
 885 0144 FB68     		ldr	r3, [r7, #12]
 886 0146 1B68     		ldr	r3, [r3]
 887 0148 5B69     		ldr	r3, [r3, #20]
 888 014a 7B61     		str	r3, [r7, #20]
 889 014c FB68     		ldr	r3, [r7, #12]
 890 014e 1B68     		ldr	r3, [r3]
 891 0150 9B69     		ldr	r3, [r3, #24]
 892 0152 7B61     		str	r3, [r7, #20]
 893 0154 7B69     		ldr	r3, [r7, #20]
 894              	.LBE51:
 732:Drivers/STM32F1xx_HAL_Driver/Src/stm32f1xx_hal_i2c.c ****     }
 733:Drivers/STM32F1xx_HAL_Driver/Src/stm32f1xx_hal_i2c.c **** 
 734:Drivers/STM32F1xx_HAL_Driver/Src/stm32f1xx_hal_i2c.c ****     while(Size > 0)
 895              		.loc 1 734 0
 896 0156 CBE0     		b	.L43
 897              	.L55:
 735:Drivers/STM32F1xx_HAL_Driver/Src/stm32f1xx_hal_i2c.c ****     {
 736:Drivers/STM32F1xx_HAL_Driver/Src/stm32f1xx_hal_i2c.c ****       if(Size <= 3)
 898              		.loc 1 736 0
 899 0158 3B89     		ldrh	r3, [r7, #8]
 900 015a 032B     		cmp	r3, #3
 901 015c 00F29C80 		bhi	.L44
 737:Drivers/STM32F1xx_HAL_Driver/Src/stm32f1xx_hal_i2c.c ****       {
 738:Drivers/STM32F1xx_HAL_Driver/Src/stm32f1xx_hal_i2c.c ****         /* One byte */
 739:Drivers/STM32F1xx_HAL_Driver/Src/stm32f1xx_hal_i2c.c ****         if(Size == 1)
 902              		.loc 1 739 0
 903 0160 3B89     		ldrh	r3, [r7, #8]
 904 0162 012B     		cmp	r3, #1
 905 0164 1AD1     		bne	.L45
 740:Drivers/STM32F1xx_HAL_Driver/Src/stm32f1xx_hal_i2c.c ****         {
 741:Drivers/STM32F1xx_HAL_Driver/Src/stm32f1xx_hal_i2c.c ****           /* Wait until RXNE flag is set */
 742:Drivers/STM32F1xx_HAL_Driver/Src/stm32f1xx_hal_i2c.c ****           if(I2C_WaitOnRXNEFlagUntilTimeout(hi2c, Timeout) != HAL_OK)      
ARM GAS  /var/folders/kh/x4vltyy52lbg7p4pcyglc5080000gp/T//cccbl2Nm.s 			page 31


 906              		.loc 1 742 0
 907 0166 B96A     		ldr	r1, [r7, #40]
 908 0168 F868     		ldr	r0, [r7, #12]
 909 016a FFF7FEFF 		bl	I2C_WaitOnRXNEFlagUntilTimeout
 910 016e 0346     		mov	r3, r0
 911 0170 002B     		cmp	r3, #0
 912 0172 07D0     		beq	.L46
 743:Drivers/STM32F1xx_HAL_Driver/Src/stm32f1xx_hal_i2c.c ****           {
 744:Drivers/STM32F1xx_HAL_Driver/Src/stm32f1xx_hal_i2c.c ****             if(hi2c->ErrorCode == HAL_I2C_ERROR_TIMEOUT)
 913              		.loc 1 744 0
 914 0174 FB68     		ldr	r3, [r7, #12]
 915 0176 9B6B     		ldr	r3, [r3, #56]
 916 0178 202B     		cmp	r3, #32
 917 017a 01D1     		bne	.L47
 745:Drivers/STM32F1xx_HAL_Driver/Src/stm32f1xx_hal_i2c.c ****             {
 746:Drivers/STM32F1xx_HAL_Driver/Src/stm32f1xx_hal_i2c.c ****               return HAL_TIMEOUT;
 918              		.loc 1 746 0
 919 017c 0323     		movs	r3, #3
 920 017e CAE0     		b	.L35
 921              	.L47:
 747:Drivers/STM32F1xx_HAL_Driver/Src/stm32f1xx_hal_i2c.c ****             }
 748:Drivers/STM32F1xx_HAL_Driver/Src/stm32f1xx_hal_i2c.c ****             else
 749:Drivers/STM32F1xx_HAL_Driver/Src/stm32f1xx_hal_i2c.c ****             {
 750:Drivers/STM32F1xx_HAL_Driver/Src/stm32f1xx_hal_i2c.c ****               return HAL_ERROR;
 922              		.loc 1 750 0
 923 0180 0123     		movs	r3, #1
 924 0182 C8E0     		b	.L35
 925              	.L46:
 751:Drivers/STM32F1xx_HAL_Driver/Src/stm32f1xx_hal_i2c.c ****             }
 752:Drivers/STM32F1xx_HAL_Driver/Src/stm32f1xx_hal_i2c.c ****           }
 753:Drivers/STM32F1xx_HAL_Driver/Src/stm32f1xx_hal_i2c.c **** 
 754:Drivers/STM32F1xx_HAL_Driver/Src/stm32f1xx_hal_i2c.c ****           /* Read data from DR */
 755:Drivers/STM32F1xx_HAL_Driver/Src/stm32f1xx_hal_i2c.c ****           (*pData++) = hi2c->Instance->DR;
 926              		.loc 1 755 0
 927 0184 7B68     		ldr	r3, [r7, #4]
 928 0186 5A1C     		adds	r2, r3, #1
 929 0188 7A60     		str	r2, [r7, #4]
 930 018a FA68     		ldr	r2, [r7, #12]
 931 018c 1268     		ldr	r2, [r2]
 932 018e 1269     		ldr	r2, [r2, #16]
 933 0190 D2B2     		uxtb	r2, r2
 934 0192 1A70     		strb	r2, [r3]
 756:Drivers/STM32F1xx_HAL_Driver/Src/stm32f1xx_hal_i2c.c ****           Size--;
 935              		.loc 1 756 0
 936 0194 3B89     		ldrh	r3, [r7, #8]
 937 0196 013B     		subs	r3, r3, #1
 938 0198 3B81     		strh	r3, [r7, #8]	@ movhi
 939 019a A9E0     		b	.L43
 940              	.L45:
 757:Drivers/STM32F1xx_HAL_Driver/Src/stm32f1xx_hal_i2c.c ****         }
 758:Drivers/STM32F1xx_HAL_Driver/Src/stm32f1xx_hal_i2c.c ****         /* Two bytes */
 759:Drivers/STM32F1xx_HAL_Driver/Src/stm32f1xx_hal_i2c.c ****         else if(Size == 2)
 941              		.loc 1 759 0
 942 019c 3B89     		ldrh	r3, [r7, #8]
 943 019e 022B     		cmp	r3, #2
 944 01a0 2BD1     		bne	.L49
 760:Drivers/STM32F1xx_HAL_Driver/Src/stm32f1xx_hal_i2c.c ****         {
ARM GAS  /var/folders/kh/x4vltyy52lbg7p4pcyglc5080000gp/T//cccbl2Nm.s 			page 32


 761:Drivers/STM32F1xx_HAL_Driver/Src/stm32f1xx_hal_i2c.c ****           /* Wait until BTF flag is set */
 762:Drivers/STM32F1xx_HAL_Driver/Src/stm32f1xx_hal_i2c.c ****           if(I2C_WaitOnFlagUntilTimeout(hi2c, I2C_FLAG_BTF, RESET, Timeout) != HAL_OK)
 945              		.loc 1 762 0
 946 01a2 BB6A     		ldr	r3, [r7, #40]
 947 01a4 0022     		movs	r2, #0
 948 01a6 3B49     		ldr	r1, .L56+4
 949 01a8 F868     		ldr	r0, [r7, #12]
 950 01aa FFF7FEFF 		bl	I2C_WaitOnFlagUntilTimeout
 951 01ae 0346     		mov	r3, r0
 952 01b0 002B     		cmp	r3, #0
 953 01b2 01D0     		beq	.L50
 763:Drivers/STM32F1xx_HAL_Driver/Src/stm32f1xx_hal_i2c.c ****           {
 764:Drivers/STM32F1xx_HAL_Driver/Src/stm32f1xx_hal_i2c.c ****             return HAL_TIMEOUT;
 954              		.loc 1 764 0
 955 01b4 0323     		movs	r3, #3
 956 01b6 AEE0     		b	.L35
 957              	.L50:
 958              	.LBB52:
 959              	.LBB53:
 960              		.loc 2 71 0
 961              		.syntax unified
 962              	@ 71 "Drivers/CMSIS/Include/cmsis_gcc.h" 1
 963 01b8 72B6     		cpsid i
 964              	@ 0 "" 2
 965              		.thumb
 966              		.syntax unified
 967              	.LBE53:
 968              	.LBE52:
 765:Drivers/STM32F1xx_HAL_Driver/Src/stm32f1xx_hal_i2c.c ****           }
 766:Drivers/STM32F1xx_HAL_Driver/Src/stm32f1xx_hal_i2c.c **** 
 767:Drivers/STM32F1xx_HAL_Driver/Src/stm32f1xx_hal_i2c.c ****           /* Disable all active IRQs around ADDR clearing and STOP programming because the EV6_3
 768:Drivers/STM32F1xx_HAL_Driver/Src/stm32f1xx_hal_i2c.c ****              software sequence must complete before the current byte end of transfer */
 769:Drivers/STM32F1xx_HAL_Driver/Src/stm32f1xx_hal_i2c.c ****            __disable_irq();
 770:Drivers/STM32F1xx_HAL_Driver/Src/stm32f1xx_hal_i2c.c **** 
 771:Drivers/STM32F1xx_HAL_Driver/Src/stm32f1xx_hal_i2c.c ****           /* Generate Stop */
 772:Drivers/STM32F1xx_HAL_Driver/Src/stm32f1xx_hal_i2c.c ****           SET_BIT(hi2c->Instance->CR1, I2C_CR1_STOP);
 969              		.loc 1 772 0
 970 01ba FB68     		ldr	r3, [r7, #12]
 971 01bc 1B68     		ldr	r3, [r3]
 972 01be FA68     		ldr	r2, [r7, #12]
 973 01c0 1268     		ldr	r2, [r2]
 974 01c2 1268     		ldr	r2, [r2]
 975 01c4 42F40072 		orr	r2, r2, #512
 976 01c8 1A60     		str	r2, [r3]
 773:Drivers/STM32F1xx_HAL_Driver/Src/stm32f1xx_hal_i2c.c **** 
 774:Drivers/STM32F1xx_HAL_Driver/Src/stm32f1xx_hal_i2c.c ****           /* Read data from DR */
 775:Drivers/STM32F1xx_HAL_Driver/Src/stm32f1xx_hal_i2c.c ****           (*pData++) = hi2c->Instance->DR;
 977              		.loc 1 775 0
 978 01ca 7B68     		ldr	r3, [r7, #4]
 979 01cc 5A1C     		adds	r2, r3, #1
 980 01ce 7A60     		str	r2, [r7, #4]
 981 01d0 FA68     		ldr	r2, [r7, #12]
 982 01d2 1268     		ldr	r2, [r2]
 983 01d4 1269     		ldr	r2, [r2, #16]
 984 01d6 D2B2     		uxtb	r2, r2
 985 01d8 1A70     		strb	r2, [r3]
 776:Drivers/STM32F1xx_HAL_Driver/Src/stm32f1xx_hal_i2c.c ****           Size--;
ARM GAS  /var/folders/kh/x4vltyy52lbg7p4pcyglc5080000gp/T//cccbl2Nm.s 			page 33


 986              		.loc 1 776 0
 987 01da 3B89     		ldrh	r3, [r7, #8]
 988 01dc 013B     		subs	r3, r3, #1
 989 01de 3B81     		strh	r3, [r7, #8]	@ movhi
 990              	.LBB54:
 991              	.LBB55:
  60:Drivers/CMSIS/Include/cmsis_gcc.h **** }
 992              		.loc 2 60 0
 993              		.syntax unified
 994              	@ 60 "Drivers/CMSIS/Include/cmsis_gcc.h" 1
 995 01e0 62B6     		cpsie i
 996              	@ 0 "" 2
 997              		.thumb
 998              		.syntax unified
 999              	.LBE55:
 1000              	.LBE54:
 777:Drivers/STM32F1xx_HAL_Driver/Src/stm32f1xx_hal_i2c.c **** 
 778:Drivers/STM32F1xx_HAL_Driver/Src/stm32f1xx_hal_i2c.c ****           /* Re-enable IRQs */
 779:Drivers/STM32F1xx_HAL_Driver/Src/stm32f1xx_hal_i2c.c ****           __enable_irq();
 780:Drivers/STM32F1xx_HAL_Driver/Src/stm32f1xx_hal_i2c.c **** 
 781:Drivers/STM32F1xx_HAL_Driver/Src/stm32f1xx_hal_i2c.c ****           /* Read data from DR */
 782:Drivers/STM32F1xx_HAL_Driver/Src/stm32f1xx_hal_i2c.c ****           (*pData++) = hi2c->Instance->DR;
 1001              		.loc 1 782 0
 1002 01e2 7B68     		ldr	r3, [r7, #4]
 1003 01e4 5A1C     		adds	r2, r3, #1
 1004 01e6 7A60     		str	r2, [r7, #4]
 1005 01e8 FA68     		ldr	r2, [r7, #12]
 1006 01ea 1268     		ldr	r2, [r2]
 1007 01ec 1269     		ldr	r2, [r2, #16]
 1008 01ee D2B2     		uxtb	r2, r2
 1009 01f0 1A70     		strb	r2, [r3]
 783:Drivers/STM32F1xx_HAL_Driver/Src/stm32f1xx_hal_i2c.c ****           Size--;
 1010              		.loc 1 783 0
 1011 01f2 3B89     		ldrh	r3, [r7, #8]
 1012 01f4 013B     		subs	r3, r3, #1
 1013 01f6 3B81     		strh	r3, [r7, #8]	@ movhi
 1014 01f8 7AE0     		b	.L43
 1015              	.L49:
 784:Drivers/STM32F1xx_HAL_Driver/Src/stm32f1xx_hal_i2c.c ****         }
 785:Drivers/STM32F1xx_HAL_Driver/Src/stm32f1xx_hal_i2c.c ****         /* 3 Last bytes */
 786:Drivers/STM32F1xx_HAL_Driver/Src/stm32f1xx_hal_i2c.c ****         else
 787:Drivers/STM32F1xx_HAL_Driver/Src/stm32f1xx_hal_i2c.c ****         {
 788:Drivers/STM32F1xx_HAL_Driver/Src/stm32f1xx_hal_i2c.c ****           /* Wait until BTF flag is set */
 789:Drivers/STM32F1xx_HAL_Driver/Src/stm32f1xx_hal_i2c.c ****           if(I2C_WaitOnFlagUntilTimeout(hi2c, I2C_FLAG_BTF, RESET, Timeout) != HAL_OK)
 1016              		.loc 1 789 0
 1017 01fa BB6A     		ldr	r3, [r7, #40]
 1018 01fc 0022     		movs	r2, #0
 1019 01fe 2549     		ldr	r1, .L56+4
 1020 0200 F868     		ldr	r0, [r7, #12]
 1021 0202 FFF7FEFF 		bl	I2C_WaitOnFlagUntilTimeout
 1022 0206 0346     		mov	r3, r0
 1023 0208 002B     		cmp	r3, #0
 1024 020a 01D0     		beq	.L51
 790:Drivers/STM32F1xx_HAL_Driver/Src/stm32f1xx_hal_i2c.c ****           {
 791:Drivers/STM32F1xx_HAL_Driver/Src/stm32f1xx_hal_i2c.c ****             return HAL_TIMEOUT;
 1025              		.loc 1 791 0
 1026 020c 0323     		movs	r3, #3
ARM GAS  /var/folders/kh/x4vltyy52lbg7p4pcyglc5080000gp/T//cccbl2Nm.s 			page 34


 1027 020e 82E0     		b	.L35
 1028              	.L51:
 792:Drivers/STM32F1xx_HAL_Driver/Src/stm32f1xx_hal_i2c.c ****           }
 793:Drivers/STM32F1xx_HAL_Driver/Src/stm32f1xx_hal_i2c.c **** 
 794:Drivers/STM32F1xx_HAL_Driver/Src/stm32f1xx_hal_i2c.c ****           /* Disable Acknowledge */
 795:Drivers/STM32F1xx_HAL_Driver/Src/stm32f1xx_hal_i2c.c ****           CLEAR_BIT(hi2c->Instance->CR1, I2C_CR1_ACK);
 1029              		.loc 1 795 0
 1030 0210 FB68     		ldr	r3, [r7, #12]
 1031 0212 1B68     		ldr	r3, [r3]
 1032 0214 FA68     		ldr	r2, [r7, #12]
 1033 0216 1268     		ldr	r2, [r2]
 1034 0218 1268     		ldr	r2, [r2]
 1035 021a 22F48062 		bic	r2, r2, #1024
 1036 021e 1A60     		str	r2, [r3]
 1037              	.LBB56:
 1038              	.LBB57:
 1039              		.loc 2 71 0
 1040              		.syntax unified
 1041              	@ 71 "Drivers/CMSIS/Include/cmsis_gcc.h" 1
 1042 0220 72B6     		cpsid i
 1043              	@ 0 "" 2
 1044              		.thumb
 1045              		.syntax unified
 1046              	.LBE57:
 1047              	.LBE56:
 796:Drivers/STM32F1xx_HAL_Driver/Src/stm32f1xx_hal_i2c.c **** 
 797:Drivers/STM32F1xx_HAL_Driver/Src/stm32f1xx_hal_i2c.c ****           /* Disable all active IRQs around ADDR clearing and STOP programming because the EV6_3
 798:Drivers/STM32F1xx_HAL_Driver/Src/stm32f1xx_hal_i2c.c ****              software sequence must complete before the current byte end of transfer */
 799:Drivers/STM32F1xx_HAL_Driver/Src/stm32f1xx_hal_i2c.c ****           __disable_irq();
 800:Drivers/STM32F1xx_HAL_Driver/Src/stm32f1xx_hal_i2c.c **** 
 801:Drivers/STM32F1xx_HAL_Driver/Src/stm32f1xx_hal_i2c.c ****           /* Read data from DR */
 802:Drivers/STM32F1xx_HAL_Driver/Src/stm32f1xx_hal_i2c.c ****           (*pData++) = hi2c->Instance->DR;
 1048              		.loc 1 802 0
 1049 0222 7B68     		ldr	r3, [r7, #4]
 1050 0224 5A1C     		adds	r2, r3, #1
 1051 0226 7A60     		str	r2, [r7, #4]
 1052 0228 FA68     		ldr	r2, [r7, #12]
 1053 022a 1268     		ldr	r2, [r2]
 1054 022c 1269     		ldr	r2, [r2, #16]
 1055 022e D2B2     		uxtb	r2, r2
 1056 0230 1A70     		strb	r2, [r3]
 803:Drivers/STM32F1xx_HAL_Driver/Src/stm32f1xx_hal_i2c.c ****           Size--;
 1057              		.loc 1 803 0
 1058 0232 3B89     		ldrh	r3, [r7, #8]
 1059 0234 013B     		subs	r3, r3, #1
 1060 0236 3B81     		strh	r3, [r7, #8]	@ movhi
 804:Drivers/STM32F1xx_HAL_Driver/Src/stm32f1xx_hal_i2c.c **** 
 805:Drivers/STM32F1xx_HAL_Driver/Src/stm32f1xx_hal_i2c.c ****           /* Wait until BTF flag is set */
 806:Drivers/STM32F1xx_HAL_Driver/Src/stm32f1xx_hal_i2c.c ****           if(I2C_WaitOnFlagUntilTimeout(hi2c, I2C_FLAG_BTF, RESET, Timeout) != HAL_OK)
 1061              		.loc 1 806 0
 1062 0238 BB6A     		ldr	r3, [r7, #40]
 1063 023a 0022     		movs	r2, #0
 1064 023c 1549     		ldr	r1, .L56+4
 1065 023e F868     		ldr	r0, [r7, #12]
 1066 0240 FFF7FEFF 		bl	I2C_WaitOnFlagUntilTimeout
 1067 0244 0346     		mov	r3, r0
 1068 0246 002B     		cmp	r3, #0
ARM GAS  /var/folders/kh/x4vltyy52lbg7p4pcyglc5080000gp/T//cccbl2Nm.s 			page 35


 1069 0248 01D0     		beq	.L52
 807:Drivers/STM32F1xx_HAL_Driver/Src/stm32f1xx_hal_i2c.c ****           {
 808:Drivers/STM32F1xx_HAL_Driver/Src/stm32f1xx_hal_i2c.c ****             return HAL_TIMEOUT;
 1070              		.loc 1 808 0
 1071 024a 0323     		movs	r3, #3
 1072 024c 63E0     		b	.L35
 1073              	.L52:
 809:Drivers/STM32F1xx_HAL_Driver/Src/stm32f1xx_hal_i2c.c ****           }
 810:Drivers/STM32F1xx_HAL_Driver/Src/stm32f1xx_hal_i2c.c **** 
 811:Drivers/STM32F1xx_HAL_Driver/Src/stm32f1xx_hal_i2c.c ****           /* Generate Stop */
 812:Drivers/STM32F1xx_HAL_Driver/Src/stm32f1xx_hal_i2c.c ****           SET_BIT(hi2c->Instance->CR1, I2C_CR1_STOP);
 1074              		.loc 1 812 0
 1075 024e FB68     		ldr	r3, [r7, #12]
 1076 0250 1B68     		ldr	r3, [r3]
 1077 0252 FA68     		ldr	r2, [r7, #12]
 1078 0254 1268     		ldr	r2, [r2]
 1079 0256 1268     		ldr	r2, [r2]
 1080 0258 42F40072 		orr	r2, r2, #512
 1081 025c 1A60     		str	r2, [r3]
 813:Drivers/STM32F1xx_HAL_Driver/Src/stm32f1xx_hal_i2c.c **** 
 814:Drivers/STM32F1xx_HAL_Driver/Src/stm32f1xx_hal_i2c.c ****           /* Read data from DR */
 815:Drivers/STM32F1xx_HAL_Driver/Src/stm32f1xx_hal_i2c.c ****           (*pData++) = hi2c->Instance->DR;
 1082              		.loc 1 815 0
 1083 025e 7B68     		ldr	r3, [r7, #4]
 1084 0260 5A1C     		adds	r2, r3, #1
 1085 0262 7A60     		str	r2, [r7, #4]
 1086 0264 FA68     		ldr	r2, [r7, #12]
 1087 0266 1268     		ldr	r2, [r2]
 1088 0268 1269     		ldr	r2, [r2, #16]
 1089 026a D2B2     		uxtb	r2, r2
 1090 026c 1A70     		strb	r2, [r3]
 816:Drivers/STM32F1xx_HAL_Driver/Src/stm32f1xx_hal_i2c.c ****           Size--;
 1091              		.loc 1 816 0
 1092 026e 3B89     		ldrh	r3, [r7, #8]
 1093 0270 013B     		subs	r3, r3, #1
 1094 0272 3B81     		strh	r3, [r7, #8]	@ movhi
 1095              	.LBB58:
 1096              	.LBB59:
  60:Drivers/CMSIS/Include/cmsis_gcc.h **** }
 1097              		.loc 2 60 0
 1098              		.syntax unified
 1099              	@ 60 "Drivers/CMSIS/Include/cmsis_gcc.h" 1
 1100 0274 62B6     		cpsie i
 1101              	@ 0 "" 2
 1102              		.thumb
 1103              		.syntax unified
 1104              	.LBE59:
 1105              	.LBE58:
 817:Drivers/STM32F1xx_HAL_Driver/Src/stm32f1xx_hal_i2c.c **** 	  
 818:Drivers/STM32F1xx_HAL_Driver/Src/stm32f1xx_hal_i2c.c ****           /* Re-enable IRQs */
 819:Drivers/STM32F1xx_HAL_Driver/Src/stm32f1xx_hal_i2c.c ****           __enable_irq(); 
 820:Drivers/STM32F1xx_HAL_Driver/Src/stm32f1xx_hal_i2c.c **** 
 821:Drivers/STM32F1xx_HAL_Driver/Src/stm32f1xx_hal_i2c.c ****           /* Read data from DR */
 822:Drivers/STM32F1xx_HAL_Driver/Src/stm32f1xx_hal_i2c.c ****           (*pData++) = hi2c->Instance->DR;
 1106              		.loc 1 822 0
 1107 0276 7B68     		ldr	r3, [r7, #4]
 1108 0278 5A1C     		adds	r2, r3, #1
ARM GAS  /var/folders/kh/x4vltyy52lbg7p4pcyglc5080000gp/T//cccbl2Nm.s 			page 36


 1109 027a 7A60     		str	r2, [r7, #4]
 1110 027c FA68     		ldr	r2, [r7, #12]
 1111 027e 1268     		ldr	r2, [r2]
 1112 0280 1269     		ldr	r2, [r2, #16]
 1113 0282 D2B2     		uxtb	r2, r2
 1114 0284 1A70     		strb	r2, [r3]
 823:Drivers/STM32F1xx_HAL_Driver/Src/stm32f1xx_hal_i2c.c ****           Size--;
 1115              		.loc 1 823 0
 1116 0286 3B89     		ldrh	r3, [r7, #8]
 1117 0288 013B     		subs	r3, r3, #1
 1118 028a 3B81     		strh	r3, [r7, #8]	@ movhi
 1119 028c 30E0     		b	.L43
 1120              	.L57:
 1121 028e 00BF     		.align	2
 1122              	.L56:
 1123 0290 02001000 		.word	1048578
 1124 0294 04000100 		.word	65540
 1125              	.L44:
 824:Drivers/STM32F1xx_HAL_Driver/Src/stm32f1xx_hal_i2c.c ****         }
 825:Drivers/STM32F1xx_HAL_Driver/Src/stm32f1xx_hal_i2c.c ****       }
 826:Drivers/STM32F1xx_HAL_Driver/Src/stm32f1xx_hal_i2c.c ****       else
 827:Drivers/STM32F1xx_HAL_Driver/Src/stm32f1xx_hal_i2c.c ****       {
 828:Drivers/STM32F1xx_HAL_Driver/Src/stm32f1xx_hal_i2c.c ****         /* Wait until RXNE flag is set */
 829:Drivers/STM32F1xx_HAL_Driver/Src/stm32f1xx_hal_i2c.c ****         if(I2C_WaitOnRXNEFlagUntilTimeout(hi2c, Timeout) != HAL_OK)      
 1126              		.loc 1 829 0
 1127 0298 B96A     		ldr	r1, [r7, #40]
 1128 029a F868     		ldr	r0, [r7, #12]
 1129 029c FFF7FEFF 		bl	I2C_WaitOnRXNEFlagUntilTimeout
 1130 02a0 0346     		mov	r3, r0
 1131 02a2 002B     		cmp	r3, #0
 1132 02a4 07D0     		beq	.L53
 830:Drivers/STM32F1xx_HAL_Driver/Src/stm32f1xx_hal_i2c.c ****         {
 831:Drivers/STM32F1xx_HAL_Driver/Src/stm32f1xx_hal_i2c.c ****           if(hi2c->ErrorCode == HAL_I2C_ERROR_TIMEOUT)
 1133              		.loc 1 831 0
 1134 02a6 FB68     		ldr	r3, [r7, #12]
 1135 02a8 9B6B     		ldr	r3, [r3, #56]
 1136 02aa 202B     		cmp	r3, #32
 1137 02ac 01D1     		bne	.L54
 832:Drivers/STM32F1xx_HAL_Driver/Src/stm32f1xx_hal_i2c.c ****           {
 833:Drivers/STM32F1xx_HAL_Driver/Src/stm32f1xx_hal_i2c.c ****             return HAL_TIMEOUT;
 1138              		.loc 1 833 0
 1139 02ae 0323     		movs	r3, #3
 1140 02b0 31E0     		b	.L35
 1141              	.L54:
 834:Drivers/STM32F1xx_HAL_Driver/Src/stm32f1xx_hal_i2c.c ****           }
 835:Drivers/STM32F1xx_HAL_Driver/Src/stm32f1xx_hal_i2c.c ****           else
 836:Drivers/STM32F1xx_HAL_Driver/Src/stm32f1xx_hal_i2c.c ****           {
 837:Drivers/STM32F1xx_HAL_Driver/Src/stm32f1xx_hal_i2c.c ****             return HAL_ERROR;
 1142              		.loc 1 837 0
 1143 02b2 0123     		movs	r3, #1
 1144 02b4 2FE0     		b	.L35
 1145              	.L53:
 838:Drivers/STM32F1xx_HAL_Driver/Src/stm32f1xx_hal_i2c.c ****           }
 839:Drivers/STM32F1xx_HAL_Driver/Src/stm32f1xx_hal_i2c.c ****         }
 840:Drivers/STM32F1xx_HAL_Driver/Src/stm32f1xx_hal_i2c.c **** 
 841:Drivers/STM32F1xx_HAL_Driver/Src/stm32f1xx_hal_i2c.c ****         /* Read data from DR */
 842:Drivers/STM32F1xx_HAL_Driver/Src/stm32f1xx_hal_i2c.c ****         (*pData++) = hi2c->Instance->DR;
ARM GAS  /var/folders/kh/x4vltyy52lbg7p4pcyglc5080000gp/T//cccbl2Nm.s 			page 37


 1146              		.loc 1 842 0
 1147 02b6 7B68     		ldr	r3, [r7, #4]
 1148 02b8 5A1C     		adds	r2, r3, #1
 1149 02ba 7A60     		str	r2, [r7, #4]
 1150 02bc FA68     		ldr	r2, [r7, #12]
 1151 02be 1268     		ldr	r2, [r2]
 1152 02c0 1269     		ldr	r2, [r2, #16]
 1153 02c2 D2B2     		uxtb	r2, r2
 1154 02c4 1A70     		strb	r2, [r3]
 843:Drivers/STM32F1xx_HAL_Driver/Src/stm32f1xx_hal_i2c.c ****         Size--;
 1155              		.loc 1 843 0
 1156 02c6 3B89     		ldrh	r3, [r7, #8]
 1157 02c8 013B     		subs	r3, r3, #1
 1158 02ca 3B81     		strh	r3, [r7, #8]	@ movhi
 844:Drivers/STM32F1xx_HAL_Driver/Src/stm32f1xx_hal_i2c.c **** 
 845:Drivers/STM32F1xx_HAL_Driver/Src/stm32f1xx_hal_i2c.c ****         if(__HAL_I2C_GET_FLAG(hi2c, I2C_FLAG_BTF) == SET)
 1159              		.loc 1 845 0
 1160 02cc FB68     		ldr	r3, [r7, #12]
 1161 02ce 1B68     		ldr	r3, [r3]
 1162 02d0 5B69     		ldr	r3, [r3, #20]
 1163 02d2 03F00403 		and	r3, r3, #4
 1164 02d6 002B     		cmp	r3, #0
 1165 02d8 0AD0     		beq	.L43
 846:Drivers/STM32F1xx_HAL_Driver/Src/stm32f1xx_hal_i2c.c ****         {
 847:Drivers/STM32F1xx_HAL_Driver/Src/stm32f1xx_hal_i2c.c ****           /* Read data from DR */
 848:Drivers/STM32F1xx_HAL_Driver/Src/stm32f1xx_hal_i2c.c ****           (*pData++) = hi2c->Instance->DR;
 1166              		.loc 1 848 0
 1167 02da 7B68     		ldr	r3, [r7, #4]
 1168 02dc 5A1C     		adds	r2, r3, #1
 1169 02de 7A60     		str	r2, [r7, #4]
 1170 02e0 FA68     		ldr	r2, [r7, #12]
 1171 02e2 1268     		ldr	r2, [r2]
 1172 02e4 1269     		ldr	r2, [r2, #16]
 1173 02e6 D2B2     		uxtb	r2, r2
 1174 02e8 1A70     		strb	r2, [r3]
 849:Drivers/STM32F1xx_HAL_Driver/Src/stm32f1xx_hal_i2c.c ****           Size--;
 1175              		.loc 1 849 0
 1176 02ea 3B89     		ldrh	r3, [r7, #8]
 1177 02ec 013B     		subs	r3, r3, #1
 1178 02ee 3B81     		strh	r3, [r7, #8]	@ movhi
 1179              	.L43:
 734:Drivers/STM32F1xx_HAL_Driver/Src/stm32f1xx_hal_i2c.c ****     {
 1180              		.loc 1 734 0
 1181 02f0 3B89     		ldrh	r3, [r7, #8]
 1182 02f2 002B     		cmp	r3, #0
 1183 02f4 7FF430AF 		bne	.L55
 850:Drivers/STM32F1xx_HAL_Driver/Src/stm32f1xx_hal_i2c.c ****         }
 851:Drivers/STM32F1xx_HAL_Driver/Src/stm32f1xx_hal_i2c.c ****       }
 852:Drivers/STM32F1xx_HAL_Driver/Src/stm32f1xx_hal_i2c.c ****     }
 853:Drivers/STM32F1xx_HAL_Driver/Src/stm32f1xx_hal_i2c.c **** 
 854:Drivers/STM32F1xx_HAL_Driver/Src/stm32f1xx_hal_i2c.c ****     hi2c->State = HAL_I2C_STATE_READY;
 1184              		.loc 1 854 0
 1185 02f8 FB68     		ldr	r3, [r7, #12]
 1186 02fa 2022     		movs	r2, #32
 1187 02fc 83F83520 		strb	r2, [r3, #53]
 855:Drivers/STM32F1xx_HAL_Driver/Src/stm32f1xx_hal_i2c.c ****     hi2c->Mode = HAL_I2C_MODE_NONE;
 1188              		.loc 1 855 0
ARM GAS  /var/folders/kh/x4vltyy52lbg7p4pcyglc5080000gp/T//cccbl2Nm.s 			page 38


 1189 0300 FB68     		ldr	r3, [r7, #12]
 1190 0302 0022     		movs	r2, #0
 1191 0304 83F83620 		strb	r2, [r3, #54]
 856:Drivers/STM32F1xx_HAL_Driver/Src/stm32f1xx_hal_i2c.c **** 
 857:Drivers/STM32F1xx_HAL_Driver/Src/stm32f1xx_hal_i2c.c ****     /* Process Unlocked */
 858:Drivers/STM32F1xx_HAL_Driver/Src/stm32f1xx_hal_i2c.c ****     __HAL_UNLOCK(hi2c);
 1192              		.loc 1 858 0
 1193 0308 FB68     		ldr	r3, [r7, #12]
 1194 030a 0022     		movs	r2, #0
 1195 030c 83F83420 		strb	r2, [r3, #52]
 859:Drivers/STM32F1xx_HAL_Driver/Src/stm32f1xx_hal_i2c.c **** 
 860:Drivers/STM32F1xx_HAL_Driver/Src/stm32f1xx_hal_i2c.c ****     return HAL_OK;
 1196              		.loc 1 860 0
 1197 0310 0023     		movs	r3, #0
 1198 0312 00E0     		b	.L35
 1199              	.L32:
 861:Drivers/STM32F1xx_HAL_Driver/Src/stm32f1xx_hal_i2c.c ****   }
 862:Drivers/STM32F1xx_HAL_Driver/Src/stm32f1xx_hal_i2c.c ****   else
 863:Drivers/STM32F1xx_HAL_Driver/Src/stm32f1xx_hal_i2c.c ****   {
 864:Drivers/STM32F1xx_HAL_Driver/Src/stm32f1xx_hal_i2c.c ****     return HAL_BUSY;
 1200              		.loc 1 864 0
 1201 0314 0223     		movs	r3, #2
 1202              	.L35:
 865:Drivers/STM32F1xx_HAL_Driver/Src/stm32f1xx_hal_i2c.c ****   }
 866:Drivers/STM32F1xx_HAL_Driver/Src/stm32f1xx_hal_i2c.c **** }
 1203              		.loc 1 866 0
 1204 0316 1846     		mov	r0, r3
 1205 0318 2037     		adds	r7, r7, #32
 1206              	.LCFI30:
 1207              		.cfi_def_cfa_offset 8
 1208 031a BD46     		mov	sp, r7
 1209              	.LCFI31:
 1210              		.cfi_def_cfa_register 13
 1211              		@ sp needed
 1212 031c 80BD     		pop	{r7, pc}
 1213              		.cfi_endproc
 1214              	.LFE69:
 1216 031e 00BF     		.section	.text.HAL_I2C_Slave_Transmit,"ax",%progbits
 1217              		.align	2
 1218              		.global	HAL_I2C_Slave_Transmit
 1219              		.thumb
 1220              		.thumb_func
 1222              	HAL_I2C_Slave_Transmit:
 1223              	.LFB70:
 867:Drivers/STM32F1xx_HAL_Driver/Src/stm32f1xx_hal_i2c.c **** 
 868:Drivers/STM32F1xx_HAL_Driver/Src/stm32f1xx_hal_i2c.c **** /**
 869:Drivers/STM32F1xx_HAL_Driver/Src/stm32f1xx_hal_i2c.c ****   * @brief  Transmits in slave mode an amount of data in blocking mode. 
 870:Drivers/STM32F1xx_HAL_Driver/Src/stm32f1xx_hal_i2c.c ****   * @param  hi2c Pointer to a I2C_HandleTypeDef structure that contains
 871:Drivers/STM32F1xx_HAL_Driver/Src/stm32f1xx_hal_i2c.c ****   *                the configuration information for the specified I2C.
 872:Drivers/STM32F1xx_HAL_Driver/Src/stm32f1xx_hal_i2c.c ****   * @param  pData Pointer to data buffer
 873:Drivers/STM32F1xx_HAL_Driver/Src/stm32f1xx_hal_i2c.c ****   * @param  Size Amount of data to be sent
 874:Drivers/STM32F1xx_HAL_Driver/Src/stm32f1xx_hal_i2c.c ****   * @param  Timeout Timeout duration
 875:Drivers/STM32F1xx_HAL_Driver/Src/stm32f1xx_hal_i2c.c ****   * @retval HAL status
 876:Drivers/STM32F1xx_HAL_Driver/Src/stm32f1xx_hal_i2c.c ****   */
 877:Drivers/STM32F1xx_HAL_Driver/Src/stm32f1xx_hal_i2c.c **** HAL_StatusTypeDef HAL_I2C_Slave_Transmit(I2C_HandleTypeDef *hi2c, uint8_t *pData, uint16_t Size, ui
 878:Drivers/STM32F1xx_HAL_Driver/Src/stm32f1xx_hal_i2c.c **** {
 1224              		.loc 1 878 0
ARM GAS  /var/folders/kh/x4vltyy52lbg7p4pcyglc5080000gp/T//cccbl2Nm.s 			page 39


 1225              		.cfi_startproc
 1226              		@ args = 0, pretend = 0, frame = 24
 1227              		@ frame_needed = 1, uses_anonymous_args = 0
 1228 0000 80B5     		push	{r7, lr}
 1229              	.LCFI32:
 1230              		.cfi_def_cfa_offset 8
 1231              		.cfi_offset 7, -8
 1232              		.cfi_offset 14, -4
 1233 0002 86B0     		sub	sp, sp, #24
 1234              	.LCFI33:
 1235              		.cfi_def_cfa_offset 32
 1236 0004 00AF     		add	r7, sp, #0
 1237              	.LCFI34:
 1238              		.cfi_def_cfa_register 7
 1239 0006 F860     		str	r0, [r7, #12]
 1240 0008 B960     		str	r1, [r7, #8]
 1241 000a 3B60     		str	r3, [r7]
 1242 000c 1346     		mov	r3, r2	@ movhi
 1243 000e FB80     		strh	r3, [r7, #6]	@ movhi
 879:Drivers/STM32F1xx_HAL_Driver/Src/stm32f1xx_hal_i2c.c ****   if(hi2c->State == HAL_I2C_STATE_READY)
 1244              		.loc 1 879 0
 1245 0010 FB68     		ldr	r3, [r7, #12]
 1246 0012 93F83530 		ldrb	r3, [r3, #53]
 1247 0016 DBB2     		uxtb	r3, r3
 1248 0018 202B     		cmp	r3, #32
 1249 001a 40F0CA80 		bne	.L59
 880:Drivers/STM32F1xx_HAL_Driver/Src/stm32f1xx_hal_i2c.c ****   {
 881:Drivers/STM32F1xx_HAL_Driver/Src/stm32f1xx_hal_i2c.c ****     if((pData == NULL) || (Size == 0))
 1250              		.loc 1 881 0
 1251 001e BB68     		ldr	r3, [r7, #8]
 1252 0020 002B     		cmp	r3, #0
 1253 0022 02D0     		beq	.L60
 1254              		.loc 1 881 0 is_stmt 0 discriminator 1
 1255 0024 FB88     		ldrh	r3, [r7, #6]
 1256 0026 002B     		cmp	r3, #0
 1257 0028 01D1     		bne	.L61
 1258              	.L60:
 882:Drivers/STM32F1xx_HAL_Driver/Src/stm32f1xx_hal_i2c.c ****     {
 883:Drivers/STM32F1xx_HAL_Driver/Src/stm32f1xx_hal_i2c.c ****       return  HAL_ERROR;
 1259              		.loc 1 883 0 is_stmt 1
 1260 002a 0123     		movs	r3, #1
 1261 002c C2E0     		b	.L62
 1262              	.L61:
 884:Drivers/STM32F1xx_HAL_Driver/Src/stm32f1xx_hal_i2c.c ****     }
 885:Drivers/STM32F1xx_HAL_Driver/Src/stm32f1xx_hal_i2c.c **** 
 886:Drivers/STM32F1xx_HAL_Driver/Src/stm32f1xx_hal_i2c.c ****     /* Wait until BUSY flag is reset */
 887:Drivers/STM32F1xx_HAL_Driver/Src/stm32f1xx_hal_i2c.c ****     if(I2C_WaitOnFlagUntilTimeout(hi2c, I2C_FLAG_BUSY, SET, I2C_TIMEOUT_BUSY_FLAG) != HAL_OK)
 1263              		.loc 1 887 0
 1264 002e 42F21073 		movw	r3, #10000
 1265 0032 0122     		movs	r2, #1
 1266 0034 6149     		ldr	r1, .L73
 1267 0036 F868     		ldr	r0, [r7, #12]
 1268 0038 FFF7FEFF 		bl	I2C_WaitOnFlagUntilTimeout
 1269 003c 0346     		mov	r3, r0
 1270 003e 002B     		cmp	r3, #0
 1271 0040 01D0     		beq	.L63
 888:Drivers/STM32F1xx_HAL_Driver/Src/stm32f1xx_hal_i2c.c ****     {
ARM GAS  /var/folders/kh/x4vltyy52lbg7p4pcyglc5080000gp/T//cccbl2Nm.s 			page 40


 889:Drivers/STM32F1xx_HAL_Driver/Src/stm32f1xx_hal_i2c.c ****       return HAL_BUSY;
 1272              		.loc 1 889 0
 1273 0042 0223     		movs	r3, #2
 1274 0044 B6E0     		b	.L62
 1275              	.L63:
 890:Drivers/STM32F1xx_HAL_Driver/Src/stm32f1xx_hal_i2c.c ****     }
 891:Drivers/STM32F1xx_HAL_Driver/Src/stm32f1xx_hal_i2c.c **** 
 892:Drivers/STM32F1xx_HAL_Driver/Src/stm32f1xx_hal_i2c.c ****     /* Process Locked */
 893:Drivers/STM32F1xx_HAL_Driver/Src/stm32f1xx_hal_i2c.c ****     __HAL_LOCK(hi2c);
 1276              		.loc 1 893 0
 1277 0046 FB68     		ldr	r3, [r7, #12]
 1278 0048 93F83430 		ldrb	r3, [r3, #52]	@ zero_extendqisi2
 1279 004c 012B     		cmp	r3, #1
 1280 004e 01D1     		bne	.L64
 1281              		.loc 1 893 0 is_stmt 0 discriminator 1
 1282 0050 0223     		movs	r3, #2
 1283 0052 AFE0     		b	.L62
 1284              	.L64:
 1285              		.loc 1 893 0 discriminator 2
 1286 0054 FB68     		ldr	r3, [r7, #12]
 1287 0056 0122     		movs	r2, #1
 1288 0058 83F83420 		strb	r2, [r3, #52]
 894:Drivers/STM32F1xx_HAL_Driver/Src/stm32f1xx_hal_i2c.c **** 
 895:Drivers/STM32F1xx_HAL_Driver/Src/stm32f1xx_hal_i2c.c ****     /* Disable Pos */
 896:Drivers/STM32F1xx_HAL_Driver/Src/stm32f1xx_hal_i2c.c ****     CLEAR_BIT(hi2c->Instance->CR1, I2C_CR1_POS);
 1289              		.loc 1 896 0 is_stmt 1 discriminator 2
 1290 005c FB68     		ldr	r3, [r7, #12]
 1291 005e 1B68     		ldr	r3, [r3]
 1292 0060 FA68     		ldr	r2, [r7, #12]
 1293 0062 1268     		ldr	r2, [r2]
 1294 0064 1268     		ldr	r2, [r2]
 1295 0066 22F40062 		bic	r2, r2, #2048
 1296 006a 1A60     		str	r2, [r3]
 897:Drivers/STM32F1xx_HAL_Driver/Src/stm32f1xx_hal_i2c.c **** 
 898:Drivers/STM32F1xx_HAL_Driver/Src/stm32f1xx_hal_i2c.c ****     hi2c->State = HAL_I2C_STATE_BUSY_TX;
 1297              		.loc 1 898 0 discriminator 2
 1298 006c FB68     		ldr	r3, [r7, #12]
 1299 006e 2122     		movs	r2, #33
 1300 0070 83F83520 		strb	r2, [r3, #53]
 899:Drivers/STM32F1xx_HAL_Driver/Src/stm32f1xx_hal_i2c.c ****     hi2c->Mode = HAL_I2C_MODE_SLAVE;
 1301              		.loc 1 899 0 discriminator 2
 1302 0074 FB68     		ldr	r3, [r7, #12]
 1303 0076 2022     		movs	r2, #32
 1304 0078 83F83620 		strb	r2, [r3, #54]
 900:Drivers/STM32F1xx_HAL_Driver/Src/stm32f1xx_hal_i2c.c ****     hi2c->ErrorCode = HAL_I2C_ERROR_NONE;
 1305              		.loc 1 900 0 discriminator 2
 1306 007c FB68     		ldr	r3, [r7, #12]
 1307 007e 0022     		movs	r2, #0
 1308 0080 9A63     		str	r2, [r3, #56]
 901:Drivers/STM32F1xx_HAL_Driver/Src/stm32f1xx_hal_i2c.c **** 
 902:Drivers/STM32F1xx_HAL_Driver/Src/stm32f1xx_hal_i2c.c ****     /* Enable Address Acknowledge */
 903:Drivers/STM32F1xx_HAL_Driver/Src/stm32f1xx_hal_i2c.c ****     SET_BIT(hi2c->Instance->CR1, I2C_CR1_ACK);
 1309              		.loc 1 903 0 discriminator 2
 1310 0082 FB68     		ldr	r3, [r7, #12]
 1311 0084 1B68     		ldr	r3, [r3]
 1312 0086 FA68     		ldr	r2, [r7, #12]
 1313 0088 1268     		ldr	r2, [r2]
ARM GAS  /var/folders/kh/x4vltyy52lbg7p4pcyglc5080000gp/T//cccbl2Nm.s 			page 41


 1314 008a 1268     		ldr	r2, [r2]
 1315 008c 42F48062 		orr	r2, r2, #1024
 1316 0090 1A60     		str	r2, [r3]
 904:Drivers/STM32F1xx_HAL_Driver/Src/stm32f1xx_hal_i2c.c **** 
 905:Drivers/STM32F1xx_HAL_Driver/Src/stm32f1xx_hal_i2c.c ****     /* Wait until ADDR flag is set */
 906:Drivers/STM32F1xx_HAL_Driver/Src/stm32f1xx_hal_i2c.c ****     if(I2C_WaitOnFlagUntilTimeout(hi2c, I2C_FLAG_ADDR, RESET, Timeout) != HAL_OK)
 1317              		.loc 1 906 0 discriminator 2
 1318 0092 3B68     		ldr	r3, [r7]
 1319 0094 0022     		movs	r2, #0
 1320 0096 4A49     		ldr	r1, .L73+4
 1321 0098 F868     		ldr	r0, [r7, #12]
 1322 009a FFF7FEFF 		bl	I2C_WaitOnFlagUntilTimeout
 1323 009e 0346     		mov	r3, r0
 1324 00a0 002B     		cmp	r3, #0
 1325 00a2 01D0     		beq	.L65
 907:Drivers/STM32F1xx_HAL_Driver/Src/stm32f1xx_hal_i2c.c ****     {
 908:Drivers/STM32F1xx_HAL_Driver/Src/stm32f1xx_hal_i2c.c ****       return HAL_TIMEOUT;
 1326              		.loc 1 908 0
 1327 00a4 0323     		movs	r3, #3
 1328 00a6 85E0     		b	.L62
 1329              	.L65:
 1330              	.LBB60:
 909:Drivers/STM32F1xx_HAL_Driver/Src/stm32f1xx_hal_i2c.c ****     }
 910:Drivers/STM32F1xx_HAL_Driver/Src/stm32f1xx_hal_i2c.c **** 
 911:Drivers/STM32F1xx_HAL_Driver/Src/stm32f1xx_hal_i2c.c ****     /* Clear ADDR flag */
 912:Drivers/STM32F1xx_HAL_Driver/Src/stm32f1xx_hal_i2c.c ****     __HAL_I2C_CLEAR_ADDRFLAG(hi2c);
 1331              		.loc 1 912 0
 1332 00a8 FB68     		ldr	r3, [r7, #12]
 1333 00aa 1B68     		ldr	r3, [r3]
 1334 00ac 5B69     		ldr	r3, [r3, #20]
 1335 00ae 7B61     		str	r3, [r7, #20]
 1336 00b0 FB68     		ldr	r3, [r7, #12]
 1337 00b2 1B68     		ldr	r3, [r3]
 1338 00b4 9B69     		ldr	r3, [r3, #24]
 1339 00b6 7B61     		str	r3, [r7, #20]
 1340 00b8 7B69     		ldr	r3, [r7, #20]
 1341              	.LBE60:
 913:Drivers/STM32F1xx_HAL_Driver/Src/stm32f1xx_hal_i2c.c **** 
 914:Drivers/STM32F1xx_HAL_Driver/Src/stm32f1xx_hal_i2c.c ****     /* If 10bit addressing mode is selected */
 915:Drivers/STM32F1xx_HAL_Driver/Src/stm32f1xx_hal_i2c.c ****     if(hi2c->Init.AddressingMode == I2C_ADDRESSINGMODE_10BIT)
 1342              		.loc 1 915 0
 1343 00ba FB68     		ldr	r3, [r7, #12]
 1344 00bc 1B69     		ldr	r3, [r3, #16]
 1345 00be B3F5404F 		cmp	r3, #49152
 1346 00c2 49D1     		bne	.L68
 916:Drivers/STM32F1xx_HAL_Driver/Src/stm32f1xx_hal_i2c.c ****     {
 917:Drivers/STM32F1xx_HAL_Driver/Src/stm32f1xx_hal_i2c.c ****       /* Wait until ADDR flag is set */
 918:Drivers/STM32F1xx_HAL_Driver/Src/stm32f1xx_hal_i2c.c ****       if(I2C_WaitOnFlagUntilTimeout(hi2c, I2C_FLAG_ADDR, RESET, Timeout) != HAL_OK)
 1347              		.loc 1 918 0
 1348 00c4 3B68     		ldr	r3, [r7]
 1349 00c6 0022     		movs	r2, #0
 1350 00c8 3D49     		ldr	r1, .L73+4
 1351 00ca F868     		ldr	r0, [r7, #12]
 1352 00cc FFF7FEFF 		bl	I2C_WaitOnFlagUntilTimeout
 1353 00d0 0346     		mov	r3, r0
 1354 00d2 002B     		cmp	r3, #0
 1355 00d4 01D0     		beq	.L67
ARM GAS  /var/folders/kh/x4vltyy52lbg7p4pcyglc5080000gp/T//cccbl2Nm.s 			page 42


 919:Drivers/STM32F1xx_HAL_Driver/Src/stm32f1xx_hal_i2c.c ****       {
 920:Drivers/STM32F1xx_HAL_Driver/Src/stm32f1xx_hal_i2c.c ****         return HAL_TIMEOUT;
 1356              		.loc 1 920 0
 1357 00d6 0323     		movs	r3, #3
 1358 00d8 6CE0     		b	.L62
 1359              	.L67:
 1360              	.LBB61:
 921:Drivers/STM32F1xx_HAL_Driver/Src/stm32f1xx_hal_i2c.c ****       }
 922:Drivers/STM32F1xx_HAL_Driver/Src/stm32f1xx_hal_i2c.c **** 
 923:Drivers/STM32F1xx_HAL_Driver/Src/stm32f1xx_hal_i2c.c ****       /* Clear ADDR flag */
 924:Drivers/STM32F1xx_HAL_Driver/Src/stm32f1xx_hal_i2c.c ****       __HAL_I2C_CLEAR_ADDRFLAG(hi2c);
 1361              		.loc 1 924 0
 1362 00da FB68     		ldr	r3, [r7, #12]
 1363 00dc 1B68     		ldr	r3, [r3]
 1364 00de 5B69     		ldr	r3, [r3, #20]
 1365 00e0 3B61     		str	r3, [r7, #16]
 1366 00e2 FB68     		ldr	r3, [r7, #12]
 1367 00e4 1B68     		ldr	r3, [r3]
 1368 00e6 9B69     		ldr	r3, [r3, #24]
 1369 00e8 3B61     		str	r3, [r7, #16]
 1370 00ea 3B69     		ldr	r3, [r7, #16]
 1371              	.LBE61:
 925:Drivers/STM32F1xx_HAL_Driver/Src/stm32f1xx_hal_i2c.c ****     }
 926:Drivers/STM32F1xx_HAL_Driver/Src/stm32f1xx_hal_i2c.c **** 
 927:Drivers/STM32F1xx_HAL_Driver/Src/stm32f1xx_hal_i2c.c ****     while(Size > 0)
 1372              		.loc 1 927 0
 1373 00ec 34E0     		b	.L68
 1374              	.L71:
 928:Drivers/STM32F1xx_HAL_Driver/Src/stm32f1xx_hal_i2c.c ****     {
 929:Drivers/STM32F1xx_HAL_Driver/Src/stm32f1xx_hal_i2c.c ****       /* Wait until TXE flag is set */
 930:Drivers/STM32F1xx_HAL_Driver/Src/stm32f1xx_hal_i2c.c ****       if(I2C_WaitOnTXEFlagUntilTimeout(hi2c, Timeout) != HAL_OK)
 1375              		.loc 1 930 0
 1376 00ee 3968     		ldr	r1, [r7]
 1377 00f0 F868     		ldr	r0, [r7, #12]
 1378 00f2 FFF7FEFF 		bl	I2C_WaitOnTXEFlagUntilTimeout
 1379 00f6 0346     		mov	r3, r0
 1380 00f8 002B     		cmp	r3, #0
 1381 00fa 0FD0     		beq	.L69
 931:Drivers/STM32F1xx_HAL_Driver/Src/stm32f1xx_hal_i2c.c ****       {
 932:Drivers/STM32F1xx_HAL_Driver/Src/stm32f1xx_hal_i2c.c ****         /* Disable Address Acknowledge */
 933:Drivers/STM32F1xx_HAL_Driver/Src/stm32f1xx_hal_i2c.c ****         CLEAR_BIT(hi2c->Instance->CR1, I2C_CR1_ACK);
 1382              		.loc 1 933 0
 1383 00fc FB68     		ldr	r3, [r7, #12]
 1384 00fe 1B68     		ldr	r3, [r3]
 1385 0100 FA68     		ldr	r2, [r7, #12]
 1386 0102 1268     		ldr	r2, [r2]
 1387 0104 1268     		ldr	r2, [r2]
 1388 0106 22F48062 		bic	r2, r2, #1024
 1389 010a 1A60     		str	r2, [r3]
 934:Drivers/STM32F1xx_HAL_Driver/Src/stm32f1xx_hal_i2c.c ****         if(hi2c->ErrorCode == HAL_I2C_ERROR_AF)
 1390              		.loc 1 934 0
 1391 010c FB68     		ldr	r3, [r7, #12]
 1392 010e 9B6B     		ldr	r3, [r3, #56]
 1393 0110 042B     		cmp	r3, #4
 1394 0112 01D1     		bne	.L70
 935:Drivers/STM32F1xx_HAL_Driver/Src/stm32f1xx_hal_i2c.c ****         {
 936:Drivers/STM32F1xx_HAL_Driver/Src/stm32f1xx_hal_i2c.c ****           return HAL_ERROR;
ARM GAS  /var/folders/kh/x4vltyy52lbg7p4pcyglc5080000gp/T//cccbl2Nm.s 			page 43


 1395              		.loc 1 936 0
 1396 0114 0123     		movs	r3, #1
 1397 0116 4DE0     		b	.L62
 1398              	.L70:
 937:Drivers/STM32F1xx_HAL_Driver/Src/stm32f1xx_hal_i2c.c ****         }
 938:Drivers/STM32F1xx_HAL_Driver/Src/stm32f1xx_hal_i2c.c ****         else
 939:Drivers/STM32F1xx_HAL_Driver/Src/stm32f1xx_hal_i2c.c ****         {
 940:Drivers/STM32F1xx_HAL_Driver/Src/stm32f1xx_hal_i2c.c ****           return HAL_TIMEOUT;
 1399              		.loc 1 940 0
 1400 0118 0323     		movs	r3, #3
 1401 011a 4BE0     		b	.L62
 1402              	.L69:
 941:Drivers/STM32F1xx_HAL_Driver/Src/stm32f1xx_hal_i2c.c ****         }
 942:Drivers/STM32F1xx_HAL_Driver/Src/stm32f1xx_hal_i2c.c ****       }
 943:Drivers/STM32F1xx_HAL_Driver/Src/stm32f1xx_hal_i2c.c **** 
 944:Drivers/STM32F1xx_HAL_Driver/Src/stm32f1xx_hal_i2c.c ****       /* Write data to DR */
 945:Drivers/STM32F1xx_HAL_Driver/Src/stm32f1xx_hal_i2c.c ****       hi2c->Instance->DR = (*pData++);
 1403              		.loc 1 945 0
 1404 011c FB68     		ldr	r3, [r7, #12]
 1405 011e 1A68     		ldr	r2, [r3]
 1406 0120 BB68     		ldr	r3, [r7, #8]
 1407 0122 591C     		adds	r1, r3, #1
 1408 0124 B960     		str	r1, [r7, #8]
 1409 0126 1B78     		ldrb	r3, [r3]	@ zero_extendqisi2
 1410 0128 1361     		str	r3, [r2, #16]
 946:Drivers/STM32F1xx_HAL_Driver/Src/stm32f1xx_hal_i2c.c ****       Size--;
 1411              		.loc 1 946 0
 1412 012a FB88     		ldrh	r3, [r7, #6]
 1413 012c 013B     		subs	r3, r3, #1
 1414 012e FB80     		strh	r3, [r7, #6]	@ movhi
 947:Drivers/STM32F1xx_HAL_Driver/Src/stm32f1xx_hal_i2c.c **** 
 948:Drivers/STM32F1xx_HAL_Driver/Src/stm32f1xx_hal_i2c.c ****       if((__HAL_I2C_GET_FLAG(hi2c, I2C_FLAG_BTF) == SET) && (Size != 0))
 1415              		.loc 1 948 0
 1416 0130 FB68     		ldr	r3, [r7, #12]
 1417 0132 1B68     		ldr	r3, [r3]
 1418 0134 5B69     		ldr	r3, [r3, #20]
 1419 0136 03F00403 		and	r3, r3, #4
 1420 013a 002B     		cmp	r3, #0
 1421 013c 0CD0     		beq	.L68
 1422              		.loc 1 948 0 is_stmt 0 discriminator 1
 1423 013e FB88     		ldrh	r3, [r7, #6]
 1424 0140 002B     		cmp	r3, #0
 1425 0142 09D0     		beq	.L68
 949:Drivers/STM32F1xx_HAL_Driver/Src/stm32f1xx_hal_i2c.c ****       {
 950:Drivers/STM32F1xx_HAL_Driver/Src/stm32f1xx_hal_i2c.c ****         /* Write data to DR */
 951:Drivers/STM32F1xx_HAL_Driver/Src/stm32f1xx_hal_i2c.c ****         hi2c->Instance->DR = (*pData++);
 1426              		.loc 1 951 0 is_stmt 1
 1427 0144 FB68     		ldr	r3, [r7, #12]
 1428 0146 1A68     		ldr	r2, [r3]
 1429 0148 BB68     		ldr	r3, [r7, #8]
 1430 014a 591C     		adds	r1, r3, #1
 1431 014c B960     		str	r1, [r7, #8]
 1432 014e 1B78     		ldrb	r3, [r3]	@ zero_extendqisi2
 1433 0150 1361     		str	r3, [r2, #16]
 952:Drivers/STM32F1xx_HAL_Driver/Src/stm32f1xx_hal_i2c.c ****         Size--;
 1434              		.loc 1 952 0
 1435 0152 FB88     		ldrh	r3, [r7, #6]
ARM GAS  /var/folders/kh/x4vltyy52lbg7p4pcyglc5080000gp/T//cccbl2Nm.s 			page 44


 1436 0154 013B     		subs	r3, r3, #1
 1437 0156 FB80     		strh	r3, [r7, #6]	@ movhi
 1438              	.L68:
 927:Drivers/STM32F1xx_HAL_Driver/Src/stm32f1xx_hal_i2c.c ****     {
 1439              		.loc 1 927 0
 1440 0158 FB88     		ldrh	r3, [r7, #6]
 1441 015a 002B     		cmp	r3, #0
 1442 015c C7D1     		bne	.L71
 953:Drivers/STM32F1xx_HAL_Driver/Src/stm32f1xx_hal_i2c.c ****       }
 954:Drivers/STM32F1xx_HAL_Driver/Src/stm32f1xx_hal_i2c.c ****     }
 955:Drivers/STM32F1xx_HAL_Driver/Src/stm32f1xx_hal_i2c.c **** 
 956:Drivers/STM32F1xx_HAL_Driver/Src/stm32f1xx_hal_i2c.c ****     /* Wait until AF flag is set */
 957:Drivers/STM32F1xx_HAL_Driver/Src/stm32f1xx_hal_i2c.c ****     if(I2C_WaitOnFlagUntilTimeout(hi2c, I2C_FLAG_AF, RESET, Timeout) != HAL_OK)
 1443              		.loc 1 957 0
 1444 015e 3B68     		ldr	r3, [r7]
 1445 0160 0022     		movs	r2, #0
 1446 0162 4FF48231 		mov	r1, #66560
 1447 0166 F868     		ldr	r0, [r7, #12]
 1448 0168 FFF7FEFF 		bl	I2C_WaitOnFlagUntilTimeout
 1449 016c 0346     		mov	r3, r0
 1450 016e 002B     		cmp	r3, #0
 1451 0170 01D0     		beq	.L72
 958:Drivers/STM32F1xx_HAL_Driver/Src/stm32f1xx_hal_i2c.c ****     {
 959:Drivers/STM32F1xx_HAL_Driver/Src/stm32f1xx_hal_i2c.c ****       return HAL_TIMEOUT;
 1452              		.loc 1 959 0
 1453 0172 0323     		movs	r3, #3
 1454 0174 1EE0     		b	.L62
 1455              	.L72:
 960:Drivers/STM32F1xx_HAL_Driver/Src/stm32f1xx_hal_i2c.c ****     }
 961:Drivers/STM32F1xx_HAL_Driver/Src/stm32f1xx_hal_i2c.c **** 
 962:Drivers/STM32F1xx_HAL_Driver/Src/stm32f1xx_hal_i2c.c ****     /* Clear AF flag */
 963:Drivers/STM32F1xx_HAL_Driver/Src/stm32f1xx_hal_i2c.c ****     __HAL_I2C_CLEAR_FLAG(hi2c, I2C_FLAG_AF);
 1456              		.loc 1 963 0
 1457 0176 FB68     		ldr	r3, [r7, #12]
 1458 0178 1B68     		ldr	r3, [r3]
 1459 017a FA68     		ldr	r2, [r7, #12]
 1460 017c 1268     		ldr	r2, [r2]
 1461 017e 5269     		ldr	r2, [r2, #20]
 1462 0180 22F48062 		bic	r2, r2, #1024
 1463 0184 5A61     		str	r2, [r3, #20]
 964:Drivers/STM32F1xx_HAL_Driver/Src/stm32f1xx_hal_i2c.c **** 
 965:Drivers/STM32F1xx_HAL_Driver/Src/stm32f1xx_hal_i2c.c ****     /* Disable Address Acknowledge */
 966:Drivers/STM32F1xx_HAL_Driver/Src/stm32f1xx_hal_i2c.c ****     CLEAR_BIT(hi2c->Instance->CR1, I2C_CR1_ACK);
 1464              		.loc 1 966 0
 1465 0186 FB68     		ldr	r3, [r7, #12]
 1466 0188 1B68     		ldr	r3, [r3]
 1467 018a FA68     		ldr	r2, [r7, #12]
 1468 018c 1268     		ldr	r2, [r2]
 1469 018e 1268     		ldr	r2, [r2]
 1470 0190 22F48062 		bic	r2, r2, #1024
 1471 0194 1A60     		str	r2, [r3]
 967:Drivers/STM32F1xx_HAL_Driver/Src/stm32f1xx_hal_i2c.c **** 
 968:Drivers/STM32F1xx_HAL_Driver/Src/stm32f1xx_hal_i2c.c ****     hi2c->State = HAL_I2C_STATE_READY;
 1472              		.loc 1 968 0
 1473 0196 FB68     		ldr	r3, [r7, #12]
 1474 0198 2022     		movs	r2, #32
 1475 019a 83F83520 		strb	r2, [r3, #53]
ARM GAS  /var/folders/kh/x4vltyy52lbg7p4pcyglc5080000gp/T//cccbl2Nm.s 			page 45


 969:Drivers/STM32F1xx_HAL_Driver/Src/stm32f1xx_hal_i2c.c ****     hi2c->Mode = HAL_I2C_MODE_NONE;
 1476              		.loc 1 969 0
 1477 019e FB68     		ldr	r3, [r7, #12]
 1478 01a0 0022     		movs	r2, #0
 1479 01a2 83F83620 		strb	r2, [r3, #54]
 970:Drivers/STM32F1xx_HAL_Driver/Src/stm32f1xx_hal_i2c.c **** 
 971:Drivers/STM32F1xx_HAL_Driver/Src/stm32f1xx_hal_i2c.c ****     /* Process Unlocked */
 972:Drivers/STM32F1xx_HAL_Driver/Src/stm32f1xx_hal_i2c.c ****     __HAL_UNLOCK(hi2c);
 1480              		.loc 1 972 0
 1481 01a6 FB68     		ldr	r3, [r7, #12]
 1482 01a8 0022     		movs	r2, #0
 1483 01aa 83F83420 		strb	r2, [r3, #52]
 973:Drivers/STM32F1xx_HAL_Driver/Src/stm32f1xx_hal_i2c.c **** 
 974:Drivers/STM32F1xx_HAL_Driver/Src/stm32f1xx_hal_i2c.c ****     return HAL_OK;
 1484              		.loc 1 974 0
 1485 01ae 0023     		movs	r3, #0
 1486 01b0 00E0     		b	.L62
 1487              	.L59:
 975:Drivers/STM32F1xx_HAL_Driver/Src/stm32f1xx_hal_i2c.c ****   }
 976:Drivers/STM32F1xx_HAL_Driver/Src/stm32f1xx_hal_i2c.c ****   else
 977:Drivers/STM32F1xx_HAL_Driver/Src/stm32f1xx_hal_i2c.c ****   {
 978:Drivers/STM32F1xx_HAL_Driver/Src/stm32f1xx_hal_i2c.c ****     return HAL_BUSY;
 1488              		.loc 1 978 0
 1489 01b2 0223     		movs	r3, #2
 1490              	.L62:
 979:Drivers/STM32F1xx_HAL_Driver/Src/stm32f1xx_hal_i2c.c ****   }
 980:Drivers/STM32F1xx_HAL_Driver/Src/stm32f1xx_hal_i2c.c **** }
 1491              		.loc 1 980 0
 1492 01b4 1846     		mov	r0, r3
 1493 01b6 1837     		adds	r7, r7, #24
 1494              	.LCFI35:
 1495              		.cfi_def_cfa_offset 8
 1496 01b8 BD46     		mov	sp, r7
 1497              	.LCFI36:
 1498              		.cfi_def_cfa_register 13
 1499              		@ sp needed
 1500 01ba 80BD     		pop	{r7, pc}
 1501              	.L74:
 1502              		.align	2
 1503              	.L73:
 1504 01bc 02001000 		.word	1048578
 1505 01c0 02000100 		.word	65538
 1506              		.cfi_endproc
 1507              	.LFE70:
 1509              		.section	.text.HAL_I2C_Slave_Receive,"ax",%progbits
 1510              		.align	2
 1511              		.global	HAL_I2C_Slave_Receive
 1512              		.thumb
 1513              		.thumb_func
 1515              	HAL_I2C_Slave_Receive:
 1516              	.LFB71:
 981:Drivers/STM32F1xx_HAL_Driver/Src/stm32f1xx_hal_i2c.c **** 
 982:Drivers/STM32F1xx_HAL_Driver/Src/stm32f1xx_hal_i2c.c **** /**
 983:Drivers/STM32F1xx_HAL_Driver/Src/stm32f1xx_hal_i2c.c ****   * @brief  Receive in slave mode an amount of data in blocking mode 
 984:Drivers/STM32F1xx_HAL_Driver/Src/stm32f1xx_hal_i2c.c ****   * @param  hi2c Pointer to a I2C_HandleTypeDef structure that contains
 985:Drivers/STM32F1xx_HAL_Driver/Src/stm32f1xx_hal_i2c.c ****   *                the configuration information for the specified I2C.
 986:Drivers/STM32F1xx_HAL_Driver/Src/stm32f1xx_hal_i2c.c ****   * @param  pData Pointer to data buffer
ARM GAS  /var/folders/kh/x4vltyy52lbg7p4pcyglc5080000gp/T//cccbl2Nm.s 			page 46


 987:Drivers/STM32F1xx_HAL_Driver/Src/stm32f1xx_hal_i2c.c ****   * @param  Size Amount of data to be sent
 988:Drivers/STM32F1xx_HAL_Driver/Src/stm32f1xx_hal_i2c.c ****   * @param  Timeout Timeout duration
 989:Drivers/STM32F1xx_HAL_Driver/Src/stm32f1xx_hal_i2c.c ****   * @retval HAL status
 990:Drivers/STM32F1xx_HAL_Driver/Src/stm32f1xx_hal_i2c.c ****   */
 991:Drivers/STM32F1xx_HAL_Driver/Src/stm32f1xx_hal_i2c.c **** HAL_StatusTypeDef HAL_I2C_Slave_Receive(I2C_HandleTypeDef *hi2c, uint8_t *pData, uint16_t Size, uin
 992:Drivers/STM32F1xx_HAL_Driver/Src/stm32f1xx_hal_i2c.c **** {
 1517              		.loc 1 992 0
 1518              		.cfi_startproc
 1519              		@ args = 0, pretend = 0, frame = 24
 1520              		@ frame_needed = 1, uses_anonymous_args = 0
 1521 0000 80B5     		push	{r7, lr}
 1522              	.LCFI37:
 1523              		.cfi_def_cfa_offset 8
 1524              		.cfi_offset 7, -8
 1525              		.cfi_offset 14, -4
 1526 0002 86B0     		sub	sp, sp, #24
 1527              	.LCFI38:
 1528              		.cfi_def_cfa_offset 32
 1529 0004 00AF     		add	r7, sp, #0
 1530              	.LCFI39:
 1531              		.cfi_def_cfa_register 7
 1532 0006 F860     		str	r0, [r7, #12]
 1533 0008 B960     		str	r1, [r7, #8]
 1534 000a 3B60     		str	r3, [r7]
 1535 000c 1346     		mov	r3, r2	@ movhi
 1536 000e FB80     		strh	r3, [r7, #6]	@ movhi
 993:Drivers/STM32F1xx_HAL_Driver/Src/stm32f1xx_hal_i2c.c ****   if(hi2c->State == HAL_I2C_STATE_READY)
 1537              		.loc 1 993 0
 1538 0010 FB68     		ldr	r3, [r7, #12]
 1539 0012 93F83530 		ldrb	r3, [r3, #53]
 1540 0016 DBB2     		uxtb	r3, r3
 1541 0018 202B     		cmp	r3, #32
 1542 001a 40F0C480 		bne	.L76
 994:Drivers/STM32F1xx_HAL_Driver/Src/stm32f1xx_hal_i2c.c ****   {
 995:Drivers/STM32F1xx_HAL_Driver/Src/stm32f1xx_hal_i2c.c ****     if((pData == NULL) || (Size == 0))
 1543              		.loc 1 995 0
 1544 001e BB68     		ldr	r3, [r7, #8]
 1545 0020 002B     		cmp	r3, #0
 1546 0022 02D0     		beq	.L77
 1547              		.loc 1 995 0 is_stmt 0 discriminator 1
 1548 0024 FB88     		ldrh	r3, [r7, #6]
 1549 0026 002B     		cmp	r3, #0
 1550 0028 01D1     		bne	.L78
 1551              	.L77:
 996:Drivers/STM32F1xx_HAL_Driver/Src/stm32f1xx_hal_i2c.c ****     {
 997:Drivers/STM32F1xx_HAL_Driver/Src/stm32f1xx_hal_i2c.c ****       return  HAL_ERROR;
 1552              		.loc 1 997 0 is_stmt 1
 1553 002a 0123     		movs	r3, #1
 1554 002c BCE0     		b	.L79
 1555              	.L78:
 998:Drivers/STM32F1xx_HAL_Driver/Src/stm32f1xx_hal_i2c.c ****     }
 999:Drivers/STM32F1xx_HAL_Driver/Src/stm32f1xx_hal_i2c.c **** 
1000:Drivers/STM32F1xx_HAL_Driver/Src/stm32f1xx_hal_i2c.c ****     /* Wait until BUSY flag is reset */
1001:Drivers/STM32F1xx_HAL_Driver/Src/stm32f1xx_hal_i2c.c ****     if(I2C_WaitOnFlagUntilTimeout(hi2c, I2C_FLAG_BUSY, SET, I2C_TIMEOUT_BUSY_FLAG) != HAL_OK)
 1556              		.loc 1 1001 0
 1557 002e 42F21073 		movw	r3, #10000
 1558 0032 0122     		movs	r2, #1
ARM GAS  /var/folders/kh/x4vltyy52lbg7p4pcyglc5080000gp/T//cccbl2Nm.s 			page 47


 1559 0034 5E49     		ldr	r1, .L89
 1560 0036 F868     		ldr	r0, [r7, #12]
 1561 0038 FFF7FEFF 		bl	I2C_WaitOnFlagUntilTimeout
 1562 003c 0346     		mov	r3, r0
 1563 003e 002B     		cmp	r3, #0
 1564 0040 01D0     		beq	.L80
1002:Drivers/STM32F1xx_HAL_Driver/Src/stm32f1xx_hal_i2c.c ****     {
1003:Drivers/STM32F1xx_HAL_Driver/Src/stm32f1xx_hal_i2c.c ****       return HAL_BUSY;
 1565              		.loc 1 1003 0
 1566 0042 0223     		movs	r3, #2
 1567 0044 B0E0     		b	.L79
 1568              	.L80:
1004:Drivers/STM32F1xx_HAL_Driver/Src/stm32f1xx_hal_i2c.c ****     }
1005:Drivers/STM32F1xx_HAL_Driver/Src/stm32f1xx_hal_i2c.c **** 
1006:Drivers/STM32F1xx_HAL_Driver/Src/stm32f1xx_hal_i2c.c ****     /* Process Locked */
1007:Drivers/STM32F1xx_HAL_Driver/Src/stm32f1xx_hal_i2c.c ****     __HAL_LOCK(hi2c);
 1569              		.loc 1 1007 0
 1570 0046 FB68     		ldr	r3, [r7, #12]
 1571 0048 93F83430 		ldrb	r3, [r3, #52]	@ zero_extendqisi2
 1572 004c 012B     		cmp	r3, #1
 1573 004e 01D1     		bne	.L81
 1574              		.loc 1 1007 0 is_stmt 0 discriminator 1
 1575 0050 0223     		movs	r3, #2
 1576 0052 A9E0     		b	.L79
 1577              	.L81:
 1578              		.loc 1 1007 0 discriminator 2
 1579 0054 FB68     		ldr	r3, [r7, #12]
 1580 0056 0122     		movs	r2, #1
 1581 0058 83F83420 		strb	r2, [r3, #52]
1008:Drivers/STM32F1xx_HAL_Driver/Src/stm32f1xx_hal_i2c.c **** 
1009:Drivers/STM32F1xx_HAL_Driver/Src/stm32f1xx_hal_i2c.c ****     /* Disable Pos */
1010:Drivers/STM32F1xx_HAL_Driver/Src/stm32f1xx_hal_i2c.c ****     CLEAR_BIT(hi2c->Instance->CR1, I2C_CR1_POS);
 1582              		.loc 1 1010 0 is_stmt 1 discriminator 2
 1583 005c FB68     		ldr	r3, [r7, #12]
 1584 005e 1B68     		ldr	r3, [r3]
 1585 0060 FA68     		ldr	r2, [r7, #12]
 1586 0062 1268     		ldr	r2, [r2]
 1587 0064 1268     		ldr	r2, [r2]
 1588 0066 22F40062 		bic	r2, r2, #2048
 1589 006a 1A60     		str	r2, [r3]
1011:Drivers/STM32F1xx_HAL_Driver/Src/stm32f1xx_hal_i2c.c **** 
1012:Drivers/STM32F1xx_HAL_Driver/Src/stm32f1xx_hal_i2c.c ****     hi2c->State = HAL_I2C_STATE_BUSY_RX;
 1590              		.loc 1 1012 0 discriminator 2
 1591 006c FB68     		ldr	r3, [r7, #12]
 1592 006e 2222     		movs	r2, #34
 1593 0070 83F83520 		strb	r2, [r3, #53]
1013:Drivers/STM32F1xx_HAL_Driver/Src/stm32f1xx_hal_i2c.c ****     hi2c->Mode = HAL_I2C_MODE_SLAVE;
 1594              		.loc 1 1013 0 discriminator 2
 1595 0074 FB68     		ldr	r3, [r7, #12]
 1596 0076 2022     		movs	r2, #32
 1597 0078 83F83620 		strb	r2, [r3, #54]
1014:Drivers/STM32F1xx_HAL_Driver/Src/stm32f1xx_hal_i2c.c ****     hi2c->ErrorCode = HAL_I2C_ERROR_NONE;
 1598              		.loc 1 1014 0 discriminator 2
 1599 007c FB68     		ldr	r3, [r7, #12]
 1600 007e 0022     		movs	r2, #0
 1601 0080 9A63     		str	r2, [r3, #56]
1015:Drivers/STM32F1xx_HAL_Driver/Src/stm32f1xx_hal_i2c.c **** 
ARM GAS  /var/folders/kh/x4vltyy52lbg7p4pcyglc5080000gp/T//cccbl2Nm.s 			page 48


1016:Drivers/STM32F1xx_HAL_Driver/Src/stm32f1xx_hal_i2c.c ****     /* Enable Address Acknowledge */
1017:Drivers/STM32F1xx_HAL_Driver/Src/stm32f1xx_hal_i2c.c ****     SET_BIT(hi2c->Instance->CR1, I2C_CR1_ACK);
 1602              		.loc 1 1017 0 discriminator 2
 1603 0082 FB68     		ldr	r3, [r7, #12]
 1604 0084 1B68     		ldr	r3, [r3]
 1605 0086 FA68     		ldr	r2, [r7, #12]
 1606 0088 1268     		ldr	r2, [r2]
 1607 008a 1268     		ldr	r2, [r2]
 1608 008c 42F48062 		orr	r2, r2, #1024
 1609 0090 1A60     		str	r2, [r3]
1018:Drivers/STM32F1xx_HAL_Driver/Src/stm32f1xx_hal_i2c.c **** 
1019:Drivers/STM32F1xx_HAL_Driver/Src/stm32f1xx_hal_i2c.c ****     /* Wait until ADDR flag is set */
1020:Drivers/STM32F1xx_HAL_Driver/Src/stm32f1xx_hal_i2c.c ****     if(I2C_WaitOnFlagUntilTimeout(hi2c, I2C_FLAG_ADDR, RESET, Timeout) != HAL_OK)
 1610              		.loc 1 1020 0 discriminator 2
 1611 0092 3B68     		ldr	r3, [r7]
 1612 0094 0022     		movs	r2, #0
 1613 0096 4749     		ldr	r1, .L89+4
 1614 0098 F868     		ldr	r0, [r7, #12]
 1615 009a FFF7FEFF 		bl	I2C_WaitOnFlagUntilTimeout
 1616 009e 0346     		mov	r3, r0
 1617 00a0 002B     		cmp	r3, #0
 1618 00a2 01D0     		beq	.L82
1021:Drivers/STM32F1xx_HAL_Driver/Src/stm32f1xx_hal_i2c.c ****     {
1022:Drivers/STM32F1xx_HAL_Driver/Src/stm32f1xx_hal_i2c.c ****       return HAL_TIMEOUT;
 1619              		.loc 1 1022 0
 1620 00a4 0323     		movs	r3, #3
 1621 00a6 7FE0     		b	.L79
 1622              	.L82:
 1623              	.LBB62:
1023:Drivers/STM32F1xx_HAL_Driver/Src/stm32f1xx_hal_i2c.c ****     }
1024:Drivers/STM32F1xx_HAL_Driver/Src/stm32f1xx_hal_i2c.c **** 
1025:Drivers/STM32F1xx_HAL_Driver/Src/stm32f1xx_hal_i2c.c ****     /* Clear ADDR flag */
1026:Drivers/STM32F1xx_HAL_Driver/Src/stm32f1xx_hal_i2c.c ****     __HAL_I2C_CLEAR_ADDRFLAG(hi2c);
 1624              		.loc 1 1026 0
 1625 00a8 FB68     		ldr	r3, [r7, #12]
 1626 00aa 1B68     		ldr	r3, [r3]
 1627 00ac 5B69     		ldr	r3, [r3, #20]
 1628 00ae 7B61     		str	r3, [r7, #20]
 1629 00b0 FB68     		ldr	r3, [r7, #12]
 1630 00b2 1B68     		ldr	r3, [r3]
 1631 00b4 9B69     		ldr	r3, [r3, #24]
 1632 00b6 7B61     		str	r3, [r7, #20]
 1633 00b8 7B69     		ldr	r3, [r7, #20]
 1634              	.LBE62:
1027:Drivers/STM32F1xx_HAL_Driver/Src/stm32f1xx_hal_i2c.c **** 
1028:Drivers/STM32F1xx_HAL_Driver/Src/stm32f1xx_hal_i2c.c ****     while(Size > 0)
 1635              		.loc 1 1028 0
 1636 00ba 36E0     		b	.L83
 1637              	.L86:
1029:Drivers/STM32F1xx_HAL_Driver/Src/stm32f1xx_hal_i2c.c ****     {
1030:Drivers/STM32F1xx_HAL_Driver/Src/stm32f1xx_hal_i2c.c ****       /* Wait until RXNE flag is set */
1031:Drivers/STM32F1xx_HAL_Driver/Src/stm32f1xx_hal_i2c.c ****       if(I2C_WaitOnRXNEFlagUntilTimeout(hi2c, Timeout) != HAL_OK)      
 1638              		.loc 1 1031 0
 1639 00bc 3968     		ldr	r1, [r7]
 1640 00be F868     		ldr	r0, [r7, #12]
 1641 00c0 FFF7FEFF 		bl	I2C_WaitOnRXNEFlagUntilTimeout
 1642 00c4 0346     		mov	r3, r0
ARM GAS  /var/folders/kh/x4vltyy52lbg7p4pcyglc5080000gp/T//cccbl2Nm.s 			page 49


 1643 00c6 002B     		cmp	r3, #0
 1644 00c8 0FD0     		beq	.L84
1032:Drivers/STM32F1xx_HAL_Driver/Src/stm32f1xx_hal_i2c.c ****       {
1033:Drivers/STM32F1xx_HAL_Driver/Src/stm32f1xx_hal_i2c.c ****         /* Disable Address Acknowledge */
1034:Drivers/STM32F1xx_HAL_Driver/Src/stm32f1xx_hal_i2c.c ****         hi2c->Instance->CR1 &= ~I2C_CR1_ACK;
 1645              		.loc 1 1034 0
 1646 00ca FB68     		ldr	r3, [r7, #12]
 1647 00cc 1B68     		ldr	r3, [r3]
 1648 00ce FA68     		ldr	r2, [r7, #12]
 1649 00d0 1268     		ldr	r2, [r2]
 1650 00d2 1268     		ldr	r2, [r2]
 1651 00d4 22F48062 		bic	r2, r2, #1024
 1652 00d8 1A60     		str	r2, [r3]
1035:Drivers/STM32F1xx_HAL_Driver/Src/stm32f1xx_hal_i2c.c ****         if(hi2c->ErrorCode == HAL_I2C_ERROR_TIMEOUT)
 1653              		.loc 1 1035 0
 1654 00da FB68     		ldr	r3, [r7, #12]
 1655 00dc 9B6B     		ldr	r3, [r3, #56]
 1656 00de 202B     		cmp	r3, #32
 1657 00e0 01D1     		bne	.L85
1036:Drivers/STM32F1xx_HAL_Driver/Src/stm32f1xx_hal_i2c.c ****         {
1037:Drivers/STM32F1xx_HAL_Driver/Src/stm32f1xx_hal_i2c.c ****           return HAL_TIMEOUT;
 1658              		.loc 1 1037 0
 1659 00e2 0323     		movs	r3, #3
 1660 00e4 60E0     		b	.L79
 1661              	.L85:
1038:Drivers/STM32F1xx_HAL_Driver/Src/stm32f1xx_hal_i2c.c ****         }
1039:Drivers/STM32F1xx_HAL_Driver/Src/stm32f1xx_hal_i2c.c ****         else
1040:Drivers/STM32F1xx_HAL_Driver/Src/stm32f1xx_hal_i2c.c ****         {
1041:Drivers/STM32F1xx_HAL_Driver/Src/stm32f1xx_hal_i2c.c ****           return HAL_ERROR;
 1662              		.loc 1 1041 0
 1663 00e6 0123     		movs	r3, #1
 1664 00e8 5EE0     		b	.L79
 1665              	.L84:
1042:Drivers/STM32F1xx_HAL_Driver/Src/stm32f1xx_hal_i2c.c ****         }
1043:Drivers/STM32F1xx_HAL_Driver/Src/stm32f1xx_hal_i2c.c ****       }
1044:Drivers/STM32F1xx_HAL_Driver/Src/stm32f1xx_hal_i2c.c **** 
1045:Drivers/STM32F1xx_HAL_Driver/Src/stm32f1xx_hal_i2c.c ****       /* Read data from DR */
1046:Drivers/STM32F1xx_HAL_Driver/Src/stm32f1xx_hal_i2c.c ****       (*pData++) = hi2c->Instance->DR;
 1666              		.loc 1 1046 0
 1667 00ea BB68     		ldr	r3, [r7, #8]
 1668 00ec 5A1C     		adds	r2, r3, #1
 1669 00ee BA60     		str	r2, [r7, #8]
 1670 00f0 FA68     		ldr	r2, [r7, #12]
 1671 00f2 1268     		ldr	r2, [r2]
 1672 00f4 1269     		ldr	r2, [r2, #16]
 1673 00f6 D2B2     		uxtb	r2, r2
 1674 00f8 1A70     		strb	r2, [r3]
1047:Drivers/STM32F1xx_HAL_Driver/Src/stm32f1xx_hal_i2c.c ****       Size--;
 1675              		.loc 1 1047 0
 1676 00fa FB88     		ldrh	r3, [r7, #6]
 1677 00fc 013B     		subs	r3, r3, #1
 1678 00fe FB80     		strh	r3, [r7, #6]	@ movhi
1048:Drivers/STM32F1xx_HAL_Driver/Src/stm32f1xx_hal_i2c.c **** 
1049:Drivers/STM32F1xx_HAL_Driver/Src/stm32f1xx_hal_i2c.c ****       if((__HAL_I2C_GET_FLAG(hi2c, I2C_FLAG_BTF) == SET) && (Size != 0))
 1679              		.loc 1 1049 0
 1680 0100 FB68     		ldr	r3, [r7, #12]
 1681 0102 1B68     		ldr	r3, [r3]
ARM GAS  /var/folders/kh/x4vltyy52lbg7p4pcyglc5080000gp/T//cccbl2Nm.s 			page 50


 1682 0104 5B69     		ldr	r3, [r3, #20]
 1683 0106 03F00403 		and	r3, r3, #4
 1684 010a 002B     		cmp	r3, #0
 1685 010c 0DD0     		beq	.L83
 1686              		.loc 1 1049 0 is_stmt 0 discriminator 1
 1687 010e FB88     		ldrh	r3, [r7, #6]
 1688 0110 002B     		cmp	r3, #0
 1689 0112 0AD0     		beq	.L83
1050:Drivers/STM32F1xx_HAL_Driver/Src/stm32f1xx_hal_i2c.c ****       {
1051:Drivers/STM32F1xx_HAL_Driver/Src/stm32f1xx_hal_i2c.c ****         /* Read data from DR */
1052:Drivers/STM32F1xx_HAL_Driver/Src/stm32f1xx_hal_i2c.c ****         (*pData++) = hi2c->Instance->DR;
 1690              		.loc 1 1052 0 is_stmt 1
 1691 0114 BB68     		ldr	r3, [r7, #8]
 1692 0116 5A1C     		adds	r2, r3, #1
 1693 0118 BA60     		str	r2, [r7, #8]
 1694 011a FA68     		ldr	r2, [r7, #12]
 1695 011c 1268     		ldr	r2, [r2]
 1696 011e 1269     		ldr	r2, [r2, #16]
 1697 0120 D2B2     		uxtb	r2, r2
 1698 0122 1A70     		strb	r2, [r3]
1053:Drivers/STM32F1xx_HAL_Driver/Src/stm32f1xx_hal_i2c.c ****         Size--;
 1699              		.loc 1 1053 0
 1700 0124 FB88     		ldrh	r3, [r7, #6]
 1701 0126 013B     		subs	r3, r3, #1
 1702 0128 FB80     		strh	r3, [r7, #6]	@ movhi
 1703              	.L83:
1028:Drivers/STM32F1xx_HAL_Driver/Src/stm32f1xx_hal_i2c.c ****     {
 1704              		.loc 1 1028 0
 1705 012a FB88     		ldrh	r3, [r7, #6]
 1706 012c 002B     		cmp	r3, #0
 1707 012e C5D1     		bne	.L86
1054:Drivers/STM32F1xx_HAL_Driver/Src/stm32f1xx_hal_i2c.c ****       }
1055:Drivers/STM32F1xx_HAL_Driver/Src/stm32f1xx_hal_i2c.c ****     }
1056:Drivers/STM32F1xx_HAL_Driver/Src/stm32f1xx_hal_i2c.c **** 
1057:Drivers/STM32F1xx_HAL_Driver/Src/stm32f1xx_hal_i2c.c ****     /* Wait until STOP flag is set */
1058:Drivers/STM32F1xx_HAL_Driver/Src/stm32f1xx_hal_i2c.c ****     if(I2C_WaitOnSTOPFlagUntilTimeout(hi2c, I2C_TIMEOUT_FLAG) != HAL_OK)
 1708              		.loc 1 1058 0
 1709 0130 2321     		movs	r1, #35
 1710 0132 F868     		ldr	r0, [r7, #12]
 1711 0134 FFF7FEFF 		bl	I2C_WaitOnSTOPFlagUntilTimeout
 1712 0138 0346     		mov	r3, r0
 1713 013a 002B     		cmp	r3, #0
 1714 013c 0FD0     		beq	.L87
1059:Drivers/STM32F1xx_HAL_Driver/Src/stm32f1xx_hal_i2c.c ****     {
1060:Drivers/STM32F1xx_HAL_Driver/Src/stm32f1xx_hal_i2c.c ****       /* Disable Address Acknowledge */
1061:Drivers/STM32F1xx_HAL_Driver/Src/stm32f1xx_hal_i2c.c ****       hi2c->Instance->CR1 &= ~I2C_CR1_ACK;
 1715              		.loc 1 1061 0
 1716 013e FB68     		ldr	r3, [r7, #12]
 1717 0140 1B68     		ldr	r3, [r3]
 1718 0142 FA68     		ldr	r2, [r7, #12]
 1719 0144 1268     		ldr	r2, [r2]
 1720 0146 1268     		ldr	r2, [r2]
 1721 0148 22F48062 		bic	r2, r2, #1024
 1722 014c 1A60     		str	r2, [r3]
1062:Drivers/STM32F1xx_HAL_Driver/Src/stm32f1xx_hal_i2c.c **** 
1063:Drivers/STM32F1xx_HAL_Driver/Src/stm32f1xx_hal_i2c.c ****       if(hi2c->ErrorCode == HAL_I2C_ERROR_AF)
 1723              		.loc 1 1063 0
ARM GAS  /var/folders/kh/x4vltyy52lbg7p4pcyglc5080000gp/T//cccbl2Nm.s 			page 51


 1724 014e FB68     		ldr	r3, [r7, #12]
 1725 0150 9B6B     		ldr	r3, [r3, #56]
 1726 0152 042B     		cmp	r3, #4
 1727 0154 01D1     		bne	.L88
1064:Drivers/STM32F1xx_HAL_Driver/Src/stm32f1xx_hal_i2c.c ****       {
1065:Drivers/STM32F1xx_HAL_Driver/Src/stm32f1xx_hal_i2c.c ****         return HAL_ERROR;
 1728              		.loc 1 1065 0
 1729 0156 0123     		movs	r3, #1
 1730 0158 26E0     		b	.L79
 1731              	.L88:
1066:Drivers/STM32F1xx_HAL_Driver/Src/stm32f1xx_hal_i2c.c ****       }
1067:Drivers/STM32F1xx_HAL_Driver/Src/stm32f1xx_hal_i2c.c ****       else
1068:Drivers/STM32F1xx_HAL_Driver/Src/stm32f1xx_hal_i2c.c ****       {
1069:Drivers/STM32F1xx_HAL_Driver/Src/stm32f1xx_hal_i2c.c ****         return HAL_TIMEOUT;
 1732              		.loc 1 1069 0
 1733 015a 0323     		movs	r3, #3
 1734 015c 24E0     		b	.L79
 1735              	.L87:
 1736              	.LBB63:
1070:Drivers/STM32F1xx_HAL_Driver/Src/stm32f1xx_hal_i2c.c ****       }
1071:Drivers/STM32F1xx_HAL_Driver/Src/stm32f1xx_hal_i2c.c ****     }
1072:Drivers/STM32F1xx_HAL_Driver/Src/stm32f1xx_hal_i2c.c **** 
1073:Drivers/STM32F1xx_HAL_Driver/Src/stm32f1xx_hal_i2c.c ****     /* Clear STOP flag */
1074:Drivers/STM32F1xx_HAL_Driver/Src/stm32f1xx_hal_i2c.c ****     __HAL_I2C_CLEAR_STOPFLAG(hi2c);
 1737              		.loc 1 1074 0
 1738 015e FB68     		ldr	r3, [r7, #12]
 1739 0160 1B68     		ldr	r3, [r3]
 1740 0162 5B69     		ldr	r3, [r3, #20]
 1741 0164 3B61     		str	r3, [r7, #16]
 1742 0166 FB68     		ldr	r3, [r7, #12]
 1743 0168 1A68     		ldr	r2, [r3]
 1744 016a FB68     		ldr	r3, [r7, #12]
 1745 016c 1B68     		ldr	r3, [r3]
 1746 016e 1B68     		ldr	r3, [r3]
 1747 0170 43F00103 		orr	r3, r3, #1
 1748 0174 1360     		str	r3, [r2]
 1749 0176 3B61     		str	r3, [r7, #16]
 1750 0178 3B69     		ldr	r3, [r7, #16]
 1751              	.LBE63:
1075:Drivers/STM32F1xx_HAL_Driver/Src/stm32f1xx_hal_i2c.c **** 
1076:Drivers/STM32F1xx_HAL_Driver/Src/stm32f1xx_hal_i2c.c ****     /* Disable Address Acknowledge */
1077:Drivers/STM32F1xx_HAL_Driver/Src/stm32f1xx_hal_i2c.c ****     CLEAR_BIT(hi2c->Instance->CR1, I2C_CR1_ACK);
 1752              		.loc 1 1077 0
 1753 017a FB68     		ldr	r3, [r7, #12]
 1754 017c 1B68     		ldr	r3, [r3]
 1755 017e FA68     		ldr	r2, [r7, #12]
 1756 0180 1268     		ldr	r2, [r2]
 1757 0182 1268     		ldr	r2, [r2]
 1758 0184 22F48062 		bic	r2, r2, #1024
 1759 0188 1A60     		str	r2, [r3]
1078:Drivers/STM32F1xx_HAL_Driver/Src/stm32f1xx_hal_i2c.c **** 
1079:Drivers/STM32F1xx_HAL_Driver/Src/stm32f1xx_hal_i2c.c ****     hi2c->State = HAL_I2C_STATE_READY;
 1760              		.loc 1 1079 0
 1761 018a FB68     		ldr	r3, [r7, #12]
 1762 018c 2022     		movs	r2, #32
 1763 018e 83F83520 		strb	r2, [r3, #53]
1080:Drivers/STM32F1xx_HAL_Driver/Src/stm32f1xx_hal_i2c.c ****     hi2c->Mode = HAL_I2C_MODE_NONE;
ARM GAS  /var/folders/kh/x4vltyy52lbg7p4pcyglc5080000gp/T//cccbl2Nm.s 			page 52


 1764              		.loc 1 1080 0
 1765 0192 FB68     		ldr	r3, [r7, #12]
 1766 0194 0022     		movs	r2, #0
 1767 0196 83F83620 		strb	r2, [r3, #54]
1081:Drivers/STM32F1xx_HAL_Driver/Src/stm32f1xx_hal_i2c.c **** 
1082:Drivers/STM32F1xx_HAL_Driver/Src/stm32f1xx_hal_i2c.c ****     /* Process Unlocked */
1083:Drivers/STM32F1xx_HAL_Driver/Src/stm32f1xx_hal_i2c.c ****     __HAL_UNLOCK(hi2c);
 1768              		.loc 1 1083 0
 1769 019a FB68     		ldr	r3, [r7, #12]
 1770 019c 0022     		movs	r2, #0
 1771 019e 83F83420 		strb	r2, [r3, #52]
1084:Drivers/STM32F1xx_HAL_Driver/Src/stm32f1xx_hal_i2c.c **** 
1085:Drivers/STM32F1xx_HAL_Driver/Src/stm32f1xx_hal_i2c.c ****     return HAL_OK;
 1772              		.loc 1 1085 0
 1773 01a2 0023     		movs	r3, #0
 1774 01a4 00E0     		b	.L79
 1775              	.L76:
1086:Drivers/STM32F1xx_HAL_Driver/Src/stm32f1xx_hal_i2c.c ****   }
1087:Drivers/STM32F1xx_HAL_Driver/Src/stm32f1xx_hal_i2c.c ****   else
1088:Drivers/STM32F1xx_HAL_Driver/Src/stm32f1xx_hal_i2c.c ****   {
1089:Drivers/STM32F1xx_HAL_Driver/Src/stm32f1xx_hal_i2c.c ****     return HAL_BUSY;
 1776              		.loc 1 1089 0
 1777 01a6 0223     		movs	r3, #2
 1778              	.L79:
1090:Drivers/STM32F1xx_HAL_Driver/Src/stm32f1xx_hal_i2c.c ****   }
1091:Drivers/STM32F1xx_HAL_Driver/Src/stm32f1xx_hal_i2c.c **** }
 1779              		.loc 1 1091 0
 1780 01a8 1846     		mov	r0, r3
 1781 01aa 1837     		adds	r7, r7, #24
 1782              	.LCFI40:
 1783              		.cfi_def_cfa_offset 8
 1784 01ac BD46     		mov	sp, r7
 1785              	.LCFI41:
 1786              		.cfi_def_cfa_register 13
 1787              		@ sp needed
 1788 01ae 80BD     		pop	{r7, pc}
 1789              	.L90:
 1790              		.align	2
 1791              	.L89:
 1792 01b0 02001000 		.word	1048578
 1793 01b4 02000100 		.word	65538
 1794              		.cfi_endproc
 1795              	.LFE71:
 1797              		.section	.text.HAL_I2C_Master_Transmit_IT,"ax",%progbits
 1798              		.align	2
 1799              		.global	HAL_I2C_Master_Transmit_IT
 1800              		.thumb
 1801              		.thumb_func
 1803              	HAL_I2C_Master_Transmit_IT:
 1804              	.LFB72:
1092:Drivers/STM32F1xx_HAL_Driver/Src/stm32f1xx_hal_i2c.c **** 
1093:Drivers/STM32F1xx_HAL_Driver/Src/stm32f1xx_hal_i2c.c **** /**
1094:Drivers/STM32F1xx_HAL_Driver/Src/stm32f1xx_hal_i2c.c ****   * @brief  Transmit in master mode an amount of data in non-blocking mode with Interrupt
1095:Drivers/STM32F1xx_HAL_Driver/Src/stm32f1xx_hal_i2c.c ****   * @param  hi2c Pointer to a I2C_HandleTypeDef structure that contains
1096:Drivers/STM32F1xx_HAL_Driver/Src/stm32f1xx_hal_i2c.c ****   *                the configuration information for the specified I2C.
1097:Drivers/STM32F1xx_HAL_Driver/Src/stm32f1xx_hal_i2c.c ****   * @param  DevAddress Target device address
1098:Drivers/STM32F1xx_HAL_Driver/Src/stm32f1xx_hal_i2c.c ****   * @param  pData Pointer to data buffer
ARM GAS  /var/folders/kh/x4vltyy52lbg7p4pcyglc5080000gp/T//cccbl2Nm.s 			page 53


1099:Drivers/STM32F1xx_HAL_Driver/Src/stm32f1xx_hal_i2c.c ****   * @param  Size Amount of data to be sent
1100:Drivers/STM32F1xx_HAL_Driver/Src/stm32f1xx_hal_i2c.c ****   * @retval HAL status
1101:Drivers/STM32F1xx_HAL_Driver/Src/stm32f1xx_hal_i2c.c ****   */
1102:Drivers/STM32F1xx_HAL_Driver/Src/stm32f1xx_hal_i2c.c **** HAL_StatusTypeDef HAL_I2C_Master_Transmit_IT(I2C_HandleTypeDef *hi2c, uint16_t DevAddress, uint8_t 
1103:Drivers/STM32F1xx_HAL_Driver/Src/stm32f1xx_hal_i2c.c **** {
 1805              		.loc 1 1103 0
 1806              		.cfi_startproc
 1807              		@ args = 0, pretend = 0, frame = 24
 1808              		@ frame_needed = 1, uses_anonymous_args = 0
 1809 0000 80B5     		push	{r7, lr}
 1810              	.LCFI42:
 1811              		.cfi_def_cfa_offset 8
 1812              		.cfi_offset 7, -8
 1813              		.cfi_offset 14, -4
 1814 0002 86B0     		sub	sp, sp, #24
 1815              	.LCFI43:
 1816              		.cfi_def_cfa_offset 32
 1817 0004 00AF     		add	r7, sp, #0
 1818              	.LCFI44:
 1819              		.cfi_def_cfa_register 7
 1820 0006 F860     		str	r0, [r7, #12]
 1821 0008 7A60     		str	r2, [r7, #4]
 1822 000a 1A46     		mov	r2, r3
 1823 000c 0B46     		mov	r3, r1	@ movhi
 1824 000e 7B81     		strh	r3, [r7, #10]	@ movhi
 1825 0010 1346     		mov	r3, r2	@ movhi
 1826 0012 3B81     		strh	r3, [r7, #8]	@ movhi
1104:Drivers/STM32F1xx_HAL_Driver/Src/stm32f1xx_hal_i2c.c ****   if(hi2c->State == HAL_I2C_STATE_READY)
 1827              		.loc 1 1104 0
 1828 0014 FB68     		ldr	r3, [r7, #12]
 1829 0016 93F83530 		ldrb	r3, [r3, #53]
 1830 001a DBB2     		uxtb	r3, r3
 1831 001c 202B     		cmp	r3, #32
 1832 001e 6AD1     		bne	.L92
1105:Drivers/STM32F1xx_HAL_Driver/Src/stm32f1xx_hal_i2c.c ****   {
1106:Drivers/STM32F1xx_HAL_Driver/Src/stm32f1xx_hal_i2c.c ****     if((pData == NULL) || (Size == 0))
 1833              		.loc 1 1106 0
 1834 0020 7B68     		ldr	r3, [r7, #4]
 1835 0022 002B     		cmp	r3, #0
 1836 0024 02D0     		beq	.L93
 1837              		.loc 1 1106 0 is_stmt 0 discriminator 1
 1838 0026 3B89     		ldrh	r3, [r7, #8]
 1839 0028 002B     		cmp	r3, #0
 1840 002a 01D1     		bne	.L94
 1841              	.L93:
1107:Drivers/STM32F1xx_HAL_Driver/Src/stm32f1xx_hal_i2c.c ****     {
1108:Drivers/STM32F1xx_HAL_Driver/Src/stm32f1xx_hal_i2c.c ****       return  HAL_ERROR;
 1842              		.loc 1 1108 0 is_stmt 1
 1843 002c 0123     		movs	r3, #1
 1844 002e 63E0     		b	.L95
 1845              	.L94:
1109:Drivers/STM32F1xx_HAL_Driver/Src/stm32f1xx_hal_i2c.c ****     }
1110:Drivers/STM32F1xx_HAL_Driver/Src/stm32f1xx_hal_i2c.c **** 
1111:Drivers/STM32F1xx_HAL_Driver/Src/stm32f1xx_hal_i2c.c ****     /* Wait until BUSY flag is reset */
1112:Drivers/STM32F1xx_HAL_Driver/Src/stm32f1xx_hal_i2c.c ****     if(I2C_WaitOnFlagUntilTimeout(hi2c, I2C_FLAG_BUSY, SET, I2C_TIMEOUT_BUSY_FLAG) != HAL_OK)
 1846              		.loc 1 1112 0
 1847 0030 42F21073 		movw	r3, #10000
ARM GAS  /var/folders/kh/x4vltyy52lbg7p4pcyglc5080000gp/T//cccbl2Nm.s 			page 54


 1848 0034 0122     		movs	r2, #1
 1849 0036 3249     		ldr	r1, .L100
 1850 0038 F868     		ldr	r0, [r7, #12]
 1851 003a FFF7FEFF 		bl	I2C_WaitOnFlagUntilTimeout
 1852 003e 0346     		mov	r3, r0
 1853 0040 002B     		cmp	r3, #0
 1854 0042 01D0     		beq	.L96
1113:Drivers/STM32F1xx_HAL_Driver/Src/stm32f1xx_hal_i2c.c ****     {
1114:Drivers/STM32F1xx_HAL_Driver/Src/stm32f1xx_hal_i2c.c ****       return HAL_BUSY;
 1855              		.loc 1 1114 0
 1856 0044 0223     		movs	r3, #2
 1857 0046 57E0     		b	.L95
 1858              	.L96:
1115:Drivers/STM32F1xx_HAL_Driver/Src/stm32f1xx_hal_i2c.c ****     }
1116:Drivers/STM32F1xx_HAL_Driver/Src/stm32f1xx_hal_i2c.c **** 
1117:Drivers/STM32F1xx_HAL_Driver/Src/stm32f1xx_hal_i2c.c ****     /* Process Locked */
1118:Drivers/STM32F1xx_HAL_Driver/Src/stm32f1xx_hal_i2c.c ****     __HAL_LOCK(hi2c);
 1859              		.loc 1 1118 0
 1860 0048 FB68     		ldr	r3, [r7, #12]
 1861 004a 93F83430 		ldrb	r3, [r3, #52]	@ zero_extendqisi2
 1862 004e 012B     		cmp	r3, #1
 1863 0050 01D1     		bne	.L97
 1864              		.loc 1 1118 0 is_stmt 0 discriminator 1
 1865 0052 0223     		movs	r3, #2
 1866 0054 50E0     		b	.L95
 1867              	.L97:
 1868              		.loc 1 1118 0 discriminator 2
 1869 0056 FB68     		ldr	r3, [r7, #12]
 1870 0058 0122     		movs	r2, #1
 1871 005a 83F83420 		strb	r2, [r3, #52]
1119:Drivers/STM32F1xx_HAL_Driver/Src/stm32f1xx_hal_i2c.c **** 
1120:Drivers/STM32F1xx_HAL_Driver/Src/stm32f1xx_hal_i2c.c ****     /* Disable Pos */
1121:Drivers/STM32F1xx_HAL_Driver/Src/stm32f1xx_hal_i2c.c ****     CLEAR_BIT(hi2c->Instance->CR1, I2C_CR1_POS);
 1872              		.loc 1 1121 0 is_stmt 1 discriminator 2
 1873 005e FB68     		ldr	r3, [r7, #12]
 1874 0060 1B68     		ldr	r3, [r3]
 1875 0062 FA68     		ldr	r2, [r7, #12]
 1876 0064 1268     		ldr	r2, [r2]
 1877 0066 1268     		ldr	r2, [r2]
 1878 0068 22F40062 		bic	r2, r2, #2048
 1879 006c 1A60     		str	r2, [r3]
1122:Drivers/STM32F1xx_HAL_Driver/Src/stm32f1xx_hal_i2c.c **** 
1123:Drivers/STM32F1xx_HAL_Driver/Src/stm32f1xx_hal_i2c.c ****     hi2c->State = HAL_I2C_STATE_BUSY_TX;
 1880              		.loc 1 1123 0 discriminator 2
 1881 006e FB68     		ldr	r3, [r7, #12]
 1882 0070 2122     		movs	r2, #33
 1883 0072 83F83520 		strb	r2, [r3, #53]
1124:Drivers/STM32F1xx_HAL_Driver/Src/stm32f1xx_hal_i2c.c ****     hi2c->Mode = HAL_I2C_MODE_MASTER;
 1884              		.loc 1 1124 0 discriminator 2
 1885 0076 FB68     		ldr	r3, [r7, #12]
 1886 0078 1022     		movs	r2, #16
 1887 007a 83F83620 		strb	r2, [r3, #54]
1125:Drivers/STM32F1xx_HAL_Driver/Src/stm32f1xx_hal_i2c.c ****     hi2c->ErrorCode = HAL_I2C_ERROR_NONE;
 1888              		.loc 1 1125 0 discriminator 2
 1889 007e FB68     		ldr	r3, [r7, #12]
 1890 0080 0022     		movs	r2, #0
 1891 0082 9A63     		str	r2, [r3, #56]
ARM GAS  /var/folders/kh/x4vltyy52lbg7p4pcyglc5080000gp/T//cccbl2Nm.s 			page 55


1126:Drivers/STM32F1xx_HAL_Driver/Src/stm32f1xx_hal_i2c.c **** 
1127:Drivers/STM32F1xx_HAL_Driver/Src/stm32f1xx_hal_i2c.c ****     hi2c->pBuffPtr = pData;
 1892              		.loc 1 1127 0 discriminator 2
 1893 0084 FB68     		ldr	r3, [r7, #12]
 1894 0086 7A68     		ldr	r2, [r7, #4]
 1895 0088 5A62     		str	r2, [r3, #36]
1128:Drivers/STM32F1xx_HAL_Driver/Src/stm32f1xx_hal_i2c.c ****     hi2c->XferSize = Size;
 1896              		.loc 1 1128 0 discriminator 2
 1897 008a FB68     		ldr	r3, [r7, #12]
 1898 008c 3A89     		ldrh	r2, [r7, #8]	@ movhi
 1899 008e 1A85     		strh	r2, [r3, #40]	@ movhi
1129:Drivers/STM32F1xx_HAL_Driver/Src/stm32f1xx_hal_i2c.c ****     hi2c->XferCount = Size;
 1900              		.loc 1 1129 0 discriminator 2
 1901 0090 FB68     		ldr	r3, [r7, #12]
 1902 0092 3A89     		ldrh	r2, [r7, #8]	@ movhi
 1903 0094 5A85     		strh	r2, [r3, #42]	@ movhi
1130:Drivers/STM32F1xx_HAL_Driver/Src/stm32f1xx_hal_i2c.c **** 
1131:Drivers/STM32F1xx_HAL_Driver/Src/stm32f1xx_hal_i2c.c ****     /* Send Slave Address */
1132:Drivers/STM32F1xx_HAL_Driver/Src/stm32f1xx_hal_i2c.c ****     if(I2C_MasterRequestWrite(hi2c, DevAddress, I2C_TIMEOUT_FLAG) != HAL_OK)
 1904              		.loc 1 1132 0 discriminator 2
 1905 0096 7B89     		ldrh	r3, [r7, #10]
 1906 0098 2322     		movs	r2, #35
 1907 009a 1946     		mov	r1, r3
 1908 009c F868     		ldr	r0, [r7, #12]
 1909 009e FFF7FEFF 		bl	I2C_MasterRequestWrite
 1910 00a2 0346     		mov	r3, r0
 1911 00a4 002B     		cmp	r3, #0
 1912 00a6 0FD0     		beq	.L98
1133:Drivers/STM32F1xx_HAL_Driver/Src/stm32f1xx_hal_i2c.c ****     {
1134:Drivers/STM32F1xx_HAL_Driver/Src/stm32f1xx_hal_i2c.c ****       if(hi2c->ErrorCode == HAL_I2C_ERROR_AF)
 1913              		.loc 1 1134 0
 1914 00a8 FB68     		ldr	r3, [r7, #12]
 1915 00aa 9B6B     		ldr	r3, [r3, #56]
 1916 00ac 042B     		cmp	r3, #4
 1917 00ae 05D1     		bne	.L99
1135:Drivers/STM32F1xx_HAL_Driver/Src/stm32f1xx_hal_i2c.c ****       {
1136:Drivers/STM32F1xx_HAL_Driver/Src/stm32f1xx_hal_i2c.c ****         /* Process Unlocked */
1137:Drivers/STM32F1xx_HAL_Driver/Src/stm32f1xx_hal_i2c.c ****         __HAL_UNLOCK(hi2c);
 1918              		.loc 1 1137 0
 1919 00b0 FB68     		ldr	r3, [r7, #12]
 1920 00b2 0022     		movs	r2, #0
 1921 00b4 83F83420 		strb	r2, [r3, #52]
1138:Drivers/STM32F1xx_HAL_Driver/Src/stm32f1xx_hal_i2c.c ****         return HAL_ERROR;
 1922              		.loc 1 1138 0
 1923 00b8 0123     		movs	r3, #1
 1924 00ba 1DE0     		b	.L95
 1925              	.L99:
1139:Drivers/STM32F1xx_HAL_Driver/Src/stm32f1xx_hal_i2c.c ****       }
1140:Drivers/STM32F1xx_HAL_Driver/Src/stm32f1xx_hal_i2c.c ****       else
1141:Drivers/STM32F1xx_HAL_Driver/Src/stm32f1xx_hal_i2c.c ****       {
1142:Drivers/STM32F1xx_HAL_Driver/Src/stm32f1xx_hal_i2c.c ****         /* Process Unlocked */
1143:Drivers/STM32F1xx_HAL_Driver/Src/stm32f1xx_hal_i2c.c ****         __HAL_UNLOCK(hi2c);
 1926              		.loc 1 1143 0
 1927 00bc FB68     		ldr	r3, [r7, #12]
 1928 00be 0022     		movs	r2, #0
 1929 00c0 83F83420 		strb	r2, [r3, #52]
1144:Drivers/STM32F1xx_HAL_Driver/Src/stm32f1xx_hal_i2c.c ****         return HAL_TIMEOUT;
ARM GAS  /var/folders/kh/x4vltyy52lbg7p4pcyglc5080000gp/T//cccbl2Nm.s 			page 56


 1930              		.loc 1 1144 0
 1931 00c4 0323     		movs	r3, #3
 1932 00c6 17E0     		b	.L95
 1933              	.L98:
 1934              	.LBB64:
1145:Drivers/STM32F1xx_HAL_Driver/Src/stm32f1xx_hal_i2c.c ****       }
1146:Drivers/STM32F1xx_HAL_Driver/Src/stm32f1xx_hal_i2c.c ****     }
1147:Drivers/STM32F1xx_HAL_Driver/Src/stm32f1xx_hal_i2c.c **** 
1148:Drivers/STM32F1xx_HAL_Driver/Src/stm32f1xx_hal_i2c.c ****     /* Clear ADDR flag */
1149:Drivers/STM32F1xx_HAL_Driver/Src/stm32f1xx_hal_i2c.c ****     __HAL_I2C_CLEAR_ADDRFLAG(hi2c);
 1935              		.loc 1 1149 0
 1936 00c8 FB68     		ldr	r3, [r7, #12]
 1937 00ca 1B68     		ldr	r3, [r3]
 1938 00cc 5B69     		ldr	r3, [r3, #20]
 1939 00ce 7B61     		str	r3, [r7, #20]
 1940 00d0 FB68     		ldr	r3, [r7, #12]
 1941 00d2 1B68     		ldr	r3, [r3]
 1942 00d4 9B69     		ldr	r3, [r3, #24]
 1943 00d6 7B61     		str	r3, [r7, #20]
 1944 00d8 7B69     		ldr	r3, [r7, #20]
 1945              	.LBE64:
1150:Drivers/STM32F1xx_HAL_Driver/Src/stm32f1xx_hal_i2c.c **** 
1151:Drivers/STM32F1xx_HAL_Driver/Src/stm32f1xx_hal_i2c.c ****     /* Process Unlocked */
1152:Drivers/STM32F1xx_HAL_Driver/Src/stm32f1xx_hal_i2c.c ****     __HAL_UNLOCK(hi2c);
 1946              		.loc 1 1152 0
 1947 00da FB68     		ldr	r3, [r7, #12]
 1948 00dc 0022     		movs	r2, #0
 1949 00de 83F83420 		strb	r2, [r3, #52]
1153:Drivers/STM32F1xx_HAL_Driver/Src/stm32f1xx_hal_i2c.c **** 
1154:Drivers/STM32F1xx_HAL_Driver/Src/stm32f1xx_hal_i2c.c ****     /* Note : The I2C interrupts must be enabled after unlocking current process
1155:Drivers/STM32F1xx_HAL_Driver/Src/stm32f1xx_hal_i2c.c ****               to avoid the risk of I2C interrupt handle execution before current
1156:Drivers/STM32F1xx_HAL_Driver/Src/stm32f1xx_hal_i2c.c ****               process unlock */
1157:Drivers/STM32F1xx_HAL_Driver/Src/stm32f1xx_hal_i2c.c **** 
1158:Drivers/STM32F1xx_HAL_Driver/Src/stm32f1xx_hal_i2c.c ****     /* Enable EVT, BUF and ERR interrupt */
1159:Drivers/STM32F1xx_HAL_Driver/Src/stm32f1xx_hal_i2c.c ****     __HAL_I2C_ENABLE_IT(hi2c, I2C_IT_EVT | I2C_IT_BUF | I2C_IT_ERR);
 1950              		.loc 1 1159 0
 1951 00e2 FB68     		ldr	r3, [r7, #12]
 1952 00e4 1B68     		ldr	r3, [r3]
 1953 00e6 FA68     		ldr	r2, [r7, #12]
 1954 00e8 1268     		ldr	r2, [r2]
 1955 00ea 5268     		ldr	r2, [r2, #4]
 1956 00ec 42F4E062 		orr	r2, r2, #1792
 1957 00f0 5A60     		str	r2, [r3, #4]
1160:Drivers/STM32F1xx_HAL_Driver/Src/stm32f1xx_hal_i2c.c **** 
1161:Drivers/STM32F1xx_HAL_Driver/Src/stm32f1xx_hal_i2c.c ****     return HAL_OK;
 1958              		.loc 1 1161 0
 1959 00f2 0023     		movs	r3, #0
 1960 00f4 00E0     		b	.L95
 1961              	.L92:
1162:Drivers/STM32F1xx_HAL_Driver/Src/stm32f1xx_hal_i2c.c ****   }
1163:Drivers/STM32F1xx_HAL_Driver/Src/stm32f1xx_hal_i2c.c ****   else
1164:Drivers/STM32F1xx_HAL_Driver/Src/stm32f1xx_hal_i2c.c ****   {
1165:Drivers/STM32F1xx_HAL_Driver/Src/stm32f1xx_hal_i2c.c ****     return HAL_BUSY;
 1962              		.loc 1 1165 0
 1963 00f6 0223     		movs	r3, #2
 1964              	.L95:
1166:Drivers/STM32F1xx_HAL_Driver/Src/stm32f1xx_hal_i2c.c ****   }
ARM GAS  /var/folders/kh/x4vltyy52lbg7p4pcyglc5080000gp/T//cccbl2Nm.s 			page 57


1167:Drivers/STM32F1xx_HAL_Driver/Src/stm32f1xx_hal_i2c.c **** }
 1965              		.loc 1 1167 0
 1966 00f8 1846     		mov	r0, r3
 1967 00fa 1837     		adds	r7, r7, #24
 1968              	.LCFI45:
 1969              		.cfi_def_cfa_offset 8
 1970 00fc BD46     		mov	sp, r7
 1971              	.LCFI46:
 1972              		.cfi_def_cfa_register 13
 1973              		@ sp needed
 1974 00fe 80BD     		pop	{r7, pc}
 1975              	.L101:
 1976              		.align	2
 1977              	.L100:
 1978 0100 02001000 		.word	1048578
 1979              		.cfi_endproc
 1980              	.LFE72:
 1982              		.section	.text.HAL_I2C_Master_Receive_IT,"ax",%progbits
 1983              		.align	2
 1984              		.global	HAL_I2C_Master_Receive_IT
 1985              		.thumb
 1986              		.thumb_func
 1988              	HAL_I2C_Master_Receive_IT:
 1989              	.LFB73:
1168:Drivers/STM32F1xx_HAL_Driver/Src/stm32f1xx_hal_i2c.c **** 
1169:Drivers/STM32F1xx_HAL_Driver/Src/stm32f1xx_hal_i2c.c **** /**
1170:Drivers/STM32F1xx_HAL_Driver/Src/stm32f1xx_hal_i2c.c ****   * @brief  Receive in master mode an amount of data in non-blocking mode with Interrupt
1171:Drivers/STM32F1xx_HAL_Driver/Src/stm32f1xx_hal_i2c.c ****   * @param  hi2c Pointer to a I2C_HandleTypeDef structure that contains
1172:Drivers/STM32F1xx_HAL_Driver/Src/stm32f1xx_hal_i2c.c ****   *                the configuration information for the specified I2C.
1173:Drivers/STM32F1xx_HAL_Driver/Src/stm32f1xx_hal_i2c.c ****   * @param  DevAddress Target device address
1174:Drivers/STM32F1xx_HAL_Driver/Src/stm32f1xx_hal_i2c.c ****   * @param  pData Pointer to data buffer
1175:Drivers/STM32F1xx_HAL_Driver/Src/stm32f1xx_hal_i2c.c ****   * @param  Size Amount of data to be sent
1176:Drivers/STM32F1xx_HAL_Driver/Src/stm32f1xx_hal_i2c.c ****   * @retval HAL status
1177:Drivers/STM32F1xx_HAL_Driver/Src/stm32f1xx_hal_i2c.c ****   */
1178:Drivers/STM32F1xx_HAL_Driver/Src/stm32f1xx_hal_i2c.c **** HAL_StatusTypeDef HAL_I2C_Master_Receive_IT(I2C_HandleTypeDef *hi2c, uint16_t DevAddress, uint8_t *
1179:Drivers/STM32F1xx_HAL_Driver/Src/stm32f1xx_hal_i2c.c **** {
 1990              		.loc 1 1179 0
 1991              		.cfi_startproc
 1992              		@ args = 0, pretend = 0, frame = 32
 1993              		@ frame_needed = 1, uses_anonymous_args = 0
 1994 0000 80B5     		push	{r7, lr}
 1995              	.LCFI47:
 1996              		.cfi_def_cfa_offset 8
 1997              		.cfi_offset 7, -8
 1998              		.cfi_offset 14, -4
 1999 0002 88B0     		sub	sp, sp, #32
 2000              	.LCFI48:
 2001              		.cfi_def_cfa_offset 40
 2002 0004 00AF     		add	r7, sp, #0
 2003              	.LCFI49:
 2004              		.cfi_def_cfa_register 7
 2005 0006 F860     		str	r0, [r7, #12]
 2006 0008 7A60     		str	r2, [r7, #4]
 2007 000a 1A46     		mov	r2, r3
 2008 000c 0B46     		mov	r3, r1	@ movhi
 2009 000e 7B81     		strh	r3, [r7, #10]	@ movhi
 2010 0010 1346     		mov	r3, r2	@ movhi
ARM GAS  /var/folders/kh/x4vltyy52lbg7p4pcyglc5080000gp/T//cccbl2Nm.s 			page 58


 2011 0012 3B81     		strh	r3, [r7, #8]	@ movhi
1180:Drivers/STM32F1xx_HAL_Driver/Src/stm32f1xx_hal_i2c.c ****   if(hi2c->State == HAL_I2C_STATE_READY)
 2012              		.loc 1 1180 0
 2013 0014 FB68     		ldr	r3, [r7, #12]
 2014 0016 93F83530 		ldrb	r3, [r3, #53]
 2015 001a DBB2     		uxtb	r3, r3
 2016 001c 202B     		cmp	r3, #32
 2017 001e 40F0B180 		bne	.L103
1181:Drivers/STM32F1xx_HAL_Driver/Src/stm32f1xx_hal_i2c.c ****   {
1182:Drivers/STM32F1xx_HAL_Driver/Src/stm32f1xx_hal_i2c.c ****     if((pData == NULL) || (Size == 0))
 2018              		.loc 1 1182 0
 2019 0022 7B68     		ldr	r3, [r7, #4]
 2020 0024 002B     		cmp	r3, #0
 2021 0026 02D0     		beq	.L104
 2022              		.loc 1 1182 0 is_stmt 0 discriminator 1
 2023 0028 3B89     		ldrh	r3, [r7, #8]
 2024 002a 002B     		cmp	r3, #0
 2025 002c 01D1     		bne	.L105
 2026              	.L104:
1183:Drivers/STM32F1xx_HAL_Driver/Src/stm32f1xx_hal_i2c.c ****     {
1184:Drivers/STM32F1xx_HAL_Driver/Src/stm32f1xx_hal_i2c.c ****       return  HAL_ERROR;
 2027              		.loc 1 1184 0 is_stmt 1
 2028 002e 0123     		movs	r3, #1
 2029 0030 A9E0     		b	.L106
 2030              	.L105:
1185:Drivers/STM32F1xx_HAL_Driver/Src/stm32f1xx_hal_i2c.c ****     }
1186:Drivers/STM32F1xx_HAL_Driver/Src/stm32f1xx_hal_i2c.c **** 
1187:Drivers/STM32F1xx_HAL_Driver/Src/stm32f1xx_hal_i2c.c ****     /* Wait until BUSY flag is reset */
1188:Drivers/STM32F1xx_HAL_Driver/Src/stm32f1xx_hal_i2c.c ****     if(I2C_WaitOnFlagUntilTimeout(hi2c, I2C_FLAG_BUSY, SET, I2C_TIMEOUT_BUSY_FLAG) != HAL_OK)
 2031              		.loc 1 1188 0
 2032 0032 42F21073 		movw	r3, #10000
 2033 0036 0122     		movs	r2, #1
 2034 0038 5549     		ldr	r1, .L114
 2035 003a F868     		ldr	r0, [r7, #12]
 2036 003c FFF7FEFF 		bl	I2C_WaitOnFlagUntilTimeout
 2037 0040 0346     		mov	r3, r0
 2038 0042 002B     		cmp	r3, #0
 2039 0044 01D0     		beq	.L107
1189:Drivers/STM32F1xx_HAL_Driver/Src/stm32f1xx_hal_i2c.c ****     {
1190:Drivers/STM32F1xx_HAL_Driver/Src/stm32f1xx_hal_i2c.c ****       return HAL_BUSY;
 2040              		.loc 1 1190 0
 2041 0046 0223     		movs	r3, #2
 2042 0048 9DE0     		b	.L106
 2043              	.L107:
1191:Drivers/STM32F1xx_HAL_Driver/Src/stm32f1xx_hal_i2c.c ****     }
1192:Drivers/STM32F1xx_HAL_Driver/Src/stm32f1xx_hal_i2c.c **** 
1193:Drivers/STM32F1xx_HAL_Driver/Src/stm32f1xx_hal_i2c.c ****     /* Process Locked */
1194:Drivers/STM32F1xx_HAL_Driver/Src/stm32f1xx_hal_i2c.c ****     __HAL_LOCK(hi2c);
 2044              		.loc 1 1194 0
 2045 004a FB68     		ldr	r3, [r7, #12]
 2046 004c 93F83430 		ldrb	r3, [r3, #52]	@ zero_extendqisi2
 2047 0050 012B     		cmp	r3, #1
 2048 0052 01D1     		bne	.L108
 2049              		.loc 1 1194 0 is_stmt 0 discriminator 1
 2050 0054 0223     		movs	r3, #2
 2051 0056 96E0     		b	.L106
 2052              	.L108:
ARM GAS  /var/folders/kh/x4vltyy52lbg7p4pcyglc5080000gp/T//cccbl2Nm.s 			page 59


 2053              		.loc 1 1194 0 discriminator 2
 2054 0058 FB68     		ldr	r3, [r7, #12]
 2055 005a 0122     		movs	r2, #1
 2056 005c 83F83420 		strb	r2, [r3, #52]
1195:Drivers/STM32F1xx_HAL_Driver/Src/stm32f1xx_hal_i2c.c **** 
1196:Drivers/STM32F1xx_HAL_Driver/Src/stm32f1xx_hal_i2c.c ****     /* Disable Pos */
1197:Drivers/STM32F1xx_HAL_Driver/Src/stm32f1xx_hal_i2c.c ****     CLEAR_BIT(hi2c->Instance->CR1, I2C_CR1_POS);
 2057              		.loc 1 1197 0 is_stmt 1 discriminator 2
 2058 0060 FB68     		ldr	r3, [r7, #12]
 2059 0062 1B68     		ldr	r3, [r3]
 2060 0064 FA68     		ldr	r2, [r7, #12]
 2061 0066 1268     		ldr	r2, [r2]
 2062 0068 1268     		ldr	r2, [r2]
 2063 006a 22F40062 		bic	r2, r2, #2048
 2064 006e 1A60     		str	r2, [r3]
1198:Drivers/STM32F1xx_HAL_Driver/Src/stm32f1xx_hal_i2c.c **** 
1199:Drivers/STM32F1xx_HAL_Driver/Src/stm32f1xx_hal_i2c.c ****     hi2c->State = HAL_I2C_STATE_BUSY_RX;
 2065              		.loc 1 1199 0 discriminator 2
 2066 0070 FB68     		ldr	r3, [r7, #12]
 2067 0072 2222     		movs	r2, #34
 2068 0074 83F83520 		strb	r2, [r3, #53]
1200:Drivers/STM32F1xx_HAL_Driver/Src/stm32f1xx_hal_i2c.c ****     hi2c->Mode = HAL_I2C_MODE_MASTER;
 2069              		.loc 1 1200 0 discriminator 2
 2070 0078 FB68     		ldr	r3, [r7, #12]
 2071 007a 1022     		movs	r2, #16
 2072 007c 83F83620 		strb	r2, [r3, #54]
1201:Drivers/STM32F1xx_HAL_Driver/Src/stm32f1xx_hal_i2c.c ****     hi2c->ErrorCode = HAL_I2C_ERROR_NONE;
 2073              		.loc 1 1201 0 discriminator 2
 2074 0080 FB68     		ldr	r3, [r7, #12]
 2075 0082 0022     		movs	r2, #0
 2076 0084 9A63     		str	r2, [r3, #56]
1202:Drivers/STM32F1xx_HAL_Driver/Src/stm32f1xx_hal_i2c.c **** 
1203:Drivers/STM32F1xx_HAL_Driver/Src/stm32f1xx_hal_i2c.c ****     hi2c->pBuffPtr = pData;
 2077              		.loc 1 1203 0 discriminator 2
 2078 0086 FB68     		ldr	r3, [r7, #12]
 2079 0088 7A68     		ldr	r2, [r7, #4]
 2080 008a 5A62     		str	r2, [r3, #36]
1204:Drivers/STM32F1xx_HAL_Driver/Src/stm32f1xx_hal_i2c.c ****     hi2c->XferSize = Size;
 2081              		.loc 1 1204 0 discriminator 2
 2082 008c FB68     		ldr	r3, [r7, #12]
 2083 008e 3A89     		ldrh	r2, [r7, #8]	@ movhi
 2084 0090 1A85     		strh	r2, [r3, #40]	@ movhi
1205:Drivers/STM32F1xx_HAL_Driver/Src/stm32f1xx_hal_i2c.c ****     hi2c->XferCount = Size;
 2085              		.loc 1 1205 0 discriminator 2
 2086 0092 FB68     		ldr	r3, [r7, #12]
 2087 0094 3A89     		ldrh	r2, [r7, #8]	@ movhi
 2088 0096 5A85     		strh	r2, [r3, #42]	@ movhi
1206:Drivers/STM32F1xx_HAL_Driver/Src/stm32f1xx_hal_i2c.c **** 
1207:Drivers/STM32F1xx_HAL_Driver/Src/stm32f1xx_hal_i2c.c ****     /* Send Slave Address */
1208:Drivers/STM32F1xx_HAL_Driver/Src/stm32f1xx_hal_i2c.c ****     if(I2C_MasterRequestRead(hi2c, DevAddress, I2C_TIMEOUT_FLAG) != HAL_OK)
 2089              		.loc 1 1208 0 discriminator 2
 2090 0098 7B89     		ldrh	r3, [r7, #10]
 2091 009a 2322     		movs	r2, #35
 2092 009c 1946     		mov	r1, r3
 2093 009e F868     		ldr	r0, [r7, #12]
 2094 00a0 FFF7FEFF 		bl	I2C_MasterRequestRead
 2095 00a4 0346     		mov	r3, r0
ARM GAS  /var/folders/kh/x4vltyy52lbg7p4pcyglc5080000gp/T//cccbl2Nm.s 			page 60


 2096 00a6 002B     		cmp	r3, #0
 2097 00a8 0FD0     		beq	.L109
1209:Drivers/STM32F1xx_HAL_Driver/Src/stm32f1xx_hal_i2c.c ****     {
1210:Drivers/STM32F1xx_HAL_Driver/Src/stm32f1xx_hal_i2c.c ****       if(hi2c->ErrorCode == HAL_I2C_ERROR_AF)
 2098              		.loc 1 1210 0
 2099 00aa FB68     		ldr	r3, [r7, #12]
 2100 00ac 9B6B     		ldr	r3, [r3, #56]
 2101 00ae 042B     		cmp	r3, #4
 2102 00b0 05D1     		bne	.L110
1211:Drivers/STM32F1xx_HAL_Driver/Src/stm32f1xx_hal_i2c.c ****       {
1212:Drivers/STM32F1xx_HAL_Driver/Src/stm32f1xx_hal_i2c.c ****         /* Process Unlocked */
1213:Drivers/STM32F1xx_HAL_Driver/Src/stm32f1xx_hal_i2c.c ****         __HAL_UNLOCK(hi2c);
 2103              		.loc 1 1213 0
 2104 00b2 FB68     		ldr	r3, [r7, #12]
 2105 00b4 0022     		movs	r2, #0
 2106 00b6 83F83420 		strb	r2, [r3, #52]
1214:Drivers/STM32F1xx_HAL_Driver/Src/stm32f1xx_hal_i2c.c ****         return HAL_ERROR;
 2107              		.loc 1 1214 0
 2108 00ba 0123     		movs	r3, #1
 2109 00bc 63E0     		b	.L106
 2110              	.L110:
1215:Drivers/STM32F1xx_HAL_Driver/Src/stm32f1xx_hal_i2c.c ****       }
1216:Drivers/STM32F1xx_HAL_Driver/Src/stm32f1xx_hal_i2c.c ****       else
1217:Drivers/STM32F1xx_HAL_Driver/Src/stm32f1xx_hal_i2c.c ****       {
1218:Drivers/STM32F1xx_HAL_Driver/Src/stm32f1xx_hal_i2c.c ****         /* Process Unlocked */
1219:Drivers/STM32F1xx_HAL_Driver/Src/stm32f1xx_hal_i2c.c ****         __HAL_UNLOCK(hi2c);
 2111              		.loc 1 1219 0
 2112 00be FB68     		ldr	r3, [r7, #12]
 2113 00c0 0022     		movs	r2, #0
 2114 00c2 83F83420 		strb	r2, [r3, #52]
1220:Drivers/STM32F1xx_HAL_Driver/Src/stm32f1xx_hal_i2c.c ****         return HAL_TIMEOUT;
 2115              		.loc 1 1220 0
 2116 00c6 0323     		movs	r3, #3
 2117 00c8 5DE0     		b	.L106
 2118              	.L109:
1221:Drivers/STM32F1xx_HAL_Driver/Src/stm32f1xx_hal_i2c.c ****       }
1222:Drivers/STM32F1xx_HAL_Driver/Src/stm32f1xx_hal_i2c.c ****     }
1223:Drivers/STM32F1xx_HAL_Driver/Src/stm32f1xx_hal_i2c.c **** 
1224:Drivers/STM32F1xx_HAL_Driver/Src/stm32f1xx_hal_i2c.c ****     if(hi2c->XferCount == 1)
 2119              		.loc 1 1224 0
 2120 00ca FB68     		ldr	r3, [r7, #12]
 2121 00cc 5B8D     		ldrh	r3, [r3, #42]	@ movhi
 2122 00ce 9BB2     		uxth	r3, r3
 2123 00d0 012B     		cmp	r3, #1
 2124 00d2 19D1     		bne	.L111
1225:Drivers/STM32F1xx_HAL_Driver/Src/stm32f1xx_hal_i2c.c ****     {
1226:Drivers/STM32F1xx_HAL_Driver/Src/stm32f1xx_hal_i2c.c ****       /* Disable Acknowledge */
1227:Drivers/STM32F1xx_HAL_Driver/Src/stm32f1xx_hal_i2c.c ****       CLEAR_BIT(hi2c->Instance->CR1, I2C_CR1_ACK);
 2125              		.loc 1 1227 0
 2126 00d4 FB68     		ldr	r3, [r7, #12]
 2127 00d6 1B68     		ldr	r3, [r3]
 2128 00d8 FA68     		ldr	r2, [r7, #12]
 2129 00da 1268     		ldr	r2, [r2]
 2130 00dc 1268     		ldr	r2, [r2]
 2131 00de 22F48062 		bic	r2, r2, #1024
 2132 00e2 1A60     		str	r2, [r3]
 2133              	.LBB65:
ARM GAS  /var/folders/kh/x4vltyy52lbg7p4pcyglc5080000gp/T//cccbl2Nm.s 			page 61


1228:Drivers/STM32F1xx_HAL_Driver/Src/stm32f1xx_hal_i2c.c **** 
1229:Drivers/STM32F1xx_HAL_Driver/Src/stm32f1xx_hal_i2c.c ****       /* Clear ADDR flag */
1230:Drivers/STM32F1xx_HAL_Driver/Src/stm32f1xx_hal_i2c.c ****       __HAL_I2C_CLEAR_ADDRFLAG(hi2c);
 2134              		.loc 1 1230 0
 2135 00e4 FB68     		ldr	r3, [r7, #12]
 2136 00e6 1B68     		ldr	r3, [r3]
 2137 00e8 5B69     		ldr	r3, [r3, #20]
 2138 00ea FB61     		str	r3, [r7, #28]
 2139 00ec FB68     		ldr	r3, [r7, #12]
 2140 00ee 1B68     		ldr	r3, [r3]
 2141 00f0 9B69     		ldr	r3, [r3, #24]
 2142 00f2 FB61     		str	r3, [r7, #28]
 2143 00f4 FB69     		ldr	r3, [r7, #28]
 2144              	.LBE65:
1231:Drivers/STM32F1xx_HAL_Driver/Src/stm32f1xx_hal_i2c.c **** 
1232:Drivers/STM32F1xx_HAL_Driver/Src/stm32f1xx_hal_i2c.c ****       /* Generate Stop */
1233:Drivers/STM32F1xx_HAL_Driver/Src/stm32f1xx_hal_i2c.c ****       SET_BIT(hi2c->Instance->CR1, I2C_CR1_STOP);
 2145              		.loc 1 1233 0
 2146 00f6 FB68     		ldr	r3, [r7, #12]
 2147 00f8 1B68     		ldr	r3, [r3]
 2148 00fa FA68     		ldr	r2, [r7, #12]
 2149 00fc 1268     		ldr	r2, [r2]
 2150 00fe 1268     		ldr	r2, [r2]
 2151 0100 42F40072 		orr	r2, r2, #512
 2152 0104 1A60     		str	r2, [r3]
 2153 0106 2FE0     		b	.L112
 2154              	.L111:
1234:Drivers/STM32F1xx_HAL_Driver/Src/stm32f1xx_hal_i2c.c ****     }
1235:Drivers/STM32F1xx_HAL_Driver/Src/stm32f1xx_hal_i2c.c ****     else if(hi2c->XferCount == 2)
 2155              		.loc 1 1235 0
 2156 0108 FB68     		ldr	r3, [r7, #12]
 2157 010a 5B8D     		ldrh	r3, [r3, #42]	@ movhi
 2158 010c 9BB2     		uxth	r3, r3
 2159 010e 022B     		cmp	r3, #2
 2160 0110 19D1     		bne	.L113
1236:Drivers/STM32F1xx_HAL_Driver/Src/stm32f1xx_hal_i2c.c ****     {
1237:Drivers/STM32F1xx_HAL_Driver/Src/stm32f1xx_hal_i2c.c ****       /* Enable Pos */
1238:Drivers/STM32F1xx_HAL_Driver/Src/stm32f1xx_hal_i2c.c ****       SET_BIT(hi2c->Instance->CR1, I2C_CR1_POS);
 2161              		.loc 1 1238 0
 2162 0112 FB68     		ldr	r3, [r7, #12]
 2163 0114 1B68     		ldr	r3, [r3]
 2164 0116 FA68     		ldr	r2, [r7, #12]
 2165 0118 1268     		ldr	r2, [r2]
 2166 011a 1268     		ldr	r2, [r2]
 2167 011c 42F40062 		orr	r2, r2, #2048
 2168 0120 1A60     		str	r2, [r3]
 2169              	.LBB66:
1239:Drivers/STM32F1xx_HAL_Driver/Src/stm32f1xx_hal_i2c.c **** 
1240:Drivers/STM32F1xx_HAL_Driver/Src/stm32f1xx_hal_i2c.c ****       /* Clear ADDR flag */
1241:Drivers/STM32F1xx_HAL_Driver/Src/stm32f1xx_hal_i2c.c ****       __HAL_I2C_CLEAR_ADDRFLAG(hi2c);
 2170              		.loc 1 1241 0
 2171 0122 FB68     		ldr	r3, [r7, #12]
 2172 0124 1B68     		ldr	r3, [r3]
 2173 0126 5B69     		ldr	r3, [r3, #20]
 2174 0128 BB61     		str	r3, [r7, #24]
 2175 012a FB68     		ldr	r3, [r7, #12]
 2176 012c 1B68     		ldr	r3, [r3]
ARM GAS  /var/folders/kh/x4vltyy52lbg7p4pcyglc5080000gp/T//cccbl2Nm.s 			page 62


 2177 012e 9B69     		ldr	r3, [r3, #24]
 2178 0130 BB61     		str	r3, [r7, #24]
 2179 0132 BB69     		ldr	r3, [r7, #24]
 2180              	.LBE66:
1242:Drivers/STM32F1xx_HAL_Driver/Src/stm32f1xx_hal_i2c.c **** 
1243:Drivers/STM32F1xx_HAL_Driver/Src/stm32f1xx_hal_i2c.c ****       /* Disable Acknowledge */
1244:Drivers/STM32F1xx_HAL_Driver/Src/stm32f1xx_hal_i2c.c ****       CLEAR_BIT(hi2c->Instance->CR1, I2C_CR1_ACK);
 2181              		.loc 1 1244 0
 2182 0134 FB68     		ldr	r3, [r7, #12]
 2183 0136 1B68     		ldr	r3, [r3]
 2184 0138 FA68     		ldr	r2, [r7, #12]
 2185 013a 1268     		ldr	r2, [r2]
 2186 013c 1268     		ldr	r2, [r2]
 2187 013e 22F48062 		bic	r2, r2, #1024
 2188 0142 1A60     		str	r2, [r3]
 2189 0144 10E0     		b	.L112
 2190              	.L113:
1245:Drivers/STM32F1xx_HAL_Driver/Src/stm32f1xx_hal_i2c.c ****     }
1246:Drivers/STM32F1xx_HAL_Driver/Src/stm32f1xx_hal_i2c.c ****     else
1247:Drivers/STM32F1xx_HAL_Driver/Src/stm32f1xx_hal_i2c.c ****     {
1248:Drivers/STM32F1xx_HAL_Driver/Src/stm32f1xx_hal_i2c.c ****       /* Enable Acknowledge */
1249:Drivers/STM32F1xx_HAL_Driver/Src/stm32f1xx_hal_i2c.c ****       SET_BIT(hi2c->Instance->CR1, I2C_CR1_ACK);
 2191              		.loc 1 1249 0
 2192 0146 FB68     		ldr	r3, [r7, #12]
 2193 0148 1B68     		ldr	r3, [r3]
 2194 014a FA68     		ldr	r2, [r7, #12]
 2195 014c 1268     		ldr	r2, [r2]
 2196 014e 1268     		ldr	r2, [r2]
 2197 0150 42F48062 		orr	r2, r2, #1024
 2198 0154 1A60     		str	r2, [r3]
 2199              	.LBB67:
1250:Drivers/STM32F1xx_HAL_Driver/Src/stm32f1xx_hal_i2c.c **** 
1251:Drivers/STM32F1xx_HAL_Driver/Src/stm32f1xx_hal_i2c.c ****       /* Clear ADDR flag */
1252:Drivers/STM32F1xx_HAL_Driver/Src/stm32f1xx_hal_i2c.c ****       __HAL_I2C_CLEAR_ADDRFLAG(hi2c);
 2200              		.loc 1 1252 0
 2201 0156 FB68     		ldr	r3, [r7, #12]
 2202 0158 1B68     		ldr	r3, [r3]
 2203 015a 5B69     		ldr	r3, [r3, #20]
 2204 015c 7B61     		str	r3, [r7, #20]
 2205 015e FB68     		ldr	r3, [r7, #12]
 2206 0160 1B68     		ldr	r3, [r3]
 2207 0162 9B69     		ldr	r3, [r3, #24]
 2208 0164 7B61     		str	r3, [r7, #20]
 2209 0166 7B69     		ldr	r3, [r7, #20]
 2210              	.L112:
 2211              	.LBE67:
1253:Drivers/STM32F1xx_HAL_Driver/Src/stm32f1xx_hal_i2c.c ****     }
1254:Drivers/STM32F1xx_HAL_Driver/Src/stm32f1xx_hal_i2c.c **** 
1255:Drivers/STM32F1xx_HAL_Driver/Src/stm32f1xx_hal_i2c.c ****     /* Process Unlocked */
1256:Drivers/STM32F1xx_HAL_Driver/Src/stm32f1xx_hal_i2c.c ****     __HAL_UNLOCK(hi2c);
 2212              		.loc 1 1256 0
 2213 0168 FB68     		ldr	r3, [r7, #12]
 2214 016a 0022     		movs	r2, #0
 2215 016c 83F83420 		strb	r2, [r3, #52]
1257:Drivers/STM32F1xx_HAL_Driver/Src/stm32f1xx_hal_i2c.c **** 
1258:Drivers/STM32F1xx_HAL_Driver/Src/stm32f1xx_hal_i2c.c ****     /* Note : The I2C interrupts must be enabled after unlocking current process
1259:Drivers/STM32F1xx_HAL_Driver/Src/stm32f1xx_hal_i2c.c ****               to avoid the risk of I2C interrupt handle execution before current
ARM GAS  /var/folders/kh/x4vltyy52lbg7p4pcyglc5080000gp/T//cccbl2Nm.s 			page 63


1260:Drivers/STM32F1xx_HAL_Driver/Src/stm32f1xx_hal_i2c.c ****               process unlock */
1261:Drivers/STM32F1xx_HAL_Driver/Src/stm32f1xx_hal_i2c.c **** 
1262:Drivers/STM32F1xx_HAL_Driver/Src/stm32f1xx_hal_i2c.c ****     /* Enable EVT, BUF and ERR interrupt */
1263:Drivers/STM32F1xx_HAL_Driver/Src/stm32f1xx_hal_i2c.c ****     __HAL_I2C_ENABLE_IT(hi2c, I2C_IT_EVT | I2C_IT_BUF | I2C_IT_ERR);
 2216              		.loc 1 1263 0
 2217 0170 FB68     		ldr	r3, [r7, #12]
 2218 0172 1B68     		ldr	r3, [r3]
 2219 0174 FA68     		ldr	r2, [r7, #12]
 2220 0176 1268     		ldr	r2, [r2]
 2221 0178 5268     		ldr	r2, [r2, #4]
 2222 017a 42F4E062 		orr	r2, r2, #1792
 2223 017e 5A60     		str	r2, [r3, #4]
1264:Drivers/STM32F1xx_HAL_Driver/Src/stm32f1xx_hal_i2c.c **** 
1265:Drivers/STM32F1xx_HAL_Driver/Src/stm32f1xx_hal_i2c.c ****     return HAL_OK;
 2224              		.loc 1 1265 0
 2225 0180 0023     		movs	r3, #0
 2226 0182 00E0     		b	.L106
 2227              	.L103:
1266:Drivers/STM32F1xx_HAL_Driver/Src/stm32f1xx_hal_i2c.c ****   }
1267:Drivers/STM32F1xx_HAL_Driver/Src/stm32f1xx_hal_i2c.c ****   else
1268:Drivers/STM32F1xx_HAL_Driver/Src/stm32f1xx_hal_i2c.c ****   {
1269:Drivers/STM32F1xx_HAL_Driver/Src/stm32f1xx_hal_i2c.c ****     return HAL_BUSY;
 2228              		.loc 1 1269 0
 2229 0184 0223     		movs	r3, #2
 2230              	.L106:
1270:Drivers/STM32F1xx_HAL_Driver/Src/stm32f1xx_hal_i2c.c ****   }
1271:Drivers/STM32F1xx_HAL_Driver/Src/stm32f1xx_hal_i2c.c **** }
 2231              		.loc 1 1271 0
 2232 0186 1846     		mov	r0, r3
 2233 0188 2037     		adds	r7, r7, #32
 2234              	.LCFI50:
 2235              		.cfi_def_cfa_offset 8
 2236 018a BD46     		mov	sp, r7
 2237              	.LCFI51:
 2238              		.cfi_def_cfa_register 13
 2239              		@ sp needed
 2240 018c 80BD     		pop	{r7, pc}
 2241              	.L115:
 2242 018e 00BF     		.align	2
 2243              	.L114:
 2244 0190 02001000 		.word	1048578
 2245              		.cfi_endproc
 2246              	.LFE73:
 2248              		.section	.text.HAL_I2C_Slave_Transmit_IT,"ax",%progbits
 2249              		.align	2
 2250              		.global	HAL_I2C_Slave_Transmit_IT
 2251              		.thumb
 2252              		.thumb_func
 2254              	HAL_I2C_Slave_Transmit_IT:
 2255              	.LFB74:
1272:Drivers/STM32F1xx_HAL_Driver/Src/stm32f1xx_hal_i2c.c **** 
1273:Drivers/STM32F1xx_HAL_Driver/Src/stm32f1xx_hal_i2c.c **** /**
1274:Drivers/STM32F1xx_HAL_Driver/Src/stm32f1xx_hal_i2c.c ****   * @brief  Transmit in slave mode an amount of data in non-blocking mode with Interrupt 
1275:Drivers/STM32F1xx_HAL_Driver/Src/stm32f1xx_hal_i2c.c ****   * @param  hi2c Pointer to a I2C_HandleTypeDef structure that contains
1276:Drivers/STM32F1xx_HAL_Driver/Src/stm32f1xx_hal_i2c.c ****   *                the configuration information for the specified I2C.
1277:Drivers/STM32F1xx_HAL_Driver/Src/stm32f1xx_hal_i2c.c ****   * @param  pData Pointer to data buffer
1278:Drivers/STM32F1xx_HAL_Driver/Src/stm32f1xx_hal_i2c.c ****   * @param  Size Amount of data to be sent
ARM GAS  /var/folders/kh/x4vltyy52lbg7p4pcyglc5080000gp/T//cccbl2Nm.s 			page 64


1279:Drivers/STM32F1xx_HAL_Driver/Src/stm32f1xx_hal_i2c.c ****   * @retval HAL status
1280:Drivers/STM32F1xx_HAL_Driver/Src/stm32f1xx_hal_i2c.c ****   */
1281:Drivers/STM32F1xx_HAL_Driver/Src/stm32f1xx_hal_i2c.c **** HAL_StatusTypeDef HAL_I2C_Slave_Transmit_IT(I2C_HandleTypeDef *hi2c, uint8_t *pData, uint16_t Size)
1282:Drivers/STM32F1xx_HAL_Driver/Src/stm32f1xx_hal_i2c.c **** {
 2256              		.loc 1 1282 0
 2257              		.cfi_startproc
 2258              		@ args = 0, pretend = 0, frame = 16
 2259              		@ frame_needed = 1, uses_anonymous_args = 0
 2260 0000 80B5     		push	{r7, lr}
 2261              	.LCFI52:
 2262              		.cfi_def_cfa_offset 8
 2263              		.cfi_offset 7, -8
 2264              		.cfi_offset 14, -4
 2265 0002 84B0     		sub	sp, sp, #16
 2266              	.LCFI53:
 2267              		.cfi_def_cfa_offset 24
 2268 0004 00AF     		add	r7, sp, #0
 2269              	.LCFI54:
 2270              		.cfi_def_cfa_register 7
 2271 0006 F860     		str	r0, [r7, #12]
 2272 0008 B960     		str	r1, [r7, #8]
 2273 000a 1346     		mov	r3, r2
 2274 000c FB80     		strh	r3, [r7, #6]	@ movhi
1283:Drivers/STM32F1xx_HAL_Driver/Src/stm32f1xx_hal_i2c.c ****   if(hi2c->State == HAL_I2C_STATE_READY)
 2275              		.loc 1 1283 0
 2276 000e FB68     		ldr	r3, [r7, #12]
 2277 0010 93F83530 		ldrb	r3, [r3, #53]
 2278 0014 DBB2     		uxtb	r3, r3
 2279 0016 202B     		cmp	r3, #32
 2280 0018 50D1     		bne	.L117
1284:Drivers/STM32F1xx_HAL_Driver/Src/stm32f1xx_hal_i2c.c ****   {
1285:Drivers/STM32F1xx_HAL_Driver/Src/stm32f1xx_hal_i2c.c ****     if((pData == NULL) || (Size == 0))
 2281              		.loc 1 1285 0
 2282 001a BB68     		ldr	r3, [r7, #8]
 2283 001c 002B     		cmp	r3, #0
 2284 001e 02D0     		beq	.L118
 2285              		.loc 1 1285 0 is_stmt 0 discriminator 1
 2286 0020 FB88     		ldrh	r3, [r7, #6]
 2287 0022 002B     		cmp	r3, #0
 2288 0024 01D1     		bne	.L119
 2289              	.L118:
1286:Drivers/STM32F1xx_HAL_Driver/Src/stm32f1xx_hal_i2c.c ****     {
1287:Drivers/STM32F1xx_HAL_Driver/Src/stm32f1xx_hal_i2c.c ****       return  HAL_ERROR;
 2290              		.loc 1 1287 0 is_stmt 1
 2291 0026 0123     		movs	r3, #1
 2292 0028 49E0     		b	.L120
 2293              	.L119:
1288:Drivers/STM32F1xx_HAL_Driver/Src/stm32f1xx_hal_i2c.c ****     }
1289:Drivers/STM32F1xx_HAL_Driver/Src/stm32f1xx_hal_i2c.c **** 
1290:Drivers/STM32F1xx_HAL_Driver/Src/stm32f1xx_hal_i2c.c ****     /* Wait until BUSY flag is reset */
1291:Drivers/STM32F1xx_HAL_Driver/Src/stm32f1xx_hal_i2c.c ****     if(I2C_WaitOnFlagUntilTimeout(hi2c, I2C_FLAG_BUSY, SET, I2C_TIMEOUT_BUSY_FLAG) != HAL_OK)
 2294              		.loc 1 1291 0
 2295 002a 42F21073 		movw	r3, #10000
 2296 002e 0122     		movs	r2, #1
 2297 0030 2549     		ldr	r1, .L123
 2298 0032 F868     		ldr	r0, [r7, #12]
 2299 0034 FFF7FEFF 		bl	I2C_WaitOnFlagUntilTimeout
ARM GAS  /var/folders/kh/x4vltyy52lbg7p4pcyglc5080000gp/T//cccbl2Nm.s 			page 65


 2300 0038 0346     		mov	r3, r0
 2301 003a 002B     		cmp	r3, #0
 2302 003c 01D0     		beq	.L121
1292:Drivers/STM32F1xx_HAL_Driver/Src/stm32f1xx_hal_i2c.c ****     {
1293:Drivers/STM32F1xx_HAL_Driver/Src/stm32f1xx_hal_i2c.c ****       return HAL_BUSY;
 2303              		.loc 1 1293 0
 2304 003e 0223     		movs	r3, #2
 2305 0040 3DE0     		b	.L120
 2306              	.L121:
1294:Drivers/STM32F1xx_HAL_Driver/Src/stm32f1xx_hal_i2c.c ****     }
1295:Drivers/STM32F1xx_HAL_Driver/Src/stm32f1xx_hal_i2c.c **** 
1296:Drivers/STM32F1xx_HAL_Driver/Src/stm32f1xx_hal_i2c.c ****     /* Process Locked */
1297:Drivers/STM32F1xx_HAL_Driver/Src/stm32f1xx_hal_i2c.c ****     __HAL_LOCK(hi2c);
 2307              		.loc 1 1297 0
 2308 0042 FB68     		ldr	r3, [r7, #12]
 2309 0044 93F83430 		ldrb	r3, [r3, #52]	@ zero_extendqisi2
 2310 0048 012B     		cmp	r3, #1
 2311 004a 01D1     		bne	.L122
 2312              		.loc 1 1297 0 is_stmt 0 discriminator 1
 2313 004c 0223     		movs	r3, #2
 2314 004e 36E0     		b	.L120
 2315              	.L122:
 2316              		.loc 1 1297 0 discriminator 2
 2317 0050 FB68     		ldr	r3, [r7, #12]
 2318 0052 0122     		movs	r2, #1
 2319 0054 83F83420 		strb	r2, [r3, #52]
1298:Drivers/STM32F1xx_HAL_Driver/Src/stm32f1xx_hal_i2c.c **** 
1299:Drivers/STM32F1xx_HAL_Driver/Src/stm32f1xx_hal_i2c.c ****     /* Disable Pos */
1300:Drivers/STM32F1xx_HAL_Driver/Src/stm32f1xx_hal_i2c.c ****     CLEAR_BIT(hi2c->Instance->CR1, I2C_CR1_POS);
 2320              		.loc 1 1300 0 is_stmt 1 discriminator 2
 2321 0058 FB68     		ldr	r3, [r7, #12]
 2322 005a 1B68     		ldr	r3, [r3]
 2323 005c FA68     		ldr	r2, [r7, #12]
 2324 005e 1268     		ldr	r2, [r2]
 2325 0060 1268     		ldr	r2, [r2]
 2326 0062 22F40062 		bic	r2, r2, #2048
 2327 0066 1A60     		str	r2, [r3]
1301:Drivers/STM32F1xx_HAL_Driver/Src/stm32f1xx_hal_i2c.c **** 
1302:Drivers/STM32F1xx_HAL_Driver/Src/stm32f1xx_hal_i2c.c ****     hi2c->State = HAL_I2C_STATE_BUSY_TX;
 2328              		.loc 1 1302 0 discriminator 2
 2329 0068 FB68     		ldr	r3, [r7, #12]
 2330 006a 2122     		movs	r2, #33
 2331 006c 83F83520 		strb	r2, [r3, #53]
1303:Drivers/STM32F1xx_HAL_Driver/Src/stm32f1xx_hal_i2c.c ****     hi2c->Mode = HAL_I2C_MODE_SLAVE;
 2332              		.loc 1 1303 0 discriminator 2
 2333 0070 FB68     		ldr	r3, [r7, #12]
 2334 0072 2022     		movs	r2, #32
 2335 0074 83F83620 		strb	r2, [r3, #54]
1304:Drivers/STM32F1xx_HAL_Driver/Src/stm32f1xx_hal_i2c.c ****     hi2c->ErrorCode = HAL_I2C_ERROR_NONE;
 2336              		.loc 1 1304 0 discriminator 2
 2337 0078 FB68     		ldr	r3, [r7, #12]
 2338 007a 0022     		movs	r2, #0
 2339 007c 9A63     		str	r2, [r3, #56]
1305:Drivers/STM32F1xx_HAL_Driver/Src/stm32f1xx_hal_i2c.c **** 
1306:Drivers/STM32F1xx_HAL_Driver/Src/stm32f1xx_hal_i2c.c ****     hi2c->pBuffPtr = pData;
 2340              		.loc 1 1306 0 discriminator 2
 2341 007e FB68     		ldr	r3, [r7, #12]
ARM GAS  /var/folders/kh/x4vltyy52lbg7p4pcyglc5080000gp/T//cccbl2Nm.s 			page 66


 2342 0080 BA68     		ldr	r2, [r7, #8]
 2343 0082 5A62     		str	r2, [r3, #36]
1307:Drivers/STM32F1xx_HAL_Driver/Src/stm32f1xx_hal_i2c.c ****     hi2c->XferSize = Size;
 2344              		.loc 1 1307 0 discriminator 2
 2345 0084 FB68     		ldr	r3, [r7, #12]
 2346 0086 FA88     		ldrh	r2, [r7, #6]	@ movhi
 2347 0088 1A85     		strh	r2, [r3, #40]	@ movhi
1308:Drivers/STM32F1xx_HAL_Driver/Src/stm32f1xx_hal_i2c.c ****     hi2c->XferCount = Size;
 2348              		.loc 1 1308 0 discriminator 2
 2349 008a FB68     		ldr	r3, [r7, #12]
 2350 008c FA88     		ldrh	r2, [r7, #6]	@ movhi
 2351 008e 5A85     		strh	r2, [r3, #42]	@ movhi
1309:Drivers/STM32F1xx_HAL_Driver/Src/stm32f1xx_hal_i2c.c **** 
1310:Drivers/STM32F1xx_HAL_Driver/Src/stm32f1xx_hal_i2c.c ****     /* Enable Address Acknowledge */
1311:Drivers/STM32F1xx_HAL_Driver/Src/stm32f1xx_hal_i2c.c ****     SET_BIT(hi2c->Instance->CR1, I2C_CR1_ACK);
 2352              		.loc 1 1311 0 discriminator 2
 2353 0090 FB68     		ldr	r3, [r7, #12]
 2354 0092 1B68     		ldr	r3, [r3]
 2355 0094 FA68     		ldr	r2, [r7, #12]
 2356 0096 1268     		ldr	r2, [r2]
 2357 0098 1268     		ldr	r2, [r2]
 2358 009a 42F48062 		orr	r2, r2, #1024
 2359 009e 1A60     		str	r2, [r3]
1312:Drivers/STM32F1xx_HAL_Driver/Src/stm32f1xx_hal_i2c.c **** 
1313:Drivers/STM32F1xx_HAL_Driver/Src/stm32f1xx_hal_i2c.c ****     /* Process Unlocked */
1314:Drivers/STM32F1xx_HAL_Driver/Src/stm32f1xx_hal_i2c.c ****     __HAL_UNLOCK(hi2c);
 2360              		.loc 1 1314 0 discriminator 2
 2361 00a0 FB68     		ldr	r3, [r7, #12]
 2362 00a2 0022     		movs	r2, #0
 2363 00a4 83F83420 		strb	r2, [r3, #52]
1315:Drivers/STM32F1xx_HAL_Driver/Src/stm32f1xx_hal_i2c.c **** 
1316:Drivers/STM32F1xx_HAL_Driver/Src/stm32f1xx_hal_i2c.c ****     /* Note : The I2C interrupts must be enabled after unlocking current process
1317:Drivers/STM32F1xx_HAL_Driver/Src/stm32f1xx_hal_i2c.c ****               to avoid the risk of I2C interrupt handle execution before current
1318:Drivers/STM32F1xx_HAL_Driver/Src/stm32f1xx_hal_i2c.c ****               process unlock */
1319:Drivers/STM32F1xx_HAL_Driver/Src/stm32f1xx_hal_i2c.c **** 
1320:Drivers/STM32F1xx_HAL_Driver/Src/stm32f1xx_hal_i2c.c ****     /* Enable EVT, BUF and ERR interrupt */
1321:Drivers/STM32F1xx_HAL_Driver/Src/stm32f1xx_hal_i2c.c ****     __HAL_I2C_ENABLE_IT(hi2c, I2C_IT_EVT | I2C_IT_BUF | I2C_IT_ERR);
 2364              		.loc 1 1321 0 discriminator 2
 2365 00a8 FB68     		ldr	r3, [r7, #12]
 2366 00aa 1B68     		ldr	r3, [r3]
 2367 00ac FA68     		ldr	r2, [r7, #12]
 2368 00ae 1268     		ldr	r2, [r2]
 2369 00b0 5268     		ldr	r2, [r2, #4]
 2370 00b2 42F4E062 		orr	r2, r2, #1792
 2371 00b6 5A60     		str	r2, [r3, #4]
1322:Drivers/STM32F1xx_HAL_Driver/Src/stm32f1xx_hal_i2c.c **** 
1323:Drivers/STM32F1xx_HAL_Driver/Src/stm32f1xx_hal_i2c.c ****     return HAL_OK;
 2372              		.loc 1 1323 0 discriminator 2
 2373 00b8 0023     		movs	r3, #0
 2374 00ba 00E0     		b	.L120
 2375              	.L117:
1324:Drivers/STM32F1xx_HAL_Driver/Src/stm32f1xx_hal_i2c.c ****   }
1325:Drivers/STM32F1xx_HAL_Driver/Src/stm32f1xx_hal_i2c.c ****   else
1326:Drivers/STM32F1xx_HAL_Driver/Src/stm32f1xx_hal_i2c.c ****   {
1327:Drivers/STM32F1xx_HAL_Driver/Src/stm32f1xx_hal_i2c.c ****     return HAL_BUSY;
 2376              		.loc 1 1327 0
 2377 00bc 0223     		movs	r3, #2
ARM GAS  /var/folders/kh/x4vltyy52lbg7p4pcyglc5080000gp/T//cccbl2Nm.s 			page 67


 2378              	.L120:
1328:Drivers/STM32F1xx_HAL_Driver/Src/stm32f1xx_hal_i2c.c ****   }
1329:Drivers/STM32F1xx_HAL_Driver/Src/stm32f1xx_hal_i2c.c **** }
 2379              		.loc 1 1329 0
 2380 00be 1846     		mov	r0, r3
 2381 00c0 1037     		adds	r7, r7, #16
 2382              	.LCFI55:
 2383              		.cfi_def_cfa_offset 8
 2384 00c2 BD46     		mov	sp, r7
 2385              	.LCFI56:
 2386              		.cfi_def_cfa_register 13
 2387              		@ sp needed
 2388 00c4 80BD     		pop	{r7, pc}
 2389              	.L124:
 2390 00c6 00BF     		.align	2
 2391              	.L123:
 2392 00c8 02001000 		.word	1048578
 2393              		.cfi_endproc
 2394              	.LFE74:
 2396              		.section	.text.HAL_I2C_Slave_Receive_IT,"ax",%progbits
 2397              		.align	2
 2398              		.global	HAL_I2C_Slave_Receive_IT
 2399              		.thumb
 2400              		.thumb_func
 2402              	HAL_I2C_Slave_Receive_IT:
 2403              	.LFB75:
1330:Drivers/STM32F1xx_HAL_Driver/Src/stm32f1xx_hal_i2c.c **** 
1331:Drivers/STM32F1xx_HAL_Driver/Src/stm32f1xx_hal_i2c.c **** /**
1332:Drivers/STM32F1xx_HAL_Driver/Src/stm32f1xx_hal_i2c.c ****   * @brief  Receive in slave mode an amount of data in non-blocking mode with Interrupt 
1333:Drivers/STM32F1xx_HAL_Driver/Src/stm32f1xx_hal_i2c.c ****   * @param  hi2c Pointer to a I2C_HandleTypeDef structure that contains
1334:Drivers/STM32F1xx_HAL_Driver/Src/stm32f1xx_hal_i2c.c ****   *                the configuration information for the specified I2C.
1335:Drivers/STM32F1xx_HAL_Driver/Src/stm32f1xx_hal_i2c.c ****   * @param  pData Pointer to data buffer
1336:Drivers/STM32F1xx_HAL_Driver/Src/stm32f1xx_hal_i2c.c ****   * @param  Size Amount of data to be sent
1337:Drivers/STM32F1xx_HAL_Driver/Src/stm32f1xx_hal_i2c.c ****   * @retval HAL status
1338:Drivers/STM32F1xx_HAL_Driver/Src/stm32f1xx_hal_i2c.c ****   */
1339:Drivers/STM32F1xx_HAL_Driver/Src/stm32f1xx_hal_i2c.c **** HAL_StatusTypeDef HAL_I2C_Slave_Receive_IT(I2C_HandleTypeDef *hi2c, uint8_t *pData, uint16_t Size)
1340:Drivers/STM32F1xx_HAL_Driver/Src/stm32f1xx_hal_i2c.c **** {
 2404              		.loc 1 1340 0
 2405              		.cfi_startproc
 2406              		@ args = 0, pretend = 0, frame = 16
 2407              		@ frame_needed = 1, uses_anonymous_args = 0
 2408 0000 80B5     		push	{r7, lr}
 2409              	.LCFI57:
 2410              		.cfi_def_cfa_offset 8
 2411              		.cfi_offset 7, -8
 2412              		.cfi_offset 14, -4
 2413 0002 84B0     		sub	sp, sp, #16
 2414              	.LCFI58:
 2415              		.cfi_def_cfa_offset 24
 2416 0004 00AF     		add	r7, sp, #0
 2417              	.LCFI59:
 2418              		.cfi_def_cfa_register 7
 2419 0006 F860     		str	r0, [r7, #12]
 2420 0008 B960     		str	r1, [r7, #8]
 2421 000a 1346     		mov	r3, r2
 2422 000c FB80     		strh	r3, [r7, #6]	@ movhi
1341:Drivers/STM32F1xx_HAL_Driver/Src/stm32f1xx_hal_i2c.c ****   if(hi2c->State == HAL_I2C_STATE_READY)
ARM GAS  /var/folders/kh/x4vltyy52lbg7p4pcyglc5080000gp/T//cccbl2Nm.s 			page 68


 2423              		.loc 1 1341 0
 2424 000e FB68     		ldr	r3, [r7, #12]
 2425 0010 93F83530 		ldrb	r3, [r3, #53]
 2426 0014 DBB2     		uxtb	r3, r3
 2427 0016 202B     		cmp	r3, #32
 2428 0018 50D1     		bne	.L126
1342:Drivers/STM32F1xx_HAL_Driver/Src/stm32f1xx_hal_i2c.c ****   {
1343:Drivers/STM32F1xx_HAL_Driver/Src/stm32f1xx_hal_i2c.c ****     if((pData == NULL) || (Size == 0))
 2429              		.loc 1 1343 0
 2430 001a BB68     		ldr	r3, [r7, #8]
 2431 001c 002B     		cmp	r3, #0
 2432 001e 02D0     		beq	.L127
 2433              		.loc 1 1343 0 is_stmt 0 discriminator 1
 2434 0020 FB88     		ldrh	r3, [r7, #6]
 2435 0022 002B     		cmp	r3, #0
 2436 0024 01D1     		bne	.L128
 2437              	.L127:
1344:Drivers/STM32F1xx_HAL_Driver/Src/stm32f1xx_hal_i2c.c ****     {
1345:Drivers/STM32F1xx_HAL_Driver/Src/stm32f1xx_hal_i2c.c ****       return  HAL_ERROR;
 2438              		.loc 1 1345 0 is_stmt 1
 2439 0026 0123     		movs	r3, #1
 2440 0028 49E0     		b	.L129
 2441              	.L128:
1346:Drivers/STM32F1xx_HAL_Driver/Src/stm32f1xx_hal_i2c.c ****     }
1347:Drivers/STM32F1xx_HAL_Driver/Src/stm32f1xx_hal_i2c.c **** 
1348:Drivers/STM32F1xx_HAL_Driver/Src/stm32f1xx_hal_i2c.c ****     if(I2C_WaitOnFlagUntilTimeout(hi2c, I2C_FLAG_BUSY, SET, I2C_TIMEOUT_BUSY_FLAG) != HAL_OK)
 2442              		.loc 1 1348 0
 2443 002a 42F21073 		movw	r3, #10000
 2444 002e 0122     		movs	r2, #1
 2445 0030 2549     		ldr	r1, .L132
 2446 0032 F868     		ldr	r0, [r7, #12]
 2447 0034 FFF7FEFF 		bl	I2C_WaitOnFlagUntilTimeout
 2448 0038 0346     		mov	r3, r0
 2449 003a 002B     		cmp	r3, #0
 2450 003c 01D0     		beq	.L130
1349:Drivers/STM32F1xx_HAL_Driver/Src/stm32f1xx_hal_i2c.c ****     {
1350:Drivers/STM32F1xx_HAL_Driver/Src/stm32f1xx_hal_i2c.c ****       return HAL_BUSY;
 2451              		.loc 1 1350 0
 2452 003e 0223     		movs	r3, #2
 2453 0040 3DE0     		b	.L129
 2454              	.L130:
1351:Drivers/STM32F1xx_HAL_Driver/Src/stm32f1xx_hal_i2c.c ****     }
1352:Drivers/STM32F1xx_HAL_Driver/Src/stm32f1xx_hal_i2c.c **** 
1353:Drivers/STM32F1xx_HAL_Driver/Src/stm32f1xx_hal_i2c.c ****     /* Process Locked */
1354:Drivers/STM32F1xx_HAL_Driver/Src/stm32f1xx_hal_i2c.c ****     __HAL_LOCK(hi2c);
 2455              		.loc 1 1354 0
 2456 0042 FB68     		ldr	r3, [r7, #12]
 2457 0044 93F83430 		ldrb	r3, [r3, #52]	@ zero_extendqisi2
 2458 0048 012B     		cmp	r3, #1
 2459 004a 01D1     		bne	.L131
 2460              		.loc 1 1354 0 is_stmt 0 discriminator 1
 2461 004c 0223     		movs	r3, #2
 2462 004e 36E0     		b	.L129
 2463              	.L131:
 2464              		.loc 1 1354 0 discriminator 2
 2465 0050 FB68     		ldr	r3, [r7, #12]
 2466 0052 0122     		movs	r2, #1
ARM GAS  /var/folders/kh/x4vltyy52lbg7p4pcyglc5080000gp/T//cccbl2Nm.s 			page 69


 2467 0054 83F83420 		strb	r2, [r3, #52]
1355:Drivers/STM32F1xx_HAL_Driver/Src/stm32f1xx_hal_i2c.c **** 
1356:Drivers/STM32F1xx_HAL_Driver/Src/stm32f1xx_hal_i2c.c ****     /* Disable Pos */
1357:Drivers/STM32F1xx_HAL_Driver/Src/stm32f1xx_hal_i2c.c ****     CLEAR_BIT(hi2c->Instance->CR1, I2C_CR1_POS);
 2468              		.loc 1 1357 0 is_stmt 1 discriminator 2
 2469 0058 FB68     		ldr	r3, [r7, #12]
 2470 005a 1B68     		ldr	r3, [r3]
 2471 005c FA68     		ldr	r2, [r7, #12]
 2472 005e 1268     		ldr	r2, [r2]
 2473 0060 1268     		ldr	r2, [r2]
 2474 0062 22F40062 		bic	r2, r2, #2048
 2475 0066 1A60     		str	r2, [r3]
1358:Drivers/STM32F1xx_HAL_Driver/Src/stm32f1xx_hal_i2c.c **** 
1359:Drivers/STM32F1xx_HAL_Driver/Src/stm32f1xx_hal_i2c.c ****     hi2c->State = HAL_I2C_STATE_BUSY_RX;
 2476              		.loc 1 1359 0 discriminator 2
 2477 0068 FB68     		ldr	r3, [r7, #12]
 2478 006a 2222     		movs	r2, #34
 2479 006c 83F83520 		strb	r2, [r3, #53]
1360:Drivers/STM32F1xx_HAL_Driver/Src/stm32f1xx_hal_i2c.c ****     hi2c->Mode = HAL_I2C_MODE_SLAVE;
 2480              		.loc 1 1360 0 discriminator 2
 2481 0070 FB68     		ldr	r3, [r7, #12]
 2482 0072 2022     		movs	r2, #32
 2483 0074 83F83620 		strb	r2, [r3, #54]
1361:Drivers/STM32F1xx_HAL_Driver/Src/stm32f1xx_hal_i2c.c ****     hi2c->ErrorCode = HAL_I2C_ERROR_NONE;
 2484              		.loc 1 1361 0 discriminator 2
 2485 0078 FB68     		ldr	r3, [r7, #12]
 2486 007a 0022     		movs	r2, #0
 2487 007c 9A63     		str	r2, [r3, #56]
1362:Drivers/STM32F1xx_HAL_Driver/Src/stm32f1xx_hal_i2c.c **** 
1363:Drivers/STM32F1xx_HAL_Driver/Src/stm32f1xx_hal_i2c.c ****     hi2c->pBuffPtr = pData;
 2488              		.loc 1 1363 0 discriminator 2
 2489 007e FB68     		ldr	r3, [r7, #12]
 2490 0080 BA68     		ldr	r2, [r7, #8]
 2491 0082 5A62     		str	r2, [r3, #36]
1364:Drivers/STM32F1xx_HAL_Driver/Src/stm32f1xx_hal_i2c.c ****     hi2c->XferSize = Size;
 2492              		.loc 1 1364 0 discriminator 2
 2493 0084 FB68     		ldr	r3, [r7, #12]
 2494 0086 FA88     		ldrh	r2, [r7, #6]	@ movhi
 2495 0088 1A85     		strh	r2, [r3, #40]	@ movhi
1365:Drivers/STM32F1xx_HAL_Driver/Src/stm32f1xx_hal_i2c.c ****     hi2c->XferCount = Size;
 2496              		.loc 1 1365 0 discriminator 2
 2497 008a FB68     		ldr	r3, [r7, #12]
 2498 008c FA88     		ldrh	r2, [r7, #6]	@ movhi
 2499 008e 5A85     		strh	r2, [r3, #42]	@ movhi
1366:Drivers/STM32F1xx_HAL_Driver/Src/stm32f1xx_hal_i2c.c **** 
1367:Drivers/STM32F1xx_HAL_Driver/Src/stm32f1xx_hal_i2c.c ****     /* Enable Address Acknowledge */
1368:Drivers/STM32F1xx_HAL_Driver/Src/stm32f1xx_hal_i2c.c ****     SET_BIT(hi2c->Instance->CR1, I2C_CR1_ACK);
 2500              		.loc 1 1368 0 discriminator 2
 2501 0090 FB68     		ldr	r3, [r7, #12]
 2502 0092 1B68     		ldr	r3, [r3]
 2503 0094 FA68     		ldr	r2, [r7, #12]
 2504 0096 1268     		ldr	r2, [r2]
 2505 0098 1268     		ldr	r2, [r2]
 2506 009a 42F48062 		orr	r2, r2, #1024
 2507 009e 1A60     		str	r2, [r3]
1369:Drivers/STM32F1xx_HAL_Driver/Src/stm32f1xx_hal_i2c.c **** 
1370:Drivers/STM32F1xx_HAL_Driver/Src/stm32f1xx_hal_i2c.c ****     /* Process Unlocked */
ARM GAS  /var/folders/kh/x4vltyy52lbg7p4pcyglc5080000gp/T//cccbl2Nm.s 			page 70


1371:Drivers/STM32F1xx_HAL_Driver/Src/stm32f1xx_hal_i2c.c ****     __HAL_UNLOCK(hi2c);
 2508              		.loc 1 1371 0 discriminator 2
 2509 00a0 FB68     		ldr	r3, [r7, #12]
 2510 00a2 0022     		movs	r2, #0
 2511 00a4 83F83420 		strb	r2, [r3, #52]
1372:Drivers/STM32F1xx_HAL_Driver/Src/stm32f1xx_hal_i2c.c **** 
1373:Drivers/STM32F1xx_HAL_Driver/Src/stm32f1xx_hal_i2c.c ****     /* Note : The I2C interrupts must be enabled after unlocking current process
1374:Drivers/STM32F1xx_HAL_Driver/Src/stm32f1xx_hal_i2c.c ****               to avoid the risk of I2C interrupt handle execution before current
1375:Drivers/STM32F1xx_HAL_Driver/Src/stm32f1xx_hal_i2c.c ****               process unlock */
1376:Drivers/STM32F1xx_HAL_Driver/Src/stm32f1xx_hal_i2c.c **** 
1377:Drivers/STM32F1xx_HAL_Driver/Src/stm32f1xx_hal_i2c.c ****     /* Enable EVT, BUF and ERR interrupt */
1378:Drivers/STM32F1xx_HAL_Driver/Src/stm32f1xx_hal_i2c.c ****     __HAL_I2C_ENABLE_IT(hi2c, I2C_IT_EVT | I2C_IT_BUF | I2C_IT_ERR);
 2512              		.loc 1 1378 0 discriminator 2
 2513 00a8 FB68     		ldr	r3, [r7, #12]
 2514 00aa 1B68     		ldr	r3, [r3]
 2515 00ac FA68     		ldr	r2, [r7, #12]
 2516 00ae 1268     		ldr	r2, [r2]
 2517 00b0 5268     		ldr	r2, [r2, #4]
 2518 00b2 42F4E062 		orr	r2, r2, #1792
 2519 00b6 5A60     		str	r2, [r3, #4]
1379:Drivers/STM32F1xx_HAL_Driver/Src/stm32f1xx_hal_i2c.c **** 
1380:Drivers/STM32F1xx_HAL_Driver/Src/stm32f1xx_hal_i2c.c ****     return HAL_OK;
 2520              		.loc 1 1380 0 discriminator 2
 2521 00b8 0023     		movs	r3, #0
 2522 00ba 00E0     		b	.L129
 2523              	.L126:
1381:Drivers/STM32F1xx_HAL_Driver/Src/stm32f1xx_hal_i2c.c ****   }
1382:Drivers/STM32F1xx_HAL_Driver/Src/stm32f1xx_hal_i2c.c ****   else
1383:Drivers/STM32F1xx_HAL_Driver/Src/stm32f1xx_hal_i2c.c ****   {
1384:Drivers/STM32F1xx_HAL_Driver/Src/stm32f1xx_hal_i2c.c ****     return HAL_BUSY;
 2524              		.loc 1 1384 0
 2525 00bc 0223     		movs	r3, #2
 2526              	.L129:
1385:Drivers/STM32F1xx_HAL_Driver/Src/stm32f1xx_hal_i2c.c ****   }
1386:Drivers/STM32F1xx_HAL_Driver/Src/stm32f1xx_hal_i2c.c **** }
 2527              		.loc 1 1386 0
 2528 00be 1846     		mov	r0, r3
 2529 00c0 1037     		adds	r7, r7, #16
 2530              	.LCFI60:
 2531              		.cfi_def_cfa_offset 8
 2532 00c2 BD46     		mov	sp, r7
 2533              	.LCFI61:
 2534              		.cfi_def_cfa_register 13
 2535              		@ sp needed
 2536 00c4 80BD     		pop	{r7, pc}
 2537              	.L133:
 2538 00c6 00BF     		.align	2
 2539              	.L132:
 2540 00c8 02001000 		.word	1048578
 2541              		.cfi_endproc
 2542              	.LFE75:
 2544              		.section	.text.HAL_I2C_Master_Transmit_DMA,"ax",%progbits
 2545              		.align	2
 2546              		.global	HAL_I2C_Master_Transmit_DMA
 2547              		.thumb
 2548              		.thumb_func
 2550              	HAL_I2C_Master_Transmit_DMA:
ARM GAS  /var/folders/kh/x4vltyy52lbg7p4pcyglc5080000gp/T//cccbl2Nm.s 			page 71


 2551              	.LFB76:
1387:Drivers/STM32F1xx_HAL_Driver/Src/stm32f1xx_hal_i2c.c **** 
1388:Drivers/STM32F1xx_HAL_Driver/Src/stm32f1xx_hal_i2c.c ****  
1389:Drivers/STM32F1xx_HAL_Driver/Src/stm32f1xx_hal_i2c.c **** /**
1390:Drivers/STM32F1xx_HAL_Driver/Src/stm32f1xx_hal_i2c.c ****   * @brief  Transmit in master mode an amount of data in non-blocking mode with DMA
1391:Drivers/STM32F1xx_HAL_Driver/Src/stm32f1xx_hal_i2c.c ****   * @param  hi2c Pointer to a I2C_HandleTypeDef structure that contains
1392:Drivers/STM32F1xx_HAL_Driver/Src/stm32f1xx_hal_i2c.c ****   *                the configuration information for the specified I2C.
1393:Drivers/STM32F1xx_HAL_Driver/Src/stm32f1xx_hal_i2c.c ****   * @param  DevAddress Target device address
1394:Drivers/STM32F1xx_HAL_Driver/Src/stm32f1xx_hal_i2c.c ****   * @param  pData Pointer to data buffer
1395:Drivers/STM32F1xx_HAL_Driver/Src/stm32f1xx_hal_i2c.c ****   * @param  Size Amount of data to be sent
1396:Drivers/STM32F1xx_HAL_Driver/Src/stm32f1xx_hal_i2c.c ****   * @retval HAL status
1397:Drivers/STM32F1xx_HAL_Driver/Src/stm32f1xx_hal_i2c.c ****   */
1398:Drivers/STM32F1xx_HAL_Driver/Src/stm32f1xx_hal_i2c.c **** HAL_StatusTypeDef HAL_I2C_Master_Transmit_DMA(I2C_HandleTypeDef *hi2c, uint16_t DevAddress, uint8_t
1399:Drivers/STM32F1xx_HAL_Driver/Src/stm32f1xx_hal_i2c.c **** {
 2552              		.loc 1 1399 0
 2553              		.cfi_startproc
 2554              		@ args = 0, pretend = 0, frame = 24
 2555              		@ frame_needed = 1, uses_anonymous_args = 0
 2556 0000 80B5     		push	{r7, lr}
 2557              	.LCFI62:
 2558              		.cfi_def_cfa_offset 8
 2559              		.cfi_offset 7, -8
 2560              		.cfi_offset 14, -4
 2561 0002 86B0     		sub	sp, sp, #24
 2562              	.LCFI63:
 2563              		.cfi_def_cfa_offset 32
 2564 0004 00AF     		add	r7, sp, #0
 2565              	.LCFI64:
 2566              		.cfi_def_cfa_register 7
 2567 0006 F860     		str	r0, [r7, #12]
 2568 0008 7A60     		str	r2, [r7, #4]
 2569 000a 1A46     		mov	r2, r3
 2570 000c 0B46     		mov	r3, r1	@ movhi
 2571 000e 7B81     		strh	r3, [r7, #10]	@ movhi
 2572 0010 1346     		mov	r3, r2	@ movhi
 2573 0012 3B81     		strh	r3, [r7, #8]	@ movhi
1400:Drivers/STM32F1xx_HAL_Driver/Src/stm32f1xx_hal_i2c.c ****   if(hi2c->State == HAL_I2C_STATE_READY)
 2574              		.loc 1 1400 0
 2575 0014 FB68     		ldr	r3, [r7, #12]
 2576 0016 93F83530 		ldrb	r3, [r3, #53]
 2577 001a DBB2     		uxtb	r3, r3
 2578 001c 202B     		cmp	r3, #32
 2579 001e 7CD1     		bne	.L135
1401:Drivers/STM32F1xx_HAL_Driver/Src/stm32f1xx_hal_i2c.c ****   {
1402:Drivers/STM32F1xx_HAL_Driver/Src/stm32f1xx_hal_i2c.c ****     if((pData == NULL) || (Size == 0))
 2580              		.loc 1 1402 0
 2581 0020 7B68     		ldr	r3, [r7, #4]
 2582 0022 002B     		cmp	r3, #0
 2583 0024 02D0     		beq	.L136
 2584              		.loc 1 1402 0 is_stmt 0 discriminator 1
 2585 0026 3B89     		ldrh	r3, [r7, #8]
 2586 0028 002B     		cmp	r3, #0
 2587 002a 01D1     		bne	.L137
 2588              	.L136:
1403:Drivers/STM32F1xx_HAL_Driver/Src/stm32f1xx_hal_i2c.c ****     {
1404:Drivers/STM32F1xx_HAL_Driver/Src/stm32f1xx_hal_i2c.c ****       return  HAL_ERROR;
 2589              		.loc 1 1404 0 is_stmt 1
ARM GAS  /var/folders/kh/x4vltyy52lbg7p4pcyglc5080000gp/T//cccbl2Nm.s 			page 72


 2590 002c 0123     		movs	r3, #1
 2591 002e 75E0     		b	.L138
 2592              	.L137:
1405:Drivers/STM32F1xx_HAL_Driver/Src/stm32f1xx_hal_i2c.c ****     }
1406:Drivers/STM32F1xx_HAL_Driver/Src/stm32f1xx_hal_i2c.c **** 
1407:Drivers/STM32F1xx_HAL_Driver/Src/stm32f1xx_hal_i2c.c ****     /* Wait until BUSY flag is reset */
1408:Drivers/STM32F1xx_HAL_Driver/Src/stm32f1xx_hal_i2c.c ****     if(I2C_WaitOnFlagUntilTimeout(hi2c, I2C_FLAG_BUSY, SET, I2C_TIMEOUT_BUSY_FLAG) != HAL_OK)
 2593              		.loc 1 1408 0
 2594 0030 42F21073 		movw	r3, #10000
 2595 0034 0122     		movs	r2, #1
 2596 0036 3B49     		ldr	r1, .L143
 2597 0038 F868     		ldr	r0, [r7, #12]
 2598 003a FFF7FEFF 		bl	I2C_WaitOnFlagUntilTimeout
 2599 003e 0346     		mov	r3, r0
 2600 0040 002B     		cmp	r3, #0
 2601 0042 01D0     		beq	.L139
1409:Drivers/STM32F1xx_HAL_Driver/Src/stm32f1xx_hal_i2c.c ****     {
1410:Drivers/STM32F1xx_HAL_Driver/Src/stm32f1xx_hal_i2c.c ****       return HAL_BUSY;
 2602              		.loc 1 1410 0
 2603 0044 0223     		movs	r3, #2
 2604 0046 69E0     		b	.L138
 2605              	.L139:
1411:Drivers/STM32F1xx_HAL_Driver/Src/stm32f1xx_hal_i2c.c ****     }
1412:Drivers/STM32F1xx_HAL_Driver/Src/stm32f1xx_hal_i2c.c **** 
1413:Drivers/STM32F1xx_HAL_Driver/Src/stm32f1xx_hal_i2c.c ****     /* Process Locked */
1414:Drivers/STM32F1xx_HAL_Driver/Src/stm32f1xx_hal_i2c.c ****     __HAL_LOCK(hi2c);
 2606              		.loc 1 1414 0
 2607 0048 FB68     		ldr	r3, [r7, #12]
 2608 004a 93F83430 		ldrb	r3, [r3, #52]	@ zero_extendqisi2
 2609 004e 012B     		cmp	r3, #1
 2610 0050 01D1     		bne	.L140
 2611              		.loc 1 1414 0 is_stmt 0 discriminator 1
 2612 0052 0223     		movs	r3, #2
 2613 0054 62E0     		b	.L138
 2614              	.L140:
 2615              		.loc 1 1414 0 discriminator 2
 2616 0056 FB68     		ldr	r3, [r7, #12]
 2617 0058 0122     		movs	r2, #1
 2618 005a 83F83420 		strb	r2, [r3, #52]
1415:Drivers/STM32F1xx_HAL_Driver/Src/stm32f1xx_hal_i2c.c **** 
1416:Drivers/STM32F1xx_HAL_Driver/Src/stm32f1xx_hal_i2c.c ****     /* Disable Pos */
1417:Drivers/STM32F1xx_HAL_Driver/Src/stm32f1xx_hal_i2c.c ****     CLEAR_BIT(hi2c->Instance->CR1, I2C_CR1_POS);
 2619              		.loc 1 1417 0 is_stmt 1 discriminator 2
 2620 005e FB68     		ldr	r3, [r7, #12]
 2621 0060 1B68     		ldr	r3, [r3]
 2622 0062 FA68     		ldr	r2, [r7, #12]
 2623 0064 1268     		ldr	r2, [r2]
 2624 0066 1268     		ldr	r2, [r2]
 2625 0068 22F40062 		bic	r2, r2, #2048
 2626 006c 1A60     		str	r2, [r3]
1418:Drivers/STM32F1xx_HAL_Driver/Src/stm32f1xx_hal_i2c.c **** 
1419:Drivers/STM32F1xx_HAL_Driver/Src/stm32f1xx_hal_i2c.c ****     hi2c->State = HAL_I2C_STATE_BUSY_TX;
 2627              		.loc 1 1419 0 discriminator 2
 2628 006e FB68     		ldr	r3, [r7, #12]
 2629 0070 2122     		movs	r2, #33
 2630 0072 83F83520 		strb	r2, [r3, #53]
1420:Drivers/STM32F1xx_HAL_Driver/Src/stm32f1xx_hal_i2c.c ****     hi2c->Mode = HAL_I2C_MODE_MASTER;
ARM GAS  /var/folders/kh/x4vltyy52lbg7p4pcyglc5080000gp/T//cccbl2Nm.s 			page 73


 2631              		.loc 1 1420 0 discriminator 2
 2632 0076 FB68     		ldr	r3, [r7, #12]
 2633 0078 1022     		movs	r2, #16
 2634 007a 83F83620 		strb	r2, [r3, #54]
1421:Drivers/STM32F1xx_HAL_Driver/Src/stm32f1xx_hal_i2c.c ****     hi2c->ErrorCode = HAL_I2C_ERROR_NONE;
 2635              		.loc 1 1421 0 discriminator 2
 2636 007e FB68     		ldr	r3, [r7, #12]
 2637 0080 0022     		movs	r2, #0
 2638 0082 9A63     		str	r2, [r3, #56]
1422:Drivers/STM32F1xx_HAL_Driver/Src/stm32f1xx_hal_i2c.c **** 
1423:Drivers/STM32F1xx_HAL_Driver/Src/stm32f1xx_hal_i2c.c ****     hi2c->pBuffPtr = pData;
 2639              		.loc 1 1423 0 discriminator 2
 2640 0084 FB68     		ldr	r3, [r7, #12]
 2641 0086 7A68     		ldr	r2, [r7, #4]
 2642 0088 5A62     		str	r2, [r3, #36]
1424:Drivers/STM32F1xx_HAL_Driver/Src/stm32f1xx_hal_i2c.c ****     hi2c->XferSize = Size;
 2643              		.loc 1 1424 0 discriminator 2
 2644 008a FB68     		ldr	r3, [r7, #12]
 2645 008c 3A89     		ldrh	r2, [r7, #8]	@ movhi
 2646 008e 1A85     		strh	r2, [r3, #40]	@ movhi
1425:Drivers/STM32F1xx_HAL_Driver/Src/stm32f1xx_hal_i2c.c ****     hi2c->XferCount = Size;
 2647              		.loc 1 1425 0 discriminator 2
 2648 0090 FB68     		ldr	r3, [r7, #12]
 2649 0092 3A89     		ldrh	r2, [r7, #8]	@ movhi
 2650 0094 5A85     		strh	r2, [r3, #42]	@ movhi
1426:Drivers/STM32F1xx_HAL_Driver/Src/stm32f1xx_hal_i2c.c **** 
1427:Drivers/STM32F1xx_HAL_Driver/Src/stm32f1xx_hal_i2c.c ****     /* Set the I2C DMA transfert complete callback */
1428:Drivers/STM32F1xx_HAL_Driver/Src/stm32f1xx_hal_i2c.c ****     hi2c->hdmatx->XferCpltCallback = I2C_DMAMasterTransmitCplt;
 2651              		.loc 1 1428 0 discriminator 2
 2652 0096 FB68     		ldr	r3, [r7, #12]
 2653 0098 DB6A     		ldr	r3, [r3, #44]
 2654 009a 234A     		ldr	r2, .L143+4
 2655 009c 9A62     		str	r2, [r3, #40]
1429:Drivers/STM32F1xx_HAL_Driver/Src/stm32f1xx_hal_i2c.c **** 
1430:Drivers/STM32F1xx_HAL_Driver/Src/stm32f1xx_hal_i2c.c ****     /* Set the DMA error callback */
1431:Drivers/STM32F1xx_HAL_Driver/Src/stm32f1xx_hal_i2c.c ****     hi2c->hdmatx->XferErrorCallback = I2C_DMAError;
 2656              		.loc 1 1431 0 discriminator 2
 2657 009e FB68     		ldr	r3, [r7, #12]
 2658 00a0 DB6A     		ldr	r3, [r3, #44]
 2659 00a2 224A     		ldr	r2, .L143+8
 2660 00a4 1A63     		str	r2, [r3, #48]
1432:Drivers/STM32F1xx_HAL_Driver/Src/stm32f1xx_hal_i2c.c **** 
1433:Drivers/STM32F1xx_HAL_Driver/Src/stm32f1xx_hal_i2c.c ****     /* Enable the DMA channel */
1434:Drivers/STM32F1xx_HAL_Driver/Src/stm32f1xx_hal_i2c.c ****     HAL_DMA_Start_IT(hi2c->hdmatx, (uint32_t)pData, (uint32_t)&hi2c->Instance->DR, Size);
 2661              		.loc 1 1434 0 discriminator 2
 2662 00a6 FB68     		ldr	r3, [r7, #12]
 2663 00a8 D86A     		ldr	r0, [r3, #44]
 2664 00aa 7968     		ldr	r1, [r7, #4]
 2665 00ac FB68     		ldr	r3, [r7, #12]
 2666 00ae 1B68     		ldr	r3, [r3]
 2667 00b0 1033     		adds	r3, r3, #16
 2668 00b2 1A46     		mov	r2, r3
 2669 00b4 3B89     		ldrh	r3, [r7, #8]
 2670 00b6 FFF7FEFF 		bl	HAL_DMA_Start_IT
1435:Drivers/STM32F1xx_HAL_Driver/Src/stm32f1xx_hal_i2c.c **** 
1436:Drivers/STM32F1xx_HAL_Driver/Src/stm32f1xx_hal_i2c.c ****     /* Send Slave Address */
1437:Drivers/STM32F1xx_HAL_Driver/Src/stm32f1xx_hal_i2c.c ****     if(I2C_MasterRequestWrite(hi2c, DevAddress, I2C_TIMEOUT_FLAG) != HAL_OK)
ARM GAS  /var/folders/kh/x4vltyy52lbg7p4pcyglc5080000gp/T//cccbl2Nm.s 			page 74


 2671              		.loc 1 1437 0 discriminator 2
 2672 00ba 7B89     		ldrh	r3, [r7, #10]
 2673 00bc 2322     		movs	r2, #35
 2674 00be 1946     		mov	r1, r3
 2675 00c0 F868     		ldr	r0, [r7, #12]
 2676 00c2 FFF7FEFF 		bl	I2C_MasterRequestWrite
 2677 00c6 0346     		mov	r3, r0
 2678 00c8 002B     		cmp	r3, #0
 2679 00ca 0FD0     		beq	.L141
1438:Drivers/STM32F1xx_HAL_Driver/Src/stm32f1xx_hal_i2c.c ****     {
1439:Drivers/STM32F1xx_HAL_Driver/Src/stm32f1xx_hal_i2c.c ****       if(hi2c->ErrorCode == HAL_I2C_ERROR_AF)
 2680              		.loc 1 1439 0
 2681 00cc FB68     		ldr	r3, [r7, #12]
 2682 00ce 9B6B     		ldr	r3, [r3, #56]
 2683 00d0 042B     		cmp	r3, #4
 2684 00d2 05D1     		bne	.L142
1440:Drivers/STM32F1xx_HAL_Driver/Src/stm32f1xx_hal_i2c.c ****       {
1441:Drivers/STM32F1xx_HAL_Driver/Src/stm32f1xx_hal_i2c.c ****         /* Process Unlocked */
1442:Drivers/STM32F1xx_HAL_Driver/Src/stm32f1xx_hal_i2c.c ****         __HAL_UNLOCK(hi2c);
 2685              		.loc 1 1442 0
 2686 00d4 FB68     		ldr	r3, [r7, #12]
 2687 00d6 0022     		movs	r2, #0
 2688 00d8 83F83420 		strb	r2, [r3, #52]
1443:Drivers/STM32F1xx_HAL_Driver/Src/stm32f1xx_hal_i2c.c ****         return HAL_ERROR;
 2689              		.loc 1 1443 0
 2690 00dc 0123     		movs	r3, #1
 2691 00de 1DE0     		b	.L138
 2692              	.L142:
1444:Drivers/STM32F1xx_HAL_Driver/Src/stm32f1xx_hal_i2c.c ****       }
1445:Drivers/STM32F1xx_HAL_Driver/Src/stm32f1xx_hal_i2c.c ****       else
1446:Drivers/STM32F1xx_HAL_Driver/Src/stm32f1xx_hal_i2c.c ****       {
1447:Drivers/STM32F1xx_HAL_Driver/Src/stm32f1xx_hal_i2c.c ****         /* Process Unlocked */
1448:Drivers/STM32F1xx_HAL_Driver/Src/stm32f1xx_hal_i2c.c ****         __HAL_UNLOCK(hi2c);
 2693              		.loc 1 1448 0
 2694 00e0 FB68     		ldr	r3, [r7, #12]
 2695 00e2 0022     		movs	r2, #0
 2696 00e4 83F83420 		strb	r2, [r3, #52]
1449:Drivers/STM32F1xx_HAL_Driver/Src/stm32f1xx_hal_i2c.c ****         return HAL_TIMEOUT;
 2697              		.loc 1 1449 0
 2698 00e8 0323     		movs	r3, #3
 2699 00ea 17E0     		b	.L138
 2700              	.L141:
1450:Drivers/STM32F1xx_HAL_Driver/Src/stm32f1xx_hal_i2c.c ****       }
1451:Drivers/STM32F1xx_HAL_Driver/Src/stm32f1xx_hal_i2c.c ****     }
1452:Drivers/STM32F1xx_HAL_Driver/Src/stm32f1xx_hal_i2c.c **** 
1453:Drivers/STM32F1xx_HAL_Driver/Src/stm32f1xx_hal_i2c.c ****     /* Enable DMA Request */
1454:Drivers/STM32F1xx_HAL_Driver/Src/stm32f1xx_hal_i2c.c ****     SET_BIT(hi2c->Instance->CR2, I2C_CR2_DMAEN);
 2701              		.loc 1 1454 0
 2702 00ec FB68     		ldr	r3, [r7, #12]
 2703 00ee 1B68     		ldr	r3, [r3]
 2704 00f0 FA68     		ldr	r2, [r7, #12]
 2705 00f2 1268     		ldr	r2, [r2]
 2706 00f4 5268     		ldr	r2, [r2, #4]
 2707 00f6 42F40062 		orr	r2, r2, #2048
 2708 00fa 5A60     		str	r2, [r3, #4]
 2709              	.LBB68:
1455:Drivers/STM32F1xx_HAL_Driver/Src/stm32f1xx_hal_i2c.c **** 
ARM GAS  /var/folders/kh/x4vltyy52lbg7p4pcyglc5080000gp/T//cccbl2Nm.s 			page 75


1456:Drivers/STM32F1xx_HAL_Driver/Src/stm32f1xx_hal_i2c.c ****     /* Clear ADDR flag */
1457:Drivers/STM32F1xx_HAL_Driver/Src/stm32f1xx_hal_i2c.c ****     __HAL_I2C_CLEAR_ADDRFLAG(hi2c);
 2710              		.loc 1 1457 0
 2711 00fc FB68     		ldr	r3, [r7, #12]
 2712 00fe 1B68     		ldr	r3, [r3]
 2713 0100 5B69     		ldr	r3, [r3, #20]
 2714 0102 7B61     		str	r3, [r7, #20]
 2715 0104 FB68     		ldr	r3, [r7, #12]
 2716 0106 1B68     		ldr	r3, [r3]
 2717 0108 9B69     		ldr	r3, [r3, #24]
 2718 010a 7B61     		str	r3, [r7, #20]
 2719 010c 7B69     		ldr	r3, [r7, #20]
 2720              	.LBE68:
1458:Drivers/STM32F1xx_HAL_Driver/Src/stm32f1xx_hal_i2c.c **** 
1459:Drivers/STM32F1xx_HAL_Driver/Src/stm32f1xx_hal_i2c.c ****     /* Process Unlocked */
1460:Drivers/STM32F1xx_HAL_Driver/Src/stm32f1xx_hal_i2c.c ****     __HAL_UNLOCK(hi2c);
 2721              		.loc 1 1460 0
 2722 010e FB68     		ldr	r3, [r7, #12]
 2723 0110 0022     		movs	r2, #0
 2724 0112 83F83420 		strb	r2, [r3, #52]
1461:Drivers/STM32F1xx_HAL_Driver/Src/stm32f1xx_hal_i2c.c **** 
1462:Drivers/STM32F1xx_HAL_Driver/Src/stm32f1xx_hal_i2c.c ****     return HAL_OK;
 2725              		.loc 1 1462 0
 2726 0116 0023     		movs	r3, #0
 2727 0118 00E0     		b	.L138
 2728              	.L135:
1463:Drivers/STM32F1xx_HAL_Driver/Src/stm32f1xx_hal_i2c.c ****   }
1464:Drivers/STM32F1xx_HAL_Driver/Src/stm32f1xx_hal_i2c.c ****   else
1465:Drivers/STM32F1xx_HAL_Driver/Src/stm32f1xx_hal_i2c.c ****   {
1466:Drivers/STM32F1xx_HAL_Driver/Src/stm32f1xx_hal_i2c.c ****     return HAL_BUSY;
 2729              		.loc 1 1466 0
 2730 011a 0223     		movs	r3, #2
 2731              	.L138:
1467:Drivers/STM32F1xx_HAL_Driver/Src/stm32f1xx_hal_i2c.c ****   }
1468:Drivers/STM32F1xx_HAL_Driver/Src/stm32f1xx_hal_i2c.c **** }
 2732              		.loc 1 1468 0
 2733 011c 1846     		mov	r0, r3
 2734 011e 1837     		adds	r7, r7, #24
 2735              	.LCFI65:
 2736              		.cfi_def_cfa_offset 8
 2737 0120 BD46     		mov	sp, r7
 2738              	.LCFI66:
 2739              		.cfi_def_cfa_register 13
 2740              		@ sp needed
 2741 0122 80BD     		pop	{r7, pc}
 2742              	.L144:
 2743              		.align	2
 2744              	.L143:
 2745 0124 02001000 		.word	1048578
 2746 0128 00000000 		.word	I2C_DMAMasterTransmitCplt
 2747 012c 00000000 		.word	I2C_DMAError
 2748              		.cfi_endproc
 2749              	.LFE76:
 2751              		.section	.text.HAL_I2C_Master_Receive_DMA,"ax",%progbits
 2752              		.align	2
 2753              		.global	HAL_I2C_Master_Receive_DMA
 2754              		.thumb
ARM GAS  /var/folders/kh/x4vltyy52lbg7p4pcyglc5080000gp/T//cccbl2Nm.s 			page 76


 2755              		.thumb_func
 2757              	HAL_I2C_Master_Receive_DMA:
 2758              	.LFB77:
1469:Drivers/STM32F1xx_HAL_Driver/Src/stm32f1xx_hal_i2c.c **** 
1470:Drivers/STM32F1xx_HAL_Driver/Src/stm32f1xx_hal_i2c.c **** /**
1471:Drivers/STM32F1xx_HAL_Driver/Src/stm32f1xx_hal_i2c.c ****   * @brief  Receive in master mode an amount of data in non-blocking mode with DMA
1472:Drivers/STM32F1xx_HAL_Driver/Src/stm32f1xx_hal_i2c.c ****   * @param  hi2c Pointer to a I2C_HandleTypeDef structure that contains
1473:Drivers/STM32F1xx_HAL_Driver/Src/stm32f1xx_hal_i2c.c ****   *                the configuration information for the specified I2C.
1474:Drivers/STM32F1xx_HAL_Driver/Src/stm32f1xx_hal_i2c.c ****   * @param  DevAddress Target device address
1475:Drivers/STM32F1xx_HAL_Driver/Src/stm32f1xx_hal_i2c.c ****   * @param  pData Pointer to data buffer
1476:Drivers/STM32F1xx_HAL_Driver/Src/stm32f1xx_hal_i2c.c ****   * @param  Size Amount of data to be sent
1477:Drivers/STM32F1xx_HAL_Driver/Src/stm32f1xx_hal_i2c.c ****   * @retval HAL status
1478:Drivers/STM32F1xx_HAL_Driver/Src/stm32f1xx_hal_i2c.c ****   */
1479:Drivers/STM32F1xx_HAL_Driver/Src/stm32f1xx_hal_i2c.c **** HAL_StatusTypeDef HAL_I2C_Master_Receive_DMA(I2C_HandleTypeDef *hi2c, uint16_t DevAddress, uint8_t 
1480:Drivers/STM32F1xx_HAL_Driver/Src/stm32f1xx_hal_i2c.c **** {
 2759              		.loc 1 1480 0
 2760              		.cfi_startproc
 2761              		@ args = 0, pretend = 0, frame = 24
 2762              		@ frame_needed = 1, uses_anonymous_args = 0
 2763 0000 80B5     		push	{r7, lr}
 2764              	.LCFI67:
 2765              		.cfi_def_cfa_offset 8
 2766              		.cfi_offset 7, -8
 2767              		.cfi_offset 14, -4
 2768 0002 86B0     		sub	sp, sp, #24
 2769              	.LCFI68:
 2770              		.cfi_def_cfa_offset 32
 2771 0004 00AF     		add	r7, sp, #0
 2772              	.LCFI69:
 2773              		.cfi_def_cfa_register 7
 2774 0006 F860     		str	r0, [r7, #12]
 2775 0008 7A60     		str	r2, [r7, #4]
 2776 000a 1A46     		mov	r2, r3
 2777 000c 0B46     		mov	r3, r1	@ movhi
 2778 000e 7B81     		strh	r3, [r7, #10]	@ movhi
 2779 0010 1346     		mov	r3, r2	@ movhi
 2780 0012 3B81     		strh	r3, [r7, #8]	@ movhi
1481:Drivers/STM32F1xx_HAL_Driver/Src/stm32f1xx_hal_i2c.c ****   if(hi2c->State == HAL_I2C_STATE_READY)
 2781              		.loc 1 1481 0
 2782 0014 FB68     		ldr	r3, [r7, #12]
 2783 0016 93F83530 		ldrb	r3, [r3, #53]
 2784 001a DBB2     		uxtb	r3, r3
 2785 001c 202B     		cmp	r3, #32
 2786 001e 40F09180 		bne	.L146
1482:Drivers/STM32F1xx_HAL_Driver/Src/stm32f1xx_hal_i2c.c ****   {
1483:Drivers/STM32F1xx_HAL_Driver/Src/stm32f1xx_hal_i2c.c ****     if((pData == NULL) || (Size == 0))
 2787              		.loc 1 1483 0
 2788 0022 7B68     		ldr	r3, [r7, #4]
 2789 0024 002B     		cmp	r3, #0
 2790 0026 02D0     		beq	.L147
 2791              		.loc 1 1483 0 is_stmt 0 discriminator 1
 2792 0028 3B89     		ldrh	r3, [r7, #8]
 2793 002a 002B     		cmp	r3, #0
 2794 002c 01D1     		bne	.L148
 2795              	.L147:
1484:Drivers/STM32F1xx_HAL_Driver/Src/stm32f1xx_hal_i2c.c ****     {
1485:Drivers/STM32F1xx_HAL_Driver/Src/stm32f1xx_hal_i2c.c ****       return  HAL_ERROR;
ARM GAS  /var/folders/kh/x4vltyy52lbg7p4pcyglc5080000gp/T//cccbl2Nm.s 			page 77


 2796              		.loc 1 1485 0 is_stmt 1
 2797 002e 0123     		movs	r3, #1
 2798 0030 89E0     		b	.L149
 2799              	.L148:
1486:Drivers/STM32F1xx_HAL_Driver/Src/stm32f1xx_hal_i2c.c ****     }
1487:Drivers/STM32F1xx_HAL_Driver/Src/stm32f1xx_hal_i2c.c **** 
1488:Drivers/STM32F1xx_HAL_Driver/Src/stm32f1xx_hal_i2c.c ****     /* Wait until BUSY flag is reset */
1489:Drivers/STM32F1xx_HAL_Driver/Src/stm32f1xx_hal_i2c.c ****     if(I2C_WaitOnFlagUntilTimeout(hi2c, I2C_FLAG_BUSY, SET, I2C_TIMEOUT_BUSY_FLAG) != HAL_OK)
 2800              		.loc 1 1489 0
 2801 0032 42F21073 		movw	r3, #10000
 2802 0036 0122     		movs	r2, #1
 2803 0038 4549     		ldr	r1, .L156
 2804 003a F868     		ldr	r0, [r7, #12]
 2805 003c FFF7FEFF 		bl	I2C_WaitOnFlagUntilTimeout
 2806 0040 0346     		mov	r3, r0
 2807 0042 002B     		cmp	r3, #0
 2808 0044 01D0     		beq	.L150
1490:Drivers/STM32F1xx_HAL_Driver/Src/stm32f1xx_hal_i2c.c ****     {
1491:Drivers/STM32F1xx_HAL_Driver/Src/stm32f1xx_hal_i2c.c ****       return HAL_BUSY;
 2809              		.loc 1 1491 0
 2810 0046 0223     		movs	r3, #2
 2811 0048 7DE0     		b	.L149
 2812              	.L150:
1492:Drivers/STM32F1xx_HAL_Driver/Src/stm32f1xx_hal_i2c.c ****     }
1493:Drivers/STM32F1xx_HAL_Driver/Src/stm32f1xx_hal_i2c.c **** 
1494:Drivers/STM32F1xx_HAL_Driver/Src/stm32f1xx_hal_i2c.c ****     /* Process Locked */
1495:Drivers/STM32F1xx_HAL_Driver/Src/stm32f1xx_hal_i2c.c ****     __HAL_LOCK(hi2c);
 2813              		.loc 1 1495 0
 2814 004a FB68     		ldr	r3, [r7, #12]
 2815 004c 93F83430 		ldrb	r3, [r3, #52]	@ zero_extendqisi2
 2816 0050 012B     		cmp	r3, #1
 2817 0052 01D1     		bne	.L151
 2818              		.loc 1 1495 0 is_stmt 0 discriminator 1
 2819 0054 0223     		movs	r3, #2
 2820 0056 76E0     		b	.L149
 2821              	.L151:
 2822              		.loc 1 1495 0 discriminator 2
 2823 0058 FB68     		ldr	r3, [r7, #12]
 2824 005a 0122     		movs	r2, #1
 2825 005c 83F83420 		strb	r2, [r3, #52]
1496:Drivers/STM32F1xx_HAL_Driver/Src/stm32f1xx_hal_i2c.c **** 
1497:Drivers/STM32F1xx_HAL_Driver/Src/stm32f1xx_hal_i2c.c ****     /* Disable Pos */
1498:Drivers/STM32F1xx_HAL_Driver/Src/stm32f1xx_hal_i2c.c ****     CLEAR_BIT(hi2c->Instance->CR1, I2C_CR1_POS);
 2826              		.loc 1 1498 0 is_stmt 1 discriminator 2
 2827 0060 FB68     		ldr	r3, [r7, #12]
 2828 0062 1B68     		ldr	r3, [r3]
 2829 0064 FA68     		ldr	r2, [r7, #12]
 2830 0066 1268     		ldr	r2, [r2]
 2831 0068 1268     		ldr	r2, [r2]
 2832 006a 22F40062 		bic	r2, r2, #2048
 2833 006e 1A60     		str	r2, [r3]
1499:Drivers/STM32F1xx_HAL_Driver/Src/stm32f1xx_hal_i2c.c **** 
1500:Drivers/STM32F1xx_HAL_Driver/Src/stm32f1xx_hal_i2c.c ****     hi2c->State = HAL_I2C_STATE_BUSY_RX;
 2834              		.loc 1 1500 0 discriminator 2
 2835 0070 FB68     		ldr	r3, [r7, #12]
 2836 0072 2222     		movs	r2, #34
 2837 0074 83F83520 		strb	r2, [r3, #53]
ARM GAS  /var/folders/kh/x4vltyy52lbg7p4pcyglc5080000gp/T//cccbl2Nm.s 			page 78


1501:Drivers/STM32F1xx_HAL_Driver/Src/stm32f1xx_hal_i2c.c ****     hi2c->Mode = HAL_I2C_MODE_MASTER;
 2838              		.loc 1 1501 0 discriminator 2
 2839 0078 FB68     		ldr	r3, [r7, #12]
 2840 007a 1022     		movs	r2, #16
 2841 007c 83F83620 		strb	r2, [r3, #54]
1502:Drivers/STM32F1xx_HAL_Driver/Src/stm32f1xx_hal_i2c.c ****     hi2c->ErrorCode = HAL_I2C_ERROR_NONE;
 2842              		.loc 1 1502 0 discriminator 2
 2843 0080 FB68     		ldr	r3, [r7, #12]
 2844 0082 0022     		movs	r2, #0
 2845 0084 9A63     		str	r2, [r3, #56]
1503:Drivers/STM32F1xx_HAL_Driver/Src/stm32f1xx_hal_i2c.c **** 
1504:Drivers/STM32F1xx_HAL_Driver/Src/stm32f1xx_hal_i2c.c ****     hi2c->pBuffPtr = pData;
 2846              		.loc 1 1504 0 discriminator 2
 2847 0086 FB68     		ldr	r3, [r7, #12]
 2848 0088 7A68     		ldr	r2, [r7, #4]
 2849 008a 5A62     		str	r2, [r3, #36]
1505:Drivers/STM32F1xx_HAL_Driver/Src/stm32f1xx_hal_i2c.c ****     hi2c->XferSize = Size;
 2850              		.loc 1 1505 0 discriminator 2
 2851 008c FB68     		ldr	r3, [r7, #12]
 2852 008e 3A89     		ldrh	r2, [r7, #8]	@ movhi
 2853 0090 1A85     		strh	r2, [r3, #40]	@ movhi
1506:Drivers/STM32F1xx_HAL_Driver/Src/stm32f1xx_hal_i2c.c ****     hi2c->XferCount = Size;
 2854              		.loc 1 1506 0 discriminator 2
 2855 0092 FB68     		ldr	r3, [r7, #12]
 2856 0094 3A89     		ldrh	r2, [r7, #8]	@ movhi
 2857 0096 5A85     		strh	r2, [r3, #42]	@ movhi
1507:Drivers/STM32F1xx_HAL_Driver/Src/stm32f1xx_hal_i2c.c **** 
1508:Drivers/STM32F1xx_HAL_Driver/Src/stm32f1xx_hal_i2c.c ****     /* Set the I2C DMA transfert complete callback */
1509:Drivers/STM32F1xx_HAL_Driver/Src/stm32f1xx_hal_i2c.c ****     hi2c->hdmarx->XferCpltCallback = I2C_DMAMasterReceiveCplt;
 2858              		.loc 1 1509 0 discriminator 2
 2859 0098 FB68     		ldr	r3, [r7, #12]
 2860 009a 1B6B     		ldr	r3, [r3, #48]
 2861 009c 2D4A     		ldr	r2, .L156+4
 2862 009e 9A62     		str	r2, [r3, #40]
1510:Drivers/STM32F1xx_HAL_Driver/Src/stm32f1xx_hal_i2c.c **** 
1511:Drivers/STM32F1xx_HAL_Driver/Src/stm32f1xx_hal_i2c.c ****     /* Set the DMA error callback */
1512:Drivers/STM32F1xx_HAL_Driver/Src/stm32f1xx_hal_i2c.c ****     hi2c->hdmarx->XferErrorCallback = I2C_DMAError;
 2863              		.loc 1 1512 0 discriminator 2
 2864 00a0 FB68     		ldr	r3, [r7, #12]
 2865 00a2 1B6B     		ldr	r3, [r3, #48]
 2866 00a4 2C4A     		ldr	r2, .L156+8
 2867 00a6 1A63     		str	r2, [r3, #48]
1513:Drivers/STM32F1xx_HAL_Driver/Src/stm32f1xx_hal_i2c.c **** 
1514:Drivers/STM32F1xx_HAL_Driver/Src/stm32f1xx_hal_i2c.c ****     /* Enable the DMA channel */
1515:Drivers/STM32F1xx_HAL_Driver/Src/stm32f1xx_hal_i2c.c ****     HAL_DMA_Start_IT(hi2c->hdmarx, (uint32_t)&hi2c->Instance->DR, (uint32_t)pData, Size);
 2868              		.loc 1 1515 0 discriminator 2
 2869 00a8 FB68     		ldr	r3, [r7, #12]
 2870 00aa 186B     		ldr	r0, [r3, #48]
 2871 00ac FB68     		ldr	r3, [r7, #12]
 2872 00ae 1B68     		ldr	r3, [r3]
 2873 00b0 1033     		adds	r3, r3, #16
 2874 00b2 1946     		mov	r1, r3
 2875 00b4 7A68     		ldr	r2, [r7, #4]
 2876 00b6 3B89     		ldrh	r3, [r7, #8]
 2877 00b8 FFF7FEFF 		bl	HAL_DMA_Start_IT
1516:Drivers/STM32F1xx_HAL_Driver/Src/stm32f1xx_hal_i2c.c **** 
1517:Drivers/STM32F1xx_HAL_Driver/Src/stm32f1xx_hal_i2c.c ****     /* Send Slave Address */
ARM GAS  /var/folders/kh/x4vltyy52lbg7p4pcyglc5080000gp/T//cccbl2Nm.s 			page 79


1518:Drivers/STM32F1xx_HAL_Driver/Src/stm32f1xx_hal_i2c.c ****     if(I2C_MasterRequestRead(hi2c, DevAddress, I2C_TIMEOUT_FLAG) != HAL_OK)
 2878              		.loc 1 1518 0 discriminator 2
 2879 00bc 7B89     		ldrh	r3, [r7, #10]
 2880 00be 2322     		movs	r2, #35
 2881 00c0 1946     		mov	r1, r3
 2882 00c2 F868     		ldr	r0, [r7, #12]
 2883 00c4 FFF7FEFF 		bl	I2C_MasterRequestRead
 2884 00c8 0346     		mov	r3, r0
 2885 00ca 002B     		cmp	r3, #0
 2886 00cc 0FD0     		beq	.L152
1519:Drivers/STM32F1xx_HAL_Driver/Src/stm32f1xx_hal_i2c.c ****     {
1520:Drivers/STM32F1xx_HAL_Driver/Src/stm32f1xx_hal_i2c.c ****       if(hi2c->ErrorCode == HAL_I2C_ERROR_AF)
 2887              		.loc 1 1520 0
 2888 00ce FB68     		ldr	r3, [r7, #12]
 2889 00d0 9B6B     		ldr	r3, [r3, #56]
 2890 00d2 042B     		cmp	r3, #4
 2891 00d4 05D1     		bne	.L153
1521:Drivers/STM32F1xx_HAL_Driver/Src/stm32f1xx_hal_i2c.c ****       {
1522:Drivers/STM32F1xx_HAL_Driver/Src/stm32f1xx_hal_i2c.c ****         /* Process Unlocked */
1523:Drivers/STM32F1xx_HAL_Driver/Src/stm32f1xx_hal_i2c.c ****         __HAL_UNLOCK(hi2c);
 2892              		.loc 1 1523 0
 2893 00d6 FB68     		ldr	r3, [r7, #12]
 2894 00d8 0022     		movs	r2, #0
 2895 00da 83F83420 		strb	r2, [r3, #52]
1524:Drivers/STM32F1xx_HAL_Driver/Src/stm32f1xx_hal_i2c.c ****         return HAL_ERROR;
 2896              		.loc 1 1524 0
 2897 00de 0123     		movs	r3, #1
 2898 00e0 31E0     		b	.L149
 2899              	.L153:
1525:Drivers/STM32F1xx_HAL_Driver/Src/stm32f1xx_hal_i2c.c ****       }
1526:Drivers/STM32F1xx_HAL_Driver/Src/stm32f1xx_hal_i2c.c ****       else
1527:Drivers/STM32F1xx_HAL_Driver/Src/stm32f1xx_hal_i2c.c ****       {
1528:Drivers/STM32F1xx_HAL_Driver/Src/stm32f1xx_hal_i2c.c ****         /* Process Unlocked */
1529:Drivers/STM32F1xx_HAL_Driver/Src/stm32f1xx_hal_i2c.c ****         __HAL_UNLOCK(hi2c);
 2900              		.loc 1 1529 0
 2901 00e2 FB68     		ldr	r3, [r7, #12]
 2902 00e4 0022     		movs	r2, #0
 2903 00e6 83F83420 		strb	r2, [r3, #52]
1530:Drivers/STM32F1xx_HAL_Driver/Src/stm32f1xx_hal_i2c.c ****         return HAL_TIMEOUT;
 2904              		.loc 1 1530 0
 2905 00ea 0323     		movs	r3, #3
 2906 00ec 2BE0     		b	.L149
 2907              	.L152:
1531:Drivers/STM32F1xx_HAL_Driver/Src/stm32f1xx_hal_i2c.c ****       }
1532:Drivers/STM32F1xx_HAL_Driver/Src/stm32f1xx_hal_i2c.c ****     }
1533:Drivers/STM32F1xx_HAL_Driver/Src/stm32f1xx_hal_i2c.c **** 
1534:Drivers/STM32F1xx_HAL_Driver/Src/stm32f1xx_hal_i2c.c ****     if(Size == 1)
 2908              		.loc 1 1534 0
 2909 00ee 3B89     		ldrh	r3, [r7, #8]
 2910 00f0 012B     		cmp	r3, #1
 2911 00f2 08D1     		bne	.L154
1535:Drivers/STM32F1xx_HAL_Driver/Src/stm32f1xx_hal_i2c.c ****     {
1536:Drivers/STM32F1xx_HAL_Driver/Src/stm32f1xx_hal_i2c.c ****       /* Disable Acknowledge */
1537:Drivers/STM32F1xx_HAL_Driver/Src/stm32f1xx_hal_i2c.c ****       CLEAR_BIT(hi2c->Instance->CR1, I2C_CR1_ACK);
 2912              		.loc 1 1537 0
 2913 00f4 FB68     		ldr	r3, [r7, #12]
 2914 00f6 1B68     		ldr	r3, [r3]
ARM GAS  /var/folders/kh/x4vltyy52lbg7p4pcyglc5080000gp/T//cccbl2Nm.s 			page 80


 2915 00f8 FA68     		ldr	r2, [r7, #12]
 2916 00fa 1268     		ldr	r2, [r2]
 2917 00fc 1268     		ldr	r2, [r2]
 2918 00fe 22F48062 		bic	r2, r2, #1024
 2919 0102 1A60     		str	r2, [r3]
 2920 0104 07E0     		b	.L155
 2921              	.L154:
1538:Drivers/STM32F1xx_HAL_Driver/Src/stm32f1xx_hal_i2c.c ****     }
1539:Drivers/STM32F1xx_HAL_Driver/Src/stm32f1xx_hal_i2c.c ****     else
1540:Drivers/STM32F1xx_HAL_Driver/Src/stm32f1xx_hal_i2c.c ****     {
1541:Drivers/STM32F1xx_HAL_Driver/Src/stm32f1xx_hal_i2c.c ****       /* Enable Last DMA bit */
1542:Drivers/STM32F1xx_HAL_Driver/Src/stm32f1xx_hal_i2c.c ****       SET_BIT(hi2c->Instance->CR2, I2C_CR2_LAST);
 2922              		.loc 1 1542 0
 2923 0106 FB68     		ldr	r3, [r7, #12]
 2924 0108 1B68     		ldr	r3, [r3]
 2925 010a FA68     		ldr	r2, [r7, #12]
 2926 010c 1268     		ldr	r2, [r2]
 2927 010e 5268     		ldr	r2, [r2, #4]
 2928 0110 42F48052 		orr	r2, r2, #4096
 2929 0114 5A60     		str	r2, [r3, #4]
 2930              	.L155:
1543:Drivers/STM32F1xx_HAL_Driver/Src/stm32f1xx_hal_i2c.c ****     }
1544:Drivers/STM32F1xx_HAL_Driver/Src/stm32f1xx_hal_i2c.c **** 
1545:Drivers/STM32F1xx_HAL_Driver/Src/stm32f1xx_hal_i2c.c ****     /* Enable DMA Request */
1546:Drivers/STM32F1xx_HAL_Driver/Src/stm32f1xx_hal_i2c.c ****     SET_BIT(hi2c->Instance->CR2, I2C_CR2_DMAEN);
 2931              		.loc 1 1546 0
 2932 0116 FB68     		ldr	r3, [r7, #12]
 2933 0118 1B68     		ldr	r3, [r3]
 2934 011a FA68     		ldr	r2, [r7, #12]
 2935 011c 1268     		ldr	r2, [r2]
 2936 011e 5268     		ldr	r2, [r2, #4]
 2937 0120 42F40062 		orr	r2, r2, #2048
 2938 0124 5A60     		str	r2, [r3, #4]
 2939              	.LBB69:
1547:Drivers/STM32F1xx_HAL_Driver/Src/stm32f1xx_hal_i2c.c **** 
1548:Drivers/STM32F1xx_HAL_Driver/Src/stm32f1xx_hal_i2c.c ****     /* Clear ADDR flag */
1549:Drivers/STM32F1xx_HAL_Driver/Src/stm32f1xx_hal_i2c.c ****     __HAL_I2C_CLEAR_ADDRFLAG(hi2c);
 2940              		.loc 1 1549 0
 2941 0126 FB68     		ldr	r3, [r7, #12]
 2942 0128 1B68     		ldr	r3, [r3]
 2943 012a 5B69     		ldr	r3, [r3, #20]
 2944 012c 7B61     		str	r3, [r7, #20]
 2945 012e FB68     		ldr	r3, [r7, #12]
 2946 0130 1B68     		ldr	r3, [r3]
 2947 0132 9B69     		ldr	r3, [r3, #24]
 2948 0134 7B61     		str	r3, [r7, #20]
 2949 0136 7B69     		ldr	r3, [r7, #20]
 2950              	.LBE69:
1550:Drivers/STM32F1xx_HAL_Driver/Src/stm32f1xx_hal_i2c.c **** 
1551:Drivers/STM32F1xx_HAL_Driver/Src/stm32f1xx_hal_i2c.c ****     /* Process Unlocked */
1552:Drivers/STM32F1xx_HAL_Driver/Src/stm32f1xx_hal_i2c.c ****     __HAL_UNLOCK(hi2c);
 2951              		.loc 1 1552 0
 2952 0138 FB68     		ldr	r3, [r7, #12]
 2953 013a 0022     		movs	r2, #0
 2954 013c 83F83420 		strb	r2, [r3, #52]
1553:Drivers/STM32F1xx_HAL_Driver/Src/stm32f1xx_hal_i2c.c **** 
1554:Drivers/STM32F1xx_HAL_Driver/Src/stm32f1xx_hal_i2c.c ****     return HAL_OK;
ARM GAS  /var/folders/kh/x4vltyy52lbg7p4pcyglc5080000gp/T//cccbl2Nm.s 			page 81


 2955              		.loc 1 1554 0
 2956 0140 0023     		movs	r3, #0
 2957 0142 00E0     		b	.L149
 2958              	.L146:
1555:Drivers/STM32F1xx_HAL_Driver/Src/stm32f1xx_hal_i2c.c ****   }
1556:Drivers/STM32F1xx_HAL_Driver/Src/stm32f1xx_hal_i2c.c ****   else
1557:Drivers/STM32F1xx_HAL_Driver/Src/stm32f1xx_hal_i2c.c ****   {
1558:Drivers/STM32F1xx_HAL_Driver/Src/stm32f1xx_hal_i2c.c ****     return HAL_BUSY;
 2959              		.loc 1 1558 0
 2960 0144 0223     		movs	r3, #2
 2961              	.L149:
1559:Drivers/STM32F1xx_HAL_Driver/Src/stm32f1xx_hal_i2c.c ****   }
1560:Drivers/STM32F1xx_HAL_Driver/Src/stm32f1xx_hal_i2c.c **** }
 2962              		.loc 1 1560 0
 2963 0146 1846     		mov	r0, r3
 2964 0148 1837     		adds	r7, r7, #24
 2965              	.LCFI70:
 2966              		.cfi_def_cfa_offset 8
 2967 014a BD46     		mov	sp, r7
 2968              	.LCFI71:
 2969              		.cfi_def_cfa_register 13
 2970              		@ sp needed
 2971 014c 80BD     		pop	{r7, pc}
 2972              	.L157:
 2973 014e 00BF     		.align	2
 2974              	.L156:
 2975 0150 02001000 		.word	1048578
 2976 0154 00000000 		.word	I2C_DMAMasterReceiveCplt
 2977 0158 00000000 		.word	I2C_DMAError
 2978              		.cfi_endproc
 2979              	.LFE77:
 2981              		.section	.text.HAL_I2C_Slave_Transmit_DMA,"ax",%progbits
 2982              		.align	2
 2983              		.global	HAL_I2C_Slave_Transmit_DMA
 2984              		.thumb
 2985              		.thumb_func
 2987              	HAL_I2C_Slave_Transmit_DMA:
 2988              	.LFB78:
1561:Drivers/STM32F1xx_HAL_Driver/Src/stm32f1xx_hal_i2c.c **** 
1562:Drivers/STM32F1xx_HAL_Driver/Src/stm32f1xx_hal_i2c.c **** /**
1563:Drivers/STM32F1xx_HAL_Driver/Src/stm32f1xx_hal_i2c.c ****   * @brief  Transmit in slave mode an amount of data in non-blocking mode with DMA
1564:Drivers/STM32F1xx_HAL_Driver/Src/stm32f1xx_hal_i2c.c ****   * @param  hi2c Pointer to a I2C_HandleTypeDef structure that contains
1565:Drivers/STM32F1xx_HAL_Driver/Src/stm32f1xx_hal_i2c.c ****   *                the configuration information for the specified I2C.
1566:Drivers/STM32F1xx_HAL_Driver/Src/stm32f1xx_hal_i2c.c ****   * @param  pData Pointer to data buffer
1567:Drivers/STM32F1xx_HAL_Driver/Src/stm32f1xx_hal_i2c.c ****   * @param  Size Amount of data to be sent
1568:Drivers/STM32F1xx_HAL_Driver/Src/stm32f1xx_hal_i2c.c ****   * @retval HAL status
1569:Drivers/STM32F1xx_HAL_Driver/Src/stm32f1xx_hal_i2c.c ****   */
1570:Drivers/STM32F1xx_HAL_Driver/Src/stm32f1xx_hal_i2c.c **** HAL_StatusTypeDef HAL_I2C_Slave_Transmit_DMA(I2C_HandleTypeDef *hi2c, uint8_t *pData, uint16_t Size
1571:Drivers/STM32F1xx_HAL_Driver/Src/stm32f1xx_hal_i2c.c **** {
 2989              		.loc 1 1571 0
 2990              		.cfi_startproc
 2991              		@ args = 0, pretend = 0, frame = 32
 2992              		@ frame_needed = 1, uses_anonymous_args = 0
 2993 0000 80B5     		push	{r7, lr}
 2994              	.LCFI72:
 2995              		.cfi_def_cfa_offset 8
 2996              		.cfi_offset 7, -8
ARM GAS  /var/folders/kh/x4vltyy52lbg7p4pcyglc5080000gp/T//cccbl2Nm.s 			page 82


 2997              		.cfi_offset 14, -4
 2998 0002 88B0     		sub	sp, sp, #32
 2999              	.LCFI73:
 3000              		.cfi_def_cfa_offset 40
 3001 0004 00AF     		add	r7, sp, #0
 3002              	.LCFI74:
 3003              		.cfi_def_cfa_register 7
 3004 0006 F860     		str	r0, [r7, #12]
 3005 0008 B960     		str	r1, [r7, #8]
 3006 000a 1346     		mov	r3, r2
 3007 000c FB80     		strh	r3, [r7, #6]	@ movhi
1572:Drivers/STM32F1xx_HAL_Driver/Src/stm32f1xx_hal_i2c.c ****   if(hi2c->State == HAL_I2C_STATE_READY)
 3008              		.loc 1 1572 0
 3009 000e FB68     		ldr	r3, [r7, #12]
 3010 0010 93F83530 		ldrb	r3, [r3, #53]
 3011 0014 DBB2     		uxtb	r3, r3
 3012 0016 202B     		cmp	r3, #32
 3013 0018 40F09C80 		bne	.L159
1573:Drivers/STM32F1xx_HAL_Driver/Src/stm32f1xx_hal_i2c.c ****   {
1574:Drivers/STM32F1xx_HAL_Driver/Src/stm32f1xx_hal_i2c.c ****     if((pData == NULL) || (Size == 0))
 3014              		.loc 1 1574 0
 3015 001c BB68     		ldr	r3, [r7, #8]
 3016 001e 002B     		cmp	r3, #0
 3017 0020 02D0     		beq	.L160
 3018              		.loc 1 1574 0 is_stmt 0 discriminator 1
 3019 0022 FB88     		ldrh	r3, [r7, #6]
 3020 0024 002B     		cmp	r3, #0
 3021 0026 01D1     		bne	.L161
 3022              	.L160:
1575:Drivers/STM32F1xx_HAL_Driver/Src/stm32f1xx_hal_i2c.c ****     {
1576:Drivers/STM32F1xx_HAL_Driver/Src/stm32f1xx_hal_i2c.c ****       return  HAL_ERROR;
 3023              		.loc 1 1576 0 is_stmt 1
 3024 0028 0123     		movs	r3, #1
 3025 002a 94E0     		b	.L162
 3026              	.L161:
1577:Drivers/STM32F1xx_HAL_Driver/Src/stm32f1xx_hal_i2c.c ****     }
1578:Drivers/STM32F1xx_HAL_Driver/Src/stm32f1xx_hal_i2c.c **** 
1579:Drivers/STM32F1xx_HAL_Driver/Src/stm32f1xx_hal_i2c.c ****     /* Wait until BUSY flag is reset */
1580:Drivers/STM32F1xx_HAL_Driver/Src/stm32f1xx_hal_i2c.c ****     if(I2C_WaitOnFlagUntilTimeout(hi2c, I2C_FLAG_BUSY, SET, I2C_TIMEOUT_BUSY_FLAG) != HAL_OK)
 3027              		.loc 1 1580 0
 3028 002c 42F21073 		movw	r3, #10000
 3029 0030 0122     		movs	r2, #1
 3030 0032 4B49     		ldr	r1, .L169
 3031 0034 F868     		ldr	r0, [r7, #12]
 3032 0036 FFF7FEFF 		bl	I2C_WaitOnFlagUntilTimeout
 3033 003a 0346     		mov	r3, r0
 3034 003c 002B     		cmp	r3, #0
 3035 003e 01D0     		beq	.L163
1581:Drivers/STM32F1xx_HAL_Driver/Src/stm32f1xx_hal_i2c.c ****     {
1582:Drivers/STM32F1xx_HAL_Driver/Src/stm32f1xx_hal_i2c.c ****       return HAL_BUSY;
 3036              		.loc 1 1582 0
 3037 0040 0223     		movs	r3, #2
 3038 0042 88E0     		b	.L162
 3039              	.L163:
1583:Drivers/STM32F1xx_HAL_Driver/Src/stm32f1xx_hal_i2c.c ****     }
1584:Drivers/STM32F1xx_HAL_Driver/Src/stm32f1xx_hal_i2c.c **** 
1585:Drivers/STM32F1xx_HAL_Driver/Src/stm32f1xx_hal_i2c.c ****     /* Process Locked */
ARM GAS  /var/folders/kh/x4vltyy52lbg7p4pcyglc5080000gp/T//cccbl2Nm.s 			page 83


1586:Drivers/STM32F1xx_HAL_Driver/Src/stm32f1xx_hal_i2c.c ****     __HAL_LOCK(hi2c);
 3040              		.loc 1 1586 0
 3041 0044 FB68     		ldr	r3, [r7, #12]
 3042 0046 93F83430 		ldrb	r3, [r3, #52]	@ zero_extendqisi2
 3043 004a 012B     		cmp	r3, #1
 3044 004c 01D1     		bne	.L164
 3045              		.loc 1 1586 0 is_stmt 0 discriminator 1
 3046 004e 0223     		movs	r3, #2
 3047 0050 81E0     		b	.L162
 3048              	.L164:
 3049              		.loc 1 1586 0 discriminator 2
 3050 0052 FB68     		ldr	r3, [r7, #12]
 3051 0054 0122     		movs	r2, #1
 3052 0056 83F83420 		strb	r2, [r3, #52]
1587:Drivers/STM32F1xx_HAL_Driver/Src/stm32f1xx_hal_i2c.c **** 
1588:Drivers/STM32F1xx_HAL_Driver/Src/stm32f1xx_hal_i2c.c ****     /* Disable Pos */
1589:Drivers/STM32F1xx_HAL_Driver/Src/stm32f1xx_hal_i2c.c ****     CLEAR_BIT(hi2c->Instance->CR1, I2C_CR1_POS);
 3053              		.loc 1 1589 0 is_stmt 1 discriminator 2
 3054 005a FB68     		ldr	r3, [r7, #12]
 3055 005c 1B68     		ldr	r3, [r3]
 3056 005e FA68     		ldr	r2, [r7, #12]
 3057 0060 1268     		ldr	r2, [r2]
 3058 0062 1268     		ldr	r2, [r2]
 3059 0064 22F40062 		bic	r2, r2, #2048
 3060 0068 1A60     		str	r2, [r3]
1590:Drivers/STM32F1xx_HAL_Driver/Src/stm32f1xx_hal_i2c.c **** 
1591:Drivers/STM32F1xx_HAL_Driver/Src/stm32f1xx_hal_i2c.c ****     hi2c->State = HAL_I2C_STATE_BUSY_TX;
 3061              		.loc 1 1591 0 discriminator 2
 3062 006a FB68     		ldr	r3, [r7, #12]
 3063 006c 2122     		movs	r2, #33
 3064 006e 83F83520 		strb	r2, [r3, #53]
1592:Drivers/STM32F1xx_HAL_Driver/Src/stm32f1xx_hal_i2c.c ****     hi2c->Mode = HAL_I2C_MODE_SLAVE;
 3065              		.loc 1 1592 0 discriminator 2
 3066 0072 FB68     		ldr	r3, [r7, #12]
 3067 0074 2022     		movs	r2, #32
 3068 0076 83F83620 		strb	r2, [r3, #54]
1593:Drivers/STM32F1xx_HAL_Driver/Src/stm32f1xx_hal_i2c.c ****     hi2c->ErrorCode = HAL_I2C_ERROR_NONE;
 3069              		.loc 1 1593 0 discriminator 2
 3070 007a FB68     		ldr	r3, [r7, #12]
 3071 007c 0022     		movs	r2, #0
 3072 007e 9A63     		str	r2, [r3, #56]
1594:Drivers/STM32F1xx_HAL_Driver/Src/stm32f1xx_hal_i2c.c **** 
1595:Drivers/STM32F1xx_HAL_Driver/Src/stm32f1xx_hal_i2c.c ****     hi2c->pBuffPtr = pData;
 3073              		.loc 1 1595 0 discriminator 2
 3074 0080 FB68     		ldr	r3, [r7, #12]
 3075 0082 BA68     		ldr	r2, [r7, #8]
 3076 0084 5A62     		str	r2, [r3, #36]
1596:Drivers/STM32F1xx_HAL_Driver/Src/stm32f1xx_hal_i2c.c ****     hi2c->XferSize = Size;
 3077              		.loc 1 1596 0 discriminator 2
 3078 0086 FB68     		ldr	r3, [r7, #12]
 3079 0088 FA88     		ldrh	r2, [r7, #6]	@ movhi
 3080 008a 1A85     		strh	r2, [r3, #40]	@ movhi
1597:Drivers/STM32F1xx_HAL_Driver/Src/stm32f1xx_hal_i2c.c ****     hi2c->XferCount = Size;
 3081              		.loc 1 1597 0 discriminator 2
 3082 008c FB68     		ldr	r3, [r7, #12]
 3083 008e FA88     		ldrh	r2, [r7, #6]	@ movhi
 3084 0090 5A85     		strh	r2, [r3, #42]	@ movhi
ARM GAS  /var/folders/kh/x4vltyy52lbg7p4pcyglc5080000gp/T//cccbl2Nm.s 			page 84


1598:Drivers/STM32F1xx_HAL_Driver/Src/stm32f1xx_hal_i2c.c **** 
1599:Drivers/STM32F1xx_HAL_Driver/Src/stm32f1xx_hal_i2c.c ****     /* Set the I2C DMA transfert complete callback */
1600:Drivers/STM32F1xx_HAL_Driver/Src/stm32f1xx_hal_i2c.c ****     hi2c->hdmatx->XferCpltCallback = I2C_DMASlaveTransmitCplt;
 3085              		.loc 1 1600 0 discriminator 2
 3086 0092 FB68     		ldr	r3, [r7, #12]
 3087 0094 DB6A     		ldr	r3, [r3, #44]
 3088 0096 334A     		ldr	r2, .L169+4
 3089 0098 9A62     		str	r2, [r3, #40]
1601:Drivers/STM32F1xx_HAL_Driver/Src/stm32f1xx_hal_i2c.c **** 
1602:Drivers/STM32F1xx_HAL_Driver/Src/stm32f1xx_hal_i2c.c ****     /* Set the DMA error callback */
1603:Drivers/STM32F1xx_HAL_Driver/Src/stm32f1xx_hal_i2c.c ****     hi2c->hdmatx->XferErrorCallback = I2C_DMAError;
 3090              		.loc 1 1603 0 discriminator 2
 3091 009a FB68     		ldr	r3, [r7, #12]
 3092 009c DB6A     		ldr	r3, [r3, #44]
 3093 009e 324A     		ldr	r2, .L169+8
 3094 00a0 1A63     		str	r2, [r3, #48]
1604:Drivers/STM32F1xx_HAL_Driver/Src/stm32f1xx_hal_i2c.c **** 
1605:Drivers/STM32F1xx_HAL_Driver/Src/stm32f1xx_hal_i2c.c ****     /* Enable the DMA channel */
1606:Drivers/STM32F1xx_HAL_Driver/Src/stm32f1xx_hal_i2c.c ****     HAL_DMA_Start_IT(hi2c->hdmatx, (uint32_t)pData, (uint32_t)&hi2c->Instance->DR, Size);
 3095              		.loc 1 1606 0 discriminator 2
 3096 00a2 FB68     		ldr	r3, [r7, #12]
 3097 00a4 D86A     		ldr	r0, [r3, #44]
 3098 00a6 B968     		ldr	r1, [r7, #8]
 3099 00a8 FB68     		ldr	r3, [r7, #12]
 3100 00aa 1B68     		ldr	r3, [r3]
 3101 00ac 1033     		adds	r3, r3, #16
 3102 00ae 1A46     		mov	r2, r3
 3103 00b0 FB88     		ldrh	r3, [r7, #6]
 3104 00b2 FFF7FEFF 		bl	HAL_DMA_Start_IT
1607:Drivers/STM32F1xx_HAL_Driver/Src/stm32f1xx_hal_i2c.c **** 
1608:Drivers/STM32F1xx_HAL_Driver/Src/stm32f1xx_hal_i2c.c ****     /* Enable DMA Request */
1609:Drivers/STM32F1xx_HAL_Driver/Src/stm32f1xx_hal_i2c.c ****     SET_BIT(hi2c->Instance->CR2, I2C_CR2_DMAEN);
 3105              		.loc 1 1609 0 discriminator 2
 3106 00b6 FB68     		ldr	r3, [r7, #12]
 3107 00b8 1B68     		ldr	r3, [r3]
 3108 00ba FA68     		ldr	r2, [r7, #12]
 3109 00bc 1268     		ldr	r2, [r2]
 3110 00be 5268     		ldr	r2, [r2, #4]
 3111 00c0 42F40062 		orr	r2, r2, #2048
 3112 00c4 5A60     		str	r2, [r3, #4]
1610:Drivers/STM32F1xx_HAL_Driver/Src/stm32f1xx_hal_i2c.c **** 
1611:Drivers/STM32F1xx_HAL_Driver/Src/stm32f1xx_hal_i2c.c ****     /* Enable Address Acknowledge */
1612:Drivers/STM32F1xx_HAL_Driver/Src/stm32f1xx_hal_i2c.c ****     SET_BIT(hi2c->Instance->CR1, I2C_CR1_ACK);
 3113              		.loc 1 1612 0 discriminator 2
 3114 00c6 FB68     		ldr	r3, [r7, #12]
 3115 00c8 1B68     		ldr	r3, [r3]
 3116 00ca FA68     		ldr	r2, [r7, #12]
 3117 00cc 1268     		ldr	r2, [r2]
 3118 00ce 1268     		ldr	r2, [r2]
 3119 00d0 42F48062 		orr	r2, r2, #1024
 3120 00d4 1A60     		str	r2, [r3]
1613:Drivers/STM32F1xx_HAL_Driver/Src/stm32f1xx_hal_i2c.c **** 
1614:Drivers/STM32F1xx_HAL_Driver/Src/stm32f1xx_hal_i2c.c ****     /* Wait until ADDR flag is set */
1615:Drivers/STM32F1xx_HAL_Driver/Src/stm32f1xx_hal_i2c.c ****     if(I2C_WaitOnFlagUntilTimeout(hi2c, I2C_FLAG_ADDR, RESET, I2C_TIMEOUT_ADDR_SLAVE) != HAL_OK)
 3121              		.loc 1 1615 0 discriminator 2
 3122 00d6 42F21073 		movw	r3, #10000
 3123 00da 0022     		movs	r2, #0
ARM GAS  /var/folders/kh/x4vltyy52lbg7p4pcyglc5080000gp/T//cccbl2Nm.s 			page 85


 3124 00dc 2349     		ldr	r1, .L169+12
 3125 00de F868     		ldr	r0, [r7, #12]
 3126 00e0 FFF7FEFF 		bl	I2C_WaitOnFlagUntilTimeout
 3127 00e4 0346     		mov	r3, r0
 3128 00e6 002B     		cmp	r3, #0
 3129 00e8 01D0     		beq	.L165
1616:Drivers/STM32F1xx_HAL_Driver/Src/stm32f1xx_hal_i2c.c ****     {
1617:Drivers/STM32F1xx_HAL_Driver/Src/stm32f1xx_hal_i2c.c ****       return HAL_TIMEOUT;
 3130              		.loc 1 1617 0
 3131 00ea 0323     		movs	r3, #3
 3132 00ec 33E0     		b	.L162
 3133              	.L165:
1618:Drivers/STM32F1xx_HAL_Driver/Src/stm32f1xx_hal_i2c.c ****     }
1619:Drivers/STM32F1xx_HAL_Driver/Src/stm32f1xx_hal_i2c.c **** 
1620:Drivers/STM32F1xx_HAL_Driver/Src/stm32f1xx_hal_i2c.c ****     /* If 7bit addressing mode is selected */
1621:Drivers/STM32F1xx_HAL_Driver/Src/stm32f1xx_hal_i2c.c ****     if(hi2c->Init.AddressingMode == I2C_ADDRESSINGMODE_7BIT)
 3134              		.loc 1 1621 0
 3135 00ee FB68     		ldr	r3, [r7, #12]
 3136 00f0 1B69     		ldr	r3, [r3, #16]
 3137 00f2 B3F5804F 		cmp	r3, #16384
 3138 00f6 09D1     		bne	.L166
 3139              	.LBB70:
1622:Drivers/STM32F1xx_HAL_Driver/Src/stm32f1xx_hal_i2c.c ****     {
1623:Drivers/STM32F1xx_HAL_Driver/Src/stm32f1xx_hal_i2c.c ****       /* Clear ADDR flag */
1624:Drivers/STM32F1xx_HAL_Driver/Src/stm32f1xx_hal_i2c.c ****       __HAL_I2C_CLEAR_ADDRFLAG(hi2c);
 3140              		.loc 1 1624 0
 3141 00f8 FB68     		ldr	r3, [r7, #12]
 3142 00fa 1B68     		ldr	r3, [r3]
 3143 00fc 5B69     		ldr	r3, [r3, #20]
 3144 00fe FB61     		str	r3, [r7, #28]
 3145 0100 FB68     		ldr	r3, [r7, #12]
 3146 0102 1B68     		ldr	r3, [r3]
 3147 0104 9B69     		ldr	r3, [r3, #24]
 3148 0106 FB61     		str	r3, [r7, #28]
 3149 0108 FB69     		ldr	r3, [r7, #28]
 3150              	.LBE70:
 3151 010a 1DE0     		b	.L167
 3152              	.L166:
 3153              	.LBB71:
1625:Drivers/STM32F1xx_HAL_Driver/Src/stm32f1xx_hal_i2c.c ****     }
1626:Drivers/STM32F1xx_HAL_Driver/Src/stm32f1xx_hal_i2c.c ****     else
1627:Drivers/STM32F1xx_HAL_Driver/Src/stm32f1xx_hal_i2c.c ****     {
1628:Drivers/STM32F1xx_HAL_Driver/Src/stm32f1xx_hal_i2c.c ****       /* Clear ADDR flag */
1629:Drivers/STM32F1xx_HAL_Driver/Src/stm32f1xx_hal_i2c.c ****       __HAL_I2C_CLEAR_ADDRFLAG(hi2c);
 3154              		.loc 1 1629 0
 3155 010c FB68     		ldr	r3, [r7, #12]
 3156 010e 1B68     		ldr	r3, [r3]
 3157 0110 5B69     		ldr	r3, [r3, #20]
 3158 0112 BB61     		str	r3, [r7, #24]
 3159 0114 FB68     		ldr	r3, [r7, #12]
 3160 0116 1B68     		ldr	r3, [r3]
 3161 0118 9B69     		ldr	r3, [r3, #24]
 3162 011a BB61     		str	r3, [r7, #24]
 3163 011c BB69     		ldr	r3, [r7, #24]
 3164              	.LBE71:
1630:Drivers/STM32F1xx_HAL_Driver/Src/stm32f1xx_hal_i2c.c **** 
1631:Drivers/STM32F1xx_HAL_Driver/Src/stm32f1xx_hal_i2c.c ****       /* Wait until ADDR flag is set */
ARM GAS  /var/folders/kh/x4vltyy52lbg7p4pcyglc5080000gp/T//cccbl2Nm.s 			page 86


1632:Drivers/STM32F1xx_HAL_Driver/Src/stm32f1xx_hal_i2c.c ****       if(I2C_WaitOnFlagUntilTimeout(hi2c, I2C_FLAG_ADDR, RESET, I2C_TIMEOUT_ADDR_SLAVE) != HAL_OK)
 3165              		.loc 1 1632 0
 3166 011e 42F21073 		movw	r3, #10000
 3167 0122 0022     		movs	r2, #0
 3168 0124 1149     		ldr	r1, .L169+12
 3169 0126 F868     		ldr	r0, [r7, #12]
 3170 0128 FFF7FEFF 		bl	I2C_WaitOnFlagUntilTimeout
 3171 012c 0346     		mov	r3, r0
 3172 012e 002B     		cmp	r3, #0
 3173 0130 01D0     		beq	.L168
1633:Drivers/STM32F1xx_HAL_Driver/Src/stm32f1xx_hal_i2c.c ****       {
1634:Drivers/STM32F1xx_HAL_Driver/Src/stm32f1xx_hal_i2c.c ****         return HAL_TIMEOUT;
 3174              		.loc 1 1634 0
 3175 0132 0323     		movs	r3, #3
 3176 0134 0FE0     		b	.L162
 3177              	.L168:
 3178              	.LBB72:
1635:Drivers/STM32F1xx_HAL_Driver/Src/stm32f1xx_hal_i2c.c ****       }
1636:Drivers/STM32F1xx_HAL_Driver/Src/stm32f1xx_hal_i2c.c **** 
1637:Drivers/STM32F1xx_HAL_Driver/Src/stm32f1xx_hal_i2c.c ****       /* Clear ADDR flag */
1638:Drivers/STM32F1xx_HAL_Driver/Src/stm32f1xx_hal_i2c.c ****       __HAL_I2C_CLEAR_ADDRFLAG(hi2c);
 3179              		.loc 1 1638 0
 3180 0136 FB68     		ldr	r3, [r7, #12]
 3181 0138 1B68     		ldr	r3, [r3]
 3182 013a 5B69     		ldr	r3, [r3, #20]
 3183 013c 7B61     		str	r3, [r7, #20]
 3184 013e FB68     		ldr	r3, [r7, #12]
 3185 0140 1B68     		ldr	r3, [r3]
 3186 0142 9B69     		ldr	r3, [r3, #24]
 3187 0144 7B61     		str	r3, [r7, #20]
 3188 0146 7B69     		ldr	r3, [r7, #20]
 3189              	.L167:
 3190              	.LBE72:
1639:Drivers/STM32F1xx_HAL_Driver/Src/stm32f1xx_hal_i2c.c ****     }
1640:Drivers/STM32F1xx_HAL_Driver/Src/stm32f1xx_hal_i2c.c **** 
1641:Drivers/STM32F1xx_HAL_Driver/Src/stm32f1xx_hal_i2c.c ****     /* Process Unlocked */
1642:Drivers/STM32F1xx_HAL_Driver/Src/stm32f1xx_hal_i2c.c ****     __HAL_UNLOCK(hi2c);
 3191              		.loc 1 1642 0
 3192 0148 FB68     		ldr	r3, [r7, #12]
 3193 014a 0022     		movs	r2, #0
 3194 014c 83F83420 		strb	r2, [r3, #52]
1643:Drivers/STM32F1xx_HAL_Driver/Src/stm32f1xx_hal_i2c.c **** 
1644:Drivers/STM32F1xx_HAL_Driver/Src/stm32f1xx_hal_i2c.c ****     return HAL_OK;
 3195              		.loc 1 1644 0
 3196 0150 0023     		movs	r3, #0
 3197 0152 00E0     		b	.L162
 3198              	.L159:
1645:Drivers/STM32F1xx_HAL_Driver/Src/stm32f1xx_hal_i2c.c ****   }
1646:Drivers/STM32F1xx_HAL_Driver/Src/stm32f1xx_hal_i2c.c ****   else
1647:Drivers/STM32F1xx_HAL_Driver/Src/stm32f1xx_hal_i2c.c ****   {
1648:Drivers/STM32F1xx_HAL_Driver/Src/stm32f1xx_hal_i2c.c ****     return HAL_BUSY;
 3199              		.loc 1 1648 0
 3200 0154 0223     		movs	r3, #2
 3201              	.L162:
1649:Drivers/STM32F1xx_HAL_Driver/Src/stm32f1xx_hal_i2c.c ****   }
1650:Drivers/STM32F1xx_HAL_Driver/Src/stm32f1xx_hal_i2c.c **** }
 3202              		.loc 1 1650 0
ARM GAS  /var/folders/kh/x4vltyy52lbg7p4pcyglc5080000gp/T//cccbl2Nm.s 			page 87


 3203 0156 1846     		mov	r0, r3
 3204 0158 2037     		adds	r7, r7, #32
 3205              	.LCFI75:
 3206              		.cfi_def_cfa_offset 8
 3207 015a BD46     		mov	sp, r7
 3208              	.LCFI76:
 3209              		.cfi_def_cfa_register 13
 3210              		@ sp needed
 3211 015c 80BD     		pop	{r7, pc}
 3212              	.L170:
 3213 015e 00BF     		.align	2
 3214              	.L169:
 3215 0160 02001000 		.word	1048578
 3216 0164 00000000 		.word	I2C_DMASlaveTransmitCplt
 3217 0168 00000000 		.word	I2C_DMAError
 3218 016c 02000100 		.word	65538
 3219              		.cfi_endproc
 3220              	.LFE78:
 3222              		.section	.text.HAL_I2C_Slave_Receive_DMA,"ax",%progbits
 3223              		.align	2
 3224              		.global	HAL_I2C_Slave_Receive_DMA
 3225              		.thumb
 3226              		.thumb_func
 3228              	HAL_I2C_Slave_Receive_DMA:
 3229              	.LFB79:
1651:Drivers/STM32F1xx_HAL_Driver/Src/stm32f1xx_hal_i2c.c **** 
1652:Drivers/STM32F1xx_HAL_Driver/Src/stm32f1xx_hal_i2c.c **** /**
1653:Drivers/STM32F1xx_HAL_Driver/Src/stm32f1xx_hal_i2c.c ****   * @brief  Receive in slave mode an amount of data in non-blocking mode with DMA
1654:Drivers/STM32F1xx_HAL_Driver/Src/stm32f1xx_hal_i2c.c ****   * @param  hi2c Pointer to a I2C_HandleTypeDef structure that contains
1655:Drivers/STM32F1xx_HAL_Driver/Src/stm32f1xx_hal_i2c.c ****   *                the configuration information for the specified I2C.
1656:Drivers/STM32F1xx_HAL_Driver/Src/stm32f1xx_hal_i2c.c ****   * @param  pData Pointer to data buffer
1657:Drivers/STM32F1xx_HAL_Driver/Src/stm32f1xx_hal_i2c.c ****   * @param  Size Amount of data to be sent
1658:Drivers/STM32F1xx_HAL_Driver/Src/stm32f1xx_hal_i2c.c ****   * @retval HAL status
1659:Drivers/STM32F1xx_HAL_Driver/Src/stm32f1xx_hal_i2c.c ****   */
1660:Drivers/STM32F1xx_HAL_Driver/Src/stm32f1xx_hal_i2c.c **** HAL_StatusTypeDef HAL_I2C_Slave_Receive_DMA(I2C_HandleTypeDef *hi2c, uint8_t *pData, uint16_t Size)
1661:Drivers/STM32F1xx_HAL_Driver/Src/stm32f1xx_hal_i2c.c **** {
 3230              		.loc 1 1661 0
 3231              		.cfi_startproc
 3232              		@ args = 0, pretend = 0, frame = 24
 3233              		@ frame_needed = 1, uses_anonymous_args = 0
 3234 0000 80B5     		push	{r7, lr}
 3235              	.LCFI77:
 3236              		.cfi_def_cfa_offset 8
 3237              		.cfi_offset 7, -8
 3238              		.cfi_offset 14, -4
 3239 0002 86B0     		sub	sp, sp, #24
 3240              	.LCFI78:
 3241              		.cfi_def_cfa_offset 32
 3242 0004 00AF     		add	r7, sp, #0
 3243              	.LCFI79:
 3244              		.cfi_def_cfa_register 7
 3245 0006 F860     		str	r0, [r7, #12]
 3246 0008 B960     		str	r1, [r7, #8]
 3247 000a 1346     		mov	r3, r2
 3248 000c FB80     		strh	r3, [r7, #6]	@ movhi
1662:Drivers/STM32F1xx_HAL_Driver/Src/stm32f1xx_hal_i2c.c ****   if(hi2c->State == HAL_I2C_STATE_READY)
 3249              		.loc 1 1662 0
ARM GAS  /var/folders/kh/x4vltyy52lbg7p4pcyglc5080000gp/T//cccbl2Nm.s 			page 88


 3250 000e FB68     		ldr	r3, [r7, #12]
 3251 0010 93F83530 		ldrb	r3, [r3, #53]
 3252 0014 DBB2     		uxtb	r3, r3
 3253 0016 202B     		cmp	r3, #32
 3254 0018 77D1     		bne	.L172
1663:Drivers/STM32F1xx_HAL_Driver/Src/stm32f1xx_hal_i2c.c ****   {
1664:Drivers/STM32F1xx_HAL_Driver/Src/stm32f1xx_hal_i2c.c ****     if((pData == NULL) || (Size == 0))
 3255              		.loc 1 1664 0
 3256 001a BB68     		ldr	r3, [r7, #8]
 3257 001c 002B     		cmp	r3, #0
 3258 001e 02D0     		beq	.L173
 3259              		.loc 1 1664 0 is_stmt 0 discriminator 1
 3260 0020 FB88     		ldrh	r3, [r7, #6]
 3261 0022 002B     		cmp	r3, #0
 3262 0024 01D1     		bne	.L174
 3263              	.L173:
1665:Drivers/STM32F1xx_HAL_Driver/Src/stm32f1xx_hal_i2c.c ****     {
1666:Drivers/STM32F1xx_HAL_Driver/Src/stm32f1xx_hal_i2c.c ****       return  HAL_ERROR;
 3264              		.loc 1 1666 0 is_stmt 1
 3265 0026 0123     		movs	r3, #1
 3266 0028 70E0     		b	.L175
 3267              	.L174:
1667:Drivers/STM32F1xx_HAL_Driver/Src/stm32f1xx_hal_i2c.c ****     }
1668:Drivers/STM32F1xx_HAL_Driver/Src/stm32f1xx_hal_i2c.c **** 
1669:Drivers/STM32F1xx_HAL_Driver/Src/stm32f1xx_hal_i2c.c ****     /* Wait until BUSY flag is reset */
1670:Drivers/STM32F1xx_HAL_Driver/Src/stm32f1xx_hal_i2c.c ****     if(I2C_WaitOnFlagUntilTimeout(hi2c, I2C_FLAG_BUSY, SET, I2C_TIMEOUT_BUSY_FLAG) != HAL_OK)
 3268              		.loc 1 1670 0
 3269 002a 42F21073 		movw	r3, #10000
 3270 002e 0122     		movs	r2, #1
 3271 0030 3849     		ldr	r1, .L179
 3272 0032 F868     		ldr	r0, [r7, #12]
 3273 0034 FFF7FEFF 		bl	I2C_WaitOnFlagUntilTimeout
 3274 0038 0346     		mov	r3, r0
 3275 003a 002B     		cmp	r3, #0
 3276 003c 01D0     		beq	.L176
1671:Drivers/STM32F1xx_HAL_Driver/Src/stm32f1xx_hal_i2c.c ****     {
1672:Drivers/STM32F1xx_HAL_Driver/Src/stm32f1xx_hal_i2c.c ****       return HAL_BUSY;
 3277              		.loc 1 1672 0
 3278 003e 0223     		movs	r3, #2
 3279 0040 64E0     		b	.L175
 3280              	.L176:
1673:Drivers/STM32F1xx_HAL_Driver/Src/stm32f1xx_hal_i2c.c ****     }
1674:Drivers/STM32F1xx_HAL_Driver/Src/stm32f1xx_hal_i2c.c **** 
1675:Drivers/STM32F1xx_HAL_Driver/Src/stm32f1xx_hal_i2c.c ****     /* Process Locked */
1676:Drivers/STM32F1xx_HAL_Driver/Src/stm32f1xx_hal_i2c.c ****     __HAL_LOCK(hi2c);
 3281              		.loc 1 1676 0
 3282 0042 FB68     		ldr	r3, [r7, #12]
 3283 0044 93F83430 		ldrb	r3, [r3, #52]	@ zero_extendqisi2
 3284 0048 012B     		cmp	r3, #1
 3285 004a 01D1     		bne	.L177
 3286              		.loc 1 1676 0 is_stmt 0 discriminator 1
 3287 004c 0223     		movs	r3, #2
 3288 004e 5DE0     		b	.L175
 3289              	.L177:
 3290              		.loc 1 1676 0 discriminator 2
 3291 0050 FB68     		ldr	r3, [r7, #12]
 3292 0052 0122     		movs	r2, #1
ARM GAS  /var/folders/kh/x4vltyy52lbg7p4pcyglc5080000gp/T//cccbl2Nm.s 			page 89


 3293 0054 83F83420 		strb	r2, [r3, #52]
1677:Drivers/STM32F1xx_HAL_Driver/Src/stm32f1xx_hal_i2c.c **** 
1678:Drivers/STM32F1xx_HAL_Driver/Src/stm32f1xx_hal_i2c.c ****     /* Disable Pos */
1679:Drivers/STM32F1xx_HAL_Driver/Src/stm32f1xx_hal_i2c.c ****     CLEAR_BIT(hi2c->Instance->CR1, I2C_CR1_POS);
 3294              		.loc 1 1679 0 is_stmt 1 discriminator 2
 3295 0058 FB68     		ldr	r3, [r7, #12]
 3296 005a 1B68     		ldr	r3, [r3]
 3297 005c FA68     		ldr	r2, [r7, #12]
 3298 005e 1268     		ldr	r2, [r2]
 3299 0060 1268     		ldr	r2, [r2]
 3300 0062 22F40062 		bic	r2, r2, #2048
 3301 0066 1A60     		str	r2, [r3]
1680:Drivers/STM32F1xx_HAL_Driver/Src/stm32f1xx_hal_i2c.c **** 
1681:Drivers/STM32F1xx_HAL_Driver/Src/stm32f1xx_hal_i2c.c ****     hi2c->State = HAL_I2C_STATE_BUSY_RX;
 3302              		.loc 1 1681 0 discriminator 2
 3303 0068 FB68     		ldr	r3, [r7, #12]
 3304 006a 2222     		movs	r2, #34
 3305 006c 83F83520 		strb	r2, [r3, #53]
1682:Drivers/STM32F1xx_HAL_Driver/Src/stm32f1xx_hal_i2c.c ****     hi2c->Mode = HAL_I2C_MODE_SLAVE;
 3306              		.loc 1 1682 0 discriminator 2
 3307 0070 FB68     		ldr	r3, [r7, #12]
 3308 0072 2022     		movs	r2, #32
 3309 0074 83F83620 		strb	r2, [r3, #54]
1683:Drivers/STM32F1xx_HAL_Driver/Src/stm32f1xx_hal_i2c.c ****     hi2c->ErrorCode = HAL_I2C_ERROR_NONE;
 3310              		.loc 1 1683 0 discriminator 2
 3311 0078 FB68     		ldr	r3, [r7, #12]
 3312 007a 0022     		movs	r2, #0
 3313 007c 9A63     		str	r2, [r3, #56]
1684:Drivers/STM32F1xx_HAL_Driver/Src/stm32f1xx_hal_i2c.c **** 
1685:Drivers/STM32F1xx_HAL_Driver/Src/stm32f1xx_hal_i2c.c ****     hi2c->pBuffPtr = pData;
 3314              		.loc 1 1685 0 discriminator 2
 3315 007e FB68     		ldr	r3, [r7, #12]
 3316 0080 BA68     		ldr	r2, [r7, #8]
 3317 0082 5A62     		str	r2, [r3, #36]
1686:Drivers/STM32F1xx_HAL_Driver/Src/stm32f1xx_hal_i2c.c ****     hi2c->XferSize = Size;
 3318              		.loc 1 1686 0 discriminator 2
 3319 0084 FB68     		ldr	r3, [r7, #12]
 3320 0086 FA88     		ldrh	r2, [r7, #6]	@ movhi
 3321 0088 1A85     		strh	r2, [r3, #40]	@ movhi
1687:Drivers/STM32F1xx_HAL_Driver/Src/stm32f1xx_hal_i2c.c ****     hi2c->XferCount = Size;
 3322              		.loc 1 1687 0 discriminator 2
 3323 008a FB68     		ldr	r3, [r7, #12]
 3324 008c FA88     		ldrh	r2, [r7, #6]	@ movhi
 3325 008e 5A85     		strh	r2, [r3, #42]	@ movhi
1688:Drivers/STM32F1xx_HAL_Driver/Src/stm32f1xx_hal_i2c.c **** 
1689:Drivers/STM32F1xx_HAL_Driver/Src/stm32f1xx_hal_i2c.c ****     /* Set the I2C DMA transfer complete callback */
1690:Drivers/STM32F1xx_HAL_Driver/Src/stm32f1xx_hal_i2c.c ****     hi2c->hdmarx->XferCpltCallback = I2C_DMASlaveReceiveCplt;
 3326              		.loc 1 1690 0 discriminator 2
 3327 0090 FB68     		ldr	r3, [r7, #12]
 3328 0092 1B6B     		ldr	r3, [r3, #48]
 3329 0094 204A     		ldr	r2, .L179+4
 3330 0096 9A62     		str	r2, [r3, #40]
1691:Drivers/STM32F1xx_HAL_Driver/Src/stm32f1xx_hal_i2c.c **** 
1692:Drivers/STM32F1xx_HAL_Driver/Src/stm32f1xx_hal_i2c.c ****     /* Set the DMA error callback */
1693:Drivers/STM32F1xx_HAL_Driver/Src/stm32f1xx_hal_i2c.c ****     hi2c->hdmarx->XferErrorCallback = I2C_DMAError;
 3331              		.loc 1 1693 0 discriminator 2
 3332 0098 FB68     		ldr	r3, [r7, #12]
ARM GAS  /var/folders/kh/x4vltyy52lbg7p4pcyglc5080000gp/T//cccbl2Nm.s 			page 90


 3333 009a 1B6B     		ldr	r3, [r3, #48]
 3334 009c 1F4A     		ldr	r2, .L179+8
 3335 009e 1A63     		str	r2, [r3, #48]
1694:Drivers/STM32F1xx_HAL_Driver/Src/stm32f1xx_hal_i2c.c **** 
1695:Drivers/STM32F1xx_HAL_Driver/Src/stm32f1xx_hal_i2c.c ****     /* Enable the DMA channel */
1696:Drivers/STM32F1xx_HAL_Driver/Src/stm32f1xx_hal_i2c.c ****     HAL_DMA_Start_IT(hi2c->hdmarx, (uint32_t)&hi2c->Instance->DR, (uint32_t)pData, Size);
 3336              		.loc 1 1696 0 discriminator 2
 3337 00a0 FB68     		ldr	r3, [r7, #12]
 3338 00a2 186B     		ldr	r0, [r3, #48]
 3339 00a4 FB68     		ldr	r3, [r7, #12]
 3340 00a6 1B68     		ldr	r3, [r3]
 3341 00a8 1033     		adds	r3, r3, #16
 3342 00aa 1946     		mov	r1, r3
 3343 00ac BA68     		ldr	r2, [r7, #8]
 3344 00ae FB88     		ldrh	r3, [r7, #6]
 3345 00b0 FFF7FEFF 		bl	HAL_DMA_Start_IT
1697:Drivers/STM32F1xx_HAL_Driver/Src/stm32f1xx_hal_i2c.c **** 
1698:Drivers/STM32F1xx_HAL_Driver/Src/stm32f1xx_hal_i2c.c ****     /* Enable DMA Request */
1699:Drivers/STM32F1xx_HAL_Driver/Src/stm32f1xx_hal_i2c.c ****     SET_BIT(hi2c->Instance->CR2, I2C_CR2_DMAEN);
 3346              		.loc 1 1699 0 discriminator 2
 3347 00b4 FB68     		ldr	r3, [r7, #12]
 3348 00b6 1B68     		ldr	r3, [r3]
 3349 00b8 FA68     		ldr	r2, [r7, #12]
 3350 00ba 1268     		ldr	r2, [r2]
 3351 00bc 5268     		ldr	r2, [r2, #4]
 3352 00be 42F40062 		orr	r2, r2, #2048
 3353 00c2 5A60     		str	r2, [r3, #4]
1700:Drivers/STM32F1xx_HAL_Driver/Src/stm32f1xx_hal_i2c.c **** 
1701:Drivers/STM32F1xx_HAL_Driver/Src/stm32f1xx_hal_i2c.c ****     /* Enable Address Acknowledge */
1702:Drivers/STM32F1xx_HAL_Driver/Src/stm32f1xx_hal_i2c.c ****     SET_BIT(hi2c->Instance->CR1, I2C_CR1_ACK);
 3354              		.loc 1 1702 0 discriminator 2
 3355 00c4 FB68     		ldr	r3, [r7, #12]
 3356 00c6 1B68     		ldr	r3, [r3]
 3357 00c8 FA68     		ldr	r2, [r7, #12]
 3358 00ca 1268     		ldr	r2, [r2]
 3359 00cc 1268     		ldr	r2, [r2]
 3360 00ce 42F48062 		orr	r2, r2, #1024
 3361 00d2 1A60     		str	r2, [r3]
1703:Drivers/STM32F1xx_HAL_Driver/Src/stm32f1xx_hal_i2c.c **** 
1704:Drivers/STM32F1xx_HAL_Driver/Src/stm32f1xx_hal_i2c.c ****     /* Wait until ADDR flag is set */
1705:Drivers/STM32F1xx_HAL_Driver/Src/stm32f1xx_hal_i2c.c ****     if(I2C_WaitOnFlagUntilTimeout(hi2c, I2C_FLAG_ADDR, RESET, I2C_TIMEOUT_ADDR_SLAVE) != HAL_OK)
 3362              		.loc 1 1705 0 discriminator 2
 3363 00d4 42F21073 		movw	r3, #10000
 3364 00d8 0022     		movs	r2, #0
 3365 00da 1149     		ldr	r1, .L179+12
 3366 00dc F868     		ldr	r0, [r7, #12]
 3367 00de FFF7FEFF 		bl	I2C_WaitOnFlagUntilTimeout
 3368 00e2 0346     		mov	r3, r0
 3369 00e4 002B     		cmp	r3, #0
 3370 00e6 01D0     		beq	.L178
1706:Drivers/STM32F1xx_HAL_Driver/Src/stm32f1xx_hal_i2c.c ****     {
1707:Drivers/STM32F1xx_HAL_Driver/Src/stm32f1xx_hal_i2c.c ****       return HAL_TIMEOUT;
 3371              		.loc 1 1707 0
 3372 00e8 0323     		movs	r3, #3
 3373 00ea 0FE0     		b	.L175
 3374              	.L178:
 3375              	.LBB73:
ARM GAS  /var/folders/kh/x4vltyy52lbg7p4pcyglc5080000gp/T//cccbl2Nm.s 			page 91


1708:Drivers/STM32F1xx_HAL_Driver/Src/stm32f1xx_hal_i2c.c ****     }
1709:Drivers/STM32F1xx_HAL_Driver/Src/stm32f1xx_hal_i2c.c **** 
1710:Drivers/STM32F1xx_HAL_Driver/Src/stm32f1xx_hal_i2c.c ****     /* Clear ADDR flag */
1711:Drivers/STM32F1xx_HAL_Driver/Src/stm32f1xx_hal_i2c.c ****     __HAL_I2C_CLEAR_ADDRFLAG(hi2c);
 3376              		.loc 1 1711 0
 3377 00ec FB68     		ldr	r3, [r7, #12]
 3378 00ee 1B68     		ldr	r3, [r3]
 3379 00f0 5B69     		ldr	r3, [r3, #20]
 3380 00f2 7B61     		str	r3, [r7, #20]
 3381 00f4 FB68     		ldr	r3, [r7, #12]
 3382 00f6 1B68     		ldr	r3, [r3]
 3383 00f8 9B69     		ldr	r3, [r3, #24]
 3384 00fa 7B61     		str	r3, [r7, #20]
 3385 00fc 7B69     		ldr	r3, [r7, #20]
 3386              	.LBE73:
1712:Drivers/STM32F1xx_HAL_Driver/Src/stm32f1xx_hal_i2c.c **** 
1713:Drivers/STM32F1xx_HAL_Driver/Src/stm32f1xx_hal_i2c.c ****     /* Process Unlocked */
1714:Drivers/STM32F1xx_HAL_Driver/Src/stm32f1xx_hal_i2c.c ****     __HAL_UNLOCK(hi2c);
 3387              		.loc 1 1714 0
 3388 00fe FB68     		ldr	r3, [r7, #12]
 3389 0100 0022     		movs	r2, #0
 3390 0102 83F83420 		strb	r2, [r3, #52]
1715:Drivers/STM32F1xx_HAL_Driver/Src/stm32f1xx_hal_i2c.c **** 
1716:Drivers/STM32F1xx_HAL_Driver/Src/stm32f1xx_hal_i2c.c ****     return HAL_OK;
 3391              		.loc 1 1716 0
 3392 0106 0023     		movs	r3, #0
 3393 0108 00E0     		b	.L175
 3394              	.L172:
1717:Drivers/STM32F1xx_HAL_Driver/Src/stm32f1xx_hal_i2c.c ****   }
1718:Drivers/STM32F1xx_HAL_Driver/Src/stm32f1xx_hal_i2c.c ****   else
1719:Drivers/STM32F1xx_HAL_Driver/Src/stm32f1xx_hal_i2c.c ****   {
1720:Drivers/STM32F1xx_HAL_Driver/Src/stm32f1xx_hal_i2c.c ****     return HAL_BUSY;
 3395              		.loc 1 1720 0
 3396 010a 0223     		movs	r3, #2
 3397              	.L175:
1721:Drivers/STM32F1xx_HAL_Driver/Src/stm32f1xx_hal_i2c.c ****   }
1722:Drivers/STM32F1xx_HAL_Driver/Src/stm32f1xx_hal_i2c.c **** }
 3398              		.loc 1 1722 0
 3399 010c 1846     		mov	r0, r3
 3400 010e 1837     		adds	r7, r7, #24
 3401              	.LCFI80:
 3402              		.cfi_def_cfa_offset 8
 3403 0110 BD46     		mov	sp, r7
 3404              	.LCFI81:
 3405              		.cfi_def_cfa_register 13
 3406              		@ sp needed
 3407 0112 80BD     		pop	{r7, pc}
 3408              	.L180:
 3409              		.align	2
 3410              	.L179:
 3411 0114 02001000 		.word	1048578
 3412 0118 00000000 		.word	I2C_DMASlaveReceiveCplt
 3413 011c 00000000 		.word	I2C_DMAError
 3414 0120 02000100 		.word	65538
 3415              		.cfi_endproc
 3416              	.LFE79:
 3418              		.section	.text.HAL_I2C_Mem_Write,"ax",%progbits
ARM GAS  /var/folders/kh/x4vltyy52lbg7p4pcyglc5080000gp/T//cccbl2Nm.s 			page 92


 3419              		.align	2
 3420              		.global	HAL_I2C_Mem_Write
 3421              		.thumb
 3422              		.thumb_func
 3424              	HAL_I2C_Mem_Write:
 3425              	.LFB80:
1723:Drivers/STM32F1xx_HAL_Driver/Src/stm32f1xx_hal_i2c.c **** 
1724:Drivers/STM32F1xx_HAL_Driver/Src/stm32f1xx_hal_i2c.c **** /**
1725:Drivers/STM32F1xx_HAL_Driver/Src/stm32f1xx_hal_i2c.c ****   * @brief  Write an amount of data in blocking mode to a specific memory address
1726:Drivers/STM32F1xx_HAL_Driver/Src/stm32f1xx_hal_i2c.c ****   * @param  hi2c Pointer to a I2C_HandleTypeDef structure that contains
1727:Drivers/STM32F1xx_HAL_Driver/Src/stm32f1xx_hal_i2c.c ****   *                the configuration information for the specified I2C.
1728:Drivers/STM32F1xx_HAL_Driver/Src/stm32f1xx_hal_i2c.c ****   * @param  DevAddress Target device address
1729:Drivers/STM32F1xx_HAL_Driver/Src/stm32f1xx_hal_i2c.c ****   * @param  MemAddress Internal memory address
1730:Drivers/STM32F1xx_HAL_Driver/Src/stm32f1xx_hal_i2c.c ****   * @param  MemAddSize Size of internal memory address
1731:Drivers/STM32F1xx_HAL_Driver/Src/stm32f1xx_hal_i2c.c ****   * @param  pData Pointer to data buffer
1732:Drivers/STM32F1xx_HAL_Driver/Src/stm32f1xx_hal_i2c.c ****   * @param  Size Amount of data to be sent
1733:Drivers/STM32F1xx_HAL_Driver/Src/stm32f1xx_hal_i2c.c ****   * @param  Timeout Timeout duration
1734:Drivers/STM32F1xx_HAL_Driver/Src/stm32f1xx_hal_i2c.c ****   * @retval HAL status
1735:Drivers/STM32F1xx_HAL_Driver/Src/stm32f1xx_hal_i2c.c ****   */
1736:Drivers/STM32F1xx_HAL_Driver/Src/stm32f1xx_hal_i2c.c **** HAL_StatusTypeDef HAL_I2C_Mem_Write(I2C_HandleTypeDef *hi2c, uint16_t DevAddress, uint16_t MemAddre
1737:Drivers/STM32F1xx_HAL_Driver/Src/stm32f1xx_hal_i2c.c **** {
 3426              		.loc 1 1737 0
 3427              		.cfi_startproc
 3428              		@ args = 12, pretend = 0, frame = 16
 3429              		@ frame_needed = 1, uses_anonymous_args = 0
 3430 0000 80B5     		push	{r7, lr}
 3431              	.LCFI82:
 3432              		.cfi_def_cfa_offset 8
 3433              		.cfi_offset 7, -8
 3434              		.cfi_offset 14, -4
 3435 0002 86B0     		sub	sp, sp, #24
 3436              	.LCFI83:
 3437              		.cfi_def_cfa_offset 32
 3438 0004 02AF     		add	r7, sp, #8
 3439              	.LCFI84:
 3440              		.cfi_def_cfa 7, 24
 3441 0006 F860     		str	r0, [r7, #12]
 3442 0008 0846     		mov	r0, r1
 3443 000a 1146     		mov	r1, r2
 3444 000c 1A46     		mov	r2, r3
 3445 000e 0346     		mov	r3, r0	@ movhi
 3446 0010 7B81     		strh	r3, [r7, #10]	@ movhi
 3447 0012 0B46     		mov	r3, r1	@ movhi
 3448 0014 3B81     		strh	r3, [r7, #8]	@ movhi
 3449 0016 1346     		mov	r3, r2	@ movhi
 3450 0018 FB80     		strh	r3, [r7, #6]	@ movhi
1738:Drivers/STM32F1xx_HAL_Driver/Src/stm32f1xx_hal_i2c.c ****   /* Check the parameters */
1739:Drivers/STM32F1xx_HAL_Driver/Src/stm32f1xx_hal_i2c.c ****   assert_param(IS_I2C_MEMADD_SIZE(MemAddSize));
1740:Drivers/STM32F1xx_HAL_Driver/Src/stm32f1xx_hal_i2c.c **** 
1741:Drivers/STM32F1xx_HAL_Driver/Src/stm32f1xx_hal_i2c.c ****   if(hi2c->State == HAL_I2C_STATE_READY)
 3451              		.loc 1 1741 0
 3452 001a FB68     		ldr	r3, [r7, #12]
 3453 001c 93F83530 		ldrb	r3, [r3, #53]
 3454 0020 DBB2     		uxtb	r3, r3
 3455 0022 202B     		cmp	r3, #32
 3456 0024 40F0B380 		bne	.L182
1742:Drivers/STM32F1xx_HAL_Driver/Src/stm32f1xx_hal_i2c.c ****   {
ARM GAS  /var/folders/kh/x4vltyy52lbg7p4pcyglc5080000gp/T//cccbl2Nm.s 			page 93


1743:Drivers/STM32F1xx_HAL_Driver/Src/stm32f1xx_hal_i2c.c ****     if((pData == NULL) || (Size == 0))
 3457              		.loc 1 1743 0
 3458 0028 BB69     		ldr	r3, [r7, #24]
 3459 002a 002B     		cmp	r3, #0
 3460 002c 02D0     		beq	.L183
 3461              		.loc 1 1743 0 is_stmt 0 discriminator 1
 3462 002e BB8B     		ldrh	r3, [r7, #28]
 3463 0030 002B     		cmp	r3, #0
 3464 0032 01D1     		bne	.L184
 3465              	.L183:
1744:Drivers/STM32F1xx_HAL_Driver/Src/stm32f1xx_hal_i2c.c ****     {
1745:Drivers/STM32F1xx_HAL_Driver/Src/stm32f1xx_hal_i2c.c ****       return  HAL_ERROR;
 3466              		.loc 1 1745 0 is_stmt 1
 3467 0034 0123     		movs	r3, #1
 3468 0036 ABE0     		b	.L185
 3469              	.L184:
1746:Drivers/STM32F1xx_HAL_Driver/Src/stm32f1xx_hal_i2c.c ****     }
1747:Drivers/STM32F1xx_HAL_Driver/Src/stm32f1xx_hal_i2c.c **** 
1748:Drivers/STM32F1xx_HAL_Driver/Src/stm32f1xx_hal_i2c.c ****     /* Wait until BUSY flag is reset */
1749:Drivers/STM32F1xx_HAL_Driver/Src/stm32f1xx_hal_i2c.c ****     if(I2C_WaitOnFlagUntilTimeout(hi2c, I2C_FLAG_BUSY, SET, I2C_TIMEOUT_BUSY_FLAG) != HAL_OK)
 3470              		.loc 1 1749 0
 3471 0038 42F21073 		movw	r3, #10000
 3472 003c 0122     		movs	r2, #1
 3473 003e 5649     		ldr	r1, .L196
 3474 0040 F868     		ldr	r0, [r7, #12]
 3475 0042 FFF7FEFF 		bl	I2C_WaitOnFlagUntilTimeout
 3476 0046 0346     		mov	r3, r0
 3477 0048 002B     		cmp	r3, #0
 3478 004a 01D0     		beq	.L186
1750:Drivers/STM32F1xx_HAL_Driver/Src/stm32f1xx_hal_i2c.c ****     {
1751:Drivers/STM32F1xx_HAL_Driver/Src/stm32f1xx_hal_i2c.c ****       return HAL_BUSY;
 3479              		.loc 1 1751 0
 3480 004c 0223     		movs	r3, #2
 3481 004e 9FE0     		b	.L185
 3482              	.L186:
1752:Drivers/STM32F1xx_HAL_Driver/Src/stm32f1xx_hal_i2c.c ****     }
1753:Drivers/STM32F1xx_HAL_Driver/Src/stm32f1xx_hal_i2c.c **** 
1754:Drivers/STM32F1xx_HAL_Driver/Src/stm32f1xx_hal_i2c.c ****     /* Process Locked */
1755:Drivers/STM32F1xx_HAL_Driver/Src/stm32f1xx_hal_i2c.c ****     __HAL_LOCK(hi2c);
 3483              		.loc 1 1755 0
 3484 0050 FB68     		ldr	r3, [r7, #12]
 3485 0052 93F83430 		ldrb	r3, [r3, #52]	@ zero_extendqisi2
 3486 0056 012B     		cmp	r3, #1
 3487 0058 01D1     		bne	.L187
 3488              		.loc 1 1755 0 is_stmt 0 discriminator 1
 3489 005a 0223     		movs	r3, #2
 3490 005c 98E0     		b	.L185
 3491              	.L187:
 3492              		.loc 1 1755 0 discriminator 2
 3493 005e FB68     		ldr	r3, [r7, #12]
 3494 0060 0122     		movs	r2, #1
 3495 0062 83F83420 		strb	r2, [r3, #52]
1756:Drivers/STM32F1xx_HAL_Driver/Src/stm32f1xx_hal_i2c.c **** 
1757:Drivers/STM32F1xx_HAL_Driver/Src/stm32f1xx_hal_i2c.c ****     /* Disable Pos */
1758:Drivers/STM32F1xx_HAL_Driver/Src/stm32f1xx_hal_i2c.c ****     CLEAR_BIT(hi2c->Instance->CR1, I2C_CR1_POS);
 3496              		.loc 1 1758 0 is_stmt 1 discriminator 2
 3497 0066 FB68     		ldr	r3, [r7, #12]
ARM GAS  /var/folders/kh/x4vltyy52lbg7p4pcyglc5080000gp/T//cccbl2Nm.s 			page 94


 3498 0068 1B68     		ldr	r3, [r3]
 3499 006a FA68     		ldr	r2, [r7, #12]
 3500 006c 1268     		ldr	r2, [r2]
 3501 006e 1268     		ldr	r2, [r2]
 3502 0070 22F40062 		bic	r2, r2, #2048
 3503 0074 1A60     		str	r2, [r3]
1759:Drivers/STM32F1xx_HAL_Driver/Src/stm32f1xx_hal_i2c.c **** 
1760:Drivers/STM32F1xx_HAL_Driver/Src/stm32f1xx_hal_i2c.c ****     hi2c->State = HAL_I2C_STATE_BUSY_TX;
 3504              		.loc 1 1760 0 discriminator 2
 3505 0076 FB68     		ldr	r3, [r7, #12]
 3506 0078 2122     		movs	r2, #33
 3507 007a 83F83520 		strb	r2, [r3, #53]
1761:Drivers/STM32F1xx_HAL_Driver/Src/stm32f1xx_hal_i2c.c ****     hi2c->Mode = HAL_I2C_MODE_MEM;
 3508              		.loc 1 1761 0 discriminator 2
 3509 007e FB68     		ldr	r3, [r7, #12]
 3510 0080 4022     		movs	r2, #64
 3511 0082 83F83620 		strb	r2, [r3, #54]
1762:Drivers/STM32F1xx_HAL_Driver/Src/stm32f1xx_hal_i2c.c ****     hi2c->ErrorCode = HAL_I2C_ERROR_NONE;
 3512              		.loc 1 1762 0 discriminator 2
 3513 0086 FB68     		ldr	r3, [r7, #12]
 3514 0088 0022     		movs	r2, #0
 3515 008a 9A63     		str	r2, [r3, #56]
1763:Drivers/STM32F1xx_HAL_Driver/Src/stm32f1xx_hal_i2c.c **** 
1764:Drivers/STM32F1xx_HAL_Driver/Src/stm32f1xx_hal_i2c.c ****     /* Send Slave Address and Memory Address */
1765:Drivers/STM32F1xx_HAL_Driver/Src/stm32f1xx_hal_i2c.c ****     if(I2C_RequestMemoryWrite(hi2c, DevAddress, MemAddress, MemAddSize, Timeout) != HAL_OK)
 3516              		.loc 1 1765 0 discriminator 2
 3517 008c F888     		ldrh	r0, [r7, #6]
 3518 008e 3A89     		ldrh	r2, [r7, #8]
 3519 0090 7989     		ldrh	r1, [r7, #10]
 3520 0092 3B6A     		ldr	r3, [r7, #32]
 3521 0094 0093     		str	r3, [sp]
 3522 0096 0346     		mov	r3, r0
 3523 0098 F868     		ldr	r0, [r7, #12]
 3524 009a FFF7FEFF 		bl	I2C_RequestMemoryWrite
 3525 009e 0346     		mov	r3, r0
 3526 00a0 002B     		cmp	r3, #0
 3527 00a2 44D0     		beq	.L190
1766:Drivers/STM32F1xx_HAL_Driver/Src/stm32f1xx_hal_i2c.c ****     {
1767:Drivers/STM32F1xx_HAL_Driver/Src/stm32f1xx_hal_i2c.c ****       if(hi2c->ErrorCode == HAL_I2C_ERROR_AF)
 3528              		.loc 1 1767 0
 3529 00a4 FB68     		ldr	r3, [r7, #12]
 3530 00a6 9B6B     		ldr	r3, [r3, #56]
 3531 00a8 042B     		cmp	r3, #4
 3532 00aa 05D1     		bne	.L189
1768:Drivers/STM32F1xx_HAL_Driver/Src/stm32f1xx_hal_i2c.c ****       {
1769:Drivers/STM32F1xx_HAL_Driver/Src/stm32f1xx_hal_i2c.c ****         /* Process Unlocked */
1770:Drivers/STM32F1xx_HAL_Driver/Src/stm32f1xx_hal_i2c.c ****         __HAL_UNLOCK(hi2c);
 3533              		.loc 1 1770 0
 3534 00ac FB68     		ldr	r3, [r7, #12]
 3535 00ae 0022     		movs	r2, #0
 3536 00b0 83F83420 		strb	r2, [r3, #52]
1771:Drivers/STM32F1xx_HAL_Driver/Src/stm32f1xx_hal_i2c.c ****         return HAL_ERROR;
 3537              		.loc 1 1771 0
 3538 00b4 0123     		movs	r3, #1
 3539 00b6 6BE0     		b	.L185
 3540              	.L189:
1772:Drivers/STM32F1xx_HAL_Driver/Src/stm32f1xx_hal_i2c.c ****       }
ARM GAS  /var/folders/kh/x4vltyy52lbg7p4pcyglc5080000gp/T//cccbl2Nm.s 			page 95


1773:Drivers/STM32F1xx_HAL_Driver/Src/stm32f1xx_hal_i2c.c ****       else
1774:Drivers/STM32F1xx_HAL_Driver/Src/stm32f1xx_hal_i2c.c ****       {
1775:Drivers/STM32F1xx_HAL_Driver/Src/stm32f1xx_hal_i2c.c ****         /* Process Unlocked */
1776:Drivers/STM32F1xx_HAL_Driver/Src/stm32f1xx_hal_i2c.c ****         __HAL_UNLOCK(hi2c);
 3541              		.loc 1 1776 0
 3542 00b8 FB68     		ldr	r3, [r7, #12]
 3543 00ba 0022     		movs	r2, #0
 3544 00bc 83F83420 		strb	r2, [r3, #52]
1777:Drivers/STM32F1xx_HAL_Driver/Src/stm32f1xx_hal_i2c.c ****         return HAL_TIMEOUT;
 3545              		.loc 1 1777 0
 3546 00c0 0323     		movs	r3, #3
 3547 00c2 65E0     		b	.L185
 3548              	.L193:
1778:Drivers/STM32F1xx_HAL_Driver/Src/stm32f1xx_hal_i2c.c ****       }
1779:Drivers/STM32F1xx_HAL_Driver/Src/stm32f1xx_hal_i2c.c ****     }
1780:Drivers/STM32F1xx_HAL_Driver/Src/stm32f1xx_hal_i2c.c **** 
1781:Drivers/STM32F1xx_HAL_Driver/Src/stm32f1xx_hal_i2c.c ****     while(Size > 0)
1782:Drivers/STM32F1xx_HAL_Driver/Src/stm32f1xx_hal_i2c.c ****     {
1783:Drivers/STM32F1xx_HAL_Driver/Src/stm32f1xx_hal_i2c.c ****       /* Wait until TXE flag is set */
1784:Drivers/STM32F1xx_HAL_Driver/Src/stm32f1xx_hal_i2c.c ****       if(I2C_WaitOnTXEFlagUntilTimeout(hi2c, Timeout) != HAL_OK)
 3549              		.loc 1 1784 0
 3550 00c4 396A     		ldr	r1, [r7, #32]
 3551 00c6 F868     		ldr	r0, [r7, #12]
 3552 00c8 FFF7FEFF 		bl	I2C_WaitOnTXEFlagUntilTimeout
 3553 00cc 0346     		mov	r3, r0
 3554 00ce 002B     		cmp	r3, #0
 3555 00d0 0FD0     		beq	.L191
1785:Drivers/STM32F1xx_HAL_Driver/Src/stm32f1xx_hal_i2c.c ****       {
1786:Drivers/STM32F1xx_HAL_Driver/Src/stm32f1xx_hal_i2c.c ****         if(hi2c->ErrorCode == HAL_I2C_ERROR_AF)
 3556              		.loc 1 1786 0
 3557 00d2 FB68     		ldr	r3, [r7, #12]
 3558 00d4 9B6B     		ldr	r3, [r3, #56]
 3559 00d6 042B     		cmp	r3, #4
 3560 00d8 09D1     		bne	.L192
1787:Drivers/STM32F1xx_HAL_Driver/Src/stm32f1xx_hal_i2c.c ****         {
1788:Drivers/STM32F1xx_HAL_Driver/Src/stm32f1xx_hal_i2c.c ****           /* Generate Stop */
1789:Drivers/STM32F1xx_HAL_Driver/Src/stm32f1xx_hal_i2c.c ****           SET_BIT(hi2c->Instance->CR1,I2C_CR1_STOP);
 3561              		.loc 1 1789 0
 3562 00da FB68     		ldr	r3, [r7, #12]
 3563 00dc 1B68     		ldr	r3, [r3]
 3564 00de FA68     		ldr	r2, [r7, #12]
 3565 00e0 1268     		ldr	r2, [r2]
 3566 00e2 1268     		ldr	r2, [r2]
 3567 00e4 42F40072 		orr	r2, r2, #512
 3568 00e8 1A60     		str	r2, [r3]
1790:Drivers/STM32F1xx_HAL_Driver/Src/stm32f1xx_hal_i2c.c ****           return HAL_ERROR;
 3569              		.loc 1 1790 0
 3570 00ea 0123     		movs	r3, #1
 3571 00ec 50E0     		b	.L185
 3572              	.L192:
1791:Drivers/STM32F1xx_HAL_Driver/Src/stm32f1xx_hal_i2c.c ****         }
1792:Drivers/STM32F1xx_HAL_Driver/Src/stm32f1xx_hal_i2c.c ****         else
1793:Drivers/STM32F1xx_HAL_Driver/Src/stm32f1xx_hal_i2c.c ****         {
1794:Drivers/STM32F1xx_HAL_Driver/Src/stm32f1xx_hal_i2c.c ****           return HAL_TIMEOUT;
 3573              		.loc 1 1794 0
 3574 00ee 0323     		movs	r3, #3
 3575 00f0 4EE0     		b	.L185
ARM GAS  /var/folders/kh/x4vltyy52lbg7p4pcyglc5080000gp/T//cccbl2Nm.s 			page 96


 3576              	.L191:
1795:Drivers/STM32F1xx_HAL_Driver/Src/stm32f1xx_hal_i2c.c ****         }
1796:Drivers/STM32F1xx_HAL_Driver/Src/stm32f1xx_hal_i2c.c ****       }
1797:Drivers/STM32F1xx_HAL_Driver/Src/stm32f1xx_hal_i2c.c **** 
1798:Drivers/STM32F1xx_HAL_Driver/Src/stm32f1xx_hal_i2c.c ****       /* Write data to DR */
1799:Drivers/STM32F1xx_HAL_Driver/Src/stm32f1xx_hal_i2c.c ****       hi2c->Instance->DR = (*pData++);
 3577              		.loc 1 1799 0
 3578 00f2 FB68     		ldr	r3, [r7, #12]
 3579 00f4 1A68     		ldr	r2, [r3]
 3580 00f6 BB69     		ldr	r3, [r7, #24]
 3581 00f8 591C     		adds	r1, r3, #1
 3582 00fa B961     		str	r1, [r7, #24]
 3583 00fc 1B78     		ldrb	r3, [r3]	@ zero_extendqisi2
 3584 00fe 1361     		str	r3, [r2, #16]
1800:Drivers/STM32F1xx_HAL_Driver/Src/stm32f1xx_hal_i2c.c ****       Size--;
 3585              		.loc 1 1800 0
 3586 0100 BB8B     		ldrh	r3, [r7, #28]
 3587 0102 013B     		subs	r3, r3, #1
 3588 0104 BB83     		strh	r3, [r7, #28]	@ movhi
1801:Drivers/STM32F1xx_HAL_Driver/Src/stm32f1xx_hal_i2c.c **** 
1802:Drivers/STM32F1xx_HAL_Driver/Src/stm32f1xx_hal_i2c.c ****       if((__HAL_I2C_GET_FLAG(hi2c, I2C_FLAG_BTF) == SET) && (Size != 0))
 3589              		.loc 1 1802 0
 3590 0106 FB68     		ldr	r3, [r7, #12]
 3591 0108 1B68     		ldr	r3, [r3]
 3592 010a 5B69     		ldr	r3, [r3, #20]
 3593 010c 03F00403 		and	r3, r3, #4
 3594 0110 002B     		cmp	r3, #0
 3595 0112 0CD0     		beq	.L190
 3596              		.loc 1 1802 0 is_stmt 0 discriminator 1
 3597 0114 BB8B     		ldrh	r3, [r7, #28]
 3598 0116 002B     		cmp	r3, #0
 3599 0118 09D0     		beq	.L190
1803:Drivers/STM32F1xx_HAL_Driver/Src/stm32f1xx_hal_i2c.c ****       {
1804:Drivers/STM32F1xx_HAL_Driver/Src/stm32f1xx_hal_i2c.c ****         /* Write data to DR */
1805:Drivers/STM32F1xx_HAL_Driver/Src/stm32f1xx_hal_i2c.c ****         hi2c->Instance->DR = (*pData++);
 3600              		.loc 1 1805 0 is_stmt 1
 3601 011a FB68     		ldr	r3, [r7, #12]
 3602 011c 1A68     		ldr	r2, [r3]
 3603 011e BB69     		ldr	r3, [r7, #24]
 3604 0120 591C     		adds	r1, r3, #1
 3605 0122 B961     		str	r1, [r7, #24]
 3606 0124 1B78     		ldrb	r3, [r3]	@ zero_extendqisi2
 3607 0126 1361     		str	r3, [r2, #16]
1806:Drivers/STM32F1xx_HAL_Driver/Src/stm32f1xx_hal_i2c.c ****         Size--;
 3608              		.loc 1 1806 0
 3609 0128 BB8B     		ldrh	r3, [r7, #28]
 3610 012a 013B     		subs	r3, r3, #1
 3611 012c BB83     		strh	r3, [r7, #28]	@ movhi
 3612              	.L190:
1781:Drivers/STM32F1xx_HAL_Driver/Src/stm32f1xx_hal_i2c.c ****     {
 3613              		.loc 1 1781 0
 3614 012e BB8B     		ldrh	r3, [r7, #28]
 3615 0130 002B     		cmp	r3, #0
 3616 0132 C7D1     		bne	.L193
1807:Drivers/STM32F1xx_HAL_Driver/Src/stm32f1xx_hal_i2c.c ****       }
1808:Drivers/STM32F1xx_HAL_Driver/Src/stm32f1xx_hal_i2c.c ****     }
1809:Drivers/STM32F1xx_HAL_Driver/Src/stm32f1xx_hal_i2c.c **** 
ARM GAS  /var/folders/kh/x4vltyy52lbg7p4pcyglc5080000gp/T//cccbl2Nm.s 			page 97


1810:Drivers/STM32F1xx_HAL_Driver/Src/stm32f1xx_hal_i2c.c ****     /* Wait until TXE flag is set */
1811:Drivers/STM32F1xx_HAL_Driver/Src/stm32f1xx_hal_i2c.c ****     if(I2C_WaitOnTXEFlagUntilTimeout(hi2c, Timeout) != HAL_OK)
 3617              		.loc 1 1811 0
 3618 0134 396A     		ldr	r1, [r7, #32]
 3619 0136 F868     		ldr	r0, [r7, #12]
 3620 0138 FFF7FEFF 		bl	I2C_WaitOnTXEFlagUntilTimeout
 3621 013c 0346     		mov	r3, r0
 3622 013e 002B     		cmp	r3, #0
 3623 0140 0FD0     		beq	.L194
1812:Drivers/STM32F1xx_HAL_Driver/Src/stm32f1xx_hal_i2c.c ****     {
1813:Drivers/STM32F1xx_HAL_Driver/Src/stm32f1xx_hal_i2c.c ****       if(hi2c->ErrorCode == HAL_I2C_ERROR_AF)
 3624              		.loc 1 1813 0
 3625 0142 FB68     		ldr	r3, [r7, #12]
 3626 0144 9B6B     		ldr	r3, [r3, #56]
 3627 0146 042B     		cmp	r3, #4
 3628 0148 09D1     		bne	.L195
1814:Drivers/STM32F1xx_HAL_Driver/Src/stm32f1xx_hal_i2c.c ****       {
1815:Drivers/STM32F1xx_HAL_Driver/Src/stm32f1xx_hal_i2c.c ****         /* Generate Stop */
1816:Drivers/STM32F1xx_HAL_Driver/Src/stm32f1xx_hal_i2c.c ****         SET_BIT(hi2c->Instance->CR1,I2C_CR1_STOP);
 3629              		.loc 1 1816 0
 3630 014a FB68     		ldr	r3, [r7, #12]
 3631 014c 1B68     		ldr	r3, [r3]
 3632 014e FA68     		ldr	r2, [r7, #12]
 3633 0150 1268     		ldr	r2, [r2]
 3634 0152 1268     		ldr	r2, [r2]
 3635 0154 42F40072 		orr	r2, r2, #512
 3636 0158 1A60     		str	r2, [r3]
1817:Drivers/STM32F1xx_HAL_Driver/Src/stm32f1xx_hal_i2c.c ****         return HAL_ERROR;
 3637              		.loc 1 1817 0
 3638 015a 0123     		movs	r3, #1
 3639 015c 18E0     		b	.L185
 3640              	.L195:
1818:Drivers/STM32F1xx_HAL_Driver/Src/stm32f1xx_hal_i2c.c ****       }
1819:Drivers/STM32F1xx_HAL_Driver/Src/stm32f1xx_hal_i2c.c ****       else
1820:Drivers/STM32F1xx_HAL_Driver/Src/stm32f1xx_hal_i2c.c ****       {
1821:Drivers/STM32F1xx_HAL_Driver/Src/stm32f1xx_hal_i2c.c ****         return HAL_TIMEOUT;
 3641              		.loc 1 1821 0
 3642 015e 0323     		movs	r3, #3
 3643 0160 16E0     		b	.L185
 3644              	.L194:
1822:Drivers/STM32F1xx_HAL_Driver/Src/stm32f1xx_hal_i2c.c ****       }
1823:Drivers/STM32F1xx_HAL_Driver/Src/stm32f1xx_hal_i2c.c ****     }
1824:Drivers/STM32F1xx_HAL_Driver/Src/stm32f1xx_hal_i2c.c **** 
1825:Drivers/STM32F1xx_HAL_Driver/Src/stm32f1xx_hal_i2c.c ****     /* Generate Stop */
1826:Drivers/STM32F1xx_HAL_Driver/Src/stm32f1xx_hal_i2c.c ****     SET_BIT(hi2c->Instance->CR1, I2C_CR1_STOP);
 3645              		.loc 1 1826 0
 3646 0162 FB68     		ldr	r3, [r7, #12]
 3647 0164 1B68     		ldr	r3, [r3]
 3648 0166 FA68     		ldr	r2, [r7, #12]
 3649 0168 1268     		ldr	r2, [r2]
 3650 016a 1268     		ldr	r2, [r2]
 3651 016c 42F40072 		orr	r2, r2, #512
 3652 0170 1A60     		str	r2, [r3]
1827:Drivers/STM32F1xx_HAL_Driver/Src/stm32f1xx_hal_i2c.c **** 
1828:Drivers/STM32F1xx_HAL_Driver/Src/stm32f1xx_hal_i2c.c ****     hi2c->State = HAL_I2C_STATE_READY;
 3653              		.loc 1 1828 0
 3654 0172 FB68     		ldr	r3, [r7, #12]
ARM GAS  /var/folders/kh/x4vltyy52lbg7p4pcyglc5080000gp/T//cccbl2Nm.s 			page 98


 3655 0174 2022     		movs	r2, #32
 3656 0176 83F83520 		strb	r2, [r3, #53]
1829:Drivers/STM32F1xx_HAL_Driver/Src/stm32f1xx_hal_i2c.c ****     hi2c->Mode = HAL_I2C_MODE_NONE;
 3657              		.loc 1 1829 0
 3658 017a FB68     		ldr	r3, [r7, #12]
 3659 017c 0022     		movs	r2, #0
 3660 017e 83F83620 		strb	r2, [r3, #54]
1830:Drivers/STM32F1xx_HAL_Driver/Src/stm32f1xx_hal_i2c.c **** 
1831:Drivers/STM32F1xx_HAL_Driver/Src/stm32f1xx_hal_i2c.c ****     /* Process Unlocked */
1832:Drivers/STM32F1xx_HAL_Driver/Src/stm32f1xx_hal_i2c.c ****     __HAL_UNLOCK(hi2c);
 3661              		.loc 1 1832 0
 3662 0182 FB68     		ldr	r3, [r7, #12]
 3663 0184 0022     		movs	r2, #0
 3664 0186 83F83420 		strb	r2, [r3, #52]
1833:Drivers/STM32F1xx_HAL_Driver/Src/stm32f1xx_hal_i2c.c **** 
1834:Drivers/STM32F1xx_HAL_Driver/Src/stm32f1xx_hal_i2c.c ****     return HAL_OK;
 3665              		.loc 1 1834 0
 3666 018a 0023     		movs	r3, #0
 3667 018c 00E0     		b	.L185
 3668              	.L182:
1835:Drivers/STM32F1xx_HAL_Driver/Src/stm32f1xx_hal_i2c.c ****   }
1836:Drivers/STM32F1xx_HAL_Driver/Src/stm32f1xx_hal_i2c.c ****   else
1837:Drivers/STM32F1xx_HAL_Driver/Src/stm32f1xx_hal_i2c.c ****   {
1838:Drivers/STM32F1xx_HAL_Driver/Src/stm32f1xx_hal_i2c.c ****     return HAL_BUSY;
 3669              		.loc 1 1838 0
 3670 018e 0223     		movs	r3, #2
 3671              	.L185:
1839:Drivers/STM32F1xx_HAL_Driver/Src/stm32f1xx_hal_i2c.c ****   }
1840:Drivers/STM32F1xx_HAL_Driver/Src/stm32f1xx_hal_i2c.c **** }
 3672              		.loc 1 1840 0
 3673 0190 1846     		mov	r0, r3
 3674 0192 1037     		adds	r7, r7, #16
 3675              	.LCFI85:
 3676              		.cfi_def_cfa_offset 8
 3677 0194 BD46     		mov	sp, r7
 3678              	.LCFI86:
 3679              		.cfi_def_cfa_register 13
 3680              		@ sp needed
 3681 0196 80BD     		pop	{r7, pc}
 3682              	.L197:
 3683              		.align	2
 3684              	.L196:
 3685 0198 02001000 		.word	1048578
 3686              		.cfi_endproc
 3687              	.LFE80:
 3689              		.section	.text.HAL_I2C_Mem_Read,"ax",%progbits
 3690              		.align	2
 3691              		.global	HAL_I2C_Mem_Read
 3692              		.thumb
 3693              		.thumb_func
 3695              	HAL_I2C_Mem_Read:
 3696              	.LFB81:
1841:Drivers/STM32F1xx_HAL_Driver/Src/stm32f1xx_hal_i2c.c **** 
1842:Drivers/STM32F1xx_HAL_Driver/Src/stm32f1xx_hal_i2c.c **** /**
1843:Drivers/STM32F1xx_HAL_Driver/Src/stm32f1xx_hal_i2c.c ****   * @brief  Read an amount of data in blocking mode from a specific memory address
1844:Drivers/STM32F1xx_HAL_Driver/Src/stm32f1xx_hal_i2c.c ****   * @param  hi2c Pointer to a I2C_HandleTypeDef structure that contains
1845:Drivers/STM32F1xx_HAL_Driver/Src/stm32f1xx_hal_i2c.c ****   *                the configuration information for the specified I2C.
ARM GAS  /var/folders/kh/x4vltyy52lbg7p4pcyglc5080000gp/T//cccbl2Nm.s 			page 99


1846:Drivers/STM32F1xx_HAL_Driver/Src/stm32f1xx_hal_i2c.c ****   * @param  DevAddress Target device address
1847:Drivers/STM32F1xx_HAL_Driver/Src/stm32f1xx_hal_i2c.c ****   * @param  MemAddress Internal memory address
1848:Drivers/STM32F1xx_HAL_Driver/Src/stm32f1xx_hal_i2c.c ****   * @param  MemAddSize Size of internal memory address
1849:Drivers/STM32F1xx_HAL_Driver/Src/stm32f1xx_hal_i2c.c ****   * @param  pData Pointer to data buffer
1850:Drivers/STM32F1xx_HAL_Driver/Src/stm32f1xx_hal_i2c.c ****   * @param  Size Amount of data to be sent
1851:Drivers/STM32F1xx_HAL_Driver/Src/stm32f1xx_hal_i2c.c ****   * @param  Timeout Timeout duration
1852:Drivers/STM32F1xx_HAL_Driver/Src/stm32f1xx_hal_i2c.c ****   * @retval HAL status
1853:Drivers/STM32F1xx_HAL_Driver/Src/stm32f1xx_hal_i2c.c ****   */
1854:Drivers/STM32F1xx_HAL_Driver/Src/stm32f1xx_hal_i2c.c **** HAL_StatusTypeDef HAL_I2C_Mem_Read(I2C_HandleTypeDef *hi2c, uint16_t DevAddress, uint16_t MemAddres
1855:Drivers/STM32F1xx_HAL_Driver/Src/stm32f1xx_hal_i2c.c **** {
 3697              		.loc 1 1855 0
 3698              		.cfi_startproc
 3699              		@ args = 12, pretend = 0, frame = 32
 3700              		@ frame_needed = 1, uses_anonymous_args = 0
 3701 0000 80B5     		push	{r7, lr}
 3702              	.LCFI87:
 3703              		.cfi_def_cfa_offset 8
 3704              		.cfi_offset 7, -8
 3705              		.cfi_offset 14, -4
 3706 0002 8AB0     		sub	sp, sp, #40
 3707              	.LCFI88:
 3708              		.cfi_def_cfa_offset 48
 3709 0004 02AF     		add	r7, sp, #8
 3710              	.LCFI89:
 3711              		.cfi_def_cfa 7, 40
 3712 0006 F860     		str	r0, [r7, #12]
 3713 0008 0846     		mov	r0, r1
 3714 000a 1146     		mov	r1, r2
 3715 000c 1A46     		mov	r2, r3
 3716 000e 0346     		mov	r3, r0	@ movhi
 3717 0010 7B81     		strh	r3, [r7, #10]	@ movhi
 3718 0012 0B46     		mov	r3, r1	@ movhi
 3719 0014 3B81     		strh	r3, [r7, #8]	@ movhi
 3720 0016 1346     		mov	r3, r2	@ movhi
 3721 0018 FB80     		strh	r3, [r7, #6]	@ movhi
1856:Drivers/STM32F1xx_HAL_Driver/Src/stm32f1xx_hal_i2c.c ****   /* Check the parameters */
1857:Drivers/STM32F1xx_HAL_Driver/Src/stm32f1xx_hal_i2c.c ****   assert_param(IS_I2C_MEMADD_SIZE(MemAddSize));
1858:Drivers/STM32F1xx_HAL_Driver/Src/stm32f1xx_hal_i2c.c **** 
1859:Drivers/STM32F1xx_HAL_Driver/Src/stm32f1xx_hal_i2c.c ****   if(hi2c->State == HAL_I2C_STATE_READY)
 3722              		.loc 1 1859 0
 3723 001a FB68     		ldr	r3, [r7, #12]
 3724 001c 93F83530 		ldrb	r3, [r3, #53]
 3725 0020 DBB2     		uxtb	r3, r3
 3726 0022 202B     		cmp	r3, #32
 3727 0024 40F07C81 		bne	.L199
1860:Drivers/STM32F1xx_HAL_Driver/Src/stm32f1xx_hal_i2c.c ****   {
1861:Drivers/STM32F1xx_HAL_Driver/Src/stm32f1xx_hal_i2c.c ****     if((pData == NULL) || (Size == 0))
 3728              		.loc 1 1861 0
 3729 0028 BB6A     		ldr	r3, [r7, #40]
 3730 002a 002B     		cmp	r3, #0
 3731 002c 02D0     		beq	.L200
 3732              		.loc 1 1861 0 is_stmt 0 discriminator 1
 3733 002e BB8D     		ldrh	r3, [r7, #44]
 3734 0030 002B     		cmp	r3, #0
 3735 0032 01D1     		bne	.L201
 3736              	.L200:
1862:Drivers/STM32F1xx_HAL_Driver/Src/stm32f1xx_hal_i2c.c ****     {
ARM GAS  /var/folders/kh/x4vltyy52lbg7p4pcyglc5080000gp/T//cccbl2Nm.s 			page 100


1863:Drivers/STM32F1xx_HAL_Driver/Src/stm32f1xx_hal_i2c.c ****       return  HAL_ERROR;
 3737              		.loc 1 1863 0 is_stmt 1
 3738 0034 0123     		movs	r3, #1
 3739 0036 74E1     		b	.L202
 3740              	.L201:
1864:Drivers/STM32F1xx_HAL_Driver/Src/stm32f1xx_hal_i2c.c ****     }
1865:Drivers/STM32F1xx_HAL_Driver/Src/stm32f1xx_hal_i2c.c **** 
1866:Drivers/STM32F1xx_HAL_Driver/Src/stm32f1xx_hal_i2c.c ****     /* Wait until BUSY flag is reset */
1867:Drivers/STM32F1xx_HAL_Driver/Src/stm32f1xx_hal_i2c.c ****     if(I2C_WaitOnFlagUntilTimeout(hi2c, I2C_FLAG_BUSY, SET, I2C_TIMEOUT_BUSY_FLAG) != HAL_OK)
 3741              		.loc 1 1867 0
 3742 0038 42F21073 		movw	r3, #10000
 3743 003c 0122     		movs	r2, #1
 3744 003e 9749     		ldr	r1, .L223
 3745 0040 F868     		ldr	r0, [r7, #12]
 3746 0042 FFF7FEFF 		bl	I2C_WaitOnFlagUntilTimeout
 3747 0046 0346     		mov	r3, r0
 3748 0048 002B     		cmp	r3, #0
 3749 004a 01D0     		beq	.L203
1868:Drivers/STM32F1xx_HAL_Driver/Src/stm32f1xx_hal_i2c.c ****     {
1869:Drivers/STM32F1xx_HAL_Driver/Src/stm32f1xx_hal_i2c.c ****       return HAL_BUSY;
 3750              		.loc 1 1869 0
 3751 004c 0223     		movs	r3, #2
 3752 004e 68E1     		b	.L202
 3753              	.L203:
1870:Drivers/STM32F1xx_HAL_Driver/Src/stm32f1xx_hal_i2c.c ****     }
1871:Drivers/STM32F1xx_HAL_Driver/Src/stm32f1xx_hal_i2c.c **** 
1872:Drivers/STM32F1xx_HAL_Driver/Src/stm32f1xx_hal_i2c.c ****     /* Process Locked */
1873:Drivers/STM32F1xx_HAL_Driver/Src/stm32f1xx_hal_i2c.c ****     __HAL_LOCK(hi2c);
 3754              		.loc 1 1873 0
 3755 0050 FB68     		ldr	r3, [r7, #12]
 3756 0052 93F83430 		ldrb	r3, [r3, #52]	@ zero_extendqisi2
 3757 0056 012B     		cmp	r3, #1
 3758 0058 01D1     		bne	.L204
 3759              		.loc 1 1873 0 is_stmt 0 discriminator 1
 3760 005a 0223     		movs	r3, #2
 3761 005c 61E1     		b	.L202
 3762              	.L204:
 3763              		.loc 1 1873 0 discriminator 2
 3764 005e FB68     		ldr	r3, [r7, #12]
 3765 0060 0122     		movs	r2, #1
 3766 0062 83F83420 		strb	r2, [r3, #52]
1874:Drivers/STM32F1xx_HAL_Driver/Src/stm32f1xx_hal_i2c.c **** 
1875:Drivers/STM32F1xx_HAL_Driver/Src/stm32f1xx_hal_i2c.c ****     /* Disable Pos */
1876:Drivers/STM32F1xx_HAL_Driver/Src/stm32f1xx_hal_i2c.c ****     CLEAR_BIT(hi2c->Instance->CR1, I2C_CR1_POS);
 3767              		.loc 1 1876 0 is_stmt 1 discriminator 2
 3768 0066 FB68     		ldr	r3, [r7, #12]
 3769 0068 1B68     		ldr	r3, [r3]
 3770 006a FA68     		ldr	r2, [r7, #12]
 3771 006c 1268     		ldr	r2, [r2]
 3772 006e 1268     		ldr	r2, [r2]
 3773 0070 22F40062 		bic	r2, r2, #2048
 3774 0074 1A60     		str	r2, [r3]
1877:Drivers/STM32F1xx_HAL_Driver/Src/stm32f1xx_hal_i2c.c **** 
1878:Drivers/STM32F1xx_HAL_Driver/Src/stm32f1xx_hal_i2c.c ****     hi2c->State = HAL_I2C_STATE_BUSY_RX;
 3775              		.loc 1 1878 0 discriminator 2
 3776 0076 FB68     		ldr	r3, [r7, #12]
 3777 0078 2222     		movs	r2, #34
ARM GAS  /var/folders/kh/x4vltyy52lbg7p4pcyglc5080000gp/T//cccbl2Nm.s 			page 101


 3778 007a 83F83520 		strb	r2, [r3, #53]
1879:Drivers/STM32F1xx_HAL_Driver/Src/stm32f1xx_hal_i2c.c ****     hi2c->Mode = HAL_I2C_MODE_MEM;
 3779              		.loc 1 1879 0 discriminator 2
 3780 007e FB68     		ldr	r3, [r7, #12]
 3781 0080 4022     		movs	r2, #64
 3782 0082 83F83620 		strb	r2, [r3, #54]
1880:Drivers/STM32F1xx_HAL_Driver/Src/stm32f1xx_hal_i2c.c ****     hi2c->ErrorCode = HAL_I2C_ERROR_NONE;
 3783              		.loc 1 1880 0 discriminator 2
 3784 0086 FB68     		ldr	r3, [r7, #12]
 3785 0088 0022     		movs	r2, #0
 3786 008a 9A63     		str	r2, [r3, #56]
1881:Drivers/STM32F1xx_HAL_Driver/Src/stm32f1xx_hal_i2c.c **** 
1882:Drivers/STM32F1xx_HAL_Driver/Src/stm32f1xx_hal_i2c.c ****     /* Send Slave Address and Memory Address */
1883:Drivers/STM32F1xx_HAL_Driver/Src/stm32f1xx_hal_i2c.c ****     if(I2C_RequestMemoryRead(hi2c, DevAddress, MemAddress, MemAddSize, Timeout) != HAL_OK)
 3787              		.loc 1 1883 0 discriminator 2
 3788 008c F888     		ldrh	r0, [r7, #6]
 3789 008e 3A89     		ldrh	r2, [r7, #8]
 3790 0090 7989     		ldrh	r1, [r7, #10]
 3791 0092 3B6B     		ldr	r3, [r7, #48]
 3792 0094 0093     		str	r3, [sp]
 3793 0096 0346     		mov	r3, r0
 3794 0098 F868     		ldr	r0, [r7, #12]
 3795 009a FFF7FEFF 		bl	I2C_RequestMemoryRead
 3796 009e 0346     		mov	r3, r0
 3797 00a0 002B     		cmp	r3, #0
 3798 00a2 0FD0     		beq	.L205
1884:Drivers/STM32F1xx_HAL_Driver/Src/stm32f1xx_hal_i2c.c ****     {
1885:Drivers/STM32F1xx_HAL_Driver/Src/stm32f1xx_hal_i2c.c ****       if(hi2c->ErrorCode == HAL_I2C_ERROR_AF)
 3799              		.loc 1 1885 0
 3800 00a4 FB68     		ldr	r3, [r7, #12]
 3801 00a6 9B6B     		ldr	r3, [r3, #56]
 3802 00a8 042B     		cmp	r3, #4
 3803 00aa 05D1     		bne	.L206
1886:Drivers/STM32F1xx_HAL_Driver/Src/stm32f1xx_hal_i2c.c ****       {
1887:Drivers/STM32F1xx_HAL_Driver/Src/stm32f1xx_hal_i2c.c ****         /* Process Unlocked */
1888:Drivers/STM32F1xx_HAL_Driver/Src/stm32f1xx_hal_i2c.c ****         __HAL_UNLOCK(hi2c);
 3804              		.loc 1 1888 0
 3805 00ac FB68     		ldr	r3, [r7, #12]
 3806 00ae 0022     		movs	r2, #0
 3807 00b0 83F83420 		strb	r2, [r3, #52]
1889:Drivers/STM32F1xx_HAL_Driver/Src/stm32f1xx_hal_i2c.c ****         return HAL_ERROR;
 3808              		.loc 1 1889 0
 3809 00b4 0123     		movs	r3, #1
 3810 00b6 34E1     		b	.L202
 3811              	.L206:
1890:Drivers/STM32F1xx_HAL_Driver/Src/stm32f1xx_hal_i2c.c ****       }
1891:Drivers/STM32F1xx_HAL_Driver/Src/stm32f1xx_hal_i2c.c ****       else
1892:Drivers/STM32F1xx_HAL_Driver/Src/stm32f1xx_hal_i2c.c ****       {
1893:Drivers/STM32F1xx_HAL_Driver/Src/stm32f1xx_hal_i2c.c ****         /* Process Unlocked */
1894:Drivers/STM32F1xx_HAL_Driver/Src/stm32f1xx_hal_i2c.c ****         __HAL_UNLOCK(hi2c);
 3812              		.loc 1 1894 0
 3813 00b8 FB68     		ldr	r3, [r7, #12]
 3814 00ba 0022     		movs	r2, #0
 3815 00bc 83F83420 		strb	r2, [r3, #52]
1895:Drivers/STM32F1xx_HAL_Driver/Src/stm32f1xx_hal_i2c.c ****         return HAL_TIMEOUT;
 3816              		.loc 1 1895 0
 3817 00c0 0323     		movs	r3, #3
ARM GAS  /var/folders/kh/x4vltyy52lbg7p4pcyglc5080000gp/T//cccbl2Nm.s 			page 102


 3818 00c2 2EE1     		b	.L202
 3819              	.L205:
1896:Drivers/STM32F1xx_HAL_Driver/Src/stm32f1xx_hal_i2c.c ****       }
1897:Drivers/STM32F1xx_HAL_Driver/Src/stm32f1xx_hal_i2c.c ****     }
1898:Drivers/STM32F1xx_HAL_Driver/Src/stm32f1xx_hal_i2c.c **** 
1899:Drivers/STM32F1xx_HAL_Driver/Src/stm32f1xx_hal_i2c.c ****     if(Size == 1)
 3820              		.loc 1 1899 0
 3821 00c4 BB8D     		ldrh	r3, [r7, #44]
 3822 00c6 012B     		cmp	r3, #1
 3823 00c8 1BD1     		bne	.L207
1900:Drivers/STM32F1xx_HAL_Driver/Src/stm32f1xx_hal_i2c.c ****     {
1901:Drivers/STM32F1xx_HAL_Driver/Src/stm32f1xx_hal_i2c.c ****       /* Disable Acknowledge */
1902:Drivers/STM32F1xx_HAL_Driver/Src/stm32f1xx_hal_i2c.c ****       CLEAR_BIT(hi2c->Instance->CR1, I2C_CR1_ACK);
 3824              		.loc 1 1902 0
 3825 00ca FB68     		ldr	r3, [r7, #12]
 3826 00cc 1B68     		ldr	r3, [r3]
 3827 00ce FA68     		ldr	r2, [r7, #12]
 3828 00d0 1268     		ldr	r2, [r2]
 3829 00d2 1268     		ldr	r2, [r2]
 3830 00d4 22F48062 		bic	r2, r2, #1024
 3831 00d8 1A60     		str	r2, [r3]
 3832              	.LBB74:
 3833              	.LBB75:
 3834              		.loc 2 71 0
 3835              		.syntax unified
 3836              	@ 71 "Drivers/CMSIS/Include/cmsis_gcc.h" 1
 3837 00da 72B6     		cpsid i
 3838              	@ 0 "" 2
 3839              		.thumb
 3840              		.syntax unified
 3841              	.LBE75:
 3842              	.LBE74:
 3843              	.LBB76:
1903:Drivers/STM32F1xx_HAL_Driver/Src/stm32f1xx_hal_i2c.c **** 
1904:Drivers/STM32F1xx_HAL_Driver/Src/stm32f1xx_hal_i2c.c ****       /* Disable all active IRQs around ADDR clearing and STOP programming because the EV6_3
1905:Drivers/STM32F1xx_HAL_Driver/Src/stm32f1xx_hal_i2c.c ****          software sequence must complete before the current byte end of transfer */
1906:Drivers/STM32F1xx_HAL_Driver/Src/stm32f1xx_hal_i2c.c ****       __disable_irq();
1907:Drivers/STM32F1xx_HAL_Driver/Src/stm32f1xx_hal_i2c.c **** 
1908:Drivers/STM32F1xx_HAL_Driver/Src/stm32f1xx_hal_i2c.c ****       /* Clear ADDR flag */
1909:Drivers/STM32F1xx_HAL_Driver/Src/stm32f1xx_hal_i2c.c ****       __HAL_I2C_CLEAR_ADDRFLAG(hi2c);
 3844              		.loc 1 1909 0
 3845 00dc FB68     		ldr	r3, [r7, #12]
 3846 00de 1B68     		ldr	r3, [r3]
 3847 00e0 5B69     		ldr	r3, [r3, #20]
 3848 00e2 FB61     		str	r3, [r7, #28]
 3849 00e4 FB68     		ldr	r3, [r7, #12]
 3850 00e6 1B68     		ldr	r3, [r3]
 3851 00e8 9B69     		ldr	r3, [r3, #24]
 3852 00ea FB61     		str	r3, [r7, #28]
 3853 00ec FB69     		ldr	r3, [r7, #28]
 3854              	.LBE76:
1910:Drivers/STM32F1xx_HAL_Driver/Src/stm32f1xx_hal_i2c.c **** 
1911:Drivers/STM32F1xx_HAL_Driver/Src/stm32f1xx_hal_i2c.c ****       /* Generate Stop */
1912:Drivers/STM32F1xx_HAL_Driver/Src/stm32f1xx_hal_i2c.c ****       SET_BIT(hi2c->Instance->CR1, I2C_CR1_STOP);
 3855              		.loc 1 1912 0
 3856 00ee FB68     		ldr	r3, [r7, #12]
 3857 00f0 1B68     		ldr	r3, [r3]
ARM GAS  /var/folders/kh/x4vltyy52lbg7p4pcyglc5080000gp/T//cccbl2Nm.s 			page 103


 3858 00f2 FA68     		ldr	r2, [r7, #12]
 3859 00f4 1268     		ldr	r2, [r2]
 3860 00f6 1268     		ldr	r2, [r2]
 3861 00f8 42F40072 		orr	r2, r2, #512
 3862 00fc 1A60     		str	r2, [r3]
 3863              	.LBB77:
 3864              	.LBB78:
  60:Drivers/CMSIS/Include/cmsis_gcc.h **** }
 3865              		.loc 2 60 0
 3866              		.syntax unified
 3867              	@ 60 "Drivers/CMSIS/Include/cmsis_gcc.h" 1
 3868 00fe 62B6     		cpsie i
 3869              	@ 0 "" 2
 3870              		.thumb
 3871              		.syntax unified
 3872              	.LBE78:
 3873              	.LBE77:
 3874 0100 FCE0     		b	.L210
 3875              	.L207:
1913:Drivers/STM32F1xx_HAL_Driver/Src/stm32f1xx_hal_i2c.c **** 
1914:Drivers/STM32F1xx_HAL_Driver/Src/stm32f1xx_hal_i2c.c ****       /* Re-enable IRQs */
1915:Drivers/STM32F1xx_HAL_Driver/Src/stm32f1xx_hal_i2c.c ****       __enable_irq(); 
1916:Drivers/STM32F1xx_HAL_Driver/Src/stm32f1xx_hal_i2c.c ****     }
1917:Drivers/STM32F1xx_HAL_Driver/Src/stm32f1xx_hal_i2c.c ****     else if(Size == 2)
 3876              		.loc 1 1917 0
 3877 0102 BB8D     		ldrh	r3, [r7, #44]
 3878 0104 022B     		cmp	r3, #2
 3879 0106 1BD1     		bne	.L209
1918:Drivers/STM32F1xx_HAL_Driver/Src/stm32f1xx_hal_i2c.c ****     {
1919:Drivers/STM32F1xx_HAL_Driver/Src/stm32f1xx_hal_i2c.c ****       /* Enable Pos */
1920:Drivers/STM32F1xx_HAL_Driver/Src/stm32f1xx_hal_i2c.c ****       SET_BIT(hi2c->Instance->CR1, I2C_CR1_POS);
 3880              		.loc 1 1920 0
 3881 0108 FB68     		ldr	r3, [r7, #12]
 3882 010a 1B68     		ldr	r3, [r3]
 3883 010c FA68     		ldr	r2, [r7, #12]
 3884 010e 1268     		ldr	r2, [r2]
 3885 0110 1268     		ldr	r2, [r2]
 3886 0112 42F40062 		orr	r2, r2, #2048
 3887 0116 1A60     		str	r2, [r3]
 3888              	.LBB79:
 3889              	.LBB80:
 3890              		.loc 2 71 0
 3891              		.syntax unified
 3892              	@ 71 "Drivers/CMSIS/Include/cmsis_gcc.h" 1
 3893 0118 72B6     		cpsid i
 3894              	@ 0 "" 2
 3895              		.thumb
 3896              		.syntax unified
 3897              	.LBE80:
 3898              	.LBE79:
 3899              	.LBB81:
1921:Drivers/STM32F1xx_HAL_Driver/Src/stm32f1xx_hal_i2c.c **** 
1922:Drivers/STM32F1xx_HAL_Driver/Src/stm32f1xx_hal_i2c.c ****       /* Disable all active IRQs around ADDR clearing and STOP programming because the EV6_3
1923:Drivers/STM32F1xx_HAL_Driver/Src/stm32f1xx_hal_i2c.c ****          software sequence must complete before the current byte end of transfer */
1924:Drivers/STM32F1xx_HAL_Driver/Src/stm32f1xx_hal_i2c.c ****       __disable_irq();
1925:Drivers/STM32F1xx_HAL_Driver/Src/stm32f1xx_hal_i2c.c **** 
1926:Drivers/STM32F1xx_HAL_Driver/Src/stm32f1xx_hal_i2c.c ****       /* Clear ADDR flag */
ARM GAS  /var/folders/kh/x4vltyy52lbg7p4pcyglc5080000gp/T//cccbl2Nm.s 			page 104


1927:Drivers/STM32F1xx_HAL_Driver/Src/stm32f1xx_hal_i2c.c ****       __HAL_I2C_CLEAR_ADDRFLAG(hi2c);
 3900              		.loc 1 1927 0
 3901 011a FB68     		ldr	r3, [r7, #12]
 3902 011c 1B68     		ldr	r3, [r3]
 3903 011e 5B69     		ldr	r3, [r3, #20]
 3904 0120 BB61     		str	r3, [r7, #24]
 3905 0122 FB68     		ldr	r3, [r7, #12]
 3906 0124 1B68     		ldr	r3, [r3]
 3907 0126 9B69     		ldr	r3, [r3, #24]
 3908 0128 BB61     		str	r3, [r7, #24]
 3909 012a BB69     		ldr	r3, [r7, #24]
 3910              	.LBE81:
1928:Drivers/STM32F1xx_HAL_Driver/Src/stm32f1xx_hal_i2c.c **** 
1929:Drivers/STM32F1xx_HAL_Driver/Src/stm32f1xx_hal_i2c.c ****       /* Disable Acknowledge */
1930:Drivers/STM32F1xx_HAL_Driver/Src/stm32f1xx_hal_i2c.c ****       CLEAR_BIT(hi2c->Instance->CR1, I2C_CR1_ACK);
 3911              		.loc 1 1930 0
 3912 012c FB68     		ldr	r3, [r7, #12]
 3913 012e 1B68     		ldr	r3, [r3]
 3914 0130 FA68     		ldr	r2, [r7, #12]
 3915 0132 1268     		ldr	r2, [r2]
 3916 0134 1268     		ldr	r2, [r2]
 3917 0136 22F48062 		bic	r2, r2, #1024
 3918 013a 1A60     		str	r2, [r3]
 3919              	.LBB82:
 3920              	.LBB83:
  60:Drivers/CMSIS/Include/cmsis_gcc.h **** }
 3921              		.loc 2 60 0
 3922              		.syntax unified
 3923              	@ 60 "Drivers/CMSIS/Include/cmsis_gcc.h" 1
 3924 013c 62B6     		cpsie i
 3925              	@ 0 "" 2
 3926              		.thumb
 3927              		.syntax unified
 3928              	.LBE83:
 3929              	.LBE82:
 3930 013e DDE0     		b	.L210
 3931              	.L209:
1931:Drivers/STM32F1xx_HAL_Driver/Src/stm32f1xx_hal_i2c.c **** 
1932:Drivers/STM32F1xx_HAL_Driver/Src/stm32f1xx_hal_i2c.c ****        /* Re-enable IRQs */
1933:Drivers/STM32F1xx_HAL_Driver/Src/stm32f1xx_hal_i2c.c ****        __enable_irq(); 
1934:Drivers/STM32F1xx_HAL_Driver/Src/stm32f1xx_hal_i2c.c ****     }
1935:Drivers/STM32F1xx_HAL_Driver/Src/stm32f1xx_hal_i2c.c ****     else
1936:Drivers/STM32F1xx_HAL_Driver/Src/stm32f1xx_hal_i2c.c ****     {
1937:Drivers/STM32F1xx_HAL_Driver/Src/stm32f1xx_hal_i2c.c ****       /* Enable Acknowledge */
1938:Drivers/STM32F1xx_HAL_Driver/Src/stm32f1xx_hal_i2c.c ****       SET_BIT(hi2c->Instance->CR1, I2C_CR1_ACK);
 3932              		.loc 1 1938 0
 3933 0140 FB68     		ldr	r3, [r7, #12]
 3934 0142 1B68     		ldr	r3, [r3]
 3935 0144 FA68     		ldr	r2, [r7, #12]
 3936 0146 1268     		ldr	r2, [r2]
 3937 0148 1268     		ldr	r2, [r2]
 3938 014a 42F48062 		orr	r2, r2, #1024
 3939 014e 1A60     		str	r2, [r3]
 3940              	.LBB84:
1939:Drivers/STM32F1xx_HAL_Driver/Src/stm32f1xx_hal_i2c.c **** 
1940:Drivers/STM32F1xx_HAL_Driver/Src/stm32f1xx_hal_i2c.c ****       /* Clear ADDR flag */
1941:Drivers/STM32F1xx_HAL_Driver/Src/stm32f1xx_hal_i2c.c ****       __HAL_I2C_CLEAR_ADDRFLAG(hi2c);
ARM GAS  /var/folders/kh/x4vltyy52lbg7p4pcyglc5080000gp/T//cccbl2Nm.s 			page 105


 3941              		.loc 1 1941 0
 3942 0150 FB68     		ldr	r3, [r7, #12]
 3943 0152 1B68     		ldr	r3, [r3]
 3944 0154 5B69     		ldr	r3, [r3, #20]
 3945 0156 7B61     		str	r3, [r7, #20]
 3946 0158 FB68     		ldr	r3, [r7, #12]
 3947 015a 1B68     		ldr	r3, [r3]
 3948 015c 9B69     		ldr	r3, [r3, #24]
 3949 015e 7B61     		str	r3, [r7, #20]
 3950 0160 7B69     		ldr	r3, [r7, #20]
 3951              	.LBE84:
1942:Drivers/STM32F1xx_HAL_Driver/Src/stm32f1xx_hal_i2c.c ****     }
1943:Drivers/STM32F1xx_HAL_Driver/Src/stm32f1xx_hal_i2c.c **** 
1944:Drivers/STM32F1xx_HAL_Driver/Src/stm32f1xx_hal_i2c.c ****     while(Size > 0)
 3952              		.loc 1 1944 0
 3953 0162 CBE0     		b	.L210
 3954              	.L222:
1945:Drivers/STM32F1xx_HAL_Driver/Src/stm32f1xx_hal_i2c.c ****     {
1946:Drivers/STM32F1xx_HAL_Driver/Src/stm32f1xx_hal_i2c.c ****       if(Size <= 3)
 3955              		.loc 1 1946 0
 3956 0164 BB8D     		ldrh	r3, [r7, #44]
 3957 0166 032B     		cmp	r3, #3
 3958 0168 00F29C80 		bhi	.L211
1947:Drivers/STM32F1xx_HAL_Driver/Src/stm32f1xx_hal_i2c.c ****       {
1948:Drivers/STM32F1xx_HAL_Driver/Src/stm32f1xx_hal_i2c.c ****         /* One byte */
1949:Drivers/STM32F1xx_HAL_Driver/Src/stm32f1xx_hal_i2c.c ****         if(Size== 1)
 3959              		.loc 1 1949 0
 3960 016c BB8D     		ldrh	r3, [r7, #44]
 3961 016e 012B     		cmp	r3, #1
 3962 0170 1AD1     		bne	.L212
1950:Drivers/STM32F1xx_HAL_Driver/Src/stm32f1xx_hal_i2c.c ****         {
1951:Drivers/STM32F1xx_HAL_Driver/Src/stm32f1xx_hal_i2c.c ****           /* Wait until RXNE flag is set */
1952:Drivers/STM32F1xx_HAL_Driver/Src/stm32f1xx_hal_i2c.c ****           if(I2C_WaitOnRXNEFlagUntilTimeout(hi2c, Timeout) != HAL_OK)      
 3963              		.loc 1 1952 0
 3964 0172 396B     		ldr	r1, [r7, #48]
 3965 0174 F868     		ldr	r0, [r7, #12]
 3966 0176 FFF7FEFF 		bl	I2C_WaitOnRXNEFlagUntilTimeout
 3967 017a 0346     		mov	r3, r0
 3968 017c 002B     		cmp	r3, #0
 3969 017e 07D0     		beq	.L213
1953:Drivers/STM32F1xx_HAL_Driver/Src/stm32f1xx_hal_i2c.c ****           {
1954:Drivers/STM32F1xx_HAL_Driver/Src/stm32f1xx_hal_i2c.c ****             if(hi2c->ErrorCode == HAL_I2C_ERROR_TIMEOUT)
 3970              		.loc 1 1954 0
 3971 0180 FB68     		ldr	r3, [r7, #12]
 3972 0182 9B6B     		ldr	r3, [r3, #56]
 3973 0184 202B     		cmp	r3, #32
 3974 0186 01D1     		bne	.L214
1955:Drivers/STM32F1xx_HAL_Driver/Src/stm32f1xx_hal_i2c.c ****             {
1956:Drivers/STM32F1xx_HAL_Driver/Src/stm32f1xx_hal_i2c.c ****               return HAL_TIMEOUT;
 3975              		.loc 1 1956 0
 3976 0188 0323     		movs	r3, #3
 3977 018a CAE0     		b	.L202
 3978              	.L214:
1957:Drivers/STM32F1xx_HAL_Driver/Src/stm32f1xx_hal_i2c.c ****             }
1958:Drivers/STM32F1xx_HAL_Driver/Src/stm32f1xx_hal_i2c.c ****             else
1959:Drivers/STM32F1xx_HAL_Driver/Src/stm32f1xx_hal_i2c.c ****             {
1960:Drivers/STM32F1xx_HAL_Driver/Src/stm32f1xx_hal_i2c.c ****               return HAL_ERROR;
ARM GAS  /var/folders/kh/x4vltyy52lbg7p4pcyglc5080000gp/T//cccbl2Nm.s 			page 106


 3979              		.loc 1 1960 0
 3980 018c 0123     		movs	r3, #1
 3981 018e C8E0     		b	.L202
 3982              	.L213:
1961:Drivers/STM32F1xx_HAL_Driver/Src/stm32f1xx_hal_i2c.c ****             }
1962:Drivers/STM32F1xx_HAL_Driver/Src/stm32f1xx_hal_i2c.c ****           }
1963:Drivers/STM32F1xx_HAL_Driver/Src/stm32f1xx_hal_i2c.c **** 
1964:Drivers/STM32F1xx_HAL_Driver/Src/stm32f1xx_hal_i2c.c ****           /* Read data from DR */
1965:Drivers/STM32F1xx_HAL_Driver/Src/stm32f1xx_hal_i2c.c ****           (*pData++) = hi2c->Instance->DR;
 3983              		.loc 1 1965 0
 3984 0190 BB6A     		ldr	r3, [r7, #40]
 3985 0192 5A1C     		adds	r2, r3, #1
 3986 0194 BA62     		str	r2, [r7, #40]
 3987 0196 FA68     		ldr	r2, [r7, #12]
 3988 0198 1268     		ldr	r2, [r2]
 3989 019a 1269     		ldr	r2, [r2, #16]
 3990 019c D2B2     		uxtb	r2, r2
 3991 019e 1A70     		strb	r2, [r3]
1966:Drivers/STM32F1xx_HAL_Driver/Src/stm32f1xx_hal_i2c.c ****           Size--;
 3992              		.loc 1 1966 0
 3993 01a0 BB8D     		ldrh	r3, [r7, #44]
 3994 01a2 013B     		subs	r3, r3, #1
 3995 01a4 BB85     		strh	r3, [r7, #44]	@ movhi
 3996 01a6 A9E0     		b	.L210
 3997              	.L212:
1967:Drivers/STM32F1xx_HAL_Driver/Src/stm32f1xx_hal_i2c.c ****         }
1968:Drivers/STM32F1xx_HAL_Driver/Src/stm32f1xx_hal_i2c.c ****         /* Two bytes */
1969:Drivers/STM32F1xx_HAL_Driver/Src/stm32f1xx_hal_i2c.c ****         else if(Size == 2)
 3998              		.loc 1 1969 0
 3999 01a8 BB8D     		ldrh	r3, [r7, #44]
 4000 01aa 022B     		cmp	r3, #2
 4001 01ac 2BD1     		bne	.L216
1970:Drivers/STM32F1xx_HAL_Driver/Src/stm32f1xx_hal_i2c.c ****         {
1971:Drivers/STM32F1xx_HAL_Driver/Src/stm32f1xx_hal_i2c.c ****           /* Wait until BTF flag is set */
1972:Drivers/STM32F1xx_HAL_Driver/Src/stm32f1xx_hal_i2c.c ****           if(I2C_WaitOnFlagUntilTimeout(hi2c, I2C_FLAG_BTF, RESET, Timeout) != HAL_OK)
 4002              		.loc 1 1972 0
 4003 01ae 3B6B     		ldr	r3, [r7, #48]
 4004 01b0 0022     		movs	r2, #0
 4005 01b2 3B49     		ldr	r1, .L223+4
 4006 01b4 F868     		ldr	r0, [r7, #12]
 4007 01b6 FFF7FEFF 		bl	I2C_WaitOnFlagUntilTimeout
 4008 01ba 0346     		mov	r3, r0
 4009 01bc 002B     		cmp	r3, #0
 4010 01be 01D0     		beq	.L217
1973:Drivers/STM32F1xx_HAL_Driver/Src/stm32f1xx_hal_i2c.c ****           {
1974:Drivers/STM32F1xx_HAL_Driver/Src/stm32f1xx_hal_i2c.c ****             return HAL_TIMEOUT;
 4011              		.loc 1 1974 0
 4012 01c0 0323     		movs	r3, #3
 4013 01c2 AEE0     		b	.L202
 4014              	.L217:
 4015              	.LBB85:
 4016              	.LBB86:
 4017              		.loc 2 71 0
 4018              		.syntax unified
 4019              	@ 71 "Drivers/CMSIS/Include/cmsis_gcc.h" 1
 4020 01c4 72B6     		cpsid i
 4021              	@ 0 "" 2
ARM GAS  /var/folders/kh/x4vltyy52lbg7p4pcyglc5080000gp/T//cccbl2Nm.s 			page 107


 4022              		.thumb
 4023              		.syntax unified
 4024              	.LBE86:
 4025              	.LBE85:
1975:Drivers/STM32F1xx_HAL_Driver/Src/stm32f1xx_hal_i2c.c ****           }
1976:Drivers/STM32F1xx_HAL_Driver/Src/stm32f1xx_hal_i2c.c **** 
1977:Drivers/STM32F1xx_HAL_Driver/Src/stm32f1xx_hal_i2c.c ****           /* Disable all active IRQs around ADDR clearing and STOP programming because the EV6_3
1978:Drivers/STM32F1xx_HAL_Driver/Src/stm32f1xx_hal_i2c.c ****              software sequence must complete before the current byte end of transfer */
1979:Drivers/STM32F1xx_HAL_Driver/Src/stm32f1xx_hal_i2c.c ****            __disable_irq();
1980:Drivers/STM32F1xx_HAL_Driver/Src/stm32f1xx_hal_i2c.c **** 
1981:Drivers/STM32F1xx_HAL_Driver/Src/stm32f1xx_hal_i2c.c ****           /* Generate Stop */
1982:Drivers/STM32F1xx_HAL_Driver/Src/stm32f1xx_hal_i2c.c ****           SET_BIT(hi2c->Instance->CR1, I2C_CR1_STOP);
 4026              		.loc 1 1982 0
 4027 01c6 FB68     		ldr	r3, [r7, #12]
 4028 01c8 1B68     		ldr	r3, [r3]
 4029 01ca FA68     		ldr	r2, [r7, #12]
 4030 01cc 1268     		ldr	r2, [r2]
 4031 01ce 1268     		ldr	r2, [r2]
 4032 01d0 42F40072 		orr	r2, r2, #512
 4033 01d4 1A60     		str	r2, [r3]
1983:Drivers/STM32F1xx_HAL_Driver/Src/stm32f1xx_hal_i2c.c **** 
1984:Drivers/STM32F1xx_HAL_Driver/Src/stm32f1xx_hal_i2c.c ****           /* Read data from DR */
1985:Drivers/STM32F1xx_HAL_Driver/Src/stm32f1xx_hal_i2c.c ****           (*pData++) = hi2c->Instance->DR;
 4034              		.loc 1 1985 0
 4035 01d6 BB6A     		ldr	r3, [r7, #40]
 4036 01d8 5A1C     		adds	r2, r3, #1
 4037 01da BA62     		str	r2, [r7, #40]
 4038 01dc FA68     		ldr	r2, [r7, #12]
 4039 01de 1268     		ldr	r2, [r2]
 4040 01e0 1269     		ldr	r2, [r2, #16]
 4041 01e2 D2B2     		uxtb	r2, r2
 4042 01e4 1A70     		strb	r2, [r3]
1986:Drivers/STM32F1xx_HAL_Driver/Src/stm32f1xx_hal_i2c.c ****           Size--;
 4043              		.loc 1 1986 0
 4044 01e6 BB8D     		ldrh	r3, [r7, #44]
 4045 01e8 013B     		subs	r3, r3, #1
 4046 01ea BB85     		strh	r3, [r7, #44]	@ movhi
 4047              	.LBB87:
 4048              	.LBB88:
  60:Drivers/CMSIS/Include/cmsis_gcc.h **** }
 4049              		.loc 2 60 0
 4050              		.syntax unified
 4051              	@ 60 "Drivers/CMSIS/Include/cmsis_gcc.h" 1
 4052 01ec 62B6     		cpsie i
 4053              	@ 0 "" 2
 4054              		.thumb
 4055              		.syntax unified
 4056              	.LBE88:
 4057              	.LBE87:
1987:Drivers/STM32F1xx_HAL_Driver/Src/stm32f1xx_hal_i2c.c **** 
1988:Drivers/STM32F1xx_HAL_Driver/Src/stm32f1xx_hal_i2c.c ****           /* Re-enable IRQs */
1989:Drivers/STM32F1xx_HAL_Driver/Src/stm32f1xx_hal_i2c.c ****           __enable_irq();
1990:Drivers/STM32F1xx_HAL_Driver/Src/stm32f1xx_hal_i2c.c **** 
1991:Drivers/STM32F1xx_HAL_Driver/Src/stm32f1xx_hal_i2c.c ****           /* Read data from DR */
1992:Drivers/STM32F1xx_HAL_Driver/Src/stm32f1xx_hal_i2c.c ****           (*pData++) = hi2c->Instance->DR;
 4058              		.loc 1 1992 0
 4059 01ee BB6A     		ldr	r3, [r7, #40]
ARM GAS  /var/folders/kh/x4vltyy52lbg7p4pcyglc5080000gp/T//cccbl2Nm.s 			page 108


 4060 01f0 5A1C     		adds	r2, r3, #1
 4061 01f2 BA62     		str	r2, [r7, #40]
 4062 01f4 FA68     		ldr	r2, [r7, #12]
 4063 01f6 1268     		ldr	r2, [r2]
 4064 01f8 1269     		ldr	r2, [r2, #16]
 4065 01fa D2B2     		uxtb	r2, r2
 4066 01fc 1A70     		strb	r2, [r3]
1993:Drivers/STM32F1xx_HAL_Driver/Src/stm32f1xx_hal_i2c.c ****           Size--;
 4067              		.loc 1 1993 0
 4068 01fe BB8D     		ldrh	r3, [r7, #44]
 4069 0200 013B     		subs	r3, r3, #1
 4070 0202 BB85     		strh	r3, [r7, #44]	@ movhi
 4071 0204 7AE0     		b	.L210
 4072              	.L216:
1994:Drivers/STM32F1xx_HAL_Driver/Src/stm32f1xx_hal_i2c.c ****         }
1995:Drivers/STM32F1xx_HAL_Driver/Src/stm32f1xx_hal_i2c.c ****         /* 3 Last bytes */
1996:Drivers/STM32F1xx_HAL_Driver/Src/stm32f1xx_hal_i2c.c ****         else
1997:Drivers/STM32F1xx_HAL_Driver/Src/stm32f1xx_hal_i2c.c ****         {
1998:Drivers/STM32F1xx_HAL_Driver/Src/stm32f1xx_hal_i2c.c ****           /* Wait until BTF flag is set */
1999:Drivers/STM32F1xx_HAL_Driver/Src/stm32f1xx_hal_i2c.c ****           if(I2C_WaitOnFlagUntilTimeout(hi2c, I2C_FLAG_BTF, RESET, Timeout) != HAL_OK)
 4073              		.loc 1 1999 0
 4074 0206 3B6B     		ldr	r3, [r7, #48]
 4075 0208 0022     		movs	r2, #0
 4076 020a 2549     		ldr	r1, .L223+4
 4077 020c F868     		ldr	r0, [r7, #12]
 4078 020e FFF7FEFF 		bl	I2C_WaitOnFlagUntilTimeout
 4079 0212 0346     		mov	r3, r0
 4080 0214 002B     		cmp	r3, #0
 4081 0216 01D0     		beq	.L218
2000:Drivers/STM32F1xx_HAL_Driver/Src/stm32f1xx_hal_i2c.c ****           {
2001:Drivers/STM32F1xx_HAL_Driver/Src/stm32f1xx_hal_i2c.c ****             return HAL_TIMEOUT;
 4082              		.loc 1 2001 0
 4083 0218 0323     		movs	r3, #3
 4084 021a 82E0     		b	.L202
 4085              	.L218:
2002:Drivers/STM32F1xx_HAL_Driver/Src/stm32f1xx_hal_i2c.c ****           }
2003:Drivers/STM32F1xx_HAL_Driver/Src/stm32f1xx_hal_i2c.c **** 
2004:Drivers/STM32F1xx_HAL_Driver/Src/stm32f1xx_hal_i2c.c ****           /* Disable Acknowledge */
2005:Drivers/STM32F1xx_HAL_Driver/Src/stm32f1xx_hal_i2c.c ****           CLEAR_BIT(hi2c->Instance->CR1, I2C_CR1_ACK);
 4086              		.loc 1 2005 0
 4087 021c FB68     		ldr	r3, [r7, #12]
 4088 021e 1B68     		ldr	r3, [r3]
 4089 0220 FA68     		ldr	r2, [r7, #12]
 4090 0222 1268     		ldr	r2, [r2]
 4091 0224 1268     		ldr	r2, [r2]
 4092 0226 22F48062 		bic	r2, r2, #1024
 4093 022a 1A60     		str	r2, [r3]
 4094              	.LBB89:
 4095              	.LBB90:
 4096              		.loc 2 71 0
 4097              		.syntax unified
 4098              	@ 71 "Drivers/CMSIS/Include/cmsis_gcc.h" 1
 4099 022c 72B6     		cpsid i
 4100              	@ 0 "" 2
 4101              		.thumb
 4102              		.syntax unified
 4103              	.LBE90:
ARM GAS  /var/folders/kh/x4vltyy52lbg7p4pcyglc5080000gp/T//cccbl2Nm.s 			page 109


 4104              	.LBE89:
2006:Drivers/STM32F1xx_HAL_Driver/Src/stm32f1xx_hal_i2c.c **** 
2007:Drivers/STM32F1xx_HAL_Driver/Src/stm32f1xx_hal_i2c.c ****           /* Disable all active IRQs around ADDR clearing and STOP programming because the EV6_3
2008:Drivers/STM32F1xx_HAL_Driver/Src/stm32f1xx_hal_i2c.c ****              software sequence must complete before the current byte end of transfer */
2009:Drivers/STM32F1xx_HAL_Driver/Src/stm32f1xx_hal_i2c.c ****           __disable_irq();
2010:Drivers/STM32F1xx_HAL_Driver/Src/stm32f1xx_hal_i2c.c **** 
2011:Drivers/STM32F1xx_HAL_Driver/Src/stm32f1xx_hal_i2c.c ****           /* Read data from DR */
2012:Drivers/STM32F1xx_HAL_Driver/Src/stm32f1xx_hal_i2c.c ****           (*pData++) = hi2c->Instance->DR;
 4105              		.loc 1 2012 0
 4106 022e BB6A     		ldr	r3, [r7, #40]
 4107 0230 5A1C     		adds	r2, r3, #1
 4108 0232 BA62     		str	r2, [r7, #40]
 4109 0234 FA68     		ldr	r2, [r7, #12]
 4110 0236 1268     		ldr	r2, [r2]
 4111 0238 1269     		ldr	r2, [r2, #16]
 4112 023a D2B2     		uxtb	r2, r2
 4113 023c 1A70     		strb	r2, [r3]
2013:Drivers/STM32F1xx_HAL_Driver/Src/stm32f1xx_hal_i2c.c ****           Size--;
 4114              		.loc 1 2013 0
 4115 023e BB8D     		ldrh	r3, [r7, #44]
 4116 0240 013B     		subs	r3, r3, #1
 4117 0242 BB85     		strh	r3, [r7, #44]	@ movhi
2014:Drivers/STM32F1xx_HAL_Driver/Src/stm32f1xx_hal_i2c.c **** 
2015:Drivers/STM32F1xx_HAL_Driver/Src/stm32f1xx_hal_i2c.c ****           /* Wait until BTF flag is set */
2016:Drivers/STM32F1xx_HAL_Driver/Src/stm32f1xx_hal_i2c.c ****           if(I2C_WaitOnFlagUntilTimeout(hi2c, I2C_FLAG_BTF, RESET, Timeout) != HAL_OK)
 4118              		.loc 1 2016 0
 4119 0244 3B6B     		ldr	r3, [r7, #48]
 4120 0246 0022     		movs	r2, #0
 4121 0248 1549     		ldr	r1, .L223+4
 4122 024a F868     		ldr	r0, [r7, #12]
 4123 024c FFF7FEFF 		bl	I2C_WaitOnFlagUntilTimeout
 4124 0250 0346     		mov	r3, r0
 4125 0252 002B     		cmp	r3, #0
 4126 0254 01D0     		beq	.L219
2017:Drivers/STM32F1xx_HAL_Driver/Src/stm32f1xx_hal_i2c.c ****           {
2018:Drivers/STM32F1xx_HAL_Driver/Src/stm32f1xx_hal_i2c.c ****             return HAL_TIMEOUT;
 4127              		.loc 1 2018 0
 4128 0256 0323     		movs	r3, #3
 4129 0258 63E0     		b	.L202
 4130              	.L219:
2019:Drivers/STM32F1xx_HAL_Driver/Src/stm32f1xx_hal_i2c.c ****           }
2020:Drivers/STM32F1xx_HAL_Driver/Src/stm32f1xx_hal_i2c.c **** 
2021:Drivers/STM32F1xx_HAL_Driver/Src/stm32f1xx_hal_i2c.c ****           /* Generate Stop */
2022:Drivers/STM32F1xx_HAL_Driver/Src/stm32f1xx_hal_i2c.c ****           SET_BIT(hi2c->Instance->CR1, I2C_CR1_STOP);
 4131              		.loc 1 2022 0
 4132 025a FB68     		ldr	r3, [r7, #12]
 4133 025c 1B68     		ldr	r3, [r3]
 4134 025e FA68     		ldr	r2, [r7, #12]
 4135 0260 1268     		ldr	r2, [r2]
 4136 0262 1268     		ldr	r2, [r2]
 4137 0264 42F40072 		orr	r2, r2, #512
 4138 0268 1A60     		str	r2, [r3]
2023:Drivers/STM32F1xx_HAL_Driver/Src/stm32f1xx_hal_i2c.c **** 
2024:Drivers/STM32F1xx_HAL_Driver/Src/stm32f1xx_hal_i2c.c ****           /* Read data from DR */
2025:Drivers/STM32F1xx_HAL_Driver/Src/stm32f1xx_hal_i2c.c ****           (*pData++) = hi2c->Instance->DR;
 4139              		.loc 1 2025 0
 4140 026a BB6A     		ldr	r3, [r7, #40]
ARM GAS  /var/folders/kh/x4vltyy52lbg7p4pcyglc5080000gp/T//cccbl2Nm.s 			page 110


 4141 026c 5A1C     		adds	r2, r3, #1
 4142 026e BA62     		str	r2, [r7, #40]
 4143 0270 FA68     		ldr	r2, [r7, #12]
 4144 0272 1268     		ldr	r2, [r2]
 4145 0274 1269     		ldr	r2, [r2, #16]
 4146 0276 D2B2     		uxtb	r2, r2
 4147 0278 1A70     		strb	r2, [r3]
2026:Drivers/STM32F1xx_HAL_Driver/Src/stm32f1xx_hal_i2c.c ****           Size--;
 4148              		.loc 1 2026 0
 4149 027a BB8D     		ldrh	r3, [r7, #44]
 4150 027c 013B     		subs	r3, r3, #1
 4151 027e BB85     		strh	r3, [r7, #44]	@ movhi
 4152              	.LBB91:
 4153              	.LBB92:
  60:Drivers/CMSIS/Include/cmsis_gcc.h **** }
 4154              		.loc 2 60 0
 4155              		.syntax unified
 4156              	@ 60 "Drivers/CMSIS/Include/cmsis_gcc.h" 1
 4157 0280 62B6     		cpsie i
 4158              	@ 0 "" 2
 4159              		.thumb
 4160              		.syntax unified
 4161              	.LBE92:
 4162              	.LBE91:
2027:Drivers/STM32F1xx_HAL_Driver/Src/stm32f1xx_hal_i2c.c **** 
2028:Drivers/STM32F1xx_HAL_Driver/Src/stm32f1xx_hal_i2c.c ****           /* Re-enable IRQs */
2029:Drivers/STM32F1xx_HAL_Driver/Src/stm32f1xx_hal_i2c.c ****           __enable_irq(); 
2030:Drivers/STM32F1xx_HAL_Driver/Src/stm32f1xx_hal_i2c.c **** 
2031:Drivers/STM32F1xx_HAL_Driver/Src/stm32f1xx_hal_i2c.c ****           /* Read data from DR */
2032:Drivers/STM32F1xx_HAL_Driver/Src/stm32f1xx_hal_i2c.c ****           (*pData++) = hi2c->Instance->DR;
 4163              		.loc 1 2032 0
 4164 0282 BB6A     		ldr	r3, [r7, #40]
 4165 0284 5A1C     		adds	r2, r3, #1
 4166 0286 BA62     		str	r2, [r7, #40]
 4167 0288 FA68     		ldr	r2, [r7, #12]
 4168 028a 1268     		ldr	r2, [r2]
 4169 028c 1269     		ldr	r2, [r2, #16]
 4170 028e D2B2     		uxtb	r2, r2
 4171 0290 1A70     		strb	r2, [r3]
2033:Drivers/STM32F1xx_HAL_Driver/Src/stm32f1xx_hal_i2c.c ****           Size--;
 4172              		.loc 1 2033 0
 4173 0292 BB8D     		ldrh	r3, [r7, #44]
 4174 0294 013B     		subs	r3, r3, #1
 4175 0296 BB85     		strh	r3, [r7, #44]	@ movhi
 4176 0298 30E0     		b	.L210
 4177              	.L224:
 4178 029a 00BF     		.align	2
 4179              	.L223:
 4180 029c 02001000 		.word	1048578
 4181 02a0 04000100 		.word	65540
 4182              	.L211:
2034:Drivers/STM32F1xx_HAL_Driver/Src/stm32f1xx_hal_i2c.c ****         }
2035:Drivers/STM32F1xx_HAL_Driver/Src/stm32f1xx_hal_i2c.c ****       }
2036:Drivers/STM32F1xx_HAL_Driver/Src/stm32f1xx_hal_i2c.c ****       else
2037:Drivers/STM32F1xx_HAL_Driver/Src/stm32f1xx_hal_i2c.c ****       {
2038:Drivers/STM32F1xx_HAL_Driver/Src/stm32f1xx_hal_i2c.c ****         /* Wait until RXNE flag is set */
2039:Drivers/STM32F1xx_HAL_Driver/Src/stm32f1xx_hal_i2c.c ****         if(I2C_WaitOnRXNEFlagUntilTimeout(hi2c, Timeout) != HAL_OK)      
ARM GAS  /var/folders/kh/x4vltyy52lbg7p4pcyglc5080000gp/T//cccbl2Nm.s 			page 111


 4183              		.loc 1 2039 0
 4184 02a4 396B     		ldr	r1, [r7, #48]
 4185 02a6 F868     		ldr	r0, [r7, #12]
 4186 02a8 FFF7FEFF 		bl	I2C_WaitOnRXNEFlagUntilTimeout
 4187 02ac 0346     		mov	r3, r0
 4188 02ae 002B     		cmp	r3, #0
 4189 02b0 07D0     		beq	.L220
2040:Drivers/STM32F1xx_HAL_Driver/Src/stm32f1xx_hal_i2c.c ****         {
2041:Drivers/STM32F1xx_HAL_Driver/Src/stm32f1xx_hal_i2c.c ****           if(hi2c->ErrorCode == HAL_I2C_ERROR_TIMEOUT)
 4190              		.loc 1 2041 0
 4191 02b2 FB68     		ldr	r3, [r7, #12]
 4192 02b4 9B6B     		ldr	r3, [r3, #56]
 4193 02b6 202B     		cmp	r3, #32
 4194 02b8 01D1     		bne	.L221
2042:Drivers/STM32F1xx_HAL_Driver/Src/stm32f1xx_hal_i2c.c ****           {
2043:Drivers/STM32F1xx_HAL_Driver/Src/stm32f1xx_hal_i2c.c ****             return HAL_TIMEOUT;
 4195              		.loc 1 2043 0
 4196 02ba 0323     		movs	r3, #3
 4197 02bc 31E0     		b	.L202
 4198              	.L221:
2044:Drivers/STM32F1xx_HAL_Driver/Src/stm32f1xx_hal_i2c.c ****           }
2045:Drivers/STM32F1xx_HAL_Driver/Src/stm32f1xx_hal_i2c.c ****           else
2046:Drivers/STM32F1xx_HAL_Driver/Src/stm32f1xx_hal_i2c.c ****           {
2047:Drivers/STM32F1xx_HAL_Driver/Src/stm32f1xx_hal_i2c.c ****             return HAL_ERROR;
 4199              		.loc 1 2047 0
 4200 02be 0123     		movs	r3, #1
 4201 02c0 2FE0     		b	.L202
 4202              	.L220:
2048:Drivers/STM32F1xx_HAL_Driver/Src/stm32f1xx_hal_i2c.c ****           }
2049:Drivers/STM32F1xx_HAL_Driver/Src/stm32f1xx_hal_i2c.c ****         }
2050:Drivers/STM32F1xx_HAL_Driver/Src/stm32f1xx_hal_i2c.c **** 
2051:Drivers/STM32F1xx_HAL_Driver/Src/stm32f1xx_hal_i2c.c ****         /* Read data from DR */
2052:Drivers/STM32F1xx_HAL_Driver/Src/stm32f1xx_hal_i2c.c ****         (*pData++) = hi2c->Instance->DR;
 4203              		.loc 1 2052 0
 4204 02c2 BB6A     		ldr	r3, [r7, #40]
 4205 02c4 5A1C     		adds	r2, r3, #1
 4206 02c6 BA62     		str	r2, [r7, #40]
 4207 02c8 FA68     		ldr	r2, [r7, #12]
 4208 02ca 1268     		ldr	r2, [r2]
 4209 02cc 1269     		ldr	r2, [r2, #16]
 4210 02ce D2B2     		uxtb	r2, r2
 4211 02d0 1A70     		strb	r2, [r3]
2053:Drivers/STM32F1xx_HAL_Driver/Src/stm32f1xx_hal_i2c.c ****         Size--;
 4212              		.loc 1 2053 0
 4213 02d2 BB8D     		ldrh	r3, [r7, #44]
 4214 02d4 013B     		subs	r3, r3, #1
 4215 02d6 BB85     		strh	r3, [r7, #44]	@ movhi
2054:Drivers/STM32F1xx_HAL_Driver/Src/stm32f1xx_hal_i2c.c **** 
2055:Drivers/STM32F1xx_HAL_Driver/Src/stm32f1xx_hal_i2c.c ****         if(__HAL_I2C_GET_FLAG(hi2c, I2C_FLAG_BTF) == SET)
 4216              		.loc 1 2055 0
 4217 02d8 FB68     		ldr	r3, [r7, #12]
 4218 02da 1B68     		ldr	r3, [r3]
 4219 02dc 5B69     		ldr	r3, [r3, #20]
 4220 02de 03F00403 		and	r3, r3, #4
 4221 02e2 002B     		cmp	r3, #0
 4222 02e4 0AD0     		beq	.L210
2056:Drivers/STM32F1xx_HAL_Driver/Src/stm32f1xx_hal_i2c.c ****         {
ARM GAS  /var/folders/kh/x4vltyy52lbg7p4pcyglc5080000gp/T//cccbl2Nm.s 			page 112


2057:Drivers/STM32F1xx_HAL_Driver/Src/stm32f1xx_hal_i2c.c ****           /* Read data from DR */
2058:Drivers/STM32F1xx_HAL_Driver/Src/stm32f1xx_hal_i2c.c ****           (*pData++) = hi2c->Instance->DR;
 4223              		.loc 1 2058 0
 4224 02e6 BB6A     		ldr	r3, [r7, #40]
 4225 02e8 5A1C     		adds	r2, r3, #1
 4226 02ea BA62     		str	r2, [r7, #40]
 4227 02ec FA68     		ldr	r2, [r7, #12]
 4228 02ee 1268     		ldr	r2, [r2]
 4229 02f0 1269     		ldr	r2, [r2, #16]
 4230 02f2 D2B2     		uxtb	r2, r2
 4231 02f4 1A70     		strb	r2, [r3]
2059:Drivers/STM32F1xx_HAL_Driver/Src/stm32f1xx_hal_i2c.c ****           Size--;
 4232              		.loc 1 2059 0
 4233 02f6 BB8D     		ldrh	r3, [r7, #44]
 4234 02f8 013B     		subs	r3, r3, #1
 4235 02fa BB85     		strh	r3, [r7, #44]	@ movhi
 4236              	.L210:
1944:Drivers/STM32F1xx_HAL_Driver/Src/stm32f1xx_hal_i2c.c ****     {
 4237              		.loc 1 1944 0
 4238 02fc BB8D     		ldrh	r3, [r7, #44]
 4239 02fe 002B     		cmp	r3, #0
 4240 0300 7FF430AF 		bne	.L222
2060:Drivers/STM32F1xx_HAL_Driver/Src/stm32f1xx_hal_i2c.c ****         }
2061:Drivers/STM32F1xx_HAL_Driver/Src/stm32f1xx_hal_i2c.c ****       }
2062:Drivers/STM32F1xx_HAL_Driver/Src/stm32f1xx_hal_i2c.c ****     }
2063:Drivers/STM32F1xx_HAL_Driver/Src/stm32f1xx_hal_i2c.c **** 
2064:Drivers/STM32F1xx_HAL_Driver/Src/stm32f1xx_hal_i2c.c ****     hi2c->State = HAL_I2C_STATE_READY;
 4241              		.loc 1 2064 0
 4242 0304 FB68     		ldr	r3, [r7, #12]
 4243 0306 2022     		movs	r2, #32
 4244 0308 83F83520 		strb	r2, [r3, #53]
2065:Drivers/STM32F1xx_HAL_Driver/Src/stm32f1xx_hal_i2c.c ****     hi2c->Mode = HAL_I2C_MODE_NONE;
 4245              		.loc 1 2065 0
 4246 030c FB68     		ldr	r3, [r7, #12]
 4247 030e 0022     		movs	r2, #0
 4248 0310 83F83620 		strb	r2, [r3, #54]
2066:Drivers/STM32F1xx_HAL_Driver/Src/stm32f1xx_hal_i2c.c **** 
2067:Drivers/STM32F1xx_HAL_Driver/Src/stm32f1xx_hal_i2c.c ****     /* Process Unlocked */
2068:Drivers/STM32F1xx_HAL_Driver/Src/stm32f1xx_hal_i2c.c ****     __HAL_UNLOCK(hi2c);
 4249              		.loc 1 2068 0
 4250 0314 FB68     		ldr	r3, [r7, #12]
 4251 0316 0022     		movs	r2, #0
 4252 0318 83F83420 		strb	r2, [r3, #52]
2069:Drivers/STM32F1xx_HAL_Driver/Src/stm32f1xx_hal_i2c.c **** 
2070:Drivers/STM32F1xx_HAL_Driver/Src/stm32f1xx_hal_i2c.c ****     return HAL_OK;
 4253              		.loc 1 2070 0
 4254 031c 0023     		movs	r3, #0
 4255 031e 00E0     		b	.L202
 4256              	.L199:
2071:Drivers/STM32F1xx_HAL_Driver/Src/stm32f1xx_hal_i2c.c ****   }
2072:Drivers/STM32F1xx_HAL_Driver/Src/stm32f1xx_hal_i2c.c ****   else
2073:Drivers/STM32F1xx_HAL_Driver/Src/stm32f1xx_hal_i2c.c ****   {
2074:Drivers/STM32F1xx_HAL_Driver/Src/stm32f1xx_hal_i2c.c ****     return HAL_BUSY;
 4257              		.loc 1 2074 0
 4258 0320 0223     		movs	r3, #2
 4259              	.L202:
2075:Drivers/STM32F1xx_HAL_Driver/Src/stm32f1xx_hal_i2c.c ****   }
ARM GAS  /var/folders/kh/x4vltyy52lbg7p4pcyglc5080000gp/T//cccbl2Nm.s 			page 113


2076:Drivers/STM32F1xx_HAL_Driver/Src/stm32f1xx_hal_i2c.c **** }
 4260              		.loc 1 2076 0
 4261 0322 1846     		mov	r0, r3
 4262 0324 2037     		adds	r7, r7, #32
 4263              	.LCFI90:
 4264              		.cfi_def_cfa_offset 8
 4265 0326 BD46     		mov	sp, r7
 4266              	.LCFI91:
 4267              		.cfi_def_cfa_register 13
 4268              		@ sp needed
 4269 0328 80BD     		pop	{r7, pc}
 4270              		.cfi_endproc
 4271              	.LFE81:
 4273 032a 00BF     		.section	.text.HAL_I2C_Mem_Write_IT,"ax",%progbits
 4274              		.align	2
 4275              		.global	HAL_I2C_Mem_Write_IT
 4276              		.thumb
 4277              		.thumb_func
 4279              	HAL_I2C_Mem_Write_IT:
 4280              	.LFB82:
2077:Drivers/STM32F1xx_HAL_Driver/Src/stm32f1xx_hal_i2c.c **** 
2078:Drivers/STM32F1xx_HAL_Driver/Src/stm32f1xx_hal_i2c.c **** /**
2079:Drivers/STM32F1xx_HAL_Driver/Src/stm32f1xx_hal_i2c.c ****   * @brief  Write an amount of data in non-blocking mode with Interrupt to a specific memory addres
2080:Drivers/STM32F1xx_HAL_Driver/Src/stm32f1xx_hal_i2c.c ****   * @param  hi2c Pointer to a I2C_HandleTypeDef structure that contains
2081:Drivers/STM32F1xx_HAL_Driver/Src/stm32f1xx_hal_i2c.c ****   *                the configuration information for the specified I2C.
2082:Drivers/STM32F1xx_HAL_Driver/Src/stm32f1xx_hal_i2c.c ****   * @param  DevAddress Target device address
2083:Drivers/STM32F1xx_HAL_Driver/Src/stm32f1xx_hal_i2c.c ****   * @param  MemAddress Internal memory address
2084:Drivers/STM32F1xx_HAL_Driver/Src/stm32f1xx_hal_i2c.c ****   * @param  MemAddSize Size of internal memory address
2085:Drivers/STM32F1xx_HAL_Driver/Src/stm32f1xx_hal_i2c.c ****   * @param  pData Pointer to data buffer
2086:Drivers/STM32F1xx_HAL_Driver/Src/stm32f1xx_hal_i2c.c ****   * @param  Size Amount of data to be sent
2087:Drivers/STM32F1xx_HAL_Driver/Src/stm32f1xx_hal_i2c.c ****   * @retval HAL status
2088:Drivers/STM32F1xx_HAL_Driver/Src/stm32f1xx_hal_i2c.c ****   */
2089:Drivers/STM32F1xx_HAL_Driver/Src/stm32f1xx_hal_i2c.c **** HAL_StatusTypeDef HAL_I2C_Mem_Write_IT(I2C_HandleTypeDef *hi2c, uint16_t DevAddress, uint16_t MemAd
2090:Drivers/STM32F1xx_HAL_Driver/Src/stm32f1xx_hal_i2c.c **** {
 4281              		.loc 1 2090 0
 4282              		.cfi_startproc
 4283              		@ args = 8, pretend = 0, frame = 16
 4284              		@ frame_needed = 1, uses_anonymous_args = 0
 4285 0000 80B5     		push	{r7, lr}
 4286              	.LCFI92:
 4287              		.cfi_def_cfa_offset 8
 4288              		.cfi_offset 7, -8
 4289              		.cfi_offset 14, -4
 4290 0002 86B0     		sub	sp, sp, #24
 4291              	.LCFI93:
 4292              		.cfi_def_cfa_offset 32
 4293 0004 02AF     		add	r7, sp, #8
 4294              	.LCFI94:
 4295              		.cfi_def_cfa 7, 24
 4296 0006 F860     		str	r0, [r7, #12]
 4297 0008 0846     		mov	r0, r1
 4298 000a 1146     		mov	r1, r2
 4299 000c 1A46     		mov	r2, r3
 4300 000e 0346     		mov	r3, r0	@ movhi
 4301 0010 7B81     		strh	r3, [r7, #10]	@ movhi
 4302 0012 0B46     		mov	r3, r1	@ movhi
 4303 0014 3B81     		strh	r3, [r7, #8]	@ movhi
ARM GAS  /var/folders/kh/x4vltyy52lbg7p4pcyglc5080000gp/T//cccbl2Nm.s 			page 114


 4304 0016 1346     		mov	r3, r2	@ movhi
 4305 0018 FB80     		strh	r3, [r7, #6]	@ movhi
2091:Drivers/STM32F1xx_HAL_Driver/Src/stm32f1xx_hal_i2c.c ****   /* Check the parameters */
2092:Drivers/STM32F1xx_HAL_Driver/Src/stm32f1xx_hal_i2c.c ****   assert_param(IS_I2C_MEMADD_SIZE(MemAddSize));
2093:Drivers/STM32F1xx_HAL_Driver/Src/stm32f1xx_hal_i2c.c **** 
2094:Drivers/STM32F1xx_HAL_Driver/Src/stm32f1xx_hal_i2c.c ****   if(hi2c->State == HAL_I2C_STATE_READY)
 4306              		.loc 1 2094 0
 4307 001a FB68     		ldr	r3, [r7, #12]
 4308 001c 93F83530 		ldrb	r3, [r3, #53]
 4309 0020 DBB2     		uxtb	r3, r3
 4310 0022 202B     		cmp	r3, #32
 4311 0024 64D1     		bne	.L226
2095:Drivers/STM32F1xx_HAL_Driver/Src/stm32f1xx_hal_i2c.c ****   {
2096:Drivers/STM32F1xx_HAL_Driver/Src/stm32f1xx_hal_i2c.c ****     if((pData == NULL) || (Size == 0))
 4312              		.loc 1 2096 0
 4313 0026 BB69     		ldr	r3, [r7, #24]
 4314 0028 002B     		cmp	r3, #0
 4315 002a 02D0     		beq	.L227
 4316              		.loc 1 2096 0 is_stmt 0 discriminator 1
 4317 002c BB8B     		ldrh	r3, [r7, #28]
 4318 002e 002B     		cmp	r3, #0
 4319 0030 01D1     		bne	.L228
 4320              	.L227:
2097:Drivers/STM32F1xx_HAL_Driver/Src/stm32f1xx_hal_i2c.c ****     {
2098:Drivers/STM32F1xx_HAL_Driver/Src/stm32f1xx_hal_i2c.c ****       return  HAL_ERROR;
 4321              		.loc 1 2098 0 is_stmt 1
 4322 0032 0123     		movs	r3, #1
 4323 0034 5DE0     		b	.L229
 4324              	.L228:
2099:Drivers/STM32F1xx_HAL_Driver/Src/stm32f1xx_hal_i2c.c ****     }
2100:Drivers/STM32F1xx_HAL_Driver/Src/stm32f1xx_hal_i2c.c **** 
2101:Drivers/STM32F1xx_HAL_Driver/Src/stm32f1xx_hal_i2c.c ****     /* Wait until BUSY flag is reset */
2102:Drivers/STM32F1xx_HAL_Driver/Src/stm32f1xx_hal_i2c.c ****     if(I2C_WaitOnFlagUntilTimeout(hi2c, I2C_FLAG_BUSY, SET, I2C_TIMEOUT_BUSY_FLAG) != HAL_OK)
 4325              		.loc 1 2102 0
 4326 0036 42F21073 		movw	r3, #10000
 4327 003a 0122     		movs	r2, #1
 4328 003c 2F49     		ldr	r1, .L234
 4329 003e F868     		ldr	r0, [r7, #12]
 4330 0040 FFF7FEFF 		bl	I2C_WaitOnFlagUntilTimeout
 4331 0044 0346     		mov	r3, r0
 4332 0046 002B     		cmp	r3, #0
 4333 0048 01D0     		beq	.L230
2103:Drivers/STM32F1xx_HAL_Driver/Src/stm32f1xx_hal_i2c.c ****     {
2104:Drivers/STM32F1xx_HAL_Driver/Src/stm32f1xx_hal_i2c.c ****       return HAL_BUSY;
 4334              		.loc 1 2104 0
 4335 004a 0223     		movs	r3, #2
 4336 004c 51E0     		b	.L229
 4337              	.L230:
2105:Drivers/STM32F1xx_HAL_Driver/Src/stm32f1xx_hal_i2c.c ****     }
2106:Drivers/STM32F1xx_HAL_Driver/Src/stm32f1xx_hal_i2c.c **** 
2107:Drivers/STM32F1xx_HAL_Driver/Src/stm32f1xx_hal_i2c.c ****     /* Process Locked */
2108:Drivers/STM32F1xx_HAL_Driver/Src/stm32f1xx_hal_i2c.c ****     __HAL_LOCK(hi2c);
 4338              		.loc 1 2108 0
 4339 004e FB68     		ldr	r3, [r7, #12]
 4340 0050 93F83430 		ldrb	r3, [r3, #52]	@ zero_extendqisi2
 4341 0054 012B     		cmp	r3, #1
 4342 0056 01D1     		bne	.L231
ARM GAS  /var/folders/kh/x4vltyy52lbg7p4pcyglc5080000gp/T//cccbl2Nm.s 			page 115


 4343              		.loc 1 2108 0 is_stmt 0 discriminator 1
 4344 0058 0223     		movs	r3, #2
 4345 005a 4AE0     		b	.L229
 4346              	.L231:
 4347              		.loc 1 2108 0 discriminator 2
 4348 005c FB68     		ldr	r3, [r7, #12]
 4349 005e 0122     		movs	r2, #1
 4350 0060 83F83420 		strb	r2, [r3, #52]
2109:Drivers/STM32F1xx_HAL_Driver/Src/stm32f1xx_hal_i2c.c **** 
2110:Drivers/STM32F1xx_HAL_Driver/Src/stm32f1xx_hal_i2c.c ****     /* Disable Pos */
2111:Drivers/STM32F1xx_HAL_Driver/Src/stm32f1xx_hal_i2c.c ****     CLEAR_BIT(hi2c->Instance->CR1, I2C_CR1_POS);
 4351              		.loc 1 2111 0 is_stmt 1 discriminator 2
 4352 0064 FB68     		ldr	r3, [r7, #12]
 4353 0066 1B68     		ldr	r3, [r3]
 4354 0068 FA68     		ldr	r2, [r7, #12]
 4355 006a 1268     		ldr	r2, [r2]
 4356 006c 1268     		ldr	r2, [r2]
 4357 006e 22F40062 		bic	r2, r2, #2048
 4358 0072 1A60     		str	r2, [r3]
2112:Drivers/STM32F1xx_HAL_Driver/Src/stm32f1xx_hal_i2c.c **** 
2113:Drivers/STM32F1xx_HAL_Driver/Src/stm32f1xx_hal_i2c.c ****     hi2c->State = HAL_I2C_STATE_BUSY_TX;
 4359              		.loc 1 2113 0 discriminator 2
 4360 0074 FB68     		ldr	r3, [r7, #12]
 4361 0076 2122     		movs	r2, #33
 4362 0078 83F83520 		strb	r2, [r3, #53]
2114:Drivers/STM32F1xx_HAL_Driver/Src/stm32f1xx_hal_i2c.c ****     hi2c->Mode = HAL_I2C_MODE_MEM;
 4363              		.loc 1 2114 0 discriminator 2
 4364 007c FB68     		ldr	r3, [r7, #12]
 4365 007e 4022     		movs	r2, #64
 4366 0080 83F83620 		strb	r2, [r3, #54]
2115:Drivers/STM32F1xx_HAL_Driver/Src/stm32f1xx_hal_i2c.c ****     hi2c->ErrorCode = HAL_I2C_ERROR_NONE;
 4367              		.loc 1 2115 0 discriminator 2
 4368 0084 FB68     		ldr	r3, [r7, #12]
 4369 0086 0022     		movs	r2, #0
 4370 0088 9A63     		str	r2, [r3, #56]
2116:Drivers/STM32F1xx_HAL_Driver/Src/stm32f1xx_hal_i2c.c **** 
2117:Drivers/STM32F1xx_HAL_Driver/Src/stm32f1xx_hal_i2c.c ****     hi2c->pBuffPtr = pData;
 4371              		.loc 1 2117 0 discriminator 2
 4372 008a FB68     		ldr	r3, [r7, #12]
 4373 008c BA69     		ldr	r2, [r7, #24]
 4374 008e 5A62     		str	r2, [r3, #36]
2118:Drivers/STM32F1xx_HAL_Driver/Src/stm32f1xx_hal_i2c.c ****     hi2c->XferSize = Size;
 4375              		.loc 1 2118 0 discriminator 2
 4376 0090 FB68     		ldr	r3, [r7, #12]
 4377 0092 BA8B     		ldrh	r2, [r7, #28]	@ movhi
 4378 0094 1A85     		strh	r2, [r3, #40]	@ movhi
2119:Drivers/STM32F1xx_HAL_Driver/Src/stm32f1xx_hal_i2c.c ****     hi2c->XferCount = Size;
 4379              		.loc 1 2119 0 discriminator 2
 4380 0096 FB68     		ldr	r3, [r7, #12]
 4381 0098 BA8B     		ldrh	r2, [r7, #28]	@ movhi
 4382 009a 5A85     		strh	r2, [r3, #42]	@ movhi
2120:Drivers/STM32F1xx_HAL_Driver/Src/stm32f1xx_hal_i2c.c **** 
2121:Drivers/STM32F1xx_HAL_Driver/Src/stm32f1xx_hal_i2c.c ****     /* Send Slave Address and Memory Address */
2122:Drivers/STM32F1xx_HAL_Driver/Src/stm32f1xx_hal_i2c.c ****     if(I2C_RequestMemoryWrite(hi2c, DevAddress, MemAddress, MemAddSize, I2C_TIMEOUT_FLAG) != HAL_OK
 4383              		.loc 1 2122 0 discriminator 2
 4384 009c F888     		ldrh	r0, [r7, #6]
 4385 009e 3A89     		ldrh	r2, [r7, #8]
ARM GAS  /var/folders/kh/x4vltyy52lbg7p4pcyglc5080000gp/T//cccbl2Nm.s 			page 116


 4386 00a0 7989     		ldrh	r1, [r7, #10]
 4387 00a2 2323     		movs	r3, #35
 4388 00a4 0093     		str	r3, [sp]
 4389 00a6 0346     		mov	r3, r0
 4390 00a8 F868     		ldr	r0, [r7, #12]
 4391 00aa FFF7FEFF 		bl	I2C_RequestMemoryWrite
 4392 00ae 0346     		mov	r3, r0
 4393 00b0 002B     		cmp	r3, #0
 4394 00b2 0FD0     		beq	.L232
2123:Drivers/STM32F1xx_HAL_Driver/Src/stm32f1xx_hal_i2c.c ****     {
2124:Drivers/STM32F1xx_HAL_Driver/Src/stm32f1xx_hal_i2c.c ****       if(hi2c->ErrorCode == HAL_I2C_ERROR_AF)
 4395              		.loc 1 2124 0
 4396 00b4 FB68     		ldr	r3, [r7, #12]
 4397 00b6 9B6B     		ldr	r3, [r3, #56]
 4398 00b8 042B     		cmp	r3, #4
 4399 00ba 05D1     		bne	.L233
2125:Drivers/STM32F1xx_HAL_Driver/Src/stm32f1xx_hal_i2c.c ****       {
2126:Drivers/STM32F1xx_HAL_Driver/Src/stm32f1xx_hal_i2c.c ****         /* Process Unlocked */
2127:Drivers/STM32F1xx_HAL_Driver/Src/stm32f1xx_hal_i2c.c ****         __HAL_UNLOCK(hi2c);
 4400              		.loc 1 2127 0
 4401 00bc FB68     		ldr	r3, [r7, #12]
 4402 00be 0022     		movs	r2, #0
 4403 00c0 83F83420 		strb	r2, [r3, #52]
2128:Drivers/STM32F1xx_HAL_Driver/Src/stm32f1xx_hal_i2c.c ****         return HAL_ERROR;
 4404              		.loc 1 2128 0
 4405 00c4 0123     		movs	r3, #1
 4406 00c6 14E0     		b	.L229
 4407              	.L233:
2129:Drivers/STM32F1xx_HAL_Driver/Src/stm32f1xx_hal_i2c.c ****       }
2130:Drivers/STM32F1xx_HAL_Driver/Src/stm32f1xx_hal_i2c.c ****       else
2131:Drivers/STM32F1xx_HAL_Driver/Src/stm32f1xx_hal_i2c.c ****       {
2132:Drivers/STM32F1xx_HAL_Driver/Src/stm32f1xx_hal_i2c.c ****         /* Process Unlocked */
2133:Drivers/STM32F1xx_HAL_Driver/Src/stm32f1xx_hal_i2c.c ****         __HAL_UNLOCK(hi2c);
 4408              		.loc 1 2133 0
 4409 00c8 FB68     		ldr	r3, [r7, #12]
 4410 00ca 0022     		movs	r2, #0
 4411 00cc 83F83420 		strb	r2, [r3, #52]
2134:Drivers/STM32F1xx_HAL_Driver/Src/stm32f1xx_hal_i2c.c ****         return HAL_TIMEOUT;
 4412              		.loc 1 2134 0
 4413 00d0 0323     		movs	r3, #3
 4414 00d2 0EE0     		b	.L229
 4415              	.L232:
2135:Drivers/STM32F1xx_HAL_Driver/Src/stm32f1xx_hal_i2c.c ****       }
2136:Drivers/STM32F1xx_HAL_Driver/Src/stm32f1xx_hal_i2c.c ****     }
2137:Drivers/STM32F1xx_HAL_Driver/Src/stm32f1xx_hal_i2c.c **** 
2138:Drivers/STM32F1xx_HAL_Driver/Src/stm32f1xx_hal_i2c.c ****     /* Process Unlocked */
2139:Drivers/STM32F1xx_HAL_Driver/Src/stm32f1xx_hal_i2c.c ****     __HAL_UNLOCK(hi2c);
 4416              		.loc 1 2139 0
 4417 00d4 FB68     		ldr	r3, [r7, #12]
 4418 00d6 0022     		movs	r2, #0
 4419 00d8 83F83420 		strb	r2, [r3, #52]
2140:Drivers/STM32F1xx_HAL_Driver/Src/stm32f1xx_hal_i2c.c **** 
2141:Drivers/STM32F1xx_HAL_Driver/Src/stm32f1xx_hal_i2c.c ****     /* Note : The I2C interrupts must be enabled after unlocking current process
2142:Drivers/STM32F1xx_HAL_Driver/Src/stm32f1xx_hal_i2c.c ****               to avoid the risk of I2C interrupt handle execution before current
2143:Drivers/STM32F1xx_HAL_Driver/Src/stm32f1xx_hal_i2c.c ****               process unlock */
2144:Drivers/STM32F1xx_HAL_Driver/Src/stm32f1xx_hal_i2c.c **** 
2145:Drivers/STM32F1xx_HAL_Driver/Src/stm32f1xx_hal_i2c.c ****     /* Enable EVT, BUF and ERR interrupt */
ARM GAS  /var/folders/kh/x4vltyy52lbg7p4pcyglc5080000gp/T//cccbl2Nm.s 			page 117


2146:Drivers/STM32F1xx_HAL_Driver/Src/stm32f1xx_hal_i2c.c ****     __HAL_I2C_ENABLE_IT(hi2c, I2C_IT_EVT | I2C_IT_BUF | I2C_IT_ERR);
 4420              		.loc 1 2146 0
 4421 00dc FB68     		ldr	r3, [r7, #12]
 4422 00de 1B68     		ldr	r3, [r3]
 4423 00e0 FA68     		ldr	r2, [r7, #12]
 4424 00e2 1268     		ldr	r2, [r2]
 4425 00e4 5268     		ldr	r2, [r2, #4]
 4426 00e6 42F4E062 		orr	r2, r2, #1792
 4427 00ea 5A60     		str	r2, [r3, #4]
2147:Drivers/STM32F1xx_HAL_Driver/Src/stm32f1xx_hal_i2c.c **** 
2148:Drivers/STM32F1xx_HAL_Driver/Src/stm32f1xx_hal_i2c.c ****     return HAL_OK;
 4428              		.loc 1 2148 0
 4429 00ec 0023     		movs	r3, #0
 4430 00ee 00E0     		b	.L229
 4431              	.L226:
2149:Drivers/STM32F1xx_HAL_Driver/Src/stm32f1xx_hal_i2c.c ****   }
2150:Drivers/STM32F1xx_HAL_Driver/Src/stm32f1xx_hal_i2c.c ****   else
2151:Drivers/STM32F1xx_HAL_Driver/Src/stm32f1xx_hal_i2c.c ****   {
2152:Drivers/STM32F1xx_HAL_Driver/Src/stm32f1xx_hal_i2c.c ****     return HAL_BUSY;
 4432              		.loc 1 2152 0
 4433 00f0 0223     		movs	r3, #2
 4434              	.L229:
2153:Drivers/STM32F1xx_HAL_Driver/Src/stm32f1xx_hal_i2c.c ****   }
2154:Drivers/STM32F1xx_HAL_Driver/Src/stm32f1xx_hal_i2c.c **** }
 4435              		.loc 1 2154 0
 4436 00f2 1846     		mov	r0, r3
 4437 00f4 1037     		adds	r7, r7, #16
 4438              	.LCFI95:
 4439              		.cfi_def_cfa_offset 8
 4440 00f6 BD46     		mov	sp, r7
 4441              	.LCFI96:
 4442              		.cfi_def_cfa_register 13
 4443              		@ sp needed
 4444 00f8 80BD     		pop	{r7, pc}
 4445              	.L235:
 4446 00fa 00BF     		.align	2
 4447              	.L234:
 4448 00fc 02001000 		.word	1048578
 4449              		.cfi_endproc
 4450              	.LFE82:
 4452              		.section	.text.HAL_I2C_Mem_Read_IT,"ax",%progbits
 4453              		.align	2
 4454              		.global	HAL_I2C_Mem_Read_IT
 4455              		.thumb
 4456              		.thumb_func
 4458              	HAL_I2C_Mem_Read_IT:
 4459              	.LFB83:
2155:Drivers/STM32F1xx_HAL_Driver/Src/stm32f1xx_hal_i2c.c **** 
2156:Drivers/STM32F1xx_HAL_Driver/Src/stm32f1xx_hal_i2c.c **** /**
2157:Drivers/STM32F1xx_HAL_Driver/Src/stm32f1xx_hal_i2c.c ****   * @brief  Read an amount of data in non-blocking mode with Interrupt from a specific memory addre
2158:Drivers/STM32F1xx_HAL_Driver/Src/stm32f1xx_hal_i2c.c ****   * @param  hi2c Pointer to a I2C_HandleTypeDef structure that contains
2159:Drivers/STM32F1xx_HAL_Driver/Src/stm32f1xx_hal_i2c.c ****   *                the configuration information for the specified I2C.
2160:Drivers/STM32F1xx_HAL_Driver/Src/stm32f1xx_hal_i2c.c ****   * @param  DevAddress Target device address
2161:Drivers/STM32F1xx_HAL_Driver/Src/stm32f1xx_hal_i2c.c ****   * @param  MemAddress Internal memory address
2162:Drivers/STM32F1xx_HAL_Driver/Src/stm32f1xx_hal_i2c.c ****   * @param  MemAddSize Size of internal memory address
2163:Drivers/STM32F1xx_HAL_Driver/Src/stm32f1xx_hal_i2c.c ****   * @param  pData Pointer to data buffer
2164:Drivers/STM32F1xx_HAL_Driver/Src/stm32f1xx_hal_i2c.c ****   * @param  Size Amount of data to be sent
ARM GAS  /var/folders/kh/x4vltyy52lbg7p4pcyglc5080000gp/T//cccbl2Nm.s 			page 118


2165:Drivers/STM32F1xx_HAL_Driver/Src/stm32f1xx_hal_i2c.c ****   * @retval HAL status
2166:Drivers/STM32F1xx_HAL_Driver/Src/stm32f1xx_hal_i2c.c ****   */
2167:Drivers/STM32F1xx_HAL_Driver/Src/stm32f1xx_hal_i2c.c **** HAL_StatusTypeDef HAL_I2C_Mem_Read_IT(I2C_HandleTypeDef *hi2c, uint16_t DevAddress, uint16_t MemAdd
2168:Drivers/STM32F1xx_HAL_Driver/Src/stm32f1xx_hal_i2c.c **** {
 4460              		.loc 1 2168 0
 4461              		.cfi_startproc
 4462              		@ args = 8, pretend = 0, frame = 32
 4463              		@ frame_needed = 1, uses_anonymous_args = 0
 4464 0000 80B5     		push	{r7, lr}
 4465              	.LCFI97:
 4466              		.cfi_def_cfa_offset 8
 4467              		.cfi_offset 7, -8
 4468              		.cfi_offset 14, -4
 4469 0002 8AB0     		sub	sp, sp, #40
 4470              	.LCFI98:
 4471              		.cfi_def_cfa_offset 48
 4472 0004 02AF     		add	r7, sp, #8
 4473              	.LCFI99:
 4474              		.cfi_def_cfa 7, 40
 4475 0006 F860     		str	r0, [r7, #12]
 4476 0008 0846     		mov	r0, r1
 4477 000a 1146     		mov	r1, r2
 4478 000c 1A46     		mov	r2, r3
 4479 000e 0346     		mov	r3, r0	@ movhi
 4480 0010 7B81     		strh	r3, [r7, #10]	@ movhi
 4481 0012 0B46     		mov	r3, r1	@ movhi
 4482 0014 3B81     		strh	r3, [r7, #8]	@ movhi
 4483 0016 1346     		mov	r3, r2	@ movhi
 4484 0018 FB80     		strh	r3, [r7, #6]	@ movhi
2169:Drivers/STM32F1xx_HAL_Driver/Src/stm32f1xx_hal_i2c.c ****   /* Check the parameters */
2170:Drivers/STM32F1xx_HAL_Driver/Src/stm32f1xx_hal_i2c.c ****   assert_param(IS_I2C_MEMADD_SIZE(MemAddSize));
2171:Drivers/STM32F1xx_HAL_Driver/Src/stm32f1xx_hal_i2c.c **** 
2172:Drivers/STM32F1xx_HAL_Driver/Src/stm32f1xx_hal_i2c.c ****   if(hi2c->State == HAL_I2C_STATE_READY)
 4485              		.loc 1 2172 0
 4486 001a FB68     		ldr	r3, [r7, #12]
 4487 001c 93F83530 		ldrb	r3, [r3, #53]
 4488 0020 DBB2     		uxtb	r3, r3
 4489 0022 202B     		cmp	r3, #32
 4490 0024 40F0B480 		bne	.L237
2173:Drivers/STM32F1xx_HAL_Driver/Src/stm32f1xx_hal_i2c.c ****   {
2174:Drivers/STM32F1xx_HAL_Driver/Src/stm32f1xx_hal_i2c.c ****     if((pData == NULL) || (Size == 0))
 4491              		.loc 1 2174 0
 4492 0028 BB6A     		ldr	r3, [r7, #40]
 4493 002a 002B     		cmp	r3, #0
 4494 002c 02D0     		beq	.L238
 4495              		.loc 1 2174 0 is_stmt 0 discriminator 1
 4496 002e BB8D     		ldrh	r3, [r7, #44]
 4497 0030 002B     		cmp	r3, #0
 4498 0032 01D1     		bne	.L239
 4499              	.L238:
2175:Drivers/STM32F1xx_HAL_Driver/Src/stm32f1xx_hal_i2c.c ****     {
2176:Drivers/STM32F1xx_HAL_Driver/Src/stm32f1xx_hal_i2c.c ****       return  HAL_ERROR;
 4500              		.loc 1 2176 0 is_stmt 1
 4501 0034 0123     		movs	r3, #1
 4502 0036 ACE0     		b	.L240
 4503              	.L239:
2177:Drivers/STM32F1xx_HAL_Driver/Src/stm32f1xx_hal_i2c.c ****     }
ARM GAS  /var/folders/kh/x4vltyy52lbg7p4pcyglc5080000gp/T//cccbl2Nm.s 			page 119


2178:Drivers/STM32F1xx_HAL_Driver/Src/stm32f1xx_hal_i2c.c **** 
2179:Drivers/STM32F1xx_HAL_Driver/Src/stm32f1xx_hal_i2c.c ****     /* Wait until BUSY flag is reset */
2180:Drivers/STM32F1xx_HAL_Driver/Src/stm32f1xx_hal_i2c.c ****     if(I2C_WaitOnFlagUntilTimeout(hi2c, I2C_FLAG_BUSY, SET, I2C_TIMEOUT_BUSY_FLAG) != HAL_OK)
 4504              		.loc 1 2180 0
 4505 0038 42F21073 		movw	r3, #10000
 4506 003c 0122     		movs	r2, #1
 4507 003e 5749     		ldr	r1, .L248
 4508 0040 F868     		ldr	r0, [r7, #12]
 4509 0042 FFF7FEFF 		bl	I2C_WaitOnFlagUntilTimeout
 4510 0046 0346     		mov	r3, r0
 4511 0048 002B     		cmp	r3, #0
 4512 004a 01D0     		beq	.L241
2181:Drivers/STM32F1xx_HAL_Driver/Src/stm32f1xx_hal_i2c.c ****     {
2182:Drivers/STM32F1xx_HAL_Driver/Src/stm32f1xx_hal_i2c.c ****       return HAL_BUSY;
 4513              		.loc 1 2182 0
 4514 004c 0223     		movs	r3, #2
 4515 004e A0E0     		b	.L240
 4516              	.L241:
2183:Drivers/STM32F1xx_HAL_Driver/Src/stm32f1xx_hal_i2c.c ****     }
2184:Drivers/STM32F1xx_HAL_Driver/Src/stm32f1xx_hal_i2c.c **** 
2185:Drivers/STM32F1xx_HAL_Driver/Src/stm32f1xx_hal_i2c.c ****     /* Process Locked */
2186:Drivers/STM32F1xx_HAL_Driver/Src/stm32f1xx_hal_i2c.c ****     __HAL_LOCK(hi2c);
 4517              		.loc 1 2186 0
 4518 0050 FB68     		ldr	r3, [r7, #12]
 4519 0052 93F83430 		ldrb	r3, [r3, #52]	@ zero_extendqisi2
 4520 0056 012B     		cmp	r3, #1
 4521 0058 01D1     		bne	.L242
 4522              		.loc 1 2186 0 is_stmt 0 discriminator 1
 4523 005a 0223     		movs	r3, #2
 4524 005c 99E0     		b	.L240
 4525              	.L242:
 4526              		.loc 1 2186 0 discriminator 2
 4527 005e FB68     		ldr	r3, [r7, #12]
 4528 0060 0122     		movs	r2, #1
 4529 0062 83F83420 		strb	r2, [r3, #52]
2187:Drivers/STM32F1xx_HAL_Driver/Src/stm32f1xx_hal_i2c.c **** 
2188:Drivers/STM32F1xx_HAL_Driver/Src/stm32f1xx_hal_i2c.c ****     /* Disable Pos */
2189:Drivers/STM32F1xx_HAL_Driver/Src/stm32f1xx_hal_i2c.c ****     CLEAR_BIT(hi2c->Instance->CR1, I2C_CR1_POS);
 4530              		.loc 1 2189 0 is_stmt 1 discriminator 2
 4531 0066 FB68     		ldr	r3, [r7, #12]
 4532 0068 1B68     		ldr	r3, [r3]
 4533 006a FA68     		ldr	r2, [r7, #12]
 4534 006c 1268     		ldr	r2, [r2]
 4535 006e 1268     		ldr	r2, [r2]
 4536 0070 22F40062 		bic	r2, r2, #2048
 4537 0074 1A60     		str	r2, [r3]
2190:Drivers/STM32F1xx_HAL_Driver/Src/stm32f1xx_hal_i2c.c **** 
2191:Drivers/STM32F1xx_HAL_Driver/Src/stm32f1xx_hal_i2c.c ****     hi2c->State = HAL_I2C_STATE_BUSY_RX;
 4538              		.loc 1 2191 0 discriminator 2
 4539 0076 FB68     		ldr	r3, [r7, #12]
 4540 0078 2222     		movs	r2, #34
 4541 007a 83F83520 		strb	r2, [r3, #53]
2192:Drivers/STM32F1xx_HAL_Driver/Src/stm32f1xx_hal_i2c.c ****     hi2c->Mode = HAL_I2C_MODE_MEM;
 4542              		.loc 1 2192 0 discriminator 2
 4543 007e FB68     		ldr	r3, [r7, #12]
 4544 0080 4022     		movs	r2, #64
 4545 0082 83F83620 		strb	r2, [r3, #54]
ARM GAS  /var/folders/kh/x4vltyy52lbg7p4pcyglc5080000gp/T//cccbl2Nm.s 			page 120


2193:Drivers/STM32F1xx_HAL_Driver/Src/stm32f1xx_hal_i2c.c ****     hi2c->ErrorCode = HAL_I2C_ERROR_NONE;
 4546              		.loc 1 2193 0 discriminator 2
 4547 0086 FB68     		ldr	r3, [r7, #12]
 4548 0088 0022     		movs	r2, #0
 4549 008a 9A63     		str	r2, [r3, #56]
2194:Drivers/STM32F1xx_HAL_Driver/Src/stm32f1xx_hal_i2c.c **** 
2195:Drivers/STM32F1xx_HAL_Driver/Src/stm32f1xx_hal_i2c.c ****     hi2c->pBuffPtr = pData;
 4550              		.loc 1 2195 0 discriminator 2
 4551 008c FB68     		ldr	r3, [r7, #12]
 4552 008e BA6A     		ldr	r2, [r7, #40]
 4553 0090 5A62     		str	r2, [r3, #36]
2196:Drivers/STM32F1xx_HAL_Driver/Src/stm32f1xx_hal_i2c.c ****     hi2c->XferSize = Size;
 4554              		.loc 1 2196 0 discriminator 2
 4555 0092 FB68     		ldr	r3, [r7, #12]
 4556 0094 BA8D     		ldrh	r2, [r7, #44]	@ movhi
 4557 0096 1A85     		strh	r2, [r3, #40]	@ movhi
2197:Drivers/STM32F1xx_HAL_Driver/Src/stm32f1xx_hal_i2c.c ****     hi2c->XferCount = Size;
 4558              		.loc 1 2197 0 discriminator 2
 4559 0098 FB68     		ldr	r3, [r7, #12]
 4560 009a BA8D     		ldrh	r2, [r7, #44]	@ movhi
 4561 009c 5A85     		strh	r2, [r3, #42]	@ movhi
2198:Drivers/STM32F1xx_HAL_Driver/Src/stm32f1xx_hal_i2c.c **** 
2199:Drivers/STM32F1xx_HAL_Driver/Src/stm32f1xx_hal_i2c.c ****     /* Send Slave Address and Memory Address */
2200:Drivers/STM32F1xx_HAL_Driver/Src/stm32f1xx_hal_i2c.c ****     if(I2C_RequestMemoryRead(hi2c, DevAddress, MemAddress, MemAddSize, I2C_TIMEOUT_FLAG) != HAL_OK)
 4562              		.loc 1 2200 0 discriminator 2
 4563 009e F888     		ldrh	r0, [r7, #6]
 4564 00a0 3A89     		ldrh	r2, [r7, #8]
 4565 00a2 7989     		ldrh	r1, [r7, #10]
 4566 00a4 2323     		movs	r3, #35
 4567 00a6 0093     		str	r3, [sp]
 4568 00a8 0346     		mov	r3, r0
 4569 00aa F868     		ldr	r0, [r7, #12]
 4570 00ac FFF7FEFF 		bl	I2C_RequestMemoryRead
 4571 00b0 0346     		mov	r3, r0
 4572 00b2 002B     		cmp	r3, #0
 4573 00b4 0FD0     		beq	.L243
2201:Drivers/STM32F1xx_HAL_Driver/Src/stm32f1xx_hal_i2c.c ****     {
2202:Drivers/STM32F1xx_HAL_Driver/Src/stm32f1xx_hal_i2c.c ****       if(hi2c->ErrorCode == HAL_I2C_ERROR_AF)
 4574              		.loc 1 2202 0
 4575 00b6 FB68     		ldr	r3, [r7, #12]
 4576 00b8 9B6B     		ldr	r3, [r3, #56]
 4577 00ba 042B     		cmp	r3, #4
 4578 00bc 05D1     		bne	.L244
2203:Drivers/STM32F1xx_HAL_Driver/Src/stm32f1xx_hal_i2c.c ****       {
2204:Drivers/STM32F1xx_HAL_Driver/Src/stm32f1xx_hal_i2c.c ****         /* Process Unlocked */
2205:Drivers/STM32F1xx_HAL_Driver/Src/stm32f1xx_hal_i2c.c ****         __HAL_UNLOCK(hi2c);
 4579              		.loc 1 2205 0
 4580 00be FB68     		ldr	r3, [r7, #12]
 4581 00c0 0022     		movs	r2, #0
 4582 00c2 83F83420 		strb	r2, [r3, #52]
2206:Drivers/STM32F1xx_HAL_Driver/Src/stm32f1xx_hal_i2c.c ****         return HAL_ERROR;
 4583              		.loc 1 2206 0
 4584 00c6 0123     		movs	r3, #1
 4585 00c8 63E0     		b	.L240
 4586              	.L244:
2207:Drivers/STM32F1xx_HAL_Driver/Src/stm32f1xx_hal_i2c.c ****       }
2208:Drivers/STM32F1xx_HAL_Driver/Src/stm32f1xx_hal_i2c.c ****       else
ARM GAS  /var/folders/kh/x4vltyy52lbg7p4pcyglc5080000gp/T//cccbl2Nm.s 			page 121


2209:Drivers/STM32F1xx_HAL_Driver/Src/stm32f1xx_hal_i2c.c ****       {
2210:Drivers/STM32F1xx_HAL_Driver/Src/stm32f1xx_hal_i2c.c ****         /* Process Unlocked */
2211:Drivers/STM32F1xx_HAL_Driver/Src/stm32f1xx_hal_i2c.c ****         __HAL_UNLOCK(hi2c);
 4587              		.loc 1 2211 0
 4588 00ca FB68     		ldr	r3, [r7, #12]
 4589 00cc 0022     		movs	r2, #0
 4590 00ce 83F83420 		strb	r2, [r3, #52]
2212:Drivers/STM32F1xx_HAL_Driver/Src/stm32f1xx_hal_i2c.c ****         return HAL_TIMEOUT;
 4591              		.loc 1 2212 0
 4592 00d2 0323     		movs	r3, #3
 4593 00d4 5DE0     		b	.L240
 4594              	.L243:
2213:Drivers/STM32F1xx_HAL_Driver/Src/stm32f1xx_hal_i2c.c ****       }
2214:Drivers/STM32F1xx_HAL_Driver/Src/stm32f1xx_hal_i2c.c ****     }
2215:Drivers/STM32F1xx_HAL_Driver/Src/stm32f1xx_hal_i2c.c **** 
2216:Drivers/STM32F1xx_HAL_Driver/Src/stm32f1xx_hal_i2c.c ****     if(hi2c->XferCount == 1)
 4595              		.loc 1 2216 0
 4596 00d6 FB68     		ldr	r3, [r7, #12]
 4597 00d8 5B8D     		ldrh	r3, [r3, #42]	@ movhi
 4598 00da 9BB2     		uxth	r3, r3
 4599 00dc 012B     		cmp	r3, #1
 4600 00de 19D1     		bne	.L245
2217:Drivers/STM32F1xx_HAL_Driver/Src/stm32f1xx_hal_i2c.c ****     {
2218:Drivers/STM32F1xx_HAL_Driver/Src/stm32f1xx_hal_i2c.c ****       /* Disable Acknowledge */
2219:Drivers/STM32F1xx_HAL_Driver/Src/stm32f1xx_hal_i2c.c ****       CLEAR_BIT(hi2c->Instance->CR1, I2C_CR1_ACK);
 4601              		.loc 1 2219 0
 4602 00e0 FB68     		ldr	r3, [r7, #12]
 4603 00e2 1B68     		ldr	r3, [r3]
 4604 00e4 FA68     		ldr	r2, [r7, #12]
 4605 00e6 1268     		ldr	r2, [r2]
 4606 00e8 1268     		ldr	r2, [r2]
 4607 00ea 22F48062 		bic	r2, r2, #1024
 4608 00ee 1A60     		str	r2, [r3]
 4609              	.LBB93:
2220:Drivers/STM32F1xx_HAL_Driver/Src/stm32f1xx_hal_i2c.c **** 
2221:Drivers/STM32F1xx_HAL_Driver/Src/stm32f1xx_hal_i2c.c ****       /* Clear ADDR flag */
2222:Drivers/STM32F1xx_HAL_Driver/Src/stm32f1xx_hal_i2c.c ****       __HAL_I2C_CLEAR_ADDRFLAG(hi2c);
 4610              		.loc 1 2222 0
 4611 00f0 FB68     		ldr	r3, [r7, #12]
 4612 00f2 1B68     		ldr	r3, [r3]
 4613 00f4 5B69     		ldr	r3, [r3, #20]
 4614 00f6 FB61     		str	r3, [r7, #28]
 4615 00f8 FB68     		ldr	r3, [r7, #12]
 4616 00fa 1B68     		ldr	r3, [r3]
 4617 00fc 9B69     		ldr	r3, [r3, #24]
 4618 00fe FB61     		str	r3, [r7, #28]
 4619 0100 FB69     		ldr	r3, [r7, #28]
 4620              	.LBE93:
2223:Drivers/STM32F1xx_HAL_Driver/Src/stm32f1xx_hal_i2c.c **** 
2224:Drivers/STM32F1xx_HAL_Driver/Src/stm32f1xx_hal_i2c.c ****       /* Generate Stop */
2225:Drivers/STM32F1xx_HAL_Driver/Src/stm32f1xx_hal_i2c.c ****       SET_BIT(hi2c->Instance->CR1, I2C_CR1_STOP);
 4621              		.loc 1 2225 0
 4622 0102 FB68     		ldr	r3, [r7, #12]
 4623 0104 1B68     		ldr	r3, [r3]
 4624 0106 FA68     		ldr	r2, [r7, #12]
 4625 0108 1268     		ldr	r2, [r2]
 4626 010a 1268     		ldr	r2, [r2]
ARM GAS  /var/folders/kh/x4vltyy52lbg7p4pcyglc5080000gp/T//cccbl2Nm.s 			page 122


 4627 010c 42F40072 		orr	r2, r2, #512
 4628 0110 1A60     		str	r2, [r3]
 4629 0112 2FE0     		b	.L246
 4630              	.L245:
2226:Drivers/STM32F1xx_HAL_Driver/Src/stm32f1xx_hal_i2c.c ****     }
2227:Drivers/STM32F1xx_HAL_Driver/Src/stm32f1xx_hal_i2c.c ****     else if(hi2c->XferCount == 2)
 4631              		.loc 1 2227 0
 4632 0114 FB68     		ldr	r3, [r7, #12]
 4633 0116 5B8D     		ldrh	r3, [r3, #42]	@ movhi
 4634 0118 9BB2     		uxth	r3, r3
 4635 011a 022B     		cmp	r3, #2
 4636 011c 19D1     		bne	.L247
2228:Drivers/STM32F1xx_HAL_Driver/Src/stm32f1xx_hal_i2c.c ****     {
2229:Drivers/STM32F1xx_HAL_Driver/Src/stm32f1xx_hal_i2c.c ****       /* Enable Pos */
2230:Drivers/STM32F1xx_HAL_Driver/Src/stm32f1xx_hal_i2c.c ****       SET_BIT(hi2c->Instance->CR1, I2C_CR1_POS);
 4637              		.loc 1 2230 0
 4638 011e FB68     		ldr	r3, [r7, #12]
 4639 0120 1B68     		ldr	r3, [r3]
 4640 0122 FA68     		ldr	r2, [r7, #12]
 4641 0124 1268     		ldr	r2, [r2]
 4642 0126 1268     		ldr	r2, [r2]
 4643 0128 42F40062 		orr	r2, r2, #2048
 4644 012c 1A60     		str	r2, [r3]
 4645              	.LBB94:
2231:Drivers/STM32F1xx_HAL_Driver/Src/stm32f1xx_hal_i2c.c **** 
2232:Drivers/STM32F1xx_HAL_Driver/Src/stm32f1xx_hal_i2c.c ****       /* Clear ADDR flag */
2233:Drivers/STM32F1xx_HAL_Driver/Src/stm32f1xx_hal_i2c.c ****       __HAL_I2C_CLEAR_ADDRFLAG(hi2c);
 4646              		.loc 1 2233 0
 4647 012e FB68     		ldr	r3, [r7, #12]
 4648 0130 1B68     		ldr	r3, [r3]
 4649 0132 5B69     		ldr	r3, [r3, #20]
 4650 0134 BB61     		str	r3, [r7, #24]
 4651 0136 FB68     		ldr	r3, [r7, #12]
 4652 0138 1B68     		ldr	r3, [r3]
 4653 013a 9B69     		ldr	r3, [r3, #24]
 4654 013c BB61     		str	r3, [r7, #24]
 4655 013e BB69     		ldr	r3, [r7, #24]
 4656              	.LBE94:
2234:Drivers/STM32F1xx_HAL_Driver/Src/stm32f1xx_hal_i2c.c **** 
2235:Drivers/STM32F1xx_HAL_Driver/Src/stm32f1xx_hal_i2c.c ****       /* Disable Acknowledge */
2236:Drivers/STM32F1xx_HAL_Driver/Src/stm32f1xx_hal_i2c.c ****       CLEAR_BIT(hi2c->Instance->CR1, I2C_CR1_ACK);
 4657              		.loc 1 2236 0
 4658 0140 FB68     		ldr	r3, [r7, #12]
 4659 0142 1B68     		ldr	r3, [r3]
 4660 0144 FA68     		ldr	r2, [r7, #12]
 4661 0146 1268     		ldr	r2, [r2]
 4662 0148 1268     		ldr	r2, [r2]
 4663 014a 22F48062 		bic	r2, r2, #1024
 4664 014e 1A60     		str	r2, [r3]
 4665 0150 10E0     		b	.L246
 4666              	.L247:
2237:Drivers/STM32F1xx_HAL_Driver/Src/stm32f1xx_hal_i2c.c ****     }
2238:Drivers/STM32F1xx_HAL_Driver/Src/stm32f1xx_hal_i2c.c ****     else
2239:Drivers/STM32F1xx_HAL_Driver/Src/stm32f1xx_hal_i2c.c ****     {
2240:Drivers/STM32F1xx_HAL_Driver/Src/stm32f1xx_hal_i2c.c ****       /* Enable Acknowledge */
2241:Drivers/STM32F1xx_HAL_Driver/Src/stm32f1xx_hal_i2c.c ****       SET_BIT(hi2c->Instance->CR1, I2C_CR1_ACK);
 4667              		.loc 1 2241 0
ARM GAS  /var/folders/kh/x4vltyy52lbg7p4pcyglc5080000gp/T//cccbl2Nm.s 			page 123


 4668 0152 FB68     		ldr	r3, [r7, #12]
 4669 0154 1B68     		ldr	r3, [r3]
 4670 0156 FA68     		ldr	r2, [r7, #12]
 4671 0158 1268     		ldr	r2, [r2]
 4672 015a 1268     		ldr	r2, [r2]
 4673 015c 42F48062 		orr	r2, r2, #1024
 4674 0160 1A60     		str	r2, [r3]
 4675              	.LBB95:
2242:Drivers/STM32F1xx_HAL_Driver/Src/stm32f1xx_hal_i2c.c **** 
2243:Drivers/STM32F1xx_HAL_Driver/Src/stm32f1xx_hal_i2c.c ****       /* Clear ADDR flag */
2244:Drivers/STM32F1xx_HAL_Driver/Src/stm32f1xx_hal_i2c.c ****       __HAL_I2C_CLEAR_ADDRFLAG(hi2c);
 4676              		.loc 1 2244 0
 4677 0162 FB68     		ldr	r3, [r7, #12]
 4678 0164 1B68     		ldr	r3, [r3]
 4679 0166 5B69     		ldr	r3, [r3, #20]
 4680 0168 7B61     		str	r3, [r7, #20]
 4681 016a FB68     		ldr	r3, [r7, #12]
 4682 016c 1B68     		ldr	r3, [r3]
 4683 016e 9B69     		ldr	r3, [r3, #24]
 4684 0170 7B61     		str	r3, [r7, #20]
 4685 0172 7B69     		ldr	r3, [r7, #20]
 4686              	.L246:
 4687              	.LBE95:
2245:Drivers/STM32F1xx_HAL_Driver/Src/stm32f1xx_hal_i2c.c ****     }
2246:Drivers/STM32F1xx_HAL_Driver/Src/stm32f1xx_hal_i2c.c **** 
2247:Drivers/STM32F1xx_HAL_Driver/Src/stm32f1xx_hal_i2c.c ****     /* Process Unlocked */
2248:Drivers/STM32F1xx_HAL_Driver/Src/stm32f1xx_hal_i2c.c ****     __HAL_UNLOCK(hi2c);
 4688              		.loc 1 2248 0
 4689 0174 FB68     		ldr	r3, [r7, #12]
 4690 0176 0022     		movs	r2, #0
 4691 0178 83F83420 		strb	r2, [r3, #52]
2249:Drivers/STM32F1xx_HAL_Driver/Src/stm32f1xx_hal_i2c.c **** 
2250:Drivers/STM32F1xx_HAL_Driver/Src/stm32f1xx_hal_i2c.c ****     /* Note : The I2C interrupts must be enabled after unlocking current process
2251:Drivers/STM32F1xx_HAL_Driver/Src/stm32f1xx_hal_i2c.c ****               to avoid the risk of I2C interrupt handle execution before current
2252:Drivers/STM32F1xx_HAL_Driver/Src/stm32f1xx_hal_i2c.c ****               process unlock */
2253:Drivers/STM32F1xx_HAL_Driver/Src/stm32f1xx_hal_i2c.c **** 
2254:Drivers/STM32F1xx_HAL_Driver/Src/stm32f1xx_hal_i2c.c ****     /* Enable EVT, BUF and ERR interrupt */
2255:Drivers/STM32F1xx_HAL_Driver/Src/stm32f1xx_hal_i2c.c ****     __HAL_I2C_ENABLE_IT(hi2c, I2C_IT_EVT | I2C_IT_BUF | I2C_IT_ERR);
 4692              		.loc 1 2255 0
 4693 017c FB68     		ldr	r3, [r7, #12]
 4694 017e 1B68     		ldr	r3, [r3]
 4695 0180 FA68     		ldr	r2, [r7, #12]
 4696 0182 1268     		ldr	r2, [r2]
 4697 0184 5268     		ldr	r2, [r2, #4]
 4698 0186 42F4E062 		orr	r2, r2, #1792
 4699 018a 5A60     		str	r2, [r3, #4]
2256:Drivers/STM32F1xx_HAL_Driver/Src/stm32f1xx_hal_i2c.c **** 
2257:Drivers/STM32F1xx_HAL_Driver/Src/stm32f1xx_hal_i2c.c ****     return HAL_OK;
 4700              		.loc 1 2257 0
 4701 018c 0023     		movs	r3, #0
 4702 018e 00E0     		b	.L240
 4703              	.L237:
2258:Drivers/STM32F1xx_HAL_Driver/Src/stm32f1xx_hal_i2c.c ****   }
2259:Drivers/STM32F1xx_HAL_Driver/Src/stm32f1xx_hal_i2c.c ****   else
2260:Drivers/STM32F1xx_HAL_Driver/Src/stm32f1xx_hal_i2c.c ****   {
2261:Drivers/STM32F1xx_HAL_Driver/Src/stm32f1xx_hal_i2c.c ****     return HAL_BUSY;
 4704              		.loc 1 2261 0
ARM GAS  /var/folders/kh/x4vltyy52lbg7p4pcyglc5080000gp/T//cccbl2Nm.s 			page 124


 4705 0190 0223     		movs	r3, #2
 4706              	.L240:
2262:Drivers/STM32F1xx_HAL_Driver/Src/stm32f1xx_hal_i2c.c ****   }
2263:Drivers/STM32F1xx_HAL_Driver/Src/stm32f1xx_hal_i2c.c **** }
 4707              		.loc 1 2263 0
 4708 0192 1846     		mov	r0, r3
 4709 0194 2037     		adds	r7, r7, #32
 4710              	.LCFI100:
 4711              		.cfi_def_cfa_offset 8
 4712 0196 BD46     		mov	sp, r7
 4713              	.LCFI101:
 4714              		.cfi_def_cfa_register 13
 4715              		@ sp needed
 4716 0198 80BD     		pop	{r7, pc}
 4717              	.L249:
 4718 019a 00BF     		.align	2
 4719              	.L248:
 4720 019c 02001000 		.word	1048578
 4721              		.cfi_endproc
 4722              	.LFE83:
 4724              		.section	.text.HAL_I2C_Mem_Write_DMA,"ax",%progbits
 4725              		.align	2
 4726              		.global	HAL_I2C_Mem_Write_DMA
 4727              		.thumb
 4728              		.thumb_func
 4730              	HAL_I2C_Mem_Write_DMA:
 4731              	.LFB84:
2264:Drivers/STM32F1xx_HAL_Driver/Src/stm32f1xx_hal_i2c.c **** 
2265:Drivers/STM32F1xx_HAL_Driver/Src/stm32f1xx_hal_i2c.c **** 
2266:Drivers/STM32F1xx_HAL_Driver/Src/stm32f1xx_hal_i2c.c **** /**
2267:Drivers/STM32F1xx_HAL_Driver/Src/stm32f1xx_hal_i2c.c ****   * @brief  Write an amount of data in non-blocking mode with DMA to a specific memory address
2268:Drivers/STM32F1xx_HAL_Driver/Src/stm32f1xx_hal_i2c.c ****   * @param  hi2c Pointer to a I2C_HandleTypeDef structure that contains
2269:Drivers/STM32F1xx_HAL_Driver/Src/stm32f1xx_hal_i2c.c ****   *                the configuration information for the specified I2C.
2270:Drivers/STM32F1xx_HAL_Driver/Src/stm32f1xx_hal_i2c.c ****   * @param  DevAddress Target device address
2271:Drivers/STM32F1xx_HAL_Driver/Src/stm32f1xx_hal_i2c.c ****   * @param  MemAddress Internal memory address
2272:Drivers/STM32F1xx_HAL_Driver/Src/stm32f1xx_hal_i2c.c ****   * @param  MemAddSize Size of internal memory address
2273:Drivers/STM32F1xx_HAL_Driver/Src/stm32f1xx_hal_i2c.c ****   * @param  pData Pointer to data buffer
2274:Drivers/STM32F1xx_HAL_Driver/Src/stm32f1xx_hal_i2c.c ****   * @param  Size Amount of data to be sent
2275:Drivers/STM32F1xx_HAL_Driver/Src/stm32f1xx_hal_i2c.c ****   * @retval HAL status
2276:Drivers/STM32F1xx_HAL_Driver/Src/stm32f1xx_hal_i2c.c ****   */
2277:Drivers/STM32F1xx_HAL_Driver/Src/stm32f1xx_hal_i2c.c **** HAL_StatusTypeDef HAL_I2C_Mem_Write_DMA(I2C_HandleTypeDef *hi2c, uint16_t DevAddress, uint16_t MemA
2278:Drivers/STM32F1xx_HAL_Driver/Src/stm32f1xx_hal_i2c.c **** {
 4732              		.loc 1 2278 0
 4733              		.cfi_startproc
 4734              		@ args = 8, pretend = 0, frame = 16
 4735              		@ frame_needed = 1, uses_anonymous_args = 0
 4736 0000 80B5     		push	{r7, lr}
 4737              	.LCFI102:
 4738              		.cfi_def_cfa_offset 8
 4739              		.cfi_offset 7, -8
 4740              		.cfi_offset 14, -4
 4741 0002 86B0     		sub	sp, sp, #24
 4742              	.LCFI103:
 4743              		.cfi_def_cfa_offset 32
 4744 0004 02AF     		add	r7, sp, #8
 4745              	.LCFI104:
 4746              		.cfi_def_cfa 7, 24
ARM GAS  /var/folders/kh/x4vltyy52lbg7p4pcyglc5080000gp/T//cccbl2Nm.s 			page 125


 4747 0006 F860     		str	r0, [r7, #12]
 4748 0008 0846     		mov	r0, r1
 4749 000a 1146     		mov	r1, r2
 4750 000c 1A46     		mov	r2, r3
 4751 000e 0346     		mov	r3, r0	@ movhi
 4752 0010 7B81     		strh	r3, [r7, #10]	@ movhi
 4753 0012 0B46     		mov	r3, r1	@ movhi
 4754 0014 3B81     		strh	r3, [r7, #8]	@ movhi
 4755 0016 1346     		mov	r3, r2	@ movhi
 4756 0018 FB80     		strh	r3, [r7, #6]	@ movhi
2279:Drivers/STM32F1xx_HAL_Driver/Src/stm32f1xx_hal_i2c.c ****   /* Check the parameters */
2280:Drivers/STM32F1xx_HAL_Driver/Src/stm32f1xx_hal_i2c.c ****   assert_param(IS_I2C_MEMADD_SIZE(MemAddSize));
2281:Drivers/STM32F1xx_HAL_Driver/Src/stm32f1xx_hal_i2c.c **** 
2282:Drivers/STM32F1xx_HAL_Driver/Src/stm32f1xx_hal_i2c.c ****   if(hi2c->State == HAL_I2C_STATE_READY)
 4757              		.loc 1 2282 0
 4758 001a FB68     		ldr	r3, [r7, #12]
 4759 001c 93F83530 		ldrb	r3, [r3, #53]
 4760 0020 DBB2     		uxtb	r3, r3
 4761 0022 202B     		cmp	r3, #32
 4762 0024 76D1     		bne	.L251
2283:Drivers/STM32F1xx_HAL_Driver/Src/stm32f1xx_hal_i2c.c ****   {
2284:Drivers/STM32F1xx_HAL_Driver/Src/stm32f1xx_hal_i2c.c ****     if((pData == NULL) || (Size == 0))
 4763              		.loc 1 2284 0
 4764 0026 BB69     		ldr	r3, [r7, #24]
 4765 0028 002B     		cmp	r3, #0
 4766 002a 02D0     		beq	.L252
 4767              		.loc 1 2284 0 is_stmt 0 discriminator 1
 4768 002c BB8B     		ldrh	r3, [r7, #28]
 4769 002e 002B     		cmp	r3, #0
 4770 0030 01D1     		bne	.L253
 4771              	.L252:
2285:Drivers/STM32F1xx_HAL_Driver/Src/stm32f1xx_hal_i2c.c ****     {
2286:Drivers/STM32F1xx_HAL_Driver/Src/stm32f1xx_hal_i2c.c ****       return  HAL_ERROR;
 4772              		.loc 1 2286 0 is_stmt 1
 4773 0032 0123     		movs	r3, #1
 4774 0034 6FE0     		b	.L254
 4775              	.L253:
2287:Drivers/STM32F1xx_HAL_Driver/Src/stm32f1xx_hal_i2c.c ****     }
2288:Drivers/STM32F1xx_HAL_Driver/Src/stm32f1xx_hal_i2c.c **** 
2289:Drivers/STM32F1xx_HAL_Driver/Src/stm32f1xx_hal_i2c.c ****     /* Wait until BUSY flag is reset */
2290:Drivers/STM32F1xx_HAL_Driver/Src/stm32f1xx_hal_i2c.c ****     if(I2C_WaitOnFlagUntilTimeout(hi2c, I2C_FLAG_BUSY, SET, I2C_TIMEOUT_BUSY_FLAG) != HAL_OK)
 4776              		.loc 1 2290 0
 4777 0036 42F21073 		movw	r3, #10000
 4778 003a 0122     		movs	r2, #1
 4779 003c 3849     		ldr	r1, .L259
 4780 003e F868     		ldr	r0, [r7, #12]
 4781 0040 FFF7FEFF 		bl	I2C_WaitOnFlagUntilTimeout
 4782 0044 0346     		mov	r3, r0
 4783 0046 002B     		cmp	r3, #0
 4784 0048 01D0     		beq	.L255
2291:Drivers/STM32F1xx_HAL_Driver/Src/stm32f1xx_hal_i2c.c ****     {
2292:Drivers/STM32F1xx_HAL_Driver/Src/stm32f1xx_hal_i2c.c ****       return HAL_BUSY;
 4785              		.loc 1 2292 0
 4786 004a 0223     		movs	r3, #2
 4787 004c 63E0     		b	.L254
 4788              	.L255:
2293:Drivers/STM32F1xx_HAL_Driver/Src/stm32f1xx_hal_i2c.c ****     }
ARM GAS  /var/folders/kh/x4vltyy52lbg7p4pcyglc5080000gp/T//cccbl2Nm.s 			page 126


2294:Drivers/STM32F1xx_HAL_Driver/Src/stm32f1xx_hal_i2c.c **** 
2295:Drivers/STM32F1xx_HAL_Driver/Src/stm32f1xx_hal_i2c.c ****     /* Process Locked */
2296:Drivers/STM32F1xx_HAL_Driver/Src/stm32f1xx_hal_i2c.c ****     __HAL_LOCK(hi2c);
 4789              		.loc 1 2296 0
 4790 004e FB68     		ldr	r3, [r7, #12]
 4791 0050 93F83430 		ldrb	r3, [r3, #52]	@ zero_extendqisi2
 4792 0054 012B     		cmp	r3, #1
 4793 0056 01D1     		bne	.L256
 4794              		.loc 1 2296 0 is_stmt 0 discriminator 1
 4795 0058 0223     		movs	r3, #2
 4796 005a 5CE0     		b	.L254
 4797              	.L256:
 4798              		.loc 1 2296 0 discriminator 2
 4799 005c FB68     		ldr	r3, [r7, #12]
 4800 005e 0122     		movs	r2, #1
 4801 0060 83F83420 		strb	r2, [r3, #52]
2297:Drivers/STM32F1xx_HAL_Driver/Src/stm32f1xx_hal_i2c.c **** 
2298:Drivers/STM32F1xx_HAL_Driver/Src/stm32f1xx_hal_i2c.c ****     /* Disable Pos */
2299:Drivers/STM32F1xx_HAL_Driver/Src/stm32f1xx_hal_i2c.c ****     CLEAR_BIT(hi2c->Instance->CR1, I2C_CR1_POS);
 4802              		.loc 1 2299 0 is_stmt 1 discriminator 2
 4803 0064 FB68     		ldr	r3, [r7, #12]
 4804 0066 1B68     		ldr	r3, [r3]
 4805 0068 FA68     		ldr	r2, [r7, #12]
 4806 006a 1268     		ldr	r2, [r2]
 4807 006c 1268     		ldr	r2, [r2]
 4808 006e 22F40062 		bic	r2, r2, #2048
 4809 0072 1A60     		str	r2, [r3]
2300:Drivers/STM32F1xx_HAL_Driver/Src/stm32f1xx_hal_i2c.c **** 
2301:Drivers/STM32F1xx_HAL_Driver/Src/stm32f1xx_hal_i2c.c ****     hi2c->State = HAL_I2C_STATE_BUSY_TX;
 4810              		.loc 1 2301 0 discriminator 2
 4811 0074 FB68     		ldr	r3, [r7, #12]
 4812 0076 2122     		movs	r2, #33
 4813 0078 83F83520 		strb	r2, [r3, #53]
2302:Drivers/STM32F1xx_HAL_Driver/Src/stm32f1xx_hal_i2c.c ****     hi2c->Mode = HAL_I2C_MODE_MEM;
 4814              		.loc 1 2302 0 discriminator 2
 4815 007c FB68     		ldr	r3, [r7, #12]
 4816 007e 4022     		movs	r2, #64
 4817 0080 83F83620 		strb	r2, [r3, #54]
2303:Drivers/STM32F1xx_HAL_Driver/Src/stm32f1xx_hal_i2c.c ****     hi2c->ErrorCode = HAL_I2C_ERROR_NONE;
 4818              		.loc 1 2303 0 discriminator 2
 4819 0084 FB68     		ldr	r3, [r7, #12]
 4820 0086 0022     		movs	r2, #0
 4821 0088 9A63     		str	r2, [r3, #56]
2304:Drivers/STM32F1xx_HAL_Driver/Src/stm32f1xx_hal_i2c.c **** 
2305:Drivers/STM32F1xx_HAL_Driver/Src/stm32f1xx_hal_i2c.c ****     hi2c->pBuffPtr = pData;
 4822              		.loc 1 2305 0 discriminator 2
 4823 008a FB68     		ldr	r3, [r7, #12]
 4824 008c BA69     		ldr	r2, [r7, #24]
 4825 008e 5A62     		str	r2, [r3, #36]
2306:Drivers/STM32F1xx_HAL_Driver/Src/stm32f1xx_hal_i2c.c ****     hi2c->XferSize = Size;
 4826              		.loc 1 2306 0 discriminator 2
 4827 0090 FB68     		ldr	r3, [r7, #12]
 4828 0092 BA8B     		ldrh	r2, [r7, #28]	@ movhi
 4829 0094 1A85     		strh	r2, [r3, #40]	@ movhi
2307:Drivers/STM32F1xx_HAL_Driver/Src/stm32f1xx_hal_i2c.c ****     hi2c->XferCount = Size;
 4830              		.loc 1 2307 0 discriminator 2
 4831 0096 FB68     		ldr	r3, [r7, #12]
ARM GAS  /var/folders/kh/x4vltyy52lbg7p4pcyglc5080000gp/T//cccbl2Nm.s 			page 127


 4832 0098 BA8B     		ldrh	r2, [r7, #28]	@ movhi
 4833 009a 5A85     		strh	r2, [r3, #42]	@ movhi
2308:Drivers/STM32F1xx_HAL_Driver/Src/stm32f1xx_hal_i2c.c **** 
2309:Drivers/STM32F1xx_HAL_Driver/Src/stm32f1xx_hal_i2c.c ****     /* Set the I2C DMA transfert complete callback */
2310:Drivers/STM32F1xx_HAL_Driver/Src/stm32f1xx_hal_i2c.c ****     hi2c->hdmatx->XferCpltCallback = I2C_DMAMemTransmitCplt;
 4834              		.loc 1 2310 0 discriminator 2
 4835 009c FB68     		ldr	r3, [r7, #12]
 4836 009e DB6A     		ldr	r3, [r3, #44]
 4837 00a0 204A     		ldr	r2, .L259+4
 4838 00a2 9A62     		str	r2, [r3, #40]
2311:Drivers/STM32F1xx_HAL_Driver/Src/stm32f1xx_hal_i2c.c **** 
2312:Drivers/STM32F1xx_HAL_Driver/Src/stm32f1xx_hal_i2c.c ****     /* Set the DMA error callback */
2313:Drivers/STM32F1xx_HAL_Driver/Src/stm32f1xx_hal_i2c.c ****     hi2c->hdmatx->XferErrorCallback = I2C_DMAError;
 4839              		.loc 1 2313 0 discriminator 2
 4840 00a4 FB68     		ldr	r3, [r7, #12]
 4841 00a6 DB6A     		ldr	r3, [r3, #44]
 4842 00a8 1F4A     		ldr	r2, .L259+8
 4843 00aa 1A63     		str	r2, [r3, #48]
2314:Drivers/STM32F1xx_HAL_Driver/Src/stm32f1xx_hal_i2c.c **** 
2315:Drivers/STM32F1xx_HAL_Driver/Src/stm32f1xx_hal_i2c.c ****     /* Enable the DMA channel */
2316:Drivers/STM32F1xx_HAL_Driver/Src/stm32f1xx_hal_i2c.c ****     HAL_DMA_Start_IT(hi2c->hdmatx, (uint32_t)pData, (uint32_t)&hi2c->Instance->DR, Size);
 4844              		.loc 1 2316 0 discriminator 2
 4845 00ac FB68     		ldr	r3, [r7, #12]
 4846 00ae D86A     		ldr	r0, [r3, #44]
 4847 00b0 B969     		ldr	r1, [r7, #24]
 4848 00b2 FB68     		ldr	r3, [r7, #12]
 4849 00b4 1B68     		ldr	r3, [r3]
 4850 00b6 1033     		adds	r3, r3, #16
 4851 00b8 1A46     		mov	r2, r3
 4852 00ba BB8B     		ldrh	r3, [r7, #28]
 4853 00bc FFF7FEFF 		bl	HAL_DMA_Start_IT
2317:Drivers/STM32F1xx_HAL_Driver/Src/stm32f1xx_hal_i2c.c **** 
2318:Drivers/STM32F1xx_HAL_Driver/Src/stm32f1xx_hal_i2c.c ****     /* Send Slave Address and Memory Address */
2319:Drivers/STM32F1xx_HAL_Driver/Src/stm32f1xx_hal_i2c.c ****     if(I2C_RequestMemoryWrite(hi2c, DevAddress, MemAddress, MemAddSize, I2C_TIMEOUT_FLAG) != HAL_OK
 4854              		.loc 1 2319 0 discriminator 2
 4855 00c0 F888     		ldrh	r0, [r7, #6]
 4856 00c2 3A89     		ldrh	r2, [r7, #8]
 4857 00c4 7989     		ldrh	r1, [r7, #10]
 4858 00c6 2323     		movs	r3, #35
 4859 00c8 0093     		str	r3, [sp]
 4860 00ca 0346     		mov	r3, r0
 4861 00cc F868     		ldr	r0, [r7, #12]
 4862 00ce FFF7FEFF 		bl	I2C_RequestMemoryWrite
 4863 00d2 0346     		mov	r3, r0
 4864 00d4 002B     		cmp	r3, #0
 4865 00d6 0FD0     		beq	.L257
2320:Drivers/STM32F1xx_HAL_Driver/Src/stm32f1xx_hal_i2c.c ****     {
2321:Drivers/STM32F1xx_HAL_Driver/Src/stm32f1xx_hal_i2c.c ****       if(hi2c->ErrorCode == HAL_I2C_ERROR_AF)
 4866              		.loc 1 2321 0
 4867 00d8 FB68     		ldr	r3, [r7, #12]
 4868 00da 9B6B     		ldr	r3, [r3, #56]
 4869 00dc 042B     		cmp	r3, #4
 4870 00de 05D1     		bne	.L258
2322:Drivers/STM32F1xx_HAL_Driver/Src/stm32f1xx_hal_i2c.c ****       {
2323:Drivers/STM32F1xx_HAL_Driver/Src/stm32f1xx_hal_i2c.c ****         /* Process Unlocked */
2324:Drivers/STM32F1xx_HAL_Driver/Src/stm32f1xx_hal_i2c.c ****         __HAL_UNLOCK(hi2c);
 4871              		.loc 1 2324 0
ARM GAS  /var/folders/kh/x4vltyy52lbg7p4pcyglc5080000gp/T//cccbl2Nm.s 			page 128


 4872 00e0 FB68     		ldr	r3, [r7, #12]
 4873 00e2 0022     		movs	r2, #0
 4874 00e4 83F83420 		strb	r2, [r3, #52]
2325:Drivers/STM32F1xx_HAL_Driver/Src/stm32f1xx_hal_i2c.c ****         return HAL_ERROR;
 4875              		.loc 1 2325 0
 4876 00e8 0123     		movs	r3, #1
 4877 00ea 14E0     		b	.L254
 4878              	.L258:
2326:Drivers/STM32F1xx_HAL_Driver/Src/stm32f1xx_hal_i2c.c ****       }
2327:Drivers/STM32F1xx_HAL_Driver/Src/stm32f1xx_hal_i2c.c ****       else
2328:Drivers/STM32F1xx_HAL_Driver/Src/stm32f1xx_hal_i2c.c ****       {
2329:Drivers/STM32F1xx_HAL_Driver/Src/stm32f1xx_hal_i2c.c ****         /* Process Unlocked */
2330:Drivers/STM32F1xx_HAL_Driver/Src/stm32f1xx_hal_i2c.c ****         __HAL_UNLOCK(hi2c);
 4879              		.loc 1 2330 0
 4880 00ec FB68     		ldr	r3, [r7, #12]
 4881 00ee 0022     		movs	r2, #0
 4882 00f0 83F83420 		strb	r2, [r3, #52]
2331:Drivers/STM32F1xx_HAL_Driver/Src/stm32f1xx_hal_i2c.c ****         return HAL_TIMEOUT;
 4883              		.loc 1 2331 0
 4884 00f4 0323     		movs	r3, #3
 4885 00f6 0EE0     		b	.L254
 4886              	.L257:
2332:Drivers/STM32F1xx_HAL_Driver/Src/stm32f1xx_hal_i2c.c ****       }
2333:Drivers/STM32F1xx_HAL_Driver/Src/stm32f1xx_hal_i2c.c ****     }
2334:Drivers/STM32F1xx_HAL_Driver/Src/stm32f1xx_hal_i2c.c **** 
2335:Drivers/STM32F1xx_HAL_Driver/Src/stm32f1xx_hal_i2c.c ****     /* Enable DMA Request */
2336:Drivers/STM32F1xx_HAL_Driver/Src/stm32f1xx_hal_i2c.c ****     SET_BIT(hi2c->Instance->CR2, I2C_CR2_DMAEN);
 4887              		.loc 1 2336 0
 4888 00f8 FB68     		ldr	r3, [r7, #12]
 4889 00fa 1B68     		ldr	r3, [r3]
 4890 00fc FA68     		ldr	r2, [r7, #12]
 4891 00fe 1268     		ldr	r2, [r2]
 4892 0100 5268     		ldr	r2, [r2, #4]
 4893 0102 42F40062 		orr	r2, r2, #2048
 4894 0106 5A60     		str	r2, [r3, #4]
2337:Drivers/STM32F1xx_HAL_Driver/Src/stm32f1xx_hal_i2c.c **** 
2338:Drivers/STM32F1xx_HAL_Driver/Src/stm32f1xx_hal_i2c.c ****     /* Process Unlocked */
2339:Drivers/STM32F1xx_HAL_Driver/Src/stm32f1xx_hal_i2c.c ****     __HAL_UNLOCK(hi2c);
 4895              		.loc 1 2339 0
 4896 0108 FB68     		ldr	r3, [r7, #12]
 4897 010a 0022     		movs	r2, #0
 4898 010c 83F83420 		strb	r2, [r3, #52]
2340:Drivers/STM32F1xx_HAL_Driver/Src/stm32f1xx_hal_i2c.c **** 
2341:Drivers/STM32F1xx_HAL_Driver/Src/stm32f1xx_hal_i2c.c ****     return HAL_OK;
 4899              		.loc 1 2341 0
 4900 0110 0023     		movs	r3, #0
 4901 0112 00E0     		b	.L254
 4902              	.L251:
2342:Drivers/STM32F1xx_HAL_Driver/Src/stm32f1xx_hal_i2c.c ****   }
2343:Drivers/STM32F1xx_HAL_Driver/Src/stm32f1xx_hal_i2c.c ****   else
2344:Drivers/STM32F1xx_HAL_Driver/Src/stm32f1xx_hal_i2c.c ****   {
2345:Drivers/STM32F1xx_HAL_Driver/Src/stm32f1xx_hal_i2c.c ****     return HAL_BUSY;
 4903              		.loc 1 2345 0
 4904 0114 0223     		movs	r3, #2
 4905              	.L254:
2346:Drivers/STM32F1xx_HAL_Driver/Src/stm32f1xx_hal_i2c.c ****   }
2347:Drivers/STM32F1xx_HAL_Driver/Src/stm32f1xx_hal_i2c.c **** }
ARM GAS  /var/folders/kh/x4vltyy52lbg7p4pcyglc5080000gp/T//cccbl2Nm.s 			page 129


 4906              		.loc 1 2347 0
 4907 0116 1846     		mov	r0, r3
 4908 0118 1037     		adds	r7, r7, #16
 4909              	.LCFI105:
 4910              		.cfi_def_cfa_offset 8
 4911 011a BD46     		mov	sp, r7
 4912              	.LCFI106:
 4913              		.cfi_def_cfa_register 13
 4914              		@ sp needed
 4915 011c 80BD     		pop	{r7, pc}
 4916              	.L260:
 4917 011e 00BF     		.align	2
 4918              	.L259:
 4919 0120 02001000 		.word	1048578
 4920 0124 00000000 		.word	I2C_DMAMemTransmitCplt
 4921 0128 00000000 		.word	I2C_DMAError
 4922              		.cfi_endproc
 4923              	.LFE84:
 4925              		.section	.text.HAL_I2C_Mem_Read_DMA,"ax",%progbits
 4926              		.align	2
 4927              		.global	HAL_I2C_Mem_Read_DMA
 4928              		.thumb
 4929              		.thumb_func
 4931              	HAL_I2C_Mem_Read_DMA:
 4932              	.LFB85:
2348:Drivers/STM32F1xx_HAL_Driver/Src/stm32f1xx_hal_i2c.c **** 
2349:Drivers/STM32F1xx_HAL_Driver/Src/stm32f1xx_hal_i2c.c **** /**
2350:Drivers/STM32F1xx_HAL_Driver/Src/stm32f1xx_hal_i2c.c ****   * @brief  Reads an amount of data in non-blocking mode with DMA from a specific memory address.
2351:Drivers/STM32F1xx_HAL_Driver/Src/stm32f1xx_hal_i2c.c ****   * @param  hi2c Pointer to a I2C_HandleTypeDef structure that contains
2352:Drivers/STM32F1xx_HAL_Driver/Src/stm32f1xx_hal_i2c.c ****   *                the configuration information for the specified I2C.
2353:Drivers/STM32F1xx_HAL_Driver/Src/stm32f1xx_hal_i2c.c ****   * @param  DevAddress Target device address
2354:Drivers/STM32F1xx_HAL_Driver/Src/stm32f1xx_hal_i2c.c ****   * @param  MemAddress Internal memory address
2355:Drivers/STM32F1xx_HAL_Driver/Src/stm32f1xx_hal_i2c.c ****   * @param  MemAddSize Size of internal memory address
2356:Drivers/STM32F1xx_HAL_Driver/Src/stm32f1xx_hal_i2c.c ****   * @param  pData Pointer to data buffer
2357:Drivers/STM32F1xx_HAL_Driver/Src/stm32f1xx_hal_i2c.c ****   * @param  Size Amount of data to be read
2358:Drivers/STM32F1xx_HAL_Driver/Src/stm32f1xx_hal_i2c.c ****   * @retval HAL status
2359:Drivers/STM32F1xx_HAL_Driver/Src/stm32f1xx_hal_i2c.c ****   */
2360:Drivers/STM32F1xx_HAL_Driver/Src/stm32f1xx_hal_i2c.c **** HAL_StatusTypeDef HAL_I2C_Mem_Read_DMA(I2C_HandleTypeDef *hi2c, uint16_t DevAddress, uint16_t MemAd
2361:Drivers/STM32F1xx_HAL_Driver/Src/stm32f1xx_hal_i2c.c **** {
 4933              		.loc 1 2361 0
 4934              		.cfi_startproc
 4935              		@ args = 8, pretend = 0, frame = 24
 4936              		@ frame_needed = 1, uses_anonymous_args = 0
 4937 0000 80B5     		push	{r7, lr}
 4938              	.LCFI107:
 4939              		.cfi_def_cfa_offset 8
 4940              		.cfi_offset 7, -8
 4941              		.cfi_offset 14, -4
 4942 0002 88B0     		sub	sp, sp, #32
 4943              	.LCFI108:
 4944              		.cfi_def_cfa_offset 40
 4945 0004 02AF     		add	r7, sp, #8
 4946              	.LCFI109:
 4947              		.cfi_def_cfa 7, 32
 4948 0006 F860     		str	r0, [r7, #12]
 4949 0008 0846     		mov	r0, r1
 4950 000a 1146     		mov	r1, r2
ARM GAS  /var/folders/kh/x4vltyy52lbg7p4pcyglc5080000gp/T//cccbl2Nm.s 			page 130


 4951 000c 1A46     		mov	r2, r3
 4952 000e 0346     		mov	r3, r0	@ movhi
 4953 0010 7B81     		strh	r3, [r7, #10]	@ movhi
 4954 0012 0B46     		mov	r3, r1	@ movhi
 4955 0014 3B81     		strh	r3, [r7, #8]	@ movhi
 4956 0016 1346     		mov	r3, r2	@ movhi
 4957 0018 FB80     		strh	r3, [r7, #6]	@ movhi
2362:Drivers/STM32F1xx_HAL_Driver/Src/stm32f1xx_hal_i2c.c ****   /* Check the parameters */
2363:Drivers/STM32F1xx_HAL_Driver/Src/stm32f1xx_hal_i2c.c ****   assert_param(IS_I2C_MEMADD_SIZE(MemAddSize));
2364:Drivers/STM32F1xx_HAL_Driver/Src/stm32f1xx_hal_i2c.c **** 
2365:Drivers/STM32F1xx_HAL_Driver/Src/stm32f1xx_hal_i2c.c ****   if(hi2c->State == HAL_I2C_STATE_READY)
 4958              		.loc 1 2365 0
 4959 001a FB68     		ldr	r3, [r7, #12]
 4960 001c 93F83530 		ldrb	r3, [r3, #53]
 4961 0020 DBB2     		uxtb	r3, r3
 4962 0022 202B     		cmp	r3, #32
 4963 0024 40F09480 		bne	.L262
2366:Drivers/STM32F1xx_HAL_Driver/Src/stm32f1xx_hal_i2c.c ****   {
2367:Drivers/STM32F1xx_HAL_Driver/Src/stm32f1xx_hal_i2c.c ****     if((pData == NULL) || (Size == 0))
 4964              		.loc 1 2367 0
 4965 0028 3B6A     		ldr	r3, [r7, #32]
 4966 002a 002B     		cmp	r3, #0
 4967 002c 02D0     		beq	.L263
 4968              		.loc 1 2367 0 is_stmt 0 discriminator 1
 4969 002e BB8C     		ldrh	r3, [r7, #36]
 4970 0030 002B     		cmp	r3, #0
 4971 0032 01D1     		bne	.L264
 4972              	.L263:
2368:Drivers/STM32F1xx_HAL_Driver/Src/stm32f1xx_hal_i2c.c ****     {
2369:Drivers/STM32F1xx_HAL_Driver/Src/stm32f1xx_hal_i2c.c ****       return  HAL_ERROR;
 4973              		.loc 1 2369 0 is_stmt 1
 4974 0034 0123     		movs	r3, #1
 4975 0036 8CE0     		b	.L265
 4976              	.L264:
2370:Drivers/STM32F1xx_HAL_Driver/Src/stm32f1xx_hal_i2c.c ****     }
2371:Drivers/STM32F1xx_HAL_Driver/Src/stm32f1xx_hal_i2c.c **** 
2372:Drivers/STM32F1xx_HAL_Driver/Src/stm32f1xx_hal_i2c.c ****     /* Wait until BUSY flag is reset */
2373:Drivers/STM32F1xx_HAL_Driver/Src/stm32f1xx_hal_i2c.c ****     if(I2C_WaitOnFlagUntilTimeout(hi2c, I2C_FLAG_BUSY, SET, I2C_TIMEOUT_BUSY_FLAG) != HAL_OK)
 4977              		.loc 1 2373 0
 4978 0038 42F21073 		movw	r3, #10000
 4979 003c 0122     		movs	r2, #1
 4980 003e 4749     		ldr	r1, .L272
 4981 0040 F868     		ldr	r0, [r7, #12]
 4982 0042 FFF7FEFF 		bl	I2C_WaitOnFlagUntilTimeout
 4983 0046 0346     		mov	r3, r0
 4984 0048 002B     		cmp	r3, #0
 4985 004a 01D0     		beq	.L266
2374:Drivers/STM32F1xx_HAL_Driver/Src/stm32f1xx_hal_i2c.c ****     {
2375:Drivers/STM32F1xx_HAL_Driver/Src/stm32f1xx_hal_i2c.c ****       return HAL_BUSY;
 4986              		.loc 1 2375 0
 4987 004c 0223     		movs	r3, #2
 4988 004e 80E0     		b	.L265
 4989              	.L266:
2376:Drivers/STM32F1xx_HAL_Driver/Src/stm32f1xx_hal_i2c.c ****     }
2377:Drivers/STM32F1xx_HAL_Driver/Src/stm32f1xx_hal_i2c.c **** 
2378:Drivers/STM32F1xx_HAL_Driver/Src/stm32f1xx_hal_i2c.c ****     /* Process Locked */
2379:Drivers/STM32F1xx_HAL_Driver/Src/stm32f1xx_hal_i2c.c ****     __HAL_LOCK(hi2c);
ARM GAS  /var/folders/kh/x4vltyy52lbg7p4pcyglc5080000gp/T//cccbl2Nm.s 			page 131


 4990              		.loc 1 2379 0
 4991 0050 FB68     		ldr	r3, [r7, #12]
 4992 0052 93F83430 		ldrb	r3, [r3, #52]	@ zero_extendqisi2
 4993 0056 012B     		cmp	r3, #1
 4994 0058 01D1     		bne	.L267
 4995              		.loc 1 2379 0 is_stmt 0 discriminator 1
 4996 005a 0223     		movs	r3, #2
 4997 005c 79E0     		b	.L265
 4998              	.L267:
 4999              		.loc 1 2379 0 discriminator 2
 5000 005e FB68     		ldr	r3, [r7, #12]
 5001 0060 0122     		movs	r2, #1
 5002 0062 83F83420 		strb	r2, [r3, #52]
2380:Drivers/STM32F1xx_HAL_Driver/Src/stm32f1xx_hal_i2c.c **** 
2381:Drivers/STM32F1xx_HAL_Driver/Src/stm32f1xx_hal_i2c.c ****     /* Disable Pos */
2382:Drivers/STM32F1xx_HAL_Driver/Src/stm32f1xx_hal_i2c.c ****     CLEAR_BIT(hi2c->Instance->CR1, I2C_CR1_POS);
 5003              		.loc 1 2382 0 is_stmt 1 discriminator 2
 5004 0066 FB68     		ldr	r3, [r7, #12]
 5005 0068 1B68     		ldr	r3, [r3]
 5006 006a FA68     		ldr	r2, [r7, #12]
 5007 006c 1268     		ldr	r2, [r2]
 5008 006e 1268     		ldr	r2, [r2]
 5009 0070 22F40062 		bic	r2, r2, #2048
 5010 0074 1A60     		str	r2, [r3]
2383:Drivers/STM32F1xx_HAL_Driver/Src/stm32f1xx_hal_i2c.c **** 
2384:Drivers/STM32F1xx_HAL_Driver/Src/stm32f1xx_hal_i2c.c ****     hi2c->State = HAL_I2C_STATE_BUSY_RX;
 5011              		.loc 1 2384 0 discriminator 2
 5012 0076 FB68     		ldr	r3, [r7, #12]
 5013 0078 2222     		movs	r2, #34
 5014 007a 83F83520 		strb	r2, [r3, #53]
2385:Drivers/STM32F1xx_HAL_Driver/Src/stm32f1xx_hal_i2c.c ****     hi2c->Mode = HAL_I2C_MODE_MEM;
 5015              		.loc 1 2385 0 discriminator 2
 5016 007e FB68     		ldr	r3, [r7, #12]
 5017 0080 4022     		movs	r2, #64
 5018 0082 83F83620 		strb	r2, [r3, #54]
2386:Drivers/STM32F1xx_HAL_Driver/Src/stm32f1xx_hal_i2c.c ****     hi2c->ErrorCode = HAL_I2C_ERROR_NONE;
 5019              		.loc 1 2386 0 discriminator 2
 5020 0086 FB68     		ldr	r3, [r7, #12]
 5021 0088 0022     		movs	r2, #0
 5022 008a 9A63     		str	r2, [r3, #56]
2387:Drivers/STM32F1xx_HAL_Driver/Src/stm32f1xx_hal_i2c.c **** 
2388:Drivers/STM32F1xx_HAL_Driver/Src/stm32f1xx_hal_i2c.c ****     hi2c->pBuffPtr = pData;
 5023              		.loc 1 2388 0 discriminator 2
 5024 008c FB68     		ldr	r3, [r7, #12]
 5025 008e 3A6A     		ldr	r2, [r7, #32]
 5026 0090 5A62     		str	r2, [r3, #36]
2389:Drivers/STM32F1xx_HAL_Driver/Src/stm32f1xx_hal_i2c.c ****     hi2c->XferSize = Size;
 5027              		.loc 1 2389 0 discriminator 2
 5028 0092 FB68     		ldr	r3, [r7, #12]
 5029 0094 BA8C     		ldrh	r2, [r7, #36]	@ movhi
 5030 0096 1A85     		strh	r2, [r3, #40]	@ movhi
2390:Drivers/STM32F1xx_HAL_Driver/Src/stm32f1xx_hal_i2c.c ****     hi2c->XferCount = Size;
 5031              		.loc 1 2390 0 discriminator 2
 5032 0098 FB68     		ldr	r3, [r7, #12]
 5033 009a BA8C     		ldrh	r2, [r7, #36]	@ movhi
 5034 009c 5A85     		strh	r2, [r3, #42]	@ movhi
2391:Drivers/STM32F1xx_HAL_Driver/Src/stm32f1xx_hal_i2c.c **** 
ARM GAS  /var/folders/kh/x4vltyy52lbg7p4pcyglc5080000gp/T//cccbl2Nm.s 			page 132


2392:Drivers/STM32F1xx_HAL_Driver/Src/stm32f1xx_hal_i2c.c ****     /* Set the I2C DMA transfert complete callback */
2393:Drivers/STM32F1xx_HAL_Driver/Src/stm32f1xx_hal_i2c.c ****     hi2c->hdmarx->XferCpltCallback = I2C_DMAMemReceiveCplt;
 5035              		.loc 1 2393 0 discriminator 2
 5036 009e FB68     		ldr	r3, [r7, #12]
 5037 00a0 1B6B     		ldr	r3, [r3, #48]
 5038 00a2 2F4A     		ldr	r2, .L272+4
 5039 00a4 9A62     		str	r2, [r3, #40]
2394:Drivers/STM32F1xx_HAL_Driver/Src/stm32f1xx_hal_i2c.c **** 
2395:Drivers/STM32F1xx_HAL_Driver/Src/stm32f1xx_hal_i2c.c ****     /* Set the DMA error callback */
2396:Drivers/STM32F1xx_HAL_Driver/Src/stm32f1xx_hal_i2c.c ****     hi2c->hdmarx->XferErrorCallback = I2C_DMAError;
 5040              		.loc 1 2396 0 discriminator 2
 5041 00a6 FB68     		ldr	r3, [r7, #12]
 5042 00a8 1B6B     		ldr	r3, [r3, #48]
 5043 00aa 2E4A     		ldr	r2, .L272+8
 5044 00ac 1A63     		str	r2, [r3, #48]
2397:Drivers/STM32F1xx_HAL_Driver/Src/stm32f1xx_hal_i2c.c **** 
2398:Drivers/STM32F1xx_HAL_Driver/Src/stm32f1xx_hal_i2c.c ****     /* Enable the DMA channel */
2399:Drivers/STM32F1xx_HAL_Driver/Src/stm32f1xx_hal_i2c.c ****     HAL_DMA_Start_IT(hi2c->hdmarx, (uint32_t)&hi2c->Instance->DR, (uint32_t)pData, Size);
 5045              		.loc 1 2399 0 discriminator 2
 5046 00ae FB68     		ldr	r3, [r7, #12]
 5047 00b0 186B     		ldr	r0, [r3, #48]
 5048 00b2 FB68     		ldr	r3, [r7, #12]
 5049 00b4 1B68     		ldr	r3, [r3]
 5050 00b6 1033     		adds	r3, r3, #16
 5051 00b8 1946     		mov	r1, r3
 5052 00ba 3A6A     		ldr	r2, [r7, #32]
 5053 00bc BB8C     		ldrh	r3, [r7, #36]
 5054 00be FFF7FEFF 		bl	HAL_DMA_Start_IT
2400:Drivers/STM32F1xx_HAL_Driver/Src/stm32f1xx_hal_i2c.c **** 
2401:Drivers/STM32F1xx_HAL_Driver/Src/stm32f1xx_hal_i2c.c ****     /* Send Slave Address and Memory Address */
2402:Drivers/STM32F1xx_HAL_Driver/Src/stm32f1xx_hal_i2c.c ****     if(I2C_RequestMemoryRead(hi2c, DevAddress, MemAddress, MemAddSize, I2C_TIMEOUT_FLAG) != HAL_OK)
 5055              		.loc 1 2402 0 discriminator 2
 5056 00c2 F888     		ldrh	r0, [r7, #6]
 5057 00c4 3A89     		ldrh	r2, [r7, #8]
 5058 00c6 7989     		ldrh	r1, [r7, #10]
 5059 00c8 2323     		movs	r3, #35
 5060 00ca 0093     		str	r3, [sp]
 5061 00cc 0346     		mov	r3, r0
 5062 00ce F868     		ldr	r0, [r7, #12]
 5063 00d0 FFF7FEFF 		bl	I2C_RequestMemoryRead
 5064 00d4 0346     		mov	r3, r0
 5065 00d6 002B     		cmp	r3, #0
 5066 00d8 0FD0     		beq	.L268
2403:Drivers/STM32F1xx_HAL_Driver/Src/stm32f1xx_hal_i2c.c ****     {
2404:Drivers/STM32F1xx_HAL_Driver/Src/stm32f1xx_hal_i2c.c ****       if(hi2c->ErrorCode == HAL_I2C_ERROR_AF)
 5067              		.loc 1 2404 0
 5068 00da FB68     		ldr	r3, [r7, #12]
 5069 00dc 9B6B     		ldr	r3, [r3, #56]
 5070 00de 042B     		cmp	r3, #4
 5071 00e0 05D1     		bne	.L269
2405:Drivers/STM32F1xx_HAL_Driver/Src/stm32f1xx_hal_i2c.c ****       {
2406:Drivers/STM32F1xx_HAL_Driver/Src/stm32f1xx_hal_i2c.c ****         /* Process Unlocked */
2407:Drivers/STM32F1xx_HAL_Driver/Src/stm32f1xx_hal_i2c.c ****         __HAL_UNLOCK(hi2c);
 5072              		.loc 1 2407 0
 5073 00e2 FB68     		ldr	r3, [r7, #12]
 5074 00e4 0022     		movs	r2, #0
 5075 00e6 83F83420 		strb	r2, [r3, #52]
ARM GAS  /var/folders/kh/x4vltyy52lbg7p4pcyglc5080000gp/T//cccbl2Nm.s 			page 133


2408:Drivers/STM32F1xx_HAL_Driver/Src/stm32f1xx_hal_i2c.c ****         return HAL_ERROR;
 5076              		.loc 1 2408 0
 5077 00ea 0123     		movs	r3, #1
 5078 00ec 31E0     		b	.L265
 5079              	.L269:
2409:Drivers/STM32F1xx_HAL_Driver/Src/stm32f1xx_hal_i2c.c ****       }
2410:Drivers/STM32F1xx_HAL_Driver/Src/stm32f1xx_hal_i2c.c ****       else
2411:Drivers/STM32F1xx_HAL_Driver/Src/stm32f1xx_hal_i2c.c ****       {
2412:Drivers/STM32F1xx_HAL_Driver/Src/stm32f1xx_hal_i2c.c ****         /* Process Unlocked */
2413:Drivers/STM32F1xx_HAL_Driver/Src/stm32f1xx_hal_i2c.c ****         __HAL_UNLOCK(hi2c);
 5080              		.loc 1 2413 0
 5081 00ee FB68     		ldr	r3, [r7, #12]
 5082 00f0 0022     		movs	r2, #0
 5083 00f2 83F83420 		strb	r2, [r3, #52]
2414:Drivers/STM32F1xx_HAL_Driver/Src/stm32f1xx_hal_i2c.c ****         return HAL_TIMEOUT;
 5084              		.loc 1 2414 0
 5085 00f6 0323     		movs	r3, #3
 5086 00f8 2BE0     		b	.L265
 5087              	.L268:
2415:Drivers/STM32F1xx_HAL_Driver/Src/stm32f1xx_hal_i2c.c ****       }
2416:Drivers/STM32F1xx_HAL_Driver/Src/stm32f1xx_hal_i2c.c ****     }
2417:Drivers/STM32F1xx_HAL_Driver/Src/stm32f1xx_hal_i2c.c **** 
2418:Drivers/STM32F1xx_HAL_Driver/Src/stm32f1xx_hal_i2c.c ****     if(Size == 1)
 5088              		.loc 1 2418 0
 5089 00fa BB8C     		ldrh	r3, [r7, #36]
 5090 00fc 012B     		cmp	r3, #1
 5091 00fe 08D1     		bne	.L270
2419:Drivers/STM32F1xx_HAL_Driver/Src/stm32f1xx_hal_i2c.c ****     {
2420:Drivers/STM32F1xx_HAL_Driver/Src/stm32f1xx_hal_i2c.c ****       /* Disable Acknowledge */
2421:Drivers/STM32F1xx_HAL_Driver/Src/stm32f1xx_hal_i2c.c ****       CLEAR_BIT(hi2c->Instance->CR1, I2C_CR1_ACK);
 5092              		.loc 1 2421 0
 5093 0100 FB68     		ldr	r3, [r7, #12]
 5094 0102 1B68     		ldr	r3, [r3]
 5095 0104 FA68     		ldr	r2, [r7, #12]
 5096 0106 1268     		ldr	r2, [r2]
 5097 0108 1268     		ldr	r2, [r2]
 5098 010a 22F48062 		bic	r2, r2, #1024
 5099 010e 1A60     		str	r2, [r3]
 5100 0110 07E0     		b	.L271
 5101              	.L270:
2422:Drivers/STM32F1xx_HAL_Driver/Src/stm32f1xx_hal_i2c.c ****     }
2423:Drivers/STM32F1xx_HAL_Driver/Src/stm32f1xx_hal_i2c.c ****     else
2424:Drivers/STM32F1xx_HAL_Driver/Src/stm32f1xx_hal_i2c.c ****     {
2425:Drivers/STM32F1xx_HAL_Driver/Src/stm32f1xx_hal_i2c.c ****       /* Enable Last DMA bit */
2426:Drivers/STM32F1xx_HAL_Driver/Src/stm32f1xx_hal_i2c.c ****       SET_BIT(hi2c->Instance->CR2, I2C_CR2_LAST);
 5102              		.loc 1 2426 0
 5103 0112 FB68     		ldr	r3, [r7, #12]
 5104 0114 1B68     		ldr	r3, [r3]
 5105 0116 FA68     		ldr	r2, [r7, #12]
 5106 0118 1268     		ldr	r2, [r2]
 5107 011a 5268     		ldr	r2, [r2, #4]
 5108 011c 42F48052 		orr	r2, r2, #4096
 5109 0120 5A60     		str	r2, [r3, #4]
 5110              	.L271:
2427:Drivers/STM32F1xx_HAL_Driver/Src/stm32f1xx_hal_i2c.c ****     }
2428:Drivers/STM32F1xx_HAL_Driver/Src/stm32f1xx_hal_i2c.c **** 
2429:Drivers/STM32F1xx_HAL_Driver/Src/stm32f1xx_hal_i2c.c ****     /* Enable DMA Request */
ARM GAS  /var/folders/kh/x4vltyy52lbg7p4pcyglc5080000gp/T//cccbl2Nm.s 			page 134


2430:Drivers/STM32F1xx_HAL_Driver/Src/stm32f1xx_hal_i2c.c ****     SET_BIT(hi2c->Instance->CR2, I2C_CR2_DMAEN);
 5111              		.loc 1 2430 0
 5112 0122 FB68     		ldr	r3, [r7, #12]
 5113 0124 1B68     		ldr	r3, [r3]
 5114 0126 FA68     		ldr	r2, [r7, #12]
 5115 0128 1268     		ldr	r2, [r2]
 5116 012a 5268     		ldr	r2, [r2, #4]
 5117 012c 42F40062 		orr	r2, r2, #2048
 5118 0130 5A60     		str	r2, [r3, #4]
 5119              	.LBB96:
2431:Drivers/STM32F1xx_HAL_Driver/Src/stm32f1xx_hal_i2c.c **** 
2432:Drivers/STM32F1xx_HAL_Driver/Src/stm32f1xx_hal_i2c.c ****     /* Clear ADDR flag */
2433:Drivers/STM32F1xx_HAL_Driver/Src/stm32f1xx_hal_i2c.c ****     __HAL_I2C_CLEAR_ADDRFLAG(hi2c);
 5120              		.loc 1 2433 0
 5121 0132 FB68     		ldr	r3, [r7, #12]
 5122 0134 1B68     		ldr	r3, [r3]
 5123 0136 5B69     		ldr	r3, [r3, #20]
 5124 0138 7B61     		str	r3, [r7, #20]
 5125 013a FB68     		ldr	r3, [r7, #12]
 5126 013c 1B68     		ldr	r3, [r3]
 5127 013e 9B69     		ldr	r3, [r3, #24]
 5128 0140 7B61     		str	r3, [r7, #20]
 5129 0142 7B69     		ldr	r3, [r7, #20]
 5130              	.LBE96:
2434:Drivers/STM32F1xx_HAL_Driver/Src/stm32f1xx_hal_i2c.c **** 
2435:Drivers/STM32F1xx_HAL_Driver/Src/stm32f1xx_hal_i2c.c ****     /* Process Unlocked */
2436:Drivers/STM32F1xx_HAL_Driver/Src/stm32f1xx_hal_i2c.c ****     __HAL_UNLOCK(hi2c);
 5131              		.loc 1 2436 0
 5132 0144 FB68     		ldr	r3, [r7, #12]
 5133 0146 0022     		movs	r2, #0
 5134 0148 83F83420 		strb	r2, [r3, #52]
2437:Drivers/STM32F1xx_HAL_Driver/Src/stm32f1xx_hal_i2c.c **** 
2438:Drivers/STM32F1xx_HAL_Driver/Src/stm32f1xx_hal_i2c.c ****     return HAL_OK;
 5135              		.loc 1 2438 0
 5136 014c 0023     		movs	r3, #0
 5137 014e 00E0     		b	.L265
 5138              	.L262:
2439:Drivers/STM32F1xx_HAL_Driver/Src/stm32f1xx_hal_i2c.c ****   }
2440:Drivers/STM32F1xx_HAL_Driver/Src/stm32f1xx_hal_i2c.c ****   else
2441:Drivers/STM32F1xx_HAL_Driver/Src/stm32f1xx_hal_i2c.c ****   {
2442:Drivers/STM32F1xx_HAL_Driver/Src/stm32f1xx_hal_i2c.c ****     return HAL_BUSY;
 5139              		.loc 1 2442 0
 5140 0150 0223     		movs	r3, #2
 5141              	.L265:
2443:Drivers/STM32F1xx_HAL_Driver/Src/stm32f1xx_hal_i2c.c ****   }
2444:Drivers/STM32F1xx_HAL_Driver/Src/stm32f1xx_hal_i2c.c **** }
 5142              		.loc 1 2444 0
 5143 0152 1846     		mov	r0, r3
 5144 0154 1837     		adds	r7, r7, #24
 5145              	.LCFI110:
 5146              		.cfi_def_cfa_offset 8
 5147 0156 BD46     		mov	sp, r7
 5148              	.LCFI111:
 5149              		.cfi_def_cfa_register 13
 5150              		@ sp needed
 5151 0158 80BD     		pop	{r7, pc}
 5152              	.L273:
ARM GAS  /var/folders/kh/x4vltyy52lbg7p4pcyglc5080000gp/T//cccbl2Nm.s 			page 135


 5153 015a 00BF     		.align	2
 5154              	.L272:
 5155 015c 02001000 		.word	1048578
 5156 0160 00000000 		.word	I2C_DMAMemReceiveCplt
 5157 0164 00000000 		.word	I2C_DMAError
 5158              		.cfi_endproc
 5159              	.LFE85:
 5161              		.section	.text.HAL_I2C_IsDeviceReady,"ax",%progbits
 5162              		.align	2
 5163              		.global	HAL_I2C_IsDeviceReady
 5164              		.thumb
 5165              		.thumb_func
 5167              	HAL_I2C_IsDeviceReady:
 5168              	.LFB86:
2445:Drivers/STM32F1xx_HAL_Driver/Src/stm32f1xx_hal_i2c.c **** 
2446:Drivers/STM32F1xx_HAL_Driver/Src/stm32f1xx_hal_i2c.c **** 
2447:Drivers/STM32F1xx_HAL_Driver/Src/stm32f1xx_hal_i2c.c **** /**
2448:Drivers/STM32F1xx_HAL_Driver/Src/stm32f1xx_hal_i2c.c ****   * @brief  Checks if target device is ready for communication.
2449:Drivers/STM32F1xx_HAL_Driver/Src/stm32f1xx_hal_i2c.c ****   * @note   This function is used with Memory devices
2450:Drivers/STM32F1xx_HAL_Driver/Src/stm32f1xx_hal_i2c.c ****   * @param  hi2c Pointer to a I2C_HandleTypeDef structure that contains
2451:Drivers/STM32F1xx_HAL_Driver/Src/stm32f1xx_hal_i2c.c ****   *                the configuration information for the specified I2C.
2452:Drivers/STM32F1xx_HAL_Driver/Src/stm32f1xx_hal_i2c.c ****   * @param  DevAddress Target device address
2453:Drivers/STM32F1xx_HAL_Driver/Src/stm32f1xx_hal_i2c.c ****   * @param  Trials Number of trials
2454:Drivers/STM32F1xx_HAL_Driver/Src/stm32f1xx_hal_i2c.c ****   * @param  Timeout Timeout duration
2455:Drivers/STM32F1xx_HAL_Driver/Src/stm32f1xx_hal_i2c.c ****   * @retval HAL status
2456:Drivers/STM32F1xx_HAL_Driver/Src/stm32f1xx_hal_i2c.c ****   */
2457:Drivers/STM32F1xx_HAL_Driver/Src/stm32f1xx_hal_i2c.c **** HAL_StatusTypeDef HAL_I2C_IsDeviceReady(I2C_HandleTypeDef *hi2c, uint16_t DevAddress, uint32_t Tria
2458:Drivers/STM32F1xx_HAL_Driver/Src/stm32f1xx_hal_i2c.c **** {
 5169              		.loc 1 2458 0
 5170              		.cfi_startproc
 5171              		@ args = 0, pretend = 0, frame = 40
 5172              		@ frame_needed = 1, uses_anonymous_args = 0
 5173 0000 80B5     		push	{r7, lr}
 5174              	.LCFI112:
 5175              		.cfi_def_cfa_offset 8
 5176              		.cfi_offset 7, -8
 5177              		.cfi_offset 14, -4
 5178 0002 8AB0     		sub	sp, sp, #40
 5179              	.LCFI113:
 5180              		.cfi_def_cfa_offset 48
 5181 0004 00AF     		add	r7, sp, #0
 5182              	.LCFI114:
 5183              		.cfi_def_cfa_register 7
 5184 0006 F860     		str	r0, [r7, #12]
 5185 0008 7A60     		str	r2, [r7, #4]
 5186 000a 3B60     		str	r3, [r7]
 5187 000c 0B46     		mov	r3, r1	@ movhi
 5188 000e 7B81     		strh	r3, [r7, #10]	@ movhi
2459:Drivers/STM32F1xx_HAL_Driver/Src/stm32f1xx_hal_i2c.c ****   uint32_t tickstart = 0, tmp1 = 0, tmp2 = 0, tmp3 = 0, I2C_Trials = 1;
 5189              		.loc 1 2459 0
 5190 0010 0023     		movs	r3, #0
 5191 0012 7B61     		str	r3, [r7, #20]
 5192 0014 0023     		movs	r3, #0
 5193 0016 7B62     		str	r3, [r7, #36]
 5194 0018 0023     		movs	r3, #0
 5195 001a 3B62     		str	r3, [r7, #32]
 5196 001c 0023     		movs	r3, #0
ARM GAS  /var/folders/kh/x4vltyy52lbg7p4pcyglc5080000gp/T//cccbl2Nm.s 			page 136


 5197 001e FB61     		str	r3, [r7, #28]
 5198 0020 0123     		movs	r3, #1
 5199 0022 BB61     		str	r3, [r7, #24]
2460:Drivers/STM32F1xx_HAL_Driver/Src/stm32f1xx_hal_i2c.c **** 
2461:Drivers/STM32F1xx_HAL_Driver/Src/stm32f1xx_hal_i2c.c ****   if(hi2c->State == HAL_I2C_STATE_READY)
 5200              		.loc 1 2461 0
 5201 0024 FB68     		ldr	r3, [r7, #12]
 5202 0026 93F83530 		ldrb	r3, [r3, #53]
 5203 002a DBB2     		uxtb	r3, r3
 5204 002c 202B     		cmp	r3, #32
 5205 002e 40F0F280 		bne	.L275
2462:Drivers/STM32F1xx_HAL_Driver/Src/stm32f1xx_hal_i2c.c ****   {
2463:Drivers/STM32F1xx_HAL_Driver/Src/stm32f1xx_hal_i2c.c ****     /* Wait until BUSY flag is reset */
2464:Drivers/STM32F1xx_HAL_Driver/Src/stm32f1xx_hal_i2c.c ****     if(I2C_WaitOnFlagUntilTimeout(hi2c, I2C_FLAG_BUSY, SET, I2C_TIMEOUT_BUSY_FLAG) != HAL_OK)
 5206              		.loc 1 2464 0
 5207 0032 42F21073 		movw	r3, #10000
 5208 0036 0122     		movs	r2, #1
 5209 0038 7949     		ldr	r1, .L289
 5210 003a F868     		ldr	r0, [r7, #12]
 5211 003c FFF7FEFF 		bl	I2C_WaitOnFlagUntilTimeout
 5212 0040 0346     		mov	r3, r0
 5213 0042 002B     		cmp	r3, #0
 5214 0044 01D0     		beq	.L276
2465:Drivers/STM32F1xx_HAL_Driver/Src/stm32f1xx_hal_i2c.c ****     {
2466:Drivers/STM32F1xx_HAL_Driver/Src/stm32f1xx_hal_i2c.c ****       return HAL_BUSY;
 5215              		.loc 1 2466 0
 5216 0046 0223     		movs	r3, #2
 5217 0048 E6E0     		b	.L277
 5218              	.L276:
2467:Drivers/STM32F1xx_HAL_Driver/Src/stm32f1xx_hal_i2c.c ****     }
2468:Drivers/STM32F1xx_HAL_Driver/Src/stm32f1xx_hal_i2c.c **** 
2469:Drivers/STM32F1xx_HAL_Driver/Src/stm32f1xx_hal_i2c.c ****     /* Process Locked */
2470:Drivers/STM32F1xx_HAL_Driver/Src/stm32f1xx_hal_i2c.c ****     __HAL_LOCK(hi2c);
 5219              		.loc 1 2470 0
 5220 004a FB68     		ldr	r3, [r7, #12]
 5221 004c 93F83430 		ldrb	r3, [r3, #52]	@ zero_extendqisi2
 5222 0050 012B     		cmp	r3, #1
 5223 0052 01D1     		bne	.L278
 5224              		.loc 1 2470 0 is_stmt 0 discriminator 1
 5225 0054 0223     		movs	r3, #2
 5226 0056 DFE0     		b	.L277
 5227              	.L278:
 5228              		.loc 1 2470 0 discriminator 2
 5229 0058 FB68     		ldr	r3, [r7, #12]
 5230 005a 0122     		movs	r2, #1
 5231 005c 83F83420 		strb	r2, [r3, #52]
2471:Drivers/STM32F1xx_HAL_Driver/Src/stm32f1xx_hal_i2c.c **** 
2472:Drivers/STM32F1xx_HAL_Driver/Src/stm32f1xx_hal_i2c.c ****     /* Disable Pos */
2473:Drivers/STM32F1xx_HAL_Driver/Src/stm32f1xx_hal_i2c.c ****     CLEAR_BIT(hi2c->Instance->CR1, I2C_CR1_POS);
 5232              		.loc 1 2473 0 is_stmt 1 discriminator 2
 5233 0060 FB68     		ldr	r3, [r7, #12]
 5234 0062 1B68     		ldr	r3, [r3]
 5235 0064 FA68     		ldr	r2, [r7, #12]
 5236 0066 1268     		ldr	r2, [r2]
 5237 0068 1268     		ldr	r2, [r2]
 5238 006a 22F40062 		bic	r2, r2, #2048
 5239 006e 1A60     		str	r2, [r3]
ARM GAS  /var/folders/kh/x4vltyy52lbg7p4pcyglc5080000gp/T//cccbl2Nm.s 			page 137


2474:Drivers/STM32F1xx_HAL_Driver/Src/stm32f1xx_hal_i2c.c **** 
2475:Drivers/STM32F1xx_HAL_Driver/Src/stm32f1xx_hal_i2c.c ****     hi2c->State = HAL_I2C_STATE_BUSY;
 5240              		.loc 1 2475 0 discriminator 2
 5241 0070 FB68     		ldr	r3, [r7, #12]
 5242 0072 2422     		movs	r2, #36
 5243 0074 83F83520 		strb	r2, [r3, #53]
2476:Drivers/STM32F1xx_HAL_Driver/Src/stm32f1xx_hal_i2c.c ****     hi2c->ErrorCode = HAL_I2C_ERROR_NONE;
 5244              		.loc 1 2476 0 discriminator 2
 5245 0078 FB68     		ldr	r3, [r7, #12]
 5246 007a 0022     		movs	r2, #0
 5247 007c 9A63     		str	r2, [r3, #56]
 5248              	.L288:
2477:Drivers/STM32F1xx_HAL_Driver/Src/stm32f1xx_hal_i2c.c **** 
2478:Drivers/STM32F1xx_HAL_Driver/Src/stm32f1xx_hal_i2c.c ****     do
2479:Drivers/STM32F1xx_HAL_Driver/Src/stm32f1xx_hal_i2c.c ****     {
2480:Drivers/STM32F1xx_HAL_Driver/Src/stm32f1xx_hal_i2c.c ****       /* Generate Start */
2481:Drivers/STM32F1xx_HAL_Driver/Src/stm32f1xx_hal_i2c.c ****       SET_BIT(hi2c->Instance->CR1, I2C_CR1_START);
 5249              		.loc 1 2481 0
 5250 007e FB68     		ldr	r3, [r7, #12]
 5251 0080 1B68     		ldr	r3, [r3]
 5252 0082 FA68     		ldr	r2, [r7, #12]
 5253 0084 1268     		ldr	r2, [r2]
 5254 0086 1268     		ldr	r2, [r2]
 5255 0088 42F48072 		orr	r2, r2, #256
 5256 008c 1A60     		str	r2, [r3]
2482:Drivers/STM32F1xx_HAL_Driver/Src/stm32f1xx_hal_i2c.c **** 
2483:Drivers/STM32F1xx_HAL_Driver/Src/stm32f1xx_hal_i2c.c ****       /* Wait until SB flag is set */
2484:Drivers/STM32F1xx_HAL_Driver/Src/stm32f1xx_hal_i2c.c ****       if(I2C_WaitOnFlagUntilTimeout(hi2c, I2C_FLAG_SB, RESET, Timeout) != HAL_OK)
 5257              		.loc 1 2484 0
 5258 008e 3B68     		ldr	r3, [r7]
 5259 0090 0022     		movs	r2, #0
 5260 0092 4FF00111 		mov	r1, #65537
 5261 0096 F868     		ldr	r0, [r7, #12]
 5262 0098 FFF7FEFF 		bl	I2C_WaitOnFlagUntilTimeout
 5263 009c 0346     		mov	r3, r0
 5264 009e 002B     		cmp	r3, #0
 5265 00a0 01D0     		beq	.L279
2485:Drivers/STM32F1xx_HAL_Driver/Src/stm32f1xx_hal_i2c.c ****       {
2486:Drivers/STM32F1xx_HAL_Driver/Src/stm32f1xx_hal_i2c.c ****         return HAL_TIMEOUT;
 5266              		.loc 1 2486 0
 5267 00a2 0323     		movs	r3, #3
 5268 00a4 B8E0     		b	.L277
 5269              	.L279:
2487:Drivers/STM32F1xx_HAL_Driver/Src/stm32f1xx_hal_i2c.c ****       }
2488:Drivers/STM32F1xx_HAL_Driver/Src/stm32f1xx_hal_i2c.c **** 
2489:Drivers/STM32F1xx_HAL_Driver/Src/stm32f1xx_hal_i2c.c ****       /* Send slave address */
2490:Drivers/STM32F1xx_HAL_Driver/Src/stm32f1xx_hal_i2c.c ****       hi2c->Instance->DR = I2C_7BIT_ADD_WRITE(DevAddress);
 5270              		.loc 1 2490 0
 5271 00a6 FB68     		ldr	r3, [r7, #12]
 5272 00a8 1B68     		ldr	r3, [r3]
 5273 00aa 7A89     		ldrh	r2, [r7, #10]	@ movhi
 5274 00ac D2B2     		uxtb	r2, r2
 5275 00ae 02F0FE02 		and	r2, r2, #254
 5276 00b2 1A61     		str	r2, [r3, #16]
2491:Drivers/STM32F1xx_HAL_Driver/Src/stm32f1xx_hal_i2c.c ****        
2492:Drivers/STM32F1xx_HAL_Driver/Src/stm32f1xx_hal_i2c.c ****       /* Wait until ADDR or AF flag are set */
2493:Drivers/STM32F1xx_HAL_Driver/Src/stm32f1xx_hal_i2c.c ****       /* Get tick */
ARM GAS  /var/folders/kh/x4vltyy52lbg7p4pcyglc5080000gp/T//cccbl2Nm.s 			page 138


2494:Drivers/STM32F1xx_HAL_Driver/Src/stm32f1xx_hal_i2c.c ****       tickstart = HAL_GetTick();
 5277              		.loc 1 2494 0
 5278 00b4 FFF7FEFF 		bl	HAL_GetTick
 5279 00b8 7861     		str	r0, [r7, #20]
2495:Drivers/STM32F1xx_HAL_Driver/Src/stm32f1xx_hal_i2c.c **** 
2496:Drivers/STM32F1xx_HAL_Driver/Src/stm32f1xx_hal_i2c.c ****       tmp1 = __HAL_I2C_GET_FLAG(hi2c, I2C_FLAG_ADDR);
 5280              		.loc 1 2496 0
 5281 00ba FB68     		ldr	r3, [r7, #12]
 5282 00bc 1B68     		ldr	r3, [r3]
 5283 00be 5B69     		ldr	r3, [r3, #20]
 5284 00c0 03F00203 		and	r3, r3, #2
 5285 00c4 002B     		cmp	r3, #0
 5286 00c6 14BF     		ite	ne
 5287 00c8 0123     		movne	r3, #1
 5288 00ca 0023     		moveq	r3, #0
 5289 00cc DBB2     		uxtb	r3, r3
 5290 00ce 7B62     		str	r3, [r7, #36]
2497:Drivers/STM32F1xx_HAL_Driver/Src/stm32f1xx_hal_i2c.c ****       tmp2 = __HAL_I2C_GET_FLAG(hi2c, I2C_FLAG_AF);
 5291              		.loc 1 2497 0
 5292 00d0 FB68     		ldr	r3, [r7, #12]
 5293 00d2 1B68     		ldr	r3, [r3]
 5294 00d4 5B69     		ldr	r3, [r3, #20]
 5295 00d6 03F48063 		and	r3, r3, #1024
 5296 00da 002B     		cmp	r3, #0
 5297 00dc 14BF     		ite	ne
 5298 00de 0123     		movne	r3, #1
 5299 00e0 0023     		moveq	r3, #0
 5300 00e2 DBB2     		uxtb	r3, r3
 5301 00e4 3B62     		str	r3, [r7, #32]
2498:Drivers/STM32F1xx_HAL_Driver/Src/stm32f1xx_hal_i2c.c ****       tmp3 = hi2c->State;
 5302              		.loc 1 2498 0
 5303 00e6 FB68     		ldr	r3, [r7, #12]
 5304 00e8 93F83530 		ldrb	r3, [r3, #53]
 5305 00ec DBB2     		uxtb	r3, r3
 5306 00ee FB61     		str	r3, [r7, #28]
2499:Drivers/STM32F1xx_HAL_Driver/Src/stm32f1xx_hal_i2c.c ****       while((tmp1 == RESET) && (tmp2 == RESET) && (tmp3 != HAL_I2C_STATE_TIMEOUT))
 5307              		.loc 1 2499 0
 5308 00f0 29E0     		b	.L280
 5309              	.L284:
2500:Drivers/STM32F1xx_HAL_Driver/Src/stm32f1xx_hal_i2c.c ****       {
2501:Drivers/STM32F1xx_HAL_Driver/Src/stm32f1xx_hal_i2c.c ****         if((Timeout == 0)||((HAL_GetTick() - tickstart ) > Timeout))
 5310              		.loc 1 2501 0
 5311 00f2 3B68     		ldr	r3, [r7]
 5312 00f4 002B     		cmp	r3, #0
 5313 00f6 07D0     		beq	.L281
 5314              		.loc 1 2501 0 is_stmt 0 discriminator 1
 5315 00f8 FFF7FEFF 		bl	HAL_GetTick
 5316 00fc 0246     		mov	r2, r0
 5317 00fe 7B69     		ldr	r3, [r7, #20]
 5318 0100 D21A     		subs	r2, r2, r3
 5319 0102 3B68     		ldr	r3, [r7]
 5320 0104 9A42     		cmp	r2, r3
 5321 0106 03D9     		bls	.L282
 5322              	.L281:
2502:Drivers/STM32F1xx_HAL_Driver/Src/stm32f1xx_hal_i2c.c ****         {
2503:Drivers/STM32F1xx_HAL_Driver/Src/stm32f1xx_hal_i2c.c ****           hi2c->State = HAL_I2C_STATE_TIMEOUT;
 5323              		.loc 1 2503 0 is_stmt 1
ARM GAS  /var/folders/kh/x4vltyy52lbg7p4pcyglc5080000gp/T//cccbl2Nm.s 			page 139


 5324 0108 FB68     		ldr	r3, [r7, #12]
 5325 010a A022     		movs	r2, #160
 5326 010c 83F83520 		strb	r2, [r3, #53]
 5327              	.L282:
2504:Drivers/STM32F1xx_HAL_Driver/Src/stm32f1xx_hal_i2c.c ****         }
2505:Drivers/STM32F1xx_HAL_Driver/Src/stm32f1xx_hal_i2c.c ****         tmp1 = __HAL_I2C_GET_FLAG(hi2c, I2C_FLAG_ADDR);
 5328              		.loc 1 2505 0
 5329 0110 FB68     		ldr	r3, [r7, #12]
 5330 0112 1B68     		ldr	r3, [r3]
 5331 0114 5B69     		ldr	r3, [r3, #20]
 5332 0116 03F00203 		and	r3, r3, #2
 5333 011a 002B     		cmp	r3, #0
 5334 011c 14BF     		ite	ne
 5335 011e 0123     		movne	r3, #1
 5336 0120 0023     		moveq	r3, #0
 5337 0122 DBB2     		uxtb	r3, r3
 5338 0124 7B62     		str	r3, [r7, #36]
2506:Drivers/STM32F1xx_HAL_Driver/Src/stm32f1xx_hal_i2c.c ****         tmp2 = __HAL_I2C_GET_FLAG(hi2c, I2C_FLAG_AF);
 5339              		.loc 1 2506 0
 5340 0126 FB68     		ldr	r3, [r7, #12]
 5341 0128 1B68     		ldr	r3, [r3]
 5342 012a 5B69     		ldr	r3, [r3, #20]
 5343 012c 03F48063 		and	r3, r3, #1024
 5344 0130 002B     		cmp	r3, #0
 5345 0132 14BF     		ite	ne
 5346 0134 0123     		movne	r3, #1
 5347 0136 0023     		moveq	r3, #0
 5348 0138 DBB2     		uxtb	r3, r3
 5349 013a 3B62     		str	r3, [r7, #32]
2507:Drivers/STM32F1xx_HAL_Driver/Src/stm32f1xx_hal_i2c.c ****         tmp3 = hi2c->State;
 5350              		.loc 1 2507 0
 5351 013c FB68     		ldr	r3, [r7, #12]
 5352 013e 93F83530 		ldrb	r3, [r3, #53]
 5353 0142 DBB2     		uxtb	r3, r3
 5354 0144 FB61     		str	r3, [r7, #28]
 5355              	.L280:
2499:Drivers/STM32F1xx_HAL_Driver/Src/stm32f1xx_hal_i2c.c ****       {
 5356              		.loc 1 2499 0
 5357 0146 7B6A     		ldr	r3, [r7, #36]
 5358 0148 002B     		cmp	r3, #0
 5359 014a 05D1     		bne	.L283
2499:Drivers/STM32F1xx_HAL_Driver/Src/stm32f1xx_hal_i2c.c ****       {
 5360              		.loc 1 2499 0 is_stmt 0 discriminator 1
 5361 014c 3B6A     		ldr	r3, [r7, #32]
 5362 014e 002B     		cmp	r3, #0
 5363 0150 02D1     		bne	.L283
2499:Drivers/STM32F1xx_HAL_Driver/Src/stm32f1xx_hal_i2c.c ****       {
 5364              		.loc 1 2499 0 discriminator 2
 5365 0152 FB69     		ldr	r3, [r7, #28]
 5366 0154 A02B     		cmp	r3, #160
 5367 0156 CCD1     		bne	.L284
 5368              	.L283:
2508:Drivers/STM32F1xx_HAL_Driver/Src/stm32f1xx_hal_i2c.c ****       }
2509:Drivers/STM32F1xx_HAL_Driver/Src/stm32f1xx_hal_i2c.c **** 
2510:Drivers/STM32F1xx_HAL_Driver/Src/stm32f1xx_hal_i2c.c ****       hi2c->State = HAL_I2C_STATE_READY;
 5369              		.loc 1 2510 0 is_stmt 1
 5370 0158 FB68     		ldr	r3, [r7, #12]
ARM GAS  /var/folders/kh/x4vltyy52lbg7p4pcyglc5080000gp/T//cccbl2Nm.s 			page 140


 5371 015a 2022     		movs	r2, #32
 5372 015c 83F83520 		strb	r2, [r3, #53]
2511:Drivers/STM32F1xx_HAL_Driver/Src/stm32f1xx_hal_i2c.c **** 
2512:Drivers/STM32F1xx_HAL_Driver/Src/stm32f1xx_hal_i2c.c ****       /* Check if the ADDR flag has been set */
2513:Drivers/STM32F1xx_HAL_Driver/Src/stm32f1xx_hal_i2c.c ****       if(__HAL_I2C_GET_FLAG(hi2c, I2C_FLAG_ADDR) == SET)
 5373              		.loc 1 2513 0
 5374 0160 FB68     		ldr	r3, [r7, #12]
 5375 0162 1B68     		ldr	r3, [r3]
 5376 0164 5B69     		ldr	r3, [r3, #20]
 5377 0166 03F00203 		and	r3, r3, #2
 5378 016a 002B     		cmp	r3, #0
 5379 016c 26D0     		beq	.L285
2514:Drivers/STM32F1xx_HAL_Driver/Src/stm32f1xx_hal_i2c.c ****       {
2515:Drivers/STM32F1xx_HAL_Driver/Src/stm32f1xx_hal_i2c.c ****         /* Generate Stop */
2516:Drivers/STM32F1xx_HAL_Driver/Src/stm32f1xx_hal_i2c.c ****         SET_BIT(hi2c->Instance->CR1, I2C_CR1_STOP);
 5380              		.loc 1 2516 0
 5381 016e FB68     		ldr	r3, [r7, #12]
 5382 0170 1B68     		ldr	r3, [r3]
 5383 0172 FA68     		ldr	r2, [r7, #12]
 5384 0174 1268     		ldr	r2, [r2]
 5385 0176 1268     		ldr	r2, [r2]
 5386 0178 42F40072 		orr	r2, r2, #512
 5387 017c 1A60     		str	r2, [r3]
 5388              	.LBB97:
2517:Drivers/STM32F1xx_HAL_Driver/Src/stm32f1xx_hal_i2c.c **** 
2518:Drivers/STM32F1xx_HAL_Driver/Src/stm32f1xx_hal_i2c.c ****         /* Clear ADDR Flag */
2519:Drivers/STM32F1xx_HAL_Driver/Src/stm32f1xx_hal_i2c.c ****         __HAL_I2C_CLEAR_ADDRFLAG(hi2c);
 5389              		.loc 1 2519 0
 5390 017e FB68     		ldr	r3, [r7, #12]
 5391 0180 1B68     		ldr	r3, [r3]
 5392 0182 5B69     		ldr	r3, [r3, #20]
 5393 0184 3B61     		str	r3, [r7, #16]
 5394 0186 FB68     		ldr	r3, [r7, #12]
 5395 0188 1B68     		ldr	r3, [r3]
 5396 018a 9B69     		ldr	r3, [r3, #24]
 5397 018c 3B61     		str	r3, [r7, #16]
 5398 018e 3B69     		ldr	r3, [r7, #16]
 5399              	.LBE97:
2520:Drivers/STM32F1xx_HAL_Driver/Src/stm32f1xx_hal_i2c.c **** 
2521:Drivers/STM32F1xx_HAL_Driver/Src/stm32f1xx_hal_i2c.c ****         /* Wait until BUSY flag is reset */
2522:Drivers/STM32F1xx_HAL_Driver/Src/stm32f1xx_hal_i2c.c ****         if(I2C_WaitOnFlagUntilTimeout(hi2c, I2C_FLAG_BUSY, SET, I2C_TIMEOUT_BUSY_FLAG) != HAL_OK)
 5400              		.loc 1 2522 0
 5401 0190 42F21073 		movw	r3, #10000
 5402 0194 0122     		movs	r2, #1
 5403 0196 2249     		ldr	r1, .L289
 5404 0198 F868     		ldr	r0, [r7, #12]
 5405 019a FFF7FEFF 		bl	I2C_WaitOnFlagUntilTimeout
 5406 019e 0346     		mov	r3, r0
 5407 01a0 002B     		cmp	r3, #0
 5408 01a2 01D0     		beq	.L286
2523:Drivers/STM32F1xx_HAL_Driver/Src/stm32f1xx_hal_i2c.c ****         {
2524:Drivers/STM32F1xx_HAL_Driver/Src/stm32f1xx_hal_i2c.c ****           return HAL_TIMEOUT;
 5409              		.loc 1 2524 0
 5410 01a4 0323     		movs	r3, #3
 5411 01a6 37E0     		b	.L277
 5412              	.L286:
2525:Drivers/STM32F1xx_HAL_Driver/Src/stm32f1xx_hal_i2c.c ****         }
ARM GAS  /var/folders/kh/x4vltyy52lbg7p4pcyglc5080000gp/T//cccbl2Nm.s 			page 141


2526:Drivers/STM32F1xx_HAL_Driver/Src/stm32f1xx_hal_i2c.c **** 
2527:Drivers/STM32F1xx_HAL_Driver/Src/stm32f1xx_hal_i2c.c ****         hi2c->State = HAL_I2C_STATE_READY;
 5413              		.loc 1 2527 0
 5414 01a8 FB68     		ldr	r3, [r7, #12]
 5415 01aa 2022     		movs	r2, #32
 5416 01ac 83F83520 		strb	r2, [r3, #53]
2528:Drivers/STM32F1xx_HAL_Driver/Src/stm32f1xx_hal_i2c.c **** 
2529:Drivers/STM32F1xx_HAL_Driver/Src/stm32f1xx_hal_i2c.c ****         /* Process Unlocked */
2530:Drivers/STM32F1xx_HAL_Driver/Src/stm32f1xx_hal_i2c.c ****         __HAL_UNLOCK(hi2c);
 5417              		.loc 1 2530 0
 5418 01b0 FB68     		ldr	r3, [r7, #12]
 5419 01b2 0022     		movs	r2, #0
 5420 01b4 83F83420 		strb	r2, [r3, #52]
2531:Drivers/STM32F1xx_HAL_Driver/Src/stm32f1xx_hal_i2c.c **** 
2532:Drivers/STM32F1xx_HAL_Driver/Src/stm32f1xx_hal_i2c.c ****         return HAL_OK;
 5421              		.loc 1 2532 0
 5422 01b8 0023     		movs	r3, #0
 5423 01ba 2DE0     		b	.L277
 5424              	.L285:
2533:Drivers/STM32F1xx_HAL_Driver/Src/stm32f1xx_hal_i2c.c ****       }
2534:Drivers/STM32F1xx_HAL_Driver/Src/stm32f1xx_hal_i2c.c ****       else
2535:Drivers/STM32F1xx_HAL_Driver/Src/stm32f1xx_hal_i2c.c ****       {
2536:Drivers/STM32F1xx_HAL_Driver/Src/stm32f1xx_hal_i2c.c ****         /* Generate Stop */
2537:Drivers/STM32F1xx_HAL_Driver/Src/stm32f1xx_hal_i2c.c ****         SET_BIT(hi2c->Instance->CR1, I2C_CR1_STOP);
 5425              		.loc 1 2537 0
 5426 01bc FB68     		ldr	r3, [r7, #12]
 5427 01be 1B68     		ldr	r3, [r3]
 5428 01c0 FA68     		ldr	r2, [r7, #12]
 5429 01c2 1268     		ldr	r2, [r2]
 5430 01c4 1268     		ldr	r2, [r2]
 5431 01c6 42F40072 		orr	r2, r2, #512
 5432 01ca 1A60     		str	r2, [r3]
2538:Drivers/STM32F1xx_HAL_Driver/Src/stm32f1xx_hal_i2c.c **** 
2539:Drivers/STM32F1xx_HAL_Driver/Src/stm32f1xx_hal_i2c.c ****         /* Clear AF Flag */
2540:Drivers/STM32F1xx_HAL_Driver/Src/stm32f1xx_hal_i2c.c ****         __HAL_I2C_CLEAR_FLAG(hi2c, I2C_FLAG_AF);
 5433              		.loc 1 2540 0
 5434 01cc FB68     		ldr	r3, [r7, #12]
 5435 01ce 1B68     		ldr	r3, [r3]
 5436 01d0 FA68     		ldr	r2, [r7, #12]
 5437 01d2 1268     		ldr	r2, [r2]
 5438 01d4 5269     		ldr	r2, [r2, #20]
 5439 01d6 22F48062 		bic	r2, r2, #1024
 5440 01da 5A61     		str	r2, [r3, #20]
2541:Drivers/STM32F1xx_HAL_Driver/Src/stm32f1xx_hal_i2c.c **** 
2542:Drivers/STM32F1xx_HAL_Driver/Src/stm32f1xx_hal_i2c.c ****         /* Wait until BUSY flag is reset */
2543:Drivers/STM32F1xx_HAL_Driver/Src/stm32f1xx_hal_i2c.c ****         if(I2C_WaitOnFlagUntilTimeout(hi2c, I2C_FLAG_BUSY, SET, I2C_TIMEOUT_BUSY_FLAG) != HAL_OK)
 5441              		.loc 1 2543 0
 5442 01dc 42F21073 		movw	r3, #10000
 5443 01e0 0122     		movs	r2, #1
 5444 01e2 0F49     		ldr	r1, .L289
 5445 01e4 F868     		ldr	r0, [r7, #12]
 5446 01e6 FFF7FEFF 		bl	I2C_WaitOnFlagUntilTimeout
 5447 01ea 0346     		mov	r3, r0
 5448 01ec 002B     		cmp	r3, #0
 5449 01ee 01D0     		beq	.L287
2544:Drivers/STM32F1xx_HAL_Driver/Src/stm32f1xx_hal_i2c.c ****         {
2545:Drivers/STM32F1xx_HAL_Driver/Src/stm32f1xx_hal_i2c.c ****           return HAL_TIMEOUT;
ARM GAS  /var/folders/kh/x4vltyy52lbg7p4pcyglc5080000gp/T//cccbl2Nm.s 			page 142


 5450              		.loc 1 2545 0
 5451 01f0 0323     		movs	r3, #3
 5452 01f2 11E0     		b	.L277
 5453              	.L287:
2546:Drivers/STM32F1xx_HAL_Driver/Src/stm32f1xx_hal_i2c.c ****         }
2547:Drivers/STM32F1xx_HAL_Driver/Src/stm32f1xx_hal_i2c.c ****       }
2548:Drivers/STM32F1xx_HAL_Driver/Src/stm32f1xx_hal_i2c.c ****     }while(I2C_Trials++ < Trials);
 5454              		.loc 1 2548 0
 5455 01f4 BB69     		ldr	r3, [r7, #24]
 5456 01f6 5A1C     		adds	r2, r3, #1
 5457 01f8 BA61     		str	r2, [r7, #24]
 5458 01fa 7A68     		ldr	r2, [r7, #4]
 5459 01fc 9342     		cmp	r3, r2
 5460 01fe FFF43EAF 		bcc	.L288
2549:Drivers/STM32F1xx_HAL_Driver/Src/stm32f1xx_hal_i2c.c **** 
2550:Drivers/STM32F1xx_HAL_Driver/Src/stm32f1xx_hal_i2c.c ****     hi2c->State = HAL_I2C_STATE_READY;
 5461              		.loc 1 2550 0
 5462 0202 FB68     		ldr	r3, [r7, #12]
 5463 0204 2022     		movs	r2, #32
 5464 0206 83F83520 		strb	r2, [r3, #53]
2551:Drivers/STM32F1xx_HAL_Driver/Src/stm32f1xx_hal_i2c.c **** 
2552:Drivers/STM32F1xx_HAL_Driver/Src/stm32f1xx_hal_i2c.c ****     /* Process Unlocked */
2553:Drivers/STM32F1xx_HAL_Driver/Src/stm32f1xx_hal_i2c.c ****     __HAL_UNLOCK(hi2c);
 5465              		.loc 1 2553 0
 5466 020a FB68     		ldr	r3, [r7, #12]
 5467 020c 0022     		movs	r2, #0
 5468 020e 83F83420 		strb	r2, [r3, #52]
2554:Drivers/STM32F1xx_HAL_Driver/Src/stm32f1xx_hal_i2c.c **** 
2555:Drivers/STM32F1xx_HAL_Driver/Src/stm32f1xx_hal_i2c.c ****     return HAL_ERROR;
 5469              		.loc 1 2555 0
 5470 0212 0123     		movs	r3, #1
 5471 0214 00E0     		b	.L277
 5472              	.L275:
2556:Drivers/STM32F1xx_HAL_Driver/Src/stm32f1xx_hal_i2c.c ****   }
2557:Drivers/STM32F1xx_HAL_Driver/Src/stm32f1xx_hal_i2c.c ****   else
2558:Drivers/STM32F1xx_HAL_Driver/Src/stm32f1xx_hal_i2c.c ****   {
2559:Drivers/STM32F1xx_HAL_Driver/Src/stm32f1xx_hal_i2c.c ****     return HAL_BUSY;
 5473              		.loc 1 2559 0
 5474 0216 0223     		movs	r3, #2
 5475              	.L277:
2560:Drivers/STM32F1xx_HAL_Driver/Src/stm32f1xx_hal_i2c.c ****   }
2561:Drivers/STM32F1xx_HAL_Driver/Src/stm32f1xx_hal_i2c.c **** }
 5476              		.loc 1 2561 0
 5477 0218 1846     		mov	r0, r3
 5478 021a 2837     		adds	r7, r7, #40
 5479              	.LCFI115:
 5480              		.cfi_def_cfa_offset 8
 5481 021c BD46     		mov	sp, r7
 5482              	.LCFI116:
 5483              		.cfi_def_cfa_register 13
 5484              		@ sp needed
 5485 021e 80BD     		pop	{r7, pc}
 5486              	.L290:
 5487              		.align	2
 5488              	.L289:
 5489 0220 02001000 		.word	1048578
 5490              		.cfi_endproc
ARM GAS  /var/folders/kh/x4vltyy52lbg7p4pcyglc5080000gp/T//cccbl2Nm.s 			page 143


 5491              	.LFE86:
 5493              		.section	.text.HAL_I2C_EV_IRQHandler,"ax",%progbits
 5494              		.align	2
 5495              		.global	HAL_I2C_EV_IRQHandler
 5496              		.thumb
 5497              		.thumb_func
 5499              	HAL_I2C_EV_IRQHandler:
 5500              	.LFB87:
2562:Drivers/STM32F1xx_HAL_Driver/Src/stm32f1xx_hal_i2c.c **** /**
2563:Drivers/STM32F1xx_HAL_Driver/Src/stm32f1xx_hal_i2c.c ****   * @}
2564:Drivers/STM32F1xx_HAL_Driver/Src/stm32f1xx_hal_i2c.c ****   */
2565:Drivers/STM32F1xx_HAL_Driver/Src/stm32f1xx_hal_i2c.c **** 
2566:Drivers/STM32F1xx_HAL_Driver/Src/stm32f1xx_hal_i2c.c **** /** @defgroup I2C_Exported_Functions_Group4 IRQ Handler and Callbacks
2567:Drivers/STM32F1xx_HAL_Driver/Src/stm32f1xx_hal_i2c.c ****  * @{
2568:Drivers/STM32F1xx_HAL_Driver/Src/stm32f1xx_hal_i2c.c ****  */   
2569:Drivers/STM32F1xx_HAL_Driver/Src/stm32f1xx_hal_i2c.c **** 
2570:Drivers/STM32F1xx_HAL_Driver/Src/stm32f1xx_hal_i2c.c **** /**
2571:Drivers/STM32F1xx_HAL_Driver/Src/stm32f1xx_hal_i2c.c ****   * @brief  This function handles I2C event interrupt request.
2572:Drivers/STM32F1xx_HAL_Driver/Src/stm32f1xx_hal_i2c.c ****   * @param  hi2c Pointer to a I2C_HandleTypeDef structure that contains
2573:Drivers/STM32F1xx_HAL_Driver/Src/stm32f1xx_hal_i2c.c ****   *                the configuration information for the specified I2C.
2574:Drivers/STM32F1xx_HAL_Driver/Src/stm32f1xx_hal_i2c.c ****   * @retval None
2575:Drivers/STM32F1xx_HAL_Driver/Src/stm32f1xx_hal_i2c.c ****   */
2576:Drivers/STM32F1xx_HAL_Driver/Src/stm32f1xx_hal_i2c.c **** void HAL_I2C_EV_IRQHandler(I2C_HandleTypeDef *hi2c)
2577:Drivers/STM32F1xx_HAL_Driver/Src/stm32f1xx_hal_i2c.c **** {
 5501              		.loc 1 2577 0
 5502              		.cfi_startproc
 5503              		@ args = 0, pretend = 0, frame = 24
 5504              		@ frame_needed = 1, uses_anonymous_args = 0
 5505 0000 80B5     		push	{r7, lr}
 5506              	.LCFI117:
 5507              		.cfi_def_cfa_offset 8
 5508              		.cfi_offset 7, -8
 5509              		.cfi_offset 14, -4
 5510 0002 86B0     		sub	sp, sp, #24
 5511              	.LCFI118:
 5512              		.cfi_def_cfa_offset 32
 5513 0004 00AF     		add	r7, sp, #0
 5514              	.LCFI119:
 5515              		.cfi_def_cfa_register 7
 5516 0006 7860     		str	r0, [r7, #4]
2578:Drivers/STM32F1xx_HAL_Driver/Src/stm32f1xx_hal_i2c.c ****   uint32_t tmp1 = 0, tmp2 = 0, tmp3 = 0, tmp4 = 0;
 5517              		.loc 1 2578 0
 5518 0008 0023     		movs	r3, #0
 5519 000a 7B61     		str	r3, [r7, #20]
 5520 000c 0023     		movs	r3, #0
 5521 000e 3B61     		str	r3, [r7, #16]
 5522 0010 0023     		movs	r3, #0
 5523 0012 FB60     		str	r3, [r7, #12]
 5524 0014 0023     		movs	r3, #0
 5525 0016 BB60     		str	r3, [r7, #8]
2579:Drivers/STM32F1xx_HAL_Driver/Src/stm32f1xx_hal_i2c.c ****   /* Master or Memory mode selected */
2580:Drivers/STM32F1xx_HAL_Driver/Src/stm32f1xx_hal_i2c.c ****   if((hi2c->Mode == HAL_I2C_MODE_MASTER) || \
 5526              		.loc 1 2580 0
 5527 0018 7B68     		ldr	r3, [r7, #4]
 5528 001a 93F83630 		ldrb	r3, [r3, #54]
 5529 001e DBB2     		uxtb	r3, r3
 5530 0020 102B     		cmp	r3, #16
ARM GAS  /var/folders/kh/x4vltyy52lbg7p4pcyglc5080000gp/T//cccbl2Nm.s 			page 144


 5531 0022 06D0     		beq	.L292
2581:Drivers/STM32F1xx_HAL_Driver/Src/stm32f1xx_hal_i2c.c ****      (hi2c->Mode == HAL_I2C_MODE_MEM))
 5532              		.loc 1 2581 0 discriminator 1
 5533 0024 7B68     		ldr	r3, [r7, #4]
 5534 0026 93F83630 		ldrb	r3, [r3, #54]
 5535 002a DBB2     		uxtb	r3, r3
2580:Drivers/STM32F1xx_HAL_Driver/Src/stm32f1xx_hal_i2c.c ****      (hi2c->Mode == HAL_I2C_MODE_MEM))
 5536              		.loc 1 2580 0 discriminator 1
 5537 002c 402B     		cmp	r3, #64
 5538 002e 40F09280 		bne	.L293
 5539              	.L292:
2582:Drivers/STM32F1xx_HAL_Driver/Src/stm32f1xx_hal_i2c.c ****   {
2583:Drivers/STM32F1xx_HAL_Driver/Src/stm32f1xx_hal_i2c.c ****     /* I2C in mode Transmitter -----------------------------------------------*/
2584:Drivers/STM32F1xx_HAL_Driver/Src/stm32f1xx_hal_i2c.c ****     if(__HAL_I2C_GET_FLAG(hi2c, I2C_FLAG_TRA) == SET)
 5540              		.loc 1 2584 0
 5541 0032 7B68     		ldr	r3, [r7, #4]
 5542 0034 1B68     		ldr	r3, [r3]
 5543 0036 9B69     		ldr	r3, [r3, #24]
 5544 0038 03F00403 		and	r3, r3, #4
 5545 003c 002B     		cmp	r3, #0
 5546 003e 44D0     		beq	.L294
2585:Drivers/STM32F1xx_HAL_Driver/Src/stm32f1xx_hal_i2c.c ****     {
2586:Drivers/STM32F1xx_HAL_Driver/Src/stm32f1xx_hal_i2c.c ****       tmp1 = __HAL_I2C_GET_FLAG(hi2c, I2C_FLAG_TXE);
 5547              		.loc 1 2586 0
 5548 0040 7B68     		ldr	r3, [r7, #4]
 5549 0042 1B68     		ldr	r3, [r3]
 5550 0044 5B69     		ldr	r3, [r3, #20]
 5551 0046 03F08003 		and	r3, r3, #128
 5552 004a 002B     		cmp	r3, #0
 5553 004c 14BF     		ite	ne
 5554 004e 0123     		movne	r3, #1
 5555 0050 0023     		moveq	r3, #0
 5556 0052 DBB2     		uxtb	r3, r3
 5557 0054 7B61     		str	r3, [r7, #20]
2587:Drivers/STM32F1xx_HAL_Driver/Src/stm32f1xx_hal_i2c.c ****       tmp2 = __HAL_I2C_GET_IT_SOURCE(hi2c, I2C_IT_BUF);
 5558              		.loc 1 2587 0
 5559 0056 7B68     		ldr	r3, [r7, #4]
 5560 0058 1B68     		ldr	r3, [r3]
 5561 005a 5B68     		ldr	r3, [r3, #4]
 5562 005c 03F48063 		and	r3, r3, #1024
 5563 0060 002B     		cmp	r3, #0
 5564 0062 14BF     		ite	ne
 5565 0064 0123     		movne	r3, #1
 5566 0066 0023     		moveq	r3, #0
 5567 0068 DBB2     		uxtb	r3, r3
 5568 006a 3B61     		str	r3, [r7, #16]
2588:Drivers/STM32F1xx_HAL_Driver/Src/stm32f1xx_hal_i2c.c ****       tmp3 = __HAL_I2C_GET_FLAG(hi2c, I2C_FLAG_BTF);
 5569              		.loc 1 2588 0
 5570 006c 7B68     		ldr	r3, [r7, #4]
 5571 006e 1B68     		ldr	r3, [r3]
 5572 0070 5B69     		ldr	r3, [r3, #20]
 5573 0072 03F00403 		and	r3, r3, #4
 5574 0076 002B     		cmp	r3, #0
 5575 0078 14BF     		ite	ne
 5576 007a 0123     		movne	r3, #1
 5577 007c 0023     		moveq	r3, #0
 5578 007e DBB2     		uxtb	r3, r3
ARM GAS  /var/folders/kh/x4vltyy52lbg7p4pcyglc5080000gp/T//cccbl2Nm.s 			page 145


 5579 0080 FB60     		str	r3, [r7, #12]
2589:Drivers/STM32F1xx_HAL_Driver/Src/stm32f1xx_hal_i2c.c ****       tmp4 = __HAL_I2C_GET_IT_SOURCE(hi2c, I2C_IT_EVT);
 5580              		.loc 1 2589 0
 5581 0082 7B68     		ldr	r3, [r7, #4]
 5582 0084 1B68     		ldr	r3, [r3]
 5583 0086 5B68     		ldr	r3, [r3, #4]
 5584 0088 03F40073 		and	r3, r3, #512
 5585 008c 002B     		cmp	r3, #0
 5586 008e 14BF     		ite	ne
 5587 0090 0123     		movne	r3, #1
 5588 0092 0023     		moveq	r3, #0
 5589 0094 DBB2     		uxtb	r3, r3
 5590 0096 BB60     		str	r3, [r7, #8]
2590:Drivers/STM32F1xx_HAL_Driver/Src/stm32f1xx_hal_i2c.c ****       /* TXE set and BTF reset -----------------------------------------------*/
2591:Drivers/STM32F1xx_HAL_Driver/Src/stm32f1xx_hal_i2c.c ****       if((tmp1 == SET) && (tmp2 == SET) && (tmp3 == RESET))
 5591              		.loc 1 2591 0
 5592 0098 7B69     		ldr	r3, [r7, #20]
 5593 009a 012B     		cmp	r3, #1
 5594 009c 09D1     		bne	.L295
 5595              		.loc 1 2591 0 is_stmt 0 discriminator 1
 5596 009e 3B69     		ldr	r3, [r7, #16]
 5597 00a0 012B     		cmp	r3, #1
 5598 00a2 06D1     		bne	.L295
 5599              		.loc 1 2591 0 discriminator 2
 5600 00a4 FB68     		ldr	r3, [r7, #12]
 5601 00a6 002B     		cmp	r3, #0
 5602 00a8 03D1     		bne	.L295
2592:Drivers/STM32F1xx_HAL_Driver/Src/stm32f1xx_hal_i2c.c ****       {
2593:Drivers/STM32F1xx_HAL_Driver/Src/stm32f1xx_hal_i2c.c ****         I2C_MasterTransmit_TXE(hi2c);
 5603              		.loc 1 2593 0 is_stmt 1
 5604 00aa 7868     		ldr	r0, [r7, #4]
 5605 00ac FFF7FEFF 		bl	I2C_MasterTransmit_TXE
 5606 00b0 50E0     		b	.L297
 5607              	.L295:
2594:Drivers/STM32F1xx_HAL_Driver/Src/stm32f1xx_hal_i2c.c ****       }
2595:Drivers/STM32F1xx_HAL_Driver/Src/stm32f1xx_hal_i2c.c ****       /* BTF set -------------------------------------------------------------*/
2596:Drivers/STM32F1xx_HAL_Driver/Src/stm32f1xx_hal_i2c.c ****       else if((tmp3 == SET) && (tmp4 == SET))
 5608              		.loc 1 2596 0
 5609 00b2 FB68     		ldr	r3, [r7, #12]
 5610 00b4 012B     		cmp	r3, #1
 5611 00b6 40F01781 		bne	.L306
 5612              		.loc 1 2596 0 is_stmt 0 discriminator 1
 5613 00ba BB68     		ldr	r3, [r7, #8]
 5614 00bc 012B     		cmp	r3, #1
 5615 00be 40F01381 		bne	.L306
2597:Drivers/STM32F1xx_HAL_Driver/Src/stm32f1xx_hal_i2c.c ****       {
2598:Drivers/STM32F1xx_HAL_Driver/Src/stm32f1xx_hal_i2c.c ****         I2C_MasterTransmit_BTF(hi2c);
 5616              		.loc 1 2598 0 is_stmt 1
 5617 00c2 7868     		ldr	r0, [r7, #4]
 5618 00c4 FFF7FEFF 		bl	I2C_MasterTransmit_BTF
2584:Drivers/STM32F1xx_HAL_Driver/Src/stm32f1xx_hal_i2c.c ****     {
 5619              		.loc 1 2584 0
 5620 00c8 0EE1     		b	.L306
 5621              	.L294:
2599:Drivers/STM32F1xx_HAL_Driver/Src/stm32f1xx_hal_i2c.c ****       }
2600:Drivers/STM32F1xx_HAL_Driver/Src/stm32f1xx_hal_i2c.c ****     }
2601:Drivers/STM32F1xx_HAL_Driver/Src/stm32f1xx_hal_i2c.c ****     /* I2C in mode Receiver --------------------------------------------------*/
ARM GAS  /var/folders/kh/x4vltyy52lbg7p4pcyglc5080000gp/T//cccbl2Nm.s 			page 146


2602:Drivers/STM32F1xx_HAL_Driver/Src/stm32f1xx_hal_i2c.c ****     else
2603:Drivers/STM32F1xx_HAL_Driver/Src/stm32f1xx_hal_i2c.c ****     {
2604:Drivers/STM32F1xx_HAL_Driver/Src/stm32f1xx_hal_i2c.c ****       tmp1 = __HAL_I2C_GET_FLAG(hi2c, I2C_FLAG_RXNE);
 5622              		.loc 1 2604 0
 5623 00ca 7B68     		ldr	r3, [r7, #4]
 5624 00cc 1B68     		ldr	r3, [r3]
 5625 00ce 5B69     		ldr	r3, [r3, #20]
 5626 00d0 03F04003 		and	r3, r3, #64
 5627 00d4 002B     		cmp	r3, #0
 5628 00d6 14BF     		ite	ne
 5629 00d8 0123     		movne	r3, #1
 5630 00da 0023     		moveq	r3, #0
 5631 00dc DBB2     		uxtb	r3, r3
 5632 00de 7B61     		str	r3, [r7, #20]
2605:Drivers/STM32F1xx_HAL_Driver/Src/stm32f1xx_hal_i2c.c ****       tmp2 = __HAL_I2C_GET_IT_SOURCE(hi2c, I2C_IT_BUF);
 5633              		.loc 1 2605 0
 5634 00e0 7B68     		ldr	r3, [r7, #4]
 5635 00e2 1B68     		ldr	r3, [r3]
 5636 00e4 5B68     		ldr	r3, [r3, #4]
 5637 00e6 03F48063 		and	r3, r3, #1024
 5638 00ea 002B     		cmp	r3, #0
 5639 00ec 14BF     		ite	ne
 5640 00ee 0123     		movne	r3, #1
 5641 00f0 0023     		moveq	r3, #0
 5642 00f2 DBB2     		uxtb	r3, r3
 5643 00f4 3B61     		str	r3, [r7, #16]
2606:Drivers/STM32F1xx_HAL_Driver/Src/stm32f1xx_hal_i2c.c ****       tmp3 = __HAL_I2C_GET_FLAG(hi2c, I2C_FLAG_BTF);
 5644              		.loc 1 2606 0
 5645 00f6 7B68     		ldr	r3, [r7, #4]
 5646 00f8 1B68     		ldr	r3, [r3]
 5647 00fa 5B69     		ldr	r3, [r3, #20]
 5648 00fc 03F00403 		and	r3, r3, #4
 5649 0100 002B     		cmp	r3, #0
 5650 0102 14BF     		ite	ne
 5651 0104 0123     		movne	r3, #1
 5652 0106 0023     		moveq	r3, #0
 5653 0108 DBB2     		uxtb	r3, r3
 5654 010a FB60     		str	r3, [r7, #12]
2607:Drivers/STM32F1xx_HAL_Driver/Src/stm32f1xx_hal_i2c.c ****       tmp4 = __HAL_I2C_GET_IT_SOURCE(hi2c, I2C_IT_EVT);
 5655              		.loc 1 2607 0
 5656 010c 7B68     		ldr	r3, [r7, #4]
 5657 010e 1B68     		ldr	r3, [r3]
 5658 0110 5B68     		ldr	r3, [r3, #4]
 5659 0112 03F40073 		and	r3, r3, #512
 5660 0116 002B     		cmp	r3, #0
 5661 0118 14BF     		ite	ne
 5662 011a 0123     		movne	r3, #1
 5663 011c 0023     		moveq	r3, #0
 5664 011e DBB2     		uxtb	r3, r3
 5665 0120 BB60     		str	r3, [r7, #8]
2608:Drivers/STM32F1xx_HAL_Driver/Src/stm32f1xx_hal_i2c.c ****       /* RXNE set and BTF reset -----------------------------------------------*/
2609:Drivers/STM32F1xx_HAL_Driver/Src/stm32f1xx_hal_i2c.c ****       if((tmp1 == SET) && (tmp2 == SET) && (tmp3 == RESET))
 5666              		.loc 1 2609 0
 5667 0122 7B69     		ldr	r3, [r7, #20]
 5668 0124 012B     		cmp	r3, #1
 5669 0126 09D1     		bne	.L298
 5670              		.loc 1 2609 0 is_stmt 0 discriminator 1
ARM GAS  /var/folders/kh/x4vltyy52lbg7p4pcyglc5080000gp/T//cccbl2Nm.s 			page 147


 5671 0128 3B69     		ldr	r3, [r7, #16]
 5672 012a 012B     		cmp	r3, #1
 5673 012c 06D1     		bne	.L298
 5674              		.loc 1 2609 0 discriminator 2
 5675 012e FB68     		ldr	r3, [r7, #12]
 5676 0130 002B     		cmp	r3, #0
 5677 0132 03D1     		bne	.L298
2610:Drivers/STM32F1xx_HAL_Driver/Src/stm32f1xx_hal_i2c.c ****       {
2611:Drivers/STM32F1xx_HAL_Driver/Src/stm32f1xx_hal_i2c.c ****         I2C_MasterReceive_RXNE(hi2c);
 5678              		.loc 1 2611 0 is_stmt 1
 5679 0134 7868     		ldr	r0, [r7, #4]
 5680 0136 FFF7FEFF 		bl	I2C_MasterReceive_RXNE
 5681 013a 0BE0     		b	.L297
 5682              	.L298:
2612:Drivers/STM32F1xx_HAL_Driver/Src/stm32f1xx_hal_i2c.c ****       }
2613:Drivers/STM32F1xx_HAL_Driver/Src/stm32f1xx_hal_i2c.c ****       /* BTF set -------------------------------------------------------------*/
2614:Drivers/STM32F1xx_HAL_Driver/Src/stm32f1xx_hal_i2c.c ****       else if((tmp3 == SET) && (tmp4 == SET))
 5683              		.loc 1 2614 0
 5684 013c FB68     		ldr	r3, [r7, #12]
 5685 013e 012B     		cmp	r3, #1
 5686 0140 40F0D280 		bne	.L306
 5687              		.loc 1 2614 0 is_stmt 0 discriminator 1
 5688 0144 BB68     		ldr	r3, [r7, #8]
 5689 0146 012B     		cmp	r3, #1
 5690 0148 40F0CE80 		bne	.L306
2615:Drivers/STM32F1xx_HAL_Driver/Src/stm32f1xx_hal_i2c.c ****       {
2616:Drivers/STM32F1xx_HAL_Driver/Src/stm32f1xx_hal_i2c.c ****         I2C_MasterReceive_BTF(hi2c);
 5691              		.loc 1 2616 0 is_stmt 1
 5692 014c 7868     		ldr	r0, [r7, #4]
 5693 014e FFF7FEFF 		bl	I2C_MasterReceive_BTF
2584:Drivers/STM32F1xx_HAL_Driver/Src/stm32f1xx_hal_i2c.c ****     {
 5694              		.loc 1 2584 0
 5695 0152 C9E0     		b	.L306
 5696              	.L297:
2584:Drivers/STM32F1xx_HAL_Driver/Src/stm32f1xx_hal_i2c.c ****     {
 5697              		.loc 1 2584 0 is_stmt 0 discriminator 1
 5698 0154 C8E0     		b	.L306
 5699              	.L293:
2617:Drivers/STM32F1xx_HAL_Driver/Src/stm32f1xx_hal_i2c.c ****       }
2618:Drivers/STM32F1xx_HAL_Driver/Src/stm32f1xx_hal_i2c.c ****     }
2619:Drivers/STM32F1xx_HAL_Driver/Src/stm32f1xx_hal_i2c.c ****   }
2620:Drivers/STM32F1xx_HAL_Driver/Src/stm32f1xx_hal_i2c.c ****   /* Slave mode selected */
2621:Drivers/STM32F1xx_HAL_Driver/Src/stm32f1xx_hal_i2c.c ****   else
2622:Drivers/STM32F1xx_HAL_Driver/Src/stm32f1xx_hal_i2c.c ****   {
2623:Drivers/STM32F1xx_HAL_Driver/Src/stm32f1xx_hal_i2c.c ****     tmp1 = __HAL_I2C_GET_FLAG(hi2c, I2C_FLAG_ADDR);
 5700              		.loc 1 2623 0 is_stmt 1
 5701 0156 7B68     		ldr	r3, [r7, #4]
 5702 0158 1B68     		ldr	r3, [r3]
 5703 015a 5B69     		ldr	r3, [r3, #20]
 5704 015c 03F00203 		and	r3, r3, #2
 5705 0160 002B     		cmp	r3, #0
 5706 0162 14BF     		ite	ne
 5707 0164 0123     		movne	r3, #1
 5708 0166 0023     		moveq	r3, #0
 5709 0168 DBB2     		uxtb	r3, r3
 5710 016a 7B61     		str	r3, [r7, #20]
2624:Drivers/STM32F1xx_HAL_Driver/Src/stm32f1xx_hal_i2c.c ****     tmp2 = __HAL_I2C_GET_IT_SOURCE(hi2c, (I2C_IT_EVT));
ARM GAS  /var/folders/kh/x4vltyy52lbg7p4pcyglc5080000gp/T//cccbl2Nm.s 			page 148


 5711              		.loc 1 2624 0
 5712 016c 7B68     		ldr	r3, [r7, #4]
 5713 016e 1B68     		ldr	r3, [r3]
 5714 0170 5B68     		ldr	r3, [r3, #4]
 5715 0172 03F40073 		and	r3, r3, #512
 5716 0176 002B     		cmp	r3, #0
 5717 0178 14BF     		ite	ne
 5718 017a 0123     		movne	r3, #1
 5719 017c 0023     		moveq	r3, #0
 5720 017e DBB2     		uxtb	r3, r3
 5721 0180 3B61     		str	r3, [r7, #16]
2625:Drivers/STM32F1xx_HAL_Driver/Src/stm32f1xx_hal_i2c.c ****     tmp3 = __HAL_I2C_GET_FLAG(hi2c, I2C_FLAG_STOPF);
 5722              		.loc 1 2625 0
 5723 0182 7B68     		ldr	r3, [r7, #4]
 5724 0184 1B68     		ldr	r3, [r3]
 5725 0186 5B69     		ldr	r3, [r3, #20]
 5726 0188 03F01003 		and	r3, r3, #16
 5727 018c 002B     		cmp	r3, #0
 5728 018e 14BF     		ite	ne
 5729 0190 0123     		movne	r3, #1
 5730 0192 0023     		moveq	r3, #0
 5731 0194 DBB2     		uxtb	r3, r3
 5732 0196 FB60     		str	r3, [r7, #12]
2626:Drivers/STM32F1xx_HAL_Driver/Src/stm32f1xx_hal_i2c.c ****     tmp4 = __HAL_I2C_GET_FLAG(hi2c, I2C_FLAG_TRA);
 5733              		.loc 1 2626 0
 5734 0198 7B68     		ldr	r3, [r7, #4]
 5735 019a 1B68     		ldr	r3, [r3]
 5736 019c 9B69     		ldr	r3, [r3, #24]
 5737 019e 03F00403 		and	r3, r3, #4
 5738 01a2 002B     		cmp	r3, #0
 5739 01a4 14BF     		ite	ne
 5740 01a6 0123     		movne	r3, #1
 5741 01a8 0023     		moveq	r3, #0
 5742 01aa DBB2     		uxtb	r3, r3
 5743 01ac BB60     		str	r3, [r7, #8]
2627:Drivers/STM32F1xx_HAL_Driver/Src/stm32f1xx_hal_i2c.c ****     /* ADDR set --------------------------------------------------------------*/
2628:Drivers/STM32F1xx_HAL_Driver/Src/stm32f1xx_hal_i2c.c ****     if((tmp1 == SET) && (tmp2 == SET))
 5744              		.loc 1 2628 0
 5745 01ae 7B69     		ldr	r3, [r7, #20]
 5746 01b0 012B     		cmp	r3, #1
 5747 01b2 06D1     		bne	.L300
 5748              		.loc 1 2628 0 is_stmt 0 discriminator 1
 5749 01b4 3B69     		ldr	r3, [r7, #16]
 5750 01b6 012B     		cmp	r3, #1
 5751 01b8 03D1     		bne	.L300
2629:Drivers/STM32F1xx_HAL_Driver/Src/stm32f1xx_hal_i2c.c ****     {
2630:Drivers/STM32F1xx_HAL_Driver/Src/stm32f1xx_hal_i2c.c ****       I2C_Slave_ADDR(hi2c);
 5752              		.loc 1 2630 0 is_stmt 1
 5753 01ba 7868     		ldr	r0, [r7, #4]
 5754 01bc FFF7FEFF 		bl	I2C_Slave_ADDR
 5755 01c0 93E0     		b	.L299
 5756              	.L300:
2631:Drivers/STM32F1xx_HAL_Driver/Src/stm32f1xx_hal_i2c.c ****     }
2632:Drivers/STM32F1xx_HAL_Driver/Src/stm32f1xx_hal_i2c.c ****     /* STOPF set --------------------------------------------------------------*/
2633:Drivers/STM32F1xx_HAL_Driver/Src/stm32f1xx_hal_i2c.c ****     else if((tmp3 == SET) && (tmp2 == SET))
 5757              		.loc 1 2633 0
 5758 01c2 FB68     		ldr	r3, [r7, #12]
ARM GAS  /var/folders/kh/x4vltyy52lbg7p4pcyglc5080000gp/T//cccbl2Nm.s 			page 149


 5759 01c4 012B     		cmp	r3, #1
 5760 01c6 06D1     		bne	.L301
 5761              		.loc 1 2633 0 is_stmt 0 discriminator 1
 5762 01c8 3B69     		ldr	r3, [r7, #16]
 5763 01ca 012B     		cmp	r3, #1
 5764 01cc 03D1     		bne	.L301
2634:Drivers/STM32F1xx_HAL_Driver/Src/stm32f1xx_hal_i2c.c ****     {
2635:Drivers/STM32F1xx_HAL_Driver/Src/stm32f1xx_hal_i2c.c ****       I2C_Slave_STOPF(hi2c);
 5765              		.loc 1 2635 0 is_stmt 1
 5766 01ce 7868     		ldr	r0, [r7, #4]
 5767 01d0 FFF7FEFF 		bl	I2C_Slave_STOPF
 5768 01d4 89E0     		b	.L299
 5769              	.L301:
2636:Drivers/STM32F1xx_HAL_Driver/Src/stm32f1xx_hal_i2c.c ****     }
2637:Drivers/STM32F1xx_HAL_Driver/Src/stm32f1xx_hal_i2c.c ****     /* I2C in mode Transmitter -----------------------------------------------*/
2638:Drivers/STM32F1xx_HAL_Driver/Src/stm32f1xx_hal_i2c.c ****     else if(tmp4 == SET)
 5770              		.loc 1 2638 0
 5771 01d6 BB68     		ldr	r3, [r7, #8]
 5772 01d8 012B     		cmp	r3, #1
 5773 01da 42D1     		bne	.L302
2639:Drivers/STM32F1xx_HAL_Driver/Src/stm32f1xx_hal_i2c.c ****     {
2640:Drivers/STM32F1xx_HAL_Driver/Src/stm32f1xx_hal_i2c.c ****       tmp1 = __HAL_I2C_GET_FLAG(hi2c, I2C_FLAG_TXE);
 5774              		.loc 1 2640 0
 5775 01dc 7B68     		ldr	r3, [r7, #4]
 5776 01de 1B68     		ldr	r3, [r3]
 5777 01e0 5B69     		ldr	r3, [r3, #20]
 5778 01e2 03F08003 		and	r3, r3, #128
 5779 01e6 002B     		cmp	r3, #0
 5780 01e8 14BF     		ite	ne
 5781 01ea 0123     		movne	r3, #1
 5782 01ec 0023     		moveq	r3, #0
 5783 01ee DBB2     		uxtb	r3, r3
 5784 01f0 7B61     		str	r3, [r7, #20]
2641:Drivers/STM32F1xx_HAL_Driver/Src/stm32f1xx_hal_i2c.c ****       tmp2 = __HAL_I2C_GET_IT_SOURCE(hi2c, I2C_IT_BUF);
 5785              		.loc 1 2641 0
 5786 01f2 7B68     		ldr	r3, [r7, #4]
 5787 01f4 1B68     		ldr	r3, [r3]
 5788 01f6 5B68     		ldr	r3, [r3, #4]
 5789 01f8 03F48063 		and	r3, r3, #1024
 5790 01fc 002B     		cmp	r3, #0
 5791 01fe 14BF     		ite	ne
 5792 0200 0123     		movne	r3, #1
 5793 0202 0023     		moveq	r3, #0
 5794 0204 DBB2     		uxtb	r3, r3
 5795 0206 3B61     		str	r3, [r7, #16]
2642:Drivers/STM32F1xx_HAL_Driver/Src/stm32f1xx_hal_i2c.c ****       tmp3 = __HAL_I2C_GET_FLAG(hi2c, I2C_FLAG_BTF);
 5796              		.loc 1 2642 0
 5797 0208 7B68     		ldr	r3, [r7, #4]
 5798 020a 1B68     		ldr	r3, [r3]
 5799 020c 5B69     		ldr	r3, [r3, #20]
 5800 020e 03F00403 		and	r3, r3, #4
 5801 0212 002B     		cmp	r3, #0
 5802 0214 14BF     		ite	ne
 5803 0216 0123     		movne	r3, #1
 5804 0218 0023     		moveq	r3, #0
 5805 021a DBB2     		uxtb	r3, r3
 5806 021c FB60     		str	r3, [r7, #12]
ARM GAS  /var/folders/kh/x4vltyy52lbg7p4pcyglc5080000gp/T//cccbl2Nm.s 			page 150


2643:Drivers/STM32F1xx_HAL_Driver/Src/stm32f1xx_hal_i2c.c ****       tmp4 = __HAL_I2C_GET_IT_SOURCE(hi2c, I2C_IT_EVT);
 5807              		.loc 1 2643 0
 5808 021e 7B68     		ldr	r3, [r7, #4]
 5809 0220 1B68     		ldr	r3, [r3]
 5810 0222 5B68     		ldr	r3, [r3, #4]
 5811 0224 03F40073 		and	r3, r3, #512
 5812 0228 002B     		cmp	r3, #0
 5813 022a 14BF     		ite	ne
 5814 022c 0123     		movne	r3, #1
 5815 022e 0023     		moveq	r3, #0
 5816 0230 DBB2     		uxtb	r3, r3
 5817 0232 BB60     		str	r3, [r7, #8]
2644:Drivers/STM32F1xx_HAL_Driver/Src/stm32f1xx_hal_i2c.c ****       /* TXE set and BTF reset -----------------------------------------------*/
2645:Drivers/STM32F1xx_HAL_Driver/Src/stm32f1xx_hal_i2c.c ****       if((tmp1 == SET) && (tmp2 == SET) && (tmp3 == RESET))
 5818              		.loc 1 2645 0
 5819 0234 7B69     		ldr	r3, [r7, #20]
 5820 0236 012B     		cmp	r3, #1
 5821 0238 09D1     		bne	.L303
 5822              		.loc 1 2645 0 is_stmt 0 discriminator 1
 5823 023a 3B69     		ldr	r3, [r7, #16]
 5824 023c 012B     		cmp	r3, #1
 5825 023e 06D1     		bne	.L303
 5826              		.loc 1 2645 0 discriminator 2
 5827 0240 FB68     		ldr	r3, [r7, #12]
 5828 0242 002B     		cmp	r3, #0
 5829 0244 03D1     		bne	.L303
2646:Drivers/STM32F1xx_HAL_Driver/Src/stm32f1xx_hal_i2c.c ****       {
2647:Drivers/STM32F1xx_HAL_Driver/Src/stm32f1xx_hal_i2c.c ****         I2C_SlaveTransmit_TXE(hi2c);
 5830              		.loc 1 2647 0 is_stmt 1
 5831 0246 7868     		ldr	r0, [r7, #4]
 5832 0248 FFF7FEFF 		bl	I2C_SlaveTransmit_TXE
 5833 024c 4DE0     		b	.L299
 5834              	.L303:
2648:Drivers/STM32F1xx_HAL_Driver/Src/stm32f1xx_hal_i2c.c ****       }
2649:Drivers/STM32F1xx_HAL_Driver/Src/stm32f1xx_hal_i2c.c ****       /* BTF set -------------------------------------------------------------*/
2650:Drivers/STM32F1xx_HAL_Driver/Src/stm32f1xx_hal_i2c.c ****       else if((tmp3 == SET) && (tmp4 == SET))
 5835              		.loc 1 2650 0
 5836 024e FB68     		ldr	r3, [r7, #12]
 5837 0250 012B     		cmp	r3, #1
 5838 0252 4AD1     		bne	.L307
 5839              		.loc 1 2650 0 is_stmt 0 discriminator 1
 5840 0254 BB68     		ldr	r3, [r7, #8]
 5841 0256 012B     		cmp	r3, #1
 5842 0258 47D1     		bne	.L307
2651:Drivers/STM32F1xx_HAL_Driver/Src/stm32f1xx_hal_i2c.c ****       {
2652:Drivers/STM32F1xx_HAL_Driver/Src/stm32f1xx_hal_i2c.c ****         I2C_SlaveTransmit_BTF(hi2c);
 5843              		.loc 1 2652 0 is_stmt 1
 5844 025a 7868     		ldr	r0, [r7, #4]
 5845 025c FFF7FEFF 		bl	I2C_SlaveTransmit_BTF
2653:Drivers/STM32F1xx_HAL_Driver/Src/stm32f1xx_hal_i2c.c ****       }
2654:Drivers/STM32F1xx_HAL_Driver/Src/stm32f1xx_hal_i2c.c ****     }
2655:Drivers/STM32F1xx_HAL_Driver/Src/stm32f1xx_hal_i2c.c ****     /* I2C in mode Receiver --------------------------------------------------*/
2656:Drivers/STM32F1xx_HAL_Driver/Src/stm32f1xx_hal_i2c.c ****     else
2657:Drivers/STM32F1xx_HAL_Driver/Src/stm32f1xx_hal_i2c.c ****     {
2658:Drivers/STM32F1xx_HAL_Driver/Src/stm32f1xx_hal_i2c.c ****       tmp1 = __HAL_I2C_GET_FLAG(hi2c, I2C_FLAG_RXNE);
2659:Drivers/STM32F1xx_HAL_Driver/Src/stm32f1xx_hal_i2c.c ****       tmp2 = __HAL_I2C_GET_IT_SOURCE(hi2c, I2C_IT_BUF);
2660:Drivers/STM32F1xx_HAL_Driver/Src/stm32f1xx_hal_i2c.c ****       tmp3 = __HAL_I2C_GET_FLAG(hi2c, I2C_FLAG_BTF);
ARM GAS  /var/folders/kh/x4vltyy52lbg7p4pcyglc5080000gp/T//cccbl2Nm.s 			page 151


2661:Drivers/STM32F1xx_HAL_Driver/Src/stm32f1xx_hal_i2c.c ****       tmp4 = __HAL_I2C_GET_IT_SOURCE(hi2c, I2C_IT_EVT);
2662:Drivers/STM32F1xx_HAL_Driver/Src/stm32f1xx_hal_i2c.c ****       /* RXNE set and BTF reset ----------------------------------------------*/
2663:Drivers/STM32F1xx_HAL_Driver/Src/stm32f1xx_hal_i2c.c ****       if((tmp1 == SET) && (tmp2 == SET) && (tmp3 == RESET))
2664:Drivers/STM32F1xx_HAL_Driver/Src/stm32f1xx_hal_i2c.c ****       {
2665:Drivers/STM32F1xx_HAL_Driver/Src/stm32f1xx_hal_i2c.c ****         I2C_SlaveReceive_RXNE(hi2c);
2666:Drivers/STM32F1xx_HAL_Driver/Src/stm32f1xx_hal_i2c.c ****       }
2667:Drivers/STM32F1xx_HAL_Driver/Src/stm32f1xx_hal_i2c.c ****       /* BTF set -------------------------------------------------------------*/
2668:Drivers/STM32F1xx_HAL_Driver/Src/stm32f1xx_hal_i2c.c ****       else if((tmp3 == SET) && (tmp4 == SET))
2669:Drivers/STM32F1xx_HAL_Driver/Src/stm32f1xx_hal_i2c.c ****       {
2670:Drivers/STM32F1xx_HAL_Driver/Src/stm32f1xx_hal_i2c.c ****         I2C_SlaveReceive_BTF(hi2c);
2671:Drivers/STM32F1xx_HAL_Driver/Src/stm32f1xx_hal_i2c.c ****       }
2672:Drivers/STM32F1xx_HAL_Driver/Src/stm32f1xx_hal_i2c.c ****     }
2673:Drivers/STM32F1xx_HAL_Driver/Src/stm32f1xx_hal_i2c.c ****   }
2674:Drivers/STM32F1xx_HAL_Driver/Src/stm32f1xx_hal_i2c.c **** }
 5846              		.loc 1 2674 0
 5847 0260 43E0     		b	.L307
 5848              	.L302:
2658:Drivers/STM32F1xx_HAL_Driver/Src/stm32f1xx_hal_i2c.c ****       tmp2 = __HAL_I2C_GET_IT_SOURCE(hi2c, I2C_IT_BUF);
 5849              		.loc 1 2658 0
 5850 0262 7B68     		ldr	r3, [r7, #4]
 5851 0264 1B68     		ldr	r3, [r3]
 5852 0266 5B69     		ldr	r3, [r3, #20]
 5853 0268 03F04003 		and	r3, r3, #64
 5854 026c 002B     		cmp	r3, #0
 5855 026e 14BF     		ite	ne
 5856 0270 0123     		movne	r3, #1
 5857 0272 0023     		moveq	r3, #0
 5858 0274 DBB2     		uxtb	r3, r3
 5859 0276 7B61     		str	r3, [r7, #20]
2659:Drivers/STM32F1xx_HAL_Driver/Src/stm32f1xx_hal_i2c.c ****       tmp3 = __HAL_I2C_GET_FLAG(hi2c, I2C_FLAG_BTF);
 5860              		.loc 1 2659 0
 5861 0278 7B68     		ldr	r3, [r7, #4]
 5862 027a 1B68     		ldr	r3, [r3]
 5863 027c 5B68     		ldr	r3, [r3, #4]
 5864 027e 03F48063 		and	r3, r3, #1024
 5865 0282 002B     		cmp	r3, #0
 5866 0284 14BF     		ite	ne
 5867 0286 0123     		movne	r3, #1
 5868 0288 0023     		moveq	r3, #0
 5869 028a DBB2     		uxtb	r3, r3
 5870 028c 3B61     		str	r3, [r7, #16]
2660:Drivers/STM32F1xx_HAL_Driver/Src/stm32f1xx_hal_i2c.c ****       tmp4 = __HAL_I2C_GET_IT_SOURCE(hi2c, I2C_IT_EVT);
 5871              		.loc 1 2660 0
 5872 028e 7B68     		ldr	r3, [r7, #4]
 5873 0290 1B68     		ldr	r3, [r3]
 5874 0292 5B69     		ldr	r3, [r3, #20]
 5875 0294 03F00403 		and	r3, r3, #4
 5876 0298 002B     		cmp	r3, #0
 5877 029a 14BF     		ite	ne
 5878 029c 0123     		movne	r3, #1
 5879 029e 0023     		moveq	r3, #0
 5880 02a0 DBB2     		uxtb	r3, r3
 5881 02a2 FB60     		str	r3, [r7, #12]
2661:Drivers/STM32F1xx_HAL_Driver/Src/stm32f1xx_hal_i2c.c ****       /* RXNE set and BTF reset ----------------------------------------------*/
 5882              		.loc 1 2661 0
 5883 02a4 7B68     		ldr	r3, [r7, #4]
 5884 02a6 1B68     		ldr	r3, [r3]
ARM GAS  /var/folders/kh/x4vltyy52lbg7p4pcyglc5080000gp/T//cccbl2Nm.s 			page 152


 5885 02a8 5B68     		ldr	r3, [r3, #4]
 5886 02aa 03F40073 		and	r3, r3, #512
 5887 02ae 002B     		cmp	r3, #0
 5888 02b0 14BF     		ite	ne
 5889 02b2 0123     		movne	r3, #1
 5890 02b4 0023     		moveq	r3, #0
 5891 02b6 DBB2     		uxtb	r3, r3
 5892 02b8 BB60     		str	r3, [r7, #8]
2663:Drivers/STM32F1xx_HAL_Driver/Src/stm32f1xx_hal_i2c.c ****       {
 5893              		.loc 1 2663 0
 5894 02ba 7B69     		ldr	r3, [r7, #20]
 5895 02bc 012B     		cmp	r3, #1
 5896 02be 09D1     		bne	.L305
2663:Drivers/STM32F1xx_HAL_Driver/Src/stm32f1xx_hal_i2c.c ****       {
 5897              		.loc 1 2663 0 is_stmt 0 discriminator 1
 5898 02c0 3B69     		ldr	r3, [r7, #16]
 5899 02c2 012B     		cmp	r3, #1
 5900 02c4 06D1     		bne	.L305
2663:Drivers/STM32F1xx_HAL_Driver/Src/stm32f1xx_hal_i2c.c ****       {
 5901              		.loc 1 2663 0 discriminator 2
 5902 02c6 FB68     		ldr	r3, [r7, #12]
 5903 02c8 002B     		cmp	r3, #0
 5904 02ca 03D1     		bne	.L305
2665:Drivers/STM32F1xx_HAL_Driver/Src/stm32f1xx_hal_i2c.c ****       }
 5905              		.loc 1 2665 0 is_stmt 1
 5906 02cc 7868     		ldr	r0, [r7, #4]
 5907 02ce FFF7FEFF 		bl	I2C_SlaveReceive_RXNE
 5908 02d2 0AE0     		b	.L299
 5909              	.L305:
2668:Drivers/STM32F1xx_HAL_Driver/Src/stm32f1xx_hal_i2c.c ****       {
 5910              		.loc 1 2668 0
 5911 02d4 FB68     		ldr	r3, [r7, #12]
 5912 02d6 012B     		cmp	r3, #1
 5913 02d8 07D1     		bne	.L307
2668:Drivers/STM32F1xx_HAL_Driver/Src/stm32f1xx_hal_i2c.c ****       {
 5914              		.loc 1 2668 0 is_stmt 0 discriminator 1
 5915 02da BB68     		ldr	r3, [r7, #8]
 5916 02dc 012B     		cmp	r3, #1
 5917 02de 04D1     		bne	.L307
2670:Drivers/STM32F1xx_HAL_Driver/Src/stm32f1xx_hal_i2c.c ****       }
 5918              		.loc 1 2670 0 is_stmt 1
 5919 02e0 7868     		ldr	r0, [r7, #4]
 5920 02e2 FFF7FEFF 		bl	I2C_SlaveReceive_BTF
 5921              		.loc 1 2674 0
 5922 02e6 00E0     		b	.L307
 5923              	.L306:
2584:Drivers/STM32F1xx_HAL_Driver/Src/stm32f1xx_hal_i2c.c ****     {
 5924              		.loc 1 2584 0
 5925 02e8 00BF     		nop
 5926              	.L299:
 5927              	.L307:
 5928              		.loc 1 2674 0
 5929 02ea 00BF     		nop
 5930 02ec 1837     		adds	r7, r7, #24
 5931              	.LCFI120:
 5932              		.cfi_def_cfa_offset 8
 5933 02ee BD46     		mov	sp, r7
ARM GAS  /var/folders/kh/x4vltyy52lbg7p4pcyglc5080000gp/T//cccbl2Nm.s 			page 153


 5934              	.LCFI121:
 5935              		.cfi_def_cfa_register 13
 5936              		@ sp needed
 5937 02f0 80BD     		pop	{r7, pc}
 5938              		.cfi_endproc
 5939              	.LFE87:
 5941 02f2 00BF     		.section	.text.HAL_I2C_ER_IRQHandler,"ax",%progbits
 5942              		.align	2
 5943              		.global	HAL_I2C_ER_IRQHandler
 5944              		.thumb
 5945              		.thumb_func
 5947              	HAL_I2C_ER_IRQHandler:
 5948              	.LFB88:
2675:Drivers/STM32F1xx_HAL_Driver/Src/stm32f1xx_hal_i2c.c **** 
2676:Drivers/STM32F1xx_HAL_Driver/Src/stm32f1xx_hal_i2c.c **** /**
2677:Drivers/STM32F1xx_HAL_Driver/Src/stm32f1xx_hal_i2c.c ****   * @brief  This function handles I2C error interrupt request.
2678:Drivers/STM32F1xx_HAL_Driver/Src/stm32f1xx_hal_i2c.c ****   * @param  hi2c: pointer to a I2C_HandleTypeDef structure that contains
2679:Drivers/STM32F1xx_HAL_Driver/Src/stm32f1xx_hal_i2c.c ****   *         the configuration information for I2C module
2680:Drivers/STM32F1xx_HAL_Driver/Src/stm32f1xx_hal_i2c.c ****   * @retval HAL status
2681:Drivers/STM32F1xx_HAL_Driver/Src/stm32f1xx_hal_i2c.c ****   */
2682:Drivers/STM32F1xx_HAL_Driver/Src/stm32f1xx_hal_i2c.c **** void HAL_I2C_ER_IRQHandler(I2C_HandleTypeDef *hi2c)
2683:Drivers/STM32F1xx_HAL_Driver/Src/stm32f1xx_hal_i2c.c **** {
 5949              		.loc 1 2683 0
 5950              		.cfi_startproc
 5951              		@ args = 0, pretend = 0, frame = 24
 5952              		@ frame_needed = 1, uses_anonymous_args = 0
 5953 0000 80B5     		push	{r7, lr}
 5954              	.LCFI122:
 5955              		.cfi_def_cfa_offset 8
 5956              		.cfi_offset 7, -8
 5957              		.cfi_offset 14, -4
 5958 0002 86B0     		sub	sp, sp, #24
 5959              	.LCFI123:
 5960              		.cfi_def_cfa_offset 32
 5961 0004 00AF     		add	r7, sp, #0
 5962              	.LCFI124:
 5963              		.cfi_def_cfa_register 7
 5964 0006 7860     		str	r0, [r7, #4]
2684:Drivers/STM32F1xx_HAL_Driver/Src/stm32f1xx_hal_i2c.c ****   uint32_t tmp1 = 0, tmp2 = 0, tmp3 = 0;
 5965              		.loc 1 2684 0
 5966 0008 0023     		movs	r3, #0
 5967 000a 7B61     		str	r3, [r7, #20]
 5968 000c 0023     		movs	r3, #0
 5969 000e 3B61     		str	r3, [r7, #16]
 5970 0010 0023     		movs	r3, #0
 5971 0012 FB60     		str	r3, [r7, #12]
2685:Drivers/STM32F1xx_HAL_Driver/Src/stm32f1xx_hal_i2c.c **** 
2686:Drivers/STM32F1xx_HAL_Driver/Src/stm32f1xx_hal_i2c.c ****   tmp1 = __HAL_I2C_GET_FLAG(hi2c, I2C_FLAG_BERR);
 5972              		.loc 1 2686 0
 5973 0014 7B68     		ldr	r3, [r7, #4]
 5974 0016 1B68     		ldr	r3, [r3]
 5975 0018 5B69     		ldr	r3, [r3, #20]
 5976 001a 03F48073 		and	r3, r3, #256
 5977 001e 002B     		cmp	r3, #0
 5978 0020 14BF     		ite	ne
 5979 0022 0123     		movne	r3, #1
 5980 0024 0023     		moveq	r3, #0
ARM GAS  /var/folders/kh/x4vltyy52lbg7p4pcyglc5080000gp/T//cccbl2Nm.s 			page 154


 5981 0026 DBB2     		uxtb	r3, r3
 5982 0028 7B61     		str	r3, [r7, #20]
2687:Drivers/STM32F1xx_HAL_Driver/Src/stm32f1xx_hal_i2c.c ****   tmp2 = __HAL_I2C_GET_IT_SOURCE(hi2c, I2C_IT_ERR);
 5983              		.loc 1 2687 0
 5984 002a 7B68     		ldr	r3, [r7, #4]
 5985 002c 1B68     		ldr	r3, [r3]
 5986 002e 5B68     		ldr	r3, [r3, #4]
 5987 0030 03F48073 		and	r3, r3, #256
 5988 0034 002B     		cmp	r3, #0
 5989 0036 14BF     		ite	ne
 5990 0038 0123     		movne	r3, #1
 5991 003a 0023     		moveq	r3, #0
 5992 003c DBB2     		uxtb	r3, r3
 5993 003e 3B61     		str	r3, [r7, #16]
2688:Drivers/STM32F1xx_HAL_Driver/Src/stm32f1xx_hal_i2c.c ****   /* I2C Bus error interrupt occurred ----------------------------------------*/
2689:Drivers/STM32F1xx_HAL_Driver/Src/stm32f1xx_hal_i2c.c ****   if((tmp1 == SET) && (tmp2 == SET))
 5994              		.loc 1 2689 0
 5995 0040 7B69     		ldr	r3, [r7, #20]
 5996 0042 012B     		cmp	r3, #1
 5997 0044 18D1     		bne	.L309
 5998              		.loc 1 2689 0 is_stmt 0 discriminator 1
 5999 0046 3B69     		ldr	r3, [r7, #16]
 6000 0048 012B     		cmp	r3, #1
 6001 004a 15D1     		bne	.L309
2690:Drivers/STM32F1xx_HAL_Driver/Src/stm32f1xx_hal_i2c.c ****   {
2691:Drivers/STM32F1xx_HAL_Driver/Src/stm32f1xx_hal_i2c.c ****     hi2c->ErrorCode |= HAL_I2C_ERROR_BERR;
 6002              		.loc 1 2691 0 is_stmt 1
 6003 004c 7B68     		ldr	r3, [r7, #4]
 6004 004e 9B6B     		ldr	r3, [r3, #56]
 6005 0050 43F00102 		orr	r2, r3, #1
 6006 0054 7B68     		ldr	r3, [r7, #4]
 6007 0056 9A63     		str	r2, [r3, #56]
2692:Drivers/STM32F1xx_HAL_Driver/Src/stm32f1xx_hal_i2c.c **** 
2693:Drivers/STM32F1xx_HAL_Driver/Src/stm32f1xx_hal_i2c.c ****     /* Clear BERR flag */
2694:Drivers/STM32F1xx_HAL_Driver/Src/stm32f1xx_hal_i2c.c ****     __HAL_I2C_CLEAR_FLAG(hi2c, I2C_FLAG_BERR);
 6008              		.loc 1 2694 0
 6009 0058 7B68     		ldr	r3, [r7, #4]
 6010 005a 1B68     		ldr	r3, [r3]
 6011 005c 7A68     		ldr	r2, [r7, #4]
 6012 005e 1268     		ldr	r2, [r2]
 6013 0060 5269     		ldr	r2, [r2, #20]
 6014 0062 22F48072 		bic	r2, r2, #256
 6015 0066 5A61     		str	r2, [r3, #20]
2695:Drivers/STM32F1xx_HAL_Driver/Src/stm32f1xx_hal_i2c.c ****     
2696:Drivers/STM32F1xx_HAL_Driver/Src/stm32f1xx_hal_i2c.c ****     /* Workaround: Start cannot be generated after a misplaced Stop */
2697:Drivers/STM32F1xx_HAL_Driver/Src/stm32f1xx_hal_i2c.c ****     SET_BIT(hi2c->Instance->CR1, I2C_CR1_SWRST);
 6016              		.loc 1 2697 0
 6017 0068 7B68     		ldr	r3, [r7, #4]
 6018 006a 1B68     		ldr	r3, [r3]
 6019 006c 7A68     		ldr	r2, [r7, #4]
 6020 006e 1268     		ldr	r2, [r2]
 6021 0070 1268     		ldr	r2, [r2]
 6022 0072 42F40042 		orr	r2, r2, #32768
 6023 0076 1A60     		str	r2, [r3]
 6024              	.L309:
2698:Drivers/STM32F1xx_HAL_Driver/Src/stm32f1xx_hal_i2c.c ****   }
2699:Drivers/STM32F1xx_HAL_Driver/Src/stm32f1xx_hal_i2c.c **** 
ARM GAS  /var/folders/kh/x4vltyy52lbg7p4pcyglc5080000gp/T//cccbl2Nm.s 			page 155


2700:Drivers/STM32F1xx_HAL_Driver/Src/stm32f1xx_hal_i2c.c ****   tmp1 = __HAL_I2C_GET_FLAG(hi2c, I2C_FLAG_ARLO);
 6025              		.loc 1 2700 0
 6026 0078 7B68     		ldr	r3, [r7, #4]
 6027 007a 1B68     		ldr	r3, [r3]
 6028 007c 5B69     		ldr	r3, [r3, #20]
 6029 007e 03F40073 		and	r3, r3, #512
 6030 0082 002B     		cmp	r3, #0
 6031 0084 14BF     		ite	ne
 6032 0086 0123     		movne	r3, #1
 6033 0088 0023     		moveq	r3, #0
 6034 008a DBB2     		uxtb	r3, r3
 6035 008c 7B61     		str	r3, [r7, #20]
2701:Drivers/STM32F1xx_HAL_Driver/Src/stm32f1xx_hal_i2c.c ****   tmp2 = __HAL_I2C_GET_IT_SOURCE(hi2c, I2C_IT_ERR);
 6036              		.loc 1 2701 0
 6037 008e 7B68     		ldr	r3, [r7, #4]
 6038 0090 1B68     		ldr	r3, [r3]
 6039 0092 5B68     		ldr	r3, [r3, #4]
 6040 0094 03F48073 		and	r3, r3, #256
 6041 0098 002B     		cmp	r3, #0
 6042 009a 14BF     		ite	ne
 6043 009c 0123     		movne	r3, #1
 6044 009e 0023     		moveq	r3, #0
 6045 00a0 DBB2     		uxtb	r3, r3
 6046 00a2 3B61     		str	r3, [r7, #16]
2702:Drivers/STM32F1xx_HAL_Driver/Src/stm32f1xx_hal_i2c.c ****   /* I2C Arbitration Loss error interrupt occurred ---------------------------*/
2703:Drivers/STM32F1xx_HAL_Driver/Src/stm32f1xx_hal_i2c.c ****   if((tmp1 == SET) && (tmp2 == SET))
 6047              		.loc 1 2703 0
 6048 00a4 7B69     		ldr	r3, [r7, #20]
 6049 00a6 012B     		cmp	r3, #1
 6050 00a8 10D1     		bne	.L310
 6051              		.loc 1 2703 0 is_stmt 0 discriminator 1
 6052 00aa 3B69     		ldr	r3, [r7, #16]
 6053 00ac 012B     		cmp	r3, #1
 6054 00ae 0DD1     		bne	.L310
2704:Drivers/STM32F1xx_HAL_Driver/Src/stm32f1xx_hal_i2c.c ****   {
2705:Drivers/STM32F1xx_HAL_Driver/Src/stm32f1xx_hal_i2c.c ****     hi2c->ErrorCode |= HAL_I2C_ERROR_ARLO;
 6055              		.loc 1 2705 0 is_stmt 1
 6056 00b0 7B68     		ldr	r3, [r7, #4]
 6057 00b2 9B6B     		ldr	r3, [r3, #56]
 6058 00b4 43F00202 		orr	r2, r3, #2
 6059 00b8 7B68     		ldr	r3, [r7, #4]
 6060 00ba 9A63     		str	r2, [r3, #56]
2706:Drivers/STM32F1xx_HAL_Driver/Src/stm32f1xx_hal_i2c.c **** 
2707:Drivers/STM32F1xx_HAL_Driver/Src/stm32f1xx_hal_i2c.c ****     /* Clear ARLO flag */
2708:Drivers/STM32F1xx_HAL_Driver/Src/stm32f1xx_hal_i2c.c ****     __HAL_I2C_CLEAR_FLAG(hi2c, I2C_FLAG_ARLO);
 6061              		.loc 1 2708 0
 6062 00bc 7B68     		ldr	r3, [r7, #4]
 6063 00be 1B68     		ldr	r3, [r3]
 6064 00c0 7A68     		ldr	r2, [r7, #4]
 6065 00c2 1268     		ldr	r2, [r2]
 6066 00c4 5269     		ldr	r2, [r2, #20]
 6067 00c6 22F40072 		bic	r2, r2, #512
 6068 00ca 5A61     		str	r2, [r3, #20]
 6069              	.L310:
2709:Drivers/STM32F1xx_HAL_Driver/Src/stm32f1xx_hal_i2c.c ****   }
2710:Drivers/STM32F1xx_HAL_Driver/Src/stm32f1xx_hal_i2c.c **** 
2711:Drivers/STM32F1xx_HAL_Driver/Src/stm32f1xx_hal_i2c.c ****   tmp1 = __HAL_I2C_GET_FLAG(hi2c, I2C_FLAG_AF);
ARM GAS  /var/folders/kh/x4vltyy52lbg7p4pcyglc5080000gp/T//cccbl2Nm.s 			page 156


 6070              		.loc 1 2711 0
 6071 00cc 7B68     		ldr	r3, [r7, #4]
 6072 00ce 1B68     		ldr	r3, [r3]
 6073 00d0 5B69     		ldr	r3, [r3, #20]
 6074 00d2 03F48063 		and	r3, r3, #1024
 6075 00d6 002B     		cmp	r3, #0
 6076 00d8 14BF     		ite	ne
 6077 00da 0123     		movne	r3, #1
 6078 00dc 0023     		moveq	r3, #0
 6079 00de DBB2     		uxtb	r3, r3
 6080 00e0 7B61     		str	r3, [r7, #20]
2712:Drivers/STM32F1xx_HAL_Driver/Src/stm32f1xx_hal_i2c.c ****   tmp2 = __HAL_I2C_GET_IT_SOURCE(hi2c, I2C_IT_ERR);
 6081              		.loc 1 2712 0
 6082 00e2 7B68     		ldr	r3, [r7, #4]
 6083 00e4 1B68     		ldr	r3, [r3]
 6084 00e6 5B68     		ldr	r3, [r3, #4]
 6085 00e8 03F48073 		and	r3, r3, #256
 6086 00ec 002B     		cmp	r3, #0
 6087 00ee 14BF     		ite	ne
 6088 00f0 0123     		movne	r3, #1
 6089 00f2 0023     		moveq	r3, #0
 6090 00f4 DBB2     		uxtb	r3, r3
 6091 00f6 3B61     		str	r3, [r7, #16]
2713:Drivers/STM32F1xx_HAL_Driver/Src/stm32f1xx_hal_i2c.c ****   /* I2C Acknowledge failure error interrupt occurred ------------------------*/
2714:Drivers/STM32F1xx_HAL_Driver/Src/stm32f1xx_hal_i2c.c ****   if((tmp1 == SET) && (tmp2 == SET))
 6092              		.loc 1 2714 0
 6093 00f8 7B69     		ldr	r3, [r7, #20]
 6094 00fa 012B     		cmp	r3, #1
 6095 00fc 33D1     		bne	.L311
 6096              		.loc 1 2714 0 is_stmt 0 discriminator 1
 6097 00fe 3B69     		ldr	r3, [r7, #16]
 6098 0100 012B     		cmp	r3, #1
 6099 0102 30D1     		bne	.L311
2715:Drivers/STM32F1xx_HAL_Driver/Src/stm32f1xx_hal_i2c.c ****   {
2716:Drivers/STM32F1xx_HAL_Driver/Src/stm32f1xx_hal_i2c.c ****     tmp1 = hi2c->Mode;
 6100              		.loc 1 2716 0 is_stmt 1
 6101 0104 7B68     		ldr	r3, [r7, #4]
 6102 0106 93F83630 		ldrb	r3, [r3, #54]
 6103 010a DBB2     		uxtb	r3, r3
 6104 010c 7B61     		str	r3, [r7, #20]
2717:Drivers/STM32F1xx_HAL_Driver/Src/stm32f1xx_hal_i2c.c ****     tmp2 = hi2c->XferCount;
 6105              		.loc 1 2717 0
 6106 010e 7B68     		ldr	r3, [r7, #4]
 6107 0110 5B8D     		ldrh	r3, [r3, #42]	@ movhi
 6108 0112 9BB2     		uxth	r3, r3
 6109 0114 3B61     		str	r3, [r7, #16]
2718:Drivers/STM32F1xx_HAL_Driver/Src/stm32f1xx_hal_i2c.c ****     tmp3 = hi2c->State;
 6110              		.loc 1 2718 0
 6111 0116 7B68     		ldr	r3, [r7, #4]
 6112 0118 93F83530 		ldrb	r3, [r3, #53]
 6113 011c DBB2     		uxtb	r3, r3
 6114 011e FB60     		str	r3, [r7, #12]
2719:Drivers/STM32F1xx_HAL_Driver/Src/stm32f1xx_hal_i2c.c ****     if((tmp1 == HAL_I2C_MODE_SLAVE) && (tmp2 == 0) && \
 6115              		.loc 1 2719 0
 6116 0120 7B69     		ldr	r3, [r7, #20]
 6117 0122 202B     		cmp	r3, #32
 6118 0124 09D1     		bne	.L312
ARM GAS  /var/folders/kh/x4vltyy52lbg7p4pcyglc5080000gp/T//cccbl2Nm.s 			page 157


 6119              		.loc 1 2719 0 is_stmt 0 discriminator 1
 6120 0126 3B69     		ldr	r3, [r7, #16]
 6121 0128 002B     		cmp	r3, #0
 6122 012a 06D1     		bne	.L312
 6123              		.loc 1 2719 0 discriminator 2
 6124 012c FB68     		ldr	r3, [r7, #12]
 6125 012e 212B     		cmp	r3, #33
 6126 0130 03D1     		bne	.L312
2720:Drivers/STM32F1xx_HAL_Driver/Src/stm32f1xx_hal_i2c.c ****        (tmp3 == HAL_I2C_STATE_BUSY_TX))
2721:Drivers/STM32F1xx_HAL_Driver/Src/stm32f1xx_hal_i2c.c ****     {
2722:Drivers/STM32F1xx_HAL_Driver/Src/stm32f1xx_hal_i2c.c ****       I2C_Slave_AF(hi2c);
 6127              		.loc 1 2722 0 is_stmt 1
 6128 0132 7868     		ldr	r0, [r7, #4]
 6129 0134 FFF7FEFF 		bl	I2C_Slave_AF
 6130 0138 15E0     		b	.L311
 6131              	.L312:
2723:Drivers/STM32F1xx_HAL_Driver/Src/stm32f1xx_hal_i2c.c ****     }
2724:Drivers/STM32F1xx_HAL_Driver/Src/stm32f1xx_hal_i2c.c ****     else
2725:Drivers/STM32F1xx_HAL_Driver/Src/stm32f1xx_hal_i2c.c ****     {
2726:Drivers/STM32F1xx_HAL_Driver/Src/stm32f1xx_hal_i2c.c ****       hi2c->ErrorCode |= HAL_I2C_ERROR_AF;
 6132              		.loc 1 2726 0
 6133 013a 7B68     		ldr	r3, [r7, #4]
 6134 013c 9B6B     		ldr	r3, [r3, #56]
 6135 013e 43F00402 		orr	r2, r3, #4
 6136 0142 7B68     		ldr	r3, [r7, #4]
 6137 0144 9A63     		str	r2, [r3, #56]
2727:Drivers/STM32F1xx_HAL_Driver/Src/stm32f1xx_hal_i2c.c ****   
2728:Drivers/STM32F1xx_HAL_Driver/Src/stm32f1xx_hal_i2c.c ****       /* Generate Stop */
2729:Drivers/STM32F1xx_HAL_Driver/Src/stm32f1xx_hal_i2c.c ****       SET_BIT(hi2c->Instance->CR1,I2C_CR1_STOP);
 6138              		.loc 1 2729 0
 6139 0146 7B68     		ldr	r3, [r7, #4]
 6140 0148 1B68     		ldr	r3, [r3]
 6141 014a 7A68     		ldr	r2, [r7, #4]
 6142 014c 1268     		ldr	r2, [r2]
 6143 014e 1268     		ldr	r2, [r2]
 6144 0150 42F40072 		orr	r2, r2, #512
 6145 0154 1A60     		str	r2, [r3]
2730:Drivers/STM32F1xx_HAL_Driver/Src/stm32f1xx_hal_i2c.c ****   
2731:Drivers/STM32F1xx_HAL_Driver/Src/stm32f1xx_hal_i2c.c ****       /* Clear AF flag */
2732:Drivers/STM32F1xx_HAL_Driver/Src/stm32f1xx_hal_i2c.c ****       __HAL_I2C_CLEAR_FLAG(hi2c, I2C_FLAG_AF);
 6146              		.loc 1 2732 0
 6147 0156 7B68     		ldr	r3, [r7, #4]
 6148 0158 1B68     		ldr	r3, [r3]
 6149 015a 7A68     		ldr	r2, [r7, #4]
 6150 015c 1268     		ldr	r2, [r2]
 6151 015e 5269     		ldr	r2, [r2, #20]
 6152 0160 22F48062 		bic	r2, r2, #1024
 6153 0164 5A61     		str	r2, [r3, #20]
 6154              	.L311:
2733:Drivers/STM32F1xx_HAL_Driver/Src/stm32f1xx_hal_i2c.c ****     }
2734:Drivers/STM32F1xx_HAL_Driver/Src/stm32f1xx_hal_i2c.c ****   }
2735:Drivers/STM32F1xx_HAL_Driver/Src/stm32f1xx_hal_i2c.c **** 
2736:Drivers/STM32F1xx_HAL_Driver/Src/stm32f1xx_hal_i2c.c ****   tmp1 = __HAL_I2C_GET_FLAG(hi2c, I2C_FLAG_OVR);
 6155              		.loc 1 2736 0
 6156 0166 7B68     		ldr	r3, [r7, #4]
 6157 0168 1B68     		ldr	r3, [r3]
 6158 016a 5B69     		ldr	r3, [r3, #20]
ARM GAS  /var/folders/kh/x4vltyy52lbg7p4pcyglc5080000gp/T//cccbl2Nm.s 			page 158


 6159 016c 03F40063 		and	r3, r3, #2048
 6160 0170 002B     		cmp	r3, #0
 6161 0172 14BF     		ite	ne
 6162 0174 0123     		movne	r3, #1
 6163 0176 0023     		moveq	r3, #0
 6164 0178 DBB2     		uxtb	r3, r3
 6165 017a 7B61     		str	r3, [r7, #20]
2737:Drivers/STM32F1xx_HAL_Driver/Src/stm32f1xx_hal_i2c.c ****   tmp2 = __HAL_I2C_GET_IT_SOURCE(hi2c, I2C_IT_ERR);
 6166              		.loc 1 2737 0
 6167 017c 7B68     		ldr	r3, [r7, #4]
 6168 017e 1B68     		ldr	r3, [r3]
 6169 0180 5B68     		ldr	r3, [r3, #4]
 6170 0182 03F48073 		and	r3, r3, #256
 6171 0186 002B     		cmp	r3, #0
 6172 0188 14BF     		ite	ne
 6173 018a 0123     		movne	r3, #1
 6174 018c 0023     		moveq	r3, #0
 6175 018e DBB2     		uxtb	r3, r3
 6176 0190 3B61     		str	r3, [r7, #16]
2738:Drivers/STM32F1xx_HAL_Driver/Src/stm32f1xx_hal_i2c.c ****   /* I2C Over-Run/Under-Run interrupt occurred -------------------------------*/
2739:Drivers/STM32F1xx_HAL_Driver/Src/stm32f1xx_hal_i2c.c ****   if((tmp1 == SET) && (tmp2 == SET))
 6177              		.loc 1 2739 0
 6178 0192 7B69     		ldr	r3, [r7, #20]
 6179 0194 012B     		cmp	r3, #1
 6180 0196 10D1     		bne	.L313
 6181              		.loc 1 2739 0 is_stmt 0 discriminator 1
 6182 0198 3B69     		ldr	r3, [r7, #16]
 6183 019a 012B     		cmp	r3, #1
 6184 019c 0DD1     		bne	.L313
2740:Drivers/STM32F1xx_HAL_Driver/Src/stm32f1xx_hal_i2c.c ****   {
2741:Drivers/STM32F1xx_HAL_Driver/Src/stm32f1xx_hal_i2c.c ****     hi2c->ErrorCode |= HAL_I2C_ERROR_OVR;
 6185              		.loc 1 2741 0 is_stmt 1
 6186 019e 7B68     		ldr	r3, [r7, #4]
 6187 01a0 9B6B     		ldr	r3, [r3, #56]
 6188 01a2 43F00802 		orr	r2, r3, #8
 6189 01a6 7B68     		ldr	r3, [r7, #4]
 6190 01a8 9A63     		str	r2, [r3, #56]
2742:Drivers/STM32F1xx_HAL_Driver/Src/stm32f1xx_hal_i2c.c ****     /* Clear OVR flag */
2743:Drivers/STM32F1xx_HAL_Driver/Src/stm32f1xx_hal_i2c.c ****     __HAL_I2C_CLEAR_FLAG(hi2c, I2C_FLAG_OVR);
 6191              		.loc 1 2743 0
 6192 01aa 7B68     		ldr	r3, [r7, #4]
 6193 01ac 1B68     		ldr	r3, [r3]
 6194 01ae 7A68     		ldr	r2, [r7, #4]
 6195 01b0 1268     		ldr	r2, [r2]
 6196 01b2 5269     		ldr	r2, [r2, #20]
 6197 01b4 22F40062 		bic	r2, r2, #2048
 6198 01b8 5A61     		str	r2, [r3, #20]
 6199              	.L313:
2744:Drivers/STM32F1xx_HAL_Driver/Src/stm32f1xx_hal_i2c.c ****   }
2745:Drivers/STM32F1xx_HAL_Driver/Src/stm32f1xx_hal_i2c.c **** 
2746:Drivers/STM32F1xx_HAL_Driver/Src/stm32f1xx_hal_i2c.c ****   if(hi2c->ErrorCode != HAL_I2C_ERROR_NONE)
 6200              		.loc 1 2746 0
 6201 01ba 7B68     		ldr	r3, [r7, #4]
 6202 01bc 9B6B     		ldr	r3, [r3, #56]
 6203 01be 002B     		cmp	r3, #0
 6204 01c0 0ED0     		beq	.L315
2747:Drivers/STM32F1xx_HAL_Driver/Src/stm32f1xx_hal_i2c.c ****   {
ARM GAS  /var/folders/kh/x4vltyy52lbg7p4pcyglc5080000gp/T//cccbl2Nm.s 			page 159


2748:Drivers/STM32F1xx_HAL_Driver/Src/stm32f1xx_hal_i2c.c ****     hi2c->State = HAL_I2C_STATE_READY;
 6205              		.loc 1 2748 0
 6206 01c2 7B68     		ldr	r3, [r7, #4]
 6207 01c4 2022     		movs	r2, #32
 6208 01c6 83F83520 		strb	r2, [r3, #53]
2749:Drivers/STM32F1xx_HAL_Driver/Src/stm32f1xx_hal_i2c.c ****     
2750:Drivers/STM32F1xx_HAL_Driver/Src/stm32f1xx_hal_i2c.c ****     /* Disable Pos bit in I2C CR1 when error occured in Master/Mem Receive IT Process */
2751:Drivers/STM32F1xx_HAL_Driver/Src/stm32f1xx_hal_i2c.c ****     CLEAR_BIT(hi2c->Instance->CR1, I2C_CR1_POS);
 6209              		.loc 1 2751 0
 6210 01ca 7B68     		ldr	r3, [r7, #4]
 6211 01cc 1B68     		ldr	r3, [r3]
 6212 01ce 7A68     		ldr	r2, [r7, #4]
 6213 01d0 1268     		ldr	r2, [r2]
 6214 01d2 1268     		ldr	r2, [r2]
 6215 01d4 22F40062 		bic	r2, r2, #2048
 6216 01d8 1A60     		str	r2, [r3]
2752:Drivers/STM32F1xx_HAL_Driver/Src/stm32f1xx_hal_i2c.c ****     
2753:Drivers/STM32F1xx_HAL_Driver/Src/stm32f1xx_hal_i2c.c ****     HAL_I2C_ErrorCallback(hi2c);
 6217              		.loc 1 2753 0
 6218 01da 7868     		ldr	r0, [r7, #4]
 6219 01dc FFF7FEFF 		bl	HAL_I2C_ErrorCallback
 6220              	.L315:
2754:Drivers/STM32F1xx_HAL_Driver/Src/stm32f1xx_hal_i2c.c ****   }
2755:Drivers/STM32F1xx_HAL_Driver/Src/stm32f1xx_hal_i2c.c **** }
 6221              		.loc 1 2755 0
 6222 01e0 00BF     		nop
 6223 01e2 1837     		adds	r7, r7, #24
 6224              	.LCFI125:
 6225              		.cfi_def_cfa_offset 8
 6226 01e4 BD46     		mov	sp, r7
 6227              	.LCFI126:
 6228              		.cfi_def_cfa_register 13
 6229              		@ sp needed
 6230 01e6 80BD     		pop	{r7, pc}
 6231              		.cfi_endproc
 6232              	.LFE88:
 6234              		.section	.text.HAL_I2C_MasterTxCpltCallback,"ax",%progbits
 6235              		.align	2
 6236              		.weak	HAL_I2C_MasterTxCpltCallback
 6237              		.thumb
 6238              		.thumb_func
 6240              	HAL_I2C_MasterTxCpltCallback:
 6241              	.LFB89:
2756:Drivers/STM32F1xx_HAL_Driver/Src/stm32f1xx_hal_i2c.c **** 
2757:Drivers/STM32F1xx_HAL_Driver/Src/stm32f1xx_hal_i2c.c **** /**
2758:Drivers/STM32F1xx_HAL_Driver/Src/stm32f1xx_hal_i2c.c ****   * @brief  Master Tx Transfer completed callback.
2759:Drivers/STM32F1xx_HAL_Driver/Src/stm32f1xx_hal_i2c.c ****   * @param  hi2c Pointer to a I2C_HandleTypeDef structure that contains
2760:Drivers/STM32F1xx_HAL_Driver/Src/stm32f1xx_hal_i2c.c ****   *                the configuration information for the specified I2C.
2761:Drivers/STM32F1xx_HAL_Driver/Src/stm32f1xx_hal_i2c.c ****   * @retval None
2762:Drivers/STM32F1xx_HAL_Driver/Src/stm32f1xx_hal_i2c.c ****   */
2763:Drivers/STM32F1xx_HAL_Driver/Src/stm32f1xx_hal_i2c.c ****  __weak void HAL_I2C_MasterTxCpltCallback(I2C_HandleTypeDef *hi2c)
2764:Drivers/STM32F1xx_HAL_Driver/Src/stm32f1xx_hal_i2c.c **** {
 6242              		.loc 1 2764 0
 6243              		.cfi_startproc
 6244              		@ args = 0, pretend = 0, frame = 8
 6245              		@ frame_needed = 1, uses_anonymous_args = 0
 6246              		@ link register save eliminated.
ARM GAS  /var/folders/kh/x4vltyy52lbg7p4pcyglc5080000gp/T//cccbl2Nm.s 			page 160


 6247 0000 80B4     		push	{r7}
 6248              	.LCFI127:
 6249              		.cfi_def_cfa_offset 4
 6250              		.cfi_offset 7, -4
 6251 0002 83B0     		sub	sp, sp, #12
 6252              	.LCFI128:
 6253              		.cfi_def_cfa_offset 16
 6254 0004 00AF     		add	r7, sp, #0
 6255              	.LCFI129:
 6256              		.cfi_def_cfa_register 7
 6257 0006 7860     		str	r0, [r7, #4]
2765:Drivers/STM32F1xx_HAL_Driver/Src/stm32f1xx_hal_i2c.c ****   /* Prevent unused argument(s) compilation warning */
2766:Drivers/STM32F1xx_HAL_Driver/Src/stm32f1xx_hal_i2c.c ****   UNUSED(hi2c);
2767:Drivers/STM32F1xx_HAL_Driver/Src/stm32f1xx_hal_i2c.c ****   /* NOTE : This function should not be modified, when the callback is needed,
2768:Drivers/STM32F1xx_HAL_Driver/Src/stm32f1xx_hal_i2c.c ****             the HAL_I2C_TxCpltCallback could be implemented in the user file
2769:Drivers/STM32F1xx_HAL_Driver/Src/stm32f1xx_hal_i2c.c ****    */
2770:Drivers/STM32F1xx_HAL_Driver/Src/stm32f1xx_hal_i2c.c **** }
 6258              		.loc 1 2770 0
 6259 0008 00BF     		nop
 6260 000a 0C37     		adds	r7, r7, #12
 6261              	.LCFI130:
 6262              		.cfi_def_cfa_offset 4
 6263 000c BD46     		mov	sp, r7
 6264              	.LCFI131:
 6265              		.cfi_def_cfa_register 13
 6266              		@ sp needed
 6267 000e 80BC     		pop	{r7}
 6268              	.LCFI132:
 6269              		.cfi_restore 7
 6270              		.cfi_def_cfa_offset 0
 6271 0010 7047     		bx	lr
 6272              		.cfi_endproc
 6273              	.LFE89:
 6275 0012 00BF     		.section	.text.HAL_I2C_MasterRxCpltCallback,"ax",%progbits
 6276              		.align	2
 6277              		.weak	HAL_I2C_MasterRxCpltCallback
 6278              		.thumb
 6279              		.thumb_func
 6281              	HAL_I2C_MasterRxCpltCallback:
 6282              	.LFB90:
2771:Drivers/STM32F1xx_HAL_Driver/Src/stm32f1xx_hal_i2c.c **** 
2772:Drivers/STM32F1xx_HAL_Driver/Src/stm32f1xx_hal_i2c.c **** /**
2773:Drivers/STM32F1xx_HAL_Driver/Src/stm32f1xx_hal_i2c.c ****   * @brief  Master Rx Transfer completed callback.
2774:Drivers/STM32F1xx_HAL_Driver/Src/stm32f1xx_hal_i2c.c ****   * @param  hi2c Pointer to a I2C_HandleTypeDef structure that contains
2775:Drivers/STM32F1xx_HAL_Driver/Src/stm32f1xx_hal_i2c.c ****   *                the configuration information for the specified I2C.
2776:Drivers/STM32F1xx_HAL_Driver/Src/stm32f1xx_hal_i2c.c ****   * @retval None
2777:Drivers/STM32F1xx_HAL_Driver/Src/stm32f1xx_hal_i2c.c ****   */
2778:Drivers/STM32F1xx_HAL_Driver/Src/stm32f1xx_hal_i2c.c **** __weak void HAL_I2C_MasterRxCpltCallback(I2C_HandleTypeDef *hi2c)
2779:Drivers/STM32F1xx_HAL_Driver/Src/stm32f1xx_hal_i2c.c **** {
 6283              		.loc 1 2779 0
 6284              		.cfi_startproc
 6285              		@ args = 0, pretend = 0, frame = 8
 6286              		@ frame_needed = 1, uses_anonymous_args = 0
 6287              		@ link register save eliminated.
 6288 0000 80B4     		push	{r7}
 6289              	.LCFI133:
 6290              		.cfi_def_cfa_offset 4
ARM GAS  /var/folders/kh/x4vltyy52lbg7p4pcyglc5080000gp/T//cccbl2Nm.s 			page 161


 6291              		.cfi_offset 7, -4
 6292 0002 83B0     		sub	sp, sp, #12
 6293              	.LCFI134:
 6294              		.cfi_def_cfa_offset 16
 6295 0004 00AF     		add	r7, sp, #0
 6296              	.LCFI135:
 6297              		.cfi_def_cfa_register 7
 6298 0006 7860     		str	r0, [r7, #4]
2780:Drivers/STM32F1xx_HAL_Driver/Src/stm32f1xx_hal_i2c.c ****   /* Prevent unused argument(s) compilation warning */
2781:Drivers/STM32F1xx_HAL_Driver/Src/stm32f1xx_hal_i2c.c ****   UNUSED(hi2c);
2782:Drivers/STM32F1xx_HAL_Driver/Src/stm32f1xx_hal_i2c.c ****   /* NOTE : This function should not be modified, when the callback is needed,
2783:Drivers/STM32F1xx_HAL_Driver/Src/stm32f1xx_hal_i2c.c ****             the HAL_I2C_TxCpltCallback could be implemented in the user file
2784:Drivers/STM32F1xx_HAL_Driver/Src/stm32f1xx_hal_i2c.c ****    */
2785:Drivers/STM32F1xx_HAL_Driver/Src/stm32f1xx_hal_i2c.c **** }
 6299              		.loc 1 2785 0
 6300 0008 00BF     		nop
 6301 000a 0C37     		adds	r7, r7, #12
 6302              	.LCFI136:
 6303              		.cfi_def_cfa_offset 4
 6304 000c BD46     		mov	sp, r7
 6305              	.LCFI137:
 6306              		.cfi_def_cfa_register 13
 6307              		@ sp needed
 6308 000e 80BC     		pop	{r7}
 6309              	.LCFI138:
 6310              		.cfi_restore 7
 6311              		.cfi_def_cfa_offset 0
 6312 0010 7047     		bx	lr
 6313              		.cfi_endproc
 6314              	.LFE90:
 6316 0012 00BF     		.section	.text.HAL_I2C_SlaveTxCpltCallback,"ax",%progbits
 6317              		.align	2
 6318              		.weak	HAL_I2C_SlaveTxCpltCallback
 6319              		.thumb
 6320              		.thumb_func
 6322              	HAL_I2C_SlaveTxCpltCallback:
 6323              	.LFB91:
2786:Drivers/STM32F1xx_HAL_Driver/Src/stm32f1xx_hal_i2c.c **** 
2787:Drivers/STM32F1xx_HAL_Driver/Src/stm32f1xx_hal_i2c.c **** /** @brief  Slave Tx Transfer completed callback.
2788:Drivers/STM32F1xx_HAL_Driver/Src/stm32f1xx_hal_i2c.c ****   * @param  hi2c Pointer to a I2C_HandleTypeDef structure that contains
2789:Drivers/STM32F1xx_HAL_Driver/Src/stm32f1xx_hal_i2c.c ****   *                the configuration information for the specified I2C.
2790:Drivers/STM32F1xx_HAL_Driver/Src/stm32f1xx_hal_i2c.c ****   * @retval None
2791:Drivers/STM32F1xx_HAL_Driver/Src/stm32f1xx_hal_i2c.c ****   */
2792:Drivers/STM32F1xx_HAL_Driver/Src/stm32f1xx_hal_i2c.c ****  __weak void HAL_I2C_SlaveTxCpltCallback(I2C_HandleTypeDef *hi2c)
2793:Drivers/STM32F1xx_HAL_Driver/Src/stm32f1xx_hal_i2c.c **** {
 6324              		.loc 1 2793 0
 6325              		.cfi_startproc
 6326              		@ args = 0, pretend = 0, frame = 8
 6327              		@ frame_needed = 1, uses_anonymous_args = 0
 6328              		@ link register save eliminated.
 6329 0000 80B4     		push	{r7}
 6330              	.LCFI139:
 6331              		.cfi_def_cfa_offset 4
 6332              		.cfi_offset 7, -4
 6333 0002 83B0     		sub	sp, sp, #12
 6334              	.LCFI140:
 6335              		.cfi_def_cfa_offset 16
ARM GAS  /var/folders/kh/x4vltyy52lbg7p4pcyglc5080000gp/T//cccbl2Nm.s 			page 162


 6336 0004 00AF     		add	r7, sp, #0
 6337              	.LCFI141:
 6338              		.cfi_def_cfa_register 7
 6339 0006 7860     		str	r0, [r7, #4]
2794:Drivers/STM32F1xx_HAL_Driver/Src/stm32f1xx_hal_i2c.c ****   /* Prevent unused argument(s) compilation warning */
2795:Drivers/STM32F1xx_HAL_Driver/Src/stm32f1xx_hal_i2c.c ****   UNUSED(hi2c);
2796:Drivers/STM32F1xx_HAL_Driver/Src/stm32f1xx_hal_i2c.c ****   /* NOTE : This function should not be modified, when the callback is needed,
2797:Drivers/STM32F1xx_HAL_Driver/Src/stm32f1xx_hal_i2c.c ****             the HAL_I2C_TxCpltCallback could be implemented in the user file
2798:Drivers/STM32F1xx_HAL_Driver/Src/stm32f1xx_hal_i2c.c ****    */
2799:Drivers/STM32F1xx_HAL_Driver/Src/stm32f1xx_hal_i2c.c **** }
 6340              		.loc 1 2799 0
 6341 0008 00BF     		nop
 6342 000a 0C37     		adds	r7, r7, #12
 6343              	.LCFI142:
 6344              		.cfi_def_cfa_offset 4
 6345 000c BD46     		mov	sp, r7
 6346              	.LCFI143:
 6347              		.cfi_def_cfa_register 13
 6348              		@ sp needed
 6349 000e 80BC     		pop	{r7}
 6350              	.LCFI144:
 6351              		.cfi_restore 7
 6352              		.cfi_def_cfa_offset 0
 6353 0010 7047     		bx	lr
 6354              		.cfi_endproc
 6355              	.LFE91:
 6357 0012 00BF     		.section	.text.HAL_I2C_SlaveRxCpltCallback,"ax",%progbits
 6358              		.align	2
 6359              		.weak	HAL_I2C_SlaveRxCpltCallback
 6360              		.thumb
 6361              		.thumb_func
 6363              	HAL_I2C_SlaveRxCpltCallback:
 6364              	.LFB92:
2800:Drivers/STM32F1xx_HAL_Driver/Src/stm32f1xx_hal_i2c.c **** 
2801:Drivers/STM32F1xx_HAL_Driver/Src/stm32f1xx_hal_i2c.c **** /**
2802:Drivers/STM32F1xx_HAL_Driver/Src/stm32f1xx_hal_i2c.c ****   * @brief  Slave Rx Transfer completed callback.
2803:Drivers/STM32F1xx_HAL_Driver/Src/stm32f1xx_hal_i2c.c ****   * @param  hi2c Pointer to a I2C_HandleTypeDef structure that contains
2804:Drivers/STM32F1xx_HAL_Driver/Src/stm32f1xx_hal_i2c.c ****   *                the configuration information for the specified I2C.
2805:Drivers/STM32F1xx_HAL_Driver/Src/stm32f1xx_hal_i2c.c ****   * @retval None
2806:Drivers/STM32F1xx_HAL_Driver/Src/stm32f1xx_hal_i2c.c ****   */
2807:Drivers/STM32F1xx_HAL_Driver/Src/stm32f1xx_hal_i2c.c **** __weak void HAL_I2C_SlaveRxCpltCallback(I2C_HandleTypeDef *hi2c)
2808:Drivers/STM32F1xx_HAL_Driver/Src/stm32f1xx_hal_i2c.c **** {
 6365              		.loc 1 2808 0
 6366              		.cfi_startproc
 6367              		@ args = 0, pretend = 0, frame = 8
 6368              		@ frame_needed = 1, uses_anonymous_args = 0
 6369              		@ link register save eliminated.
 6370 0000 80B4     		push	{r7}
 6371              	.LCFI145:
 6372              		.cfi_def_cfa_offset 4
 6373              		.cfi_offset 7, -4
 6374 0002 83B0     		sub	sp, sp, #12
 6375              	.LCFI146:
 6376              		.cfi_def_cfa_offset 16
 6377 0004 00AF     		add	r7, sp, #0
 6378              	.LCFI147:
 6379              		.cfi_def_cfa_register 7
ARM GAS  /var/folders/kh/x4vltyy52lbg7p4pcyglc5080000gp/T//cccbl2Nm.s 			page 163


 6380 0006 7860     		str	r0, [r7, #4]
2809:Drivers/STM32F1xx_HAL_Driver/Src/stm32f1xx_hal_i2c.c ****   /* Prevent unused argument(s) compilation warning */
2810:Drivers/STM32F1xx_HAL_Driver/Src/stm32f1xx_hal_i2c.c ****   UNUSED(hi2c);
2811:Drivers/STM32F1xx_HAL_Driver/Src/stm32f1xx_hal_i2c.c ****   /* NOTE : This function should not be modified, when the callback is needed,
2812:Drivers/STM32F1xx_HAL_Driver/Src/stm32f1xx_hal_i2c.c ****             the HAL_I2C_TxCpltCallback could be implemented in the user file
2813:Drivers/STM32F1xx_HAL_Driver/Src/stm32f1xx_hal_i2c.c ****    */
2814:Drivers/STM32F1xx_HAL_Driver/Src/stm32f1xx_hal_i2c.c **** }
 6381              		.loc 1 2814 0
 6382 0008 00BF     		nop
 6383 000a 0C37     		adds	r7, r7, #12
 6384              	.LCFI148:
 6385              		.cfi_def_cfa_offset 4
 6386 000c BD46     		mov	sp, r7
 6387              	.LCFI149:
 6388              		.cfi_def_cfa_register 13
 6389              		@ sp needed
 6390 000e 80BC     		pop	{r7}
 6391              	.LCFI150:
 6392              		.cfi_restore 7
 6393              		.cfi_def_cfa_offset 0
 6394 0010 7047     		bx	lr
 6395              		.cfi_endproc
 6396              	.LFE92:
 6398 0012 00BF     		.section	.text.HAL_I2C_MemTxCpltCallback,"ax",%progbits
 6399              		.align	2
 6400              		.weak	HAL_I2C_MemTxCpltCallback
 6401              		.thumb
 6402              		.thumb_func
 6404              	HAL_I2C_MemTxCpltCallback:
 6405              	.LFB93:
2815:Drivers/STM32F1xx_HAL_Driver/Src/stm32f1xx_hal_i2c.c **** 
2816:Drivers/STM32F1xx_HAL_Driver/Src/stm32f1xx_hal_i2c.c **** /**
2817:Drivers/STM32F1xx_HAL_Driver/Src/stm32f1xx_hal_i2c.c ****   * @brief  Memory Tx Transfer completed callback.
2818:Drivers/STM32F1xx_HAL_Driver/Src/stm32f1xx_hal_i2c.c ****   * @param  hi2c Pointer to a I2C_HandleTypeDef structure that contains
2819:Drivers/STM32F1xx_HAL_Driver/Src/stm32f1xx_hal_i2c.c ****   *                the configuration information for the specified I2C.
2820:Drivers/STM32F1xx_HAL_Driver/Src/stm32f1xx_hal_i2c.c ****   * @retval None
2821:Drivers/STM32F1xx_HAL_Driver/Src/stm32f1xx_hal_i2c.c ****   */
2822:Drivers/STM32F1xx_HAL_Driver/Src/stm32f1xx_hal_i2c.c ****  __weak void HAL_I2C_MemTxCpltCallback(I2C_HandleTypeDef *hi2c)
2823:Drivers/STM32F1xx_HAL_Driver/Src/stm32f1xx_hal_i2c.c **** {
 6406              		.loc 1 2823 0
 6407              		.cfi_startproc
 6408              		@ args = 0, pretend = 0, frame = 8
 6409              		@ frame_needed = 1, uses_anonymous_args = 0
 6410              		@ link register save eliminated.
 6411 0000 80B4     		push	{r7}
 6412              	.LCFI151:
 6413              		.cfi_def_cfa_offset 4
 6414              		.cfi_offset 7, -4
 6415 0002 83B0     		sub	sp, sp, #12
 6416              	.LCFI152:
 6417              		.cfi_def_cfa_offset 16
 6418 0004 00AF     		add	r7, sp, #0
 6419              	.LCFI153:
 6420              		.cfi_def_cfa_register 7
 6421 0006 7860     		str	r0, [r7, #4]
2824:Drivers/STM32F1xx_HAL_Driver/Src/stm32f1xx_hal_i2c.c ****   /* Prevent unused argument(s) compilation warning */
2825:Drivers/STM32F1xx_HAL_Driver/Src/stm32f1xx_hal_i2c.c ****   UNUSED(hi2c);
ARM GAS  /var/folders/kh/x4vltyy52lbg7p4pcyglc5080000gp/T//cccbl2Nm.s 			page 164


2826:Drivers/STM32F1xx_HAL_Driver/Src/stm32f1xx_hal_i2c.c ****   /* NOTE : This function should not be modified, when the callback is needed,
2827:Drivers/STM32F1xx_HAL_Driver/Src/stm32f1xx_hal_i2c.c ****             the HAL_I2C_TxCpltCallback could be implemented in the user file
2828:Drivers/STM32F1xx_HAL_Driver/Src/stm32f1xx_hal_i2c.c ****    */
2829:Drivers/STM32F1xx_HAL_Driver/Src/stm32f1xx_hal_i2c.c **** }
 6422              		.loc 1 2829 0
 6423 0008 00BF     		nop
 6424 000a 0C37     		adds	r7, r7, #12
 6425              	.LCFI154:
 6426              		.cfi_def_cfa_offset 4
 6427 000c BD46     		mov	sp, r7
 6428              	.LCFI155:
 6429              		.cfi_def_cfa_register 13
 6430              		@ sp needed
 6431 000e 80BC     		pop	{r7}
 6432              	.LCFI156:
 6433              		.cfi_restore 7
 6434              		.cfi_def_cfa_offset 0
 6435 0010 7047     		bx	lr
 6436              		.cfi_endproc
 6437              	.LFE93:
 6439 0012 00BF     		.section	.text.HAL_I2C_MemRxCpltCallback,"ax",%progbits
 6440              		.align	2
 6441              		.weak	HAL_I2C_MemRxCpltCallback
 6442              		.thumb
 6443              		.thumb_func
 6445              	HAL_I2C_MemRxCpltCallback:
 6446              	.LFB94:
2830:Drivers/STM32F1xx_HAL_Driver/Src/stm32f1xx_hal_i2c.c **** 
2831:Drivers/STM32F1xx_HAL_Driver/Src/stm32f1xx_hal_i2c.c **** /**
2832:Drivers/STM32F1xx_HAL_Driver/Src/stm32f1xx_hal_i2c.c ****   * @brief  Memory Rx Transfer completed callback.
2833:Drivers/STM32F1xx_HAL_Driver/Src/stm32f1xx_hal_i2c.c ****   * @param  hi2c Pointer to a I2C_HandleTypeDef structure that contains
2834:Drivers/STM32F1xx_HAL_Driver/Src/stm32f1xx_hal_i2c.c ****   *                the configuration information for the specified I2C.
2835:Drivers/STM32F1xx_HAL_Driver/Src/stm32f1xx_hal_i2c.c ****   * @retval None
2836:Drivers/STM32F1xx_HAL_Driver/Src/stm32f1xx_hal_i2c.c ****   */
2837:Drivers/STM32F1xx_HAL_Driver/Src/stm32f1xx_hal_i2c.c **** __weak void HAL_I2C_MemRxCpltCallback(I2C_HandleTypeDef *hi2c)
2838:Drivers/STM32F1xx_HAL_Driver/Src/stm32f1xx_hal_i2c.c **** {
 6447              		.loc 1 2838 0
 6448              		.cfi_startproc
 6449              		@ args = 0, pretend = 0, frame = 8
 6450              		@ frame_needed = 1, uses_anonymous_args = 0
 6451              		@ link register save eliminated.
 6452 0000 80B4     		push	{r7}
 6453              	.LCFI157:
 6454              		.cfi_def_cfa_offset 4
 6455              		.cfi_offset 7, -4
 6456 0002 83B0     		sub	sp, sp, #12
 6457              	.LCFI158:
 6458              		.cfi_def_cfa_offset 16
 6459 0004 00AF     		add	r7, sp, #0
 6460              	.LCFI159:
 6461              		.cfi_def_cfa_register 7
 6462 0006 7860     		str	r0, [r7, #4]
2839:Drivers/STM32F1xx_HAL_Driver/Src/stm32f1xx_hal_i2c.c ****   /* Prevent unused argument(s) compilation warning */
2840:Drivers/STM32F1xx_HAL_Driver/Src/stm32f1xx_hal_i2c.c ****   UNUSED(hi2c);
2841:Drivers/STM32F1xx_HAL_Driver/Src/stm32f1xx_hal_i2c.c ****   /* NOTE : This function should not be modified, when the callback is needed,
2842:Drivers/STM32F1xx_HAL_Driver/Src/stm32f1xx_hal_i2c.c ****             the HAL_I2C_TxCpltCallback could be implemented in the user file
2843:Drivers/STM32F1xx_HAL_Driver/Src/stm32f1xx_hal_i2c.c ****    */
ARM GAS  /var/folders/kh/x4vltyy52lbg7p4pcyglc5080000gp/T//cccbl2Nm.s 			page 165


2844:Drivers/STM32F1xx_HAL_Driver/Src/stm32f1xx_hal_i2c.c **** }
 6463              		.loc 1 2844 0
 6464 0008 00BF     		nop
 6465 000a 0C37     		adds	r7, r7, #12
 6466              	.LCFI160:
 6467              		.cfi_def_cfa_offset 4
 6468 000c BD46     		mov	sp, r7
 6469              	.LCFI161:
 6470              		.cfi_def_cfa_register 13
 6471              		@ sp needed
 6472 000e 80BC     		pop	{r7}
 6473              	.LCFI162:
 6474              		.cfi_restore 7
 6475              		.cfi_def_cfa_offset 0
 6476 0010 7047     		bx	lr
 6477              		.cfi_endproc
 6478              	.LFE94:
 6480 0012 00BF     		.section	.text.HAL_I2C_ErrorCallback,"ax",%progbits
 6481              		.align	2
 6482              		.weak	HAL_I2C_ErrorCallback
 6483              		.thumb
 6484              		.thumb_func
 6486              	HAL_I2C_ErrorCallback:
 6487              	.LFB95:
2845:Drivers/STM32F1xx_HAL_Driver/Src/stm32f1xx_hal_i2c.c **** 
2846:Drivers/STM32F1xx_HAL_Driver/Src/stm32f1xx_hal_i2c.c **** /**
2847:Drivers/STM32F1xx_HAL_Driver/Src/stm32f1xx_hal_i2c.c ****   * @brief  I2C error callback.
2848:Drivers/STM32F1xx_HAL_Driver/Src/stm32f1xx_hal_i2c.c ****   * @param  hi2c Pointer to a I2C_HandleTypeDef structure that contains
2849:Drivers/STM32F1xx_HAL_Driver/Src/stm32f1xx_hal_i2c.c ****   *                the configuration information for the specified I2C.
2850:Drivers/STM32F1xx_HAL_Driver/Src/stm32f1xx_hal_i2c.c ****   * @retval None
2851:Drivers/STM32F1xx_HAL_Driver/Src/stm32f1xx_hal_i2c.c ****   */
2852:Drivers/STM32F1xx_HAL_Driver/Src/stm32f1xx_hal_i2c.c ****  __weak void HAL_I2C_ErrorCallback(I2C_HandleTypeDef *hi2c)
2853:Drivers/STM32F1xx_HAL_Driver/Src/stm32f1xx_hal_i2c.c **** {
 6488              		.loc 1 2853 0
 6489              		.cfi_startproc
 6490              		@ args = 0, pretend = 0, frame = 8
 6491              		@ frame_needed = 1, uses_anonymous_args = 0
 6492              		@ link register save eliminated.
 6493 0000 80B4     		push	{r7}
 6494              	.LCFI163:
 6495              		.cfi_def_cfa_offset 4
 6496              		.cfi_offset 7, -4
 6497 0002 83B0     		sub	sp, sp, #12
 6498              	.LCFI164:
 6499              		.cfi_def_cfa_offset 16
 6500 0004 00AF     		add	r7, sp, #0
 6501              	.LCFI165:
 6502              		.cfi_def_cfa_register 7
 6503 0006 7860     		str	r0, [r7, #4]
2854:Drivers/STM32F1xx_HAL_Driver/Src/stm32f1xx_hal_i2c.c ****   /* Prevent unused argument(s) compilation warning */
2855:Drivers/STM32F1xx_HAL_Driver/Src/stm32f1xx_hal_i2c.c ****   UNUSED(hi2c);
2856:Drivers/STM32F1xx_HAL_Driver/Src/stm32f1xx_hal_i2c.c ****   /* NOTE : This function should not be modified, when the callback is needed,
2857:Drivers/STM32F1xx_HAL_Driver/Src/stm32f1xx_hal_i2c.c ****             the HAL_I2C_ErrorCallback could be implemented in the user file
2858:Drivers/STM32F1xx_HAL_Driver/Src/stm32f1xx_hal_i2c.c ****    */
2859:Drivers/STM32F1xx_HAL_Driver/Src/stm32f1xx_hal_i2c.c **** }
 6504              		.loc 1 2859 0
 6505 0008 00BF     		nop
ARM GAS  /var/folders/kh/x4vltyy52lbg7p4pcyglc5080000gp/T//cccbl2Nm.s 			page 166


 6506 000a 0C37     		adds	r7, r7, #12
 6507              	.LCFI166:
 6508              		.cfi_def_cfa_offset 4
 6509 000c BD46     		mov	sp, r7
 6510              	.LCFI167:
 6511              		.cfi_def_cfa_register 13
 6512              		@ sp needed
 6513 000e 80BC     		pop	{r7}
 6514              	.LCFI168:
 6515              		.cfi_restore 7
 6516              		.cfi_def_cfa_offset 0
 6517 0010 7047     		bx	lr
 6518              		.cfi_endproc
 6519              	.LFE95:
 6521 0012 00BF     		.section	.text.HAL_I2C_GetState,"ax",%progbits
 6522              		.align	2
 6523              		.global	HAL_I2C_GetState
 6524              		.thumb
 6525              		.thumb_func
 6527              	HAL_I2C_GetState:
 6528              	.LFB96:
2860:Drivers/STM32F1xx_HAL_Driver/Src/stm32f1xx_hal_i2c.c **** 
2861:Drivers/STM32F1xx_HAL_Driver/Src/stm32f1xx_hal_i2c.c **** /**
2862:Drivers/STM32F1xx_HAL_Driver/Src/stm32f1xx_hal_i2c.c ****   * @}
2863:Drivers/STM32F1xx_HAL_Driver/Src/stm32f1xx_hal_i2c.c ****   */
2864:Drivers/STM32F1xx_HAL_Driver/Src/stm32f1xx_hal_i2c.c **** 
2865:Drivers/STM32F1xx_HAL_Driver/Src/stm32f1xx_hal_i2c.c **** 
2866:Drivers/STM32F1xx_HAL_Driver/Src/stm32f1xx_hal_i2c.c **** /** @defgroup I2C_Exported_Functions_Group3 Peripheral State and Errors functions
2867:Drivers/STM32F1xx_HAL_Driver/Src/stm32f1xx_hal_i2c.c ****  *  @brief   Peripheral State and Errors functions
2868:Drivers/STM32F1xx_HAL_Driver/Src/stm32f1xx_hal_i2c.c ****  *
2869:Drivers/STM32F1xx_HAL_Driver/Src/stm32f1xx_hal_i2c.c **** @verbatim
2870:Drivers/STM32F1xx_HAL_Driver/Src/stm32f1xx_hal_i2c.c ****  ===============================================================================
2871:Drivers/STM32F1xx_HAL_Driver/Src/stm32f1xx_hal_i2c.c ****             ##### Peripheral State and Errors functions #####
2872:Drivers/STM32F1xx_HAL_Driver/Src/stm32f1xx_hal_i2c.c ****  ===============================================================================
2873:Drivers/STM32F1xx_HAL_Driver/Src/stm32f1xx_hal_i2c.c ****     [..]
2874:Drivers/STM32F1xx_HAL_Driver/Src/stm32f1xx_hal_i2c.c ****     This subsection permits to get in run-time the status of the peripheral
2875:Drivers/STM32F1xx_HAL_Driver/Src/stm32f1xx_hal_i2c.c ****     and the data flow.
2876:Drivers/STM32F1xx_HAL_Driver/Src/stm32f1xx_hal_i2c.c **** 
2877:Drivers/STM32F1xx_HAL_Driver/Src/stm32f1xx_hal_i2c.c **** @endverbatim
2878:Drivers/STM32F1xx_HAL_Driver/Src/stm32f1xx_hal_i2c.c ****   * @{
2879:Drivers/STM32F1xx_HAL_Driver/Src/stm32f1xx_hal_i2c.c ****   */
2880:Drivers/STM32F1xx_HAL_Driver/Src/stm32f1xx_hal_i2c.c **** 
2881:Drivers/STM32F1xx_HAL_Driver/Src/stm32f1xx_hal_i2c.c **** /**
2882:Drivers/STM32F1xx_HAL_Driver/Src/stm32f1xx_hal_i2c.c ****   * @brief  Return the I2C handle state.
2883:Drivers/STM32F1xx_HAL_Driver/Src/stm32f1xx_hal_i2c.c ****   * @param  hi2c Pointer to a I2C_HandleTypeDef structure that contains
2884:Drivers/STM32F1xx_HAL_Driver/Src/stm32f1xx_hal_i2c.c ****   *                the configuration information for the specified I2C.
2885:Drivers/STM32F1xx_HAL_Driver/Src/stm32f1xx_hal_i2c.c ****   * @retval HAL state
2886:Drivers/STM32F1xx_HAL_Driver/Src/stm32f1xx_hal_i2c.c ****   */
2887:Drivers/STM32F1xx_HAL_Driver/Src/stm32f1xx_hal_i2c.c **** HAL_I2C_StateTypeDef HAL_I2C_GetState(I2C_HandleTypeDef *hi2c)
2888:Drivers/STM32F1xx_HAL_Driver/Src/stm32f1xx_hal_i2c.c **** {
 6529              		.loc 1 2888 0
 6530              		.cfi_startproc
 6531              		@ args = 0, pretend = 0, frame = 8
 6532              		@ frame_needed = 1, uses_anonymous_args = 0
 6533              		@ link register save eliminated.
 6534 0000 80B4     		push	{r7}
 6535              	.LCFI169:
ARM GAS  /var/folders/kh/x4vltyy52lbg7p4pcyglc5080000gp/T//cccbl2Nm.s 			page 167


 6536              		.cfi_def_cfa_offset 4
 6537              		.cfi_offset 7, -4
 6538 0002 83B0     		sub	sp, sp, #12
 6539              	.LCFI170:
 6540              		.cfi_def_cfa_offset 16
 6541 0004 00AF     		add	r7, sp, #0
 6542              	.LCFI171:
 6543              		.cfi_def_cfa_register 7
 6544 0006 7860     		str	r0, [r7, #4]
2889:Drivers/STM32F1xx_HAL_Driver/Src/stm32f1xx_hal_i2c.c ****   /* Return I2C handle state */
2890:Drivers/STM32F1xx_HAL_Driver/Src/stm32f1xx_hal_i2c.c ****   return hi2c->State;
 6545              		.loc 1 2890 0
 6546 0008 7B68     		ldr	r3, [r7, #4]
 6547 000a 93F83530 		ldrb	r3, [r3, #53]
 6548 000e DBB2     		uxtb	r3, r3
2891:Drivers/STM32F1xx_HAL_Driver/Src/stm32f1xx_hal_i2c.c **** }
 6549              		.loc 1 2891 0
 6550 0010 1846     		mov	r0, r3
 6551 0012 0C37     		adds	r7, r7, #12
 6552              	.LCFI172:
 6553              		.cfi_def_cfa_offset 4
 6554 0014 BD46     		mov	sp, r7
 6555              	.LCFI173:
 6556              		.cfi_def_cfa_register 13
 6557              		@ sp needed
 6558 0016 80BC     		pop	{r7}
 6559              	.LCFI174:
 6560              		.cfi_restore 7
 6561              		.cfi_def_cfa_offset 0
 6562 0018 7047     		bx	lr
 6563              		.cfi_endproc
 6564              	.LFE96:
 6566 001a 00BF     		.section	.text.HAL_I2C_GetError,"ax",%progbits
 6567              		.align	2
 6568              		.global	HAL_I2C_GetError
 6569              		.thumb
 6570              		.thumb_func
 6572              	HAL_I2C_GetError:
 6573              	.LFB97:
2892:Drivers/STM32F1xx_HAL_Driver/Src/stm32f1xx_hal_i2c.c **** 
2893:Drivers/STM32F1xx_HAL_Driver/Src/stm32f1xx_hal_i2c.c **** /**
2894:Drivers/STM32F1xx_HAL_Driver/Src/stm32f1xx_hal_i2c.c ****   * @brief  Return the I2C error code.
2895:Drivers/STM32F1xx_HAL_Driver/Src/stm32f1xx_hal_i2c.c ****   * @param  hi2c Pointer to a I2C_HandleTypeDef structure that contains
2896:Drivers/STM32F1xx_HAL_Driver/Src/stm32f1xx_hal_i2c.c ****   *                the configuration information for the specified I2C.
2897:Drivers/STM32F1xx_HAL_Driver/Src/stm32f1xx_hal_i2c.c **** * @retval I2C Error Code
2898:Drivers/STM32F1xx_HAL_Driver/Src/stm32f1xx_hal_i2c.c **** */
2899:Drivers/STM32F1xx_HAL_Driver/Src/stm32f1xx_hal_i2c.c **** uint32_t HAL_I2C_GetError(I2C_HandleTypeDef *hi2c)
2900:Drivers/STM32F1xx_HAL_Driver/Src/stm32f1xx_hal_i2c.c **** {
 6574              		.loc 1 2900 0
 6575              		.cfi_startproc
 6576              		@ args = 0, pretend = 0, frame = 8
 6577              		@ frame_needed = 1, uses_anonymous_args = 0
 6578              		@ link register save eliminated.
 6579 0000 80B4     		push	{r7}
 6580              	.LCFI175:
 6581              		.cfi_def_cfa_offset 4
 6582              		.cfi_offset 7, -4
ARM GAS  /var/folders/kh/x4vltyy52lbg7p4pcyglc5080000gp/T//cccbl2Nm.s 			page 168


 6583 0002 83B0     		sub	sp, sp, #12
 6584              	.LCFI176:
 6585              		.cfi_def_cfa_offset 16
 6586 0004 00AF     		add	r7, sp, #0
 6587              	.LCFI177:
 6588              		.cfi_def_cfa_register 7
 6589 0006 7860     		str	r0, [r7, #4]
2901:Drivers/STM32F1xx_HAL_Driver/Src/stm32f1xx_hal_i2c.c ****   return hi2c->ErrorCode;
 6590              		.loc 1 2901 0
 6591 0008 7B68     		ldr	r3, [r7, #4]
 6592 000a 9B6B     		ldr	r3, [r3, #56]
2902:Drivers/STM32F1xx_HAL_Driver/Src/stm32f1xx_hal_i2c.c **** }
 6593              		.loc 1 2902 0
 6594 000c 1846     		mov	r0, r3
 6595 000e 0C37     		adds	r7, r7, #12
 6596              	.LCFI178:
 6597              		.cfi_def_cfa_offset 4
 6598 0010 BD46     		mov	sp, r7
 6599              	.LCFI179:
 6600              		.cfi_def_cfa_register 13
 6601              		@ sp needed
 6602 0012 80BC     		pop	{r7}
 6603              	.LCFI180:
 6604              		.cfi_restore 7
 6605              		.cfi_def_cfa_offset 0
 6606 0014 7047     		bx	lr
 6607              		.cfi_endproc
 6608              	.LFE97:
 6610 0016 00BF     		.section	.text.I2C_MasterTransmit_TXE,"ax",%progbits
 6611              		.align	2
 6612              		.thumb
 6613              		.thumb_func
 6615              	I2C_MasterTransmit_TXE:
 6616              	.LFB98:
2903:Drivers/STM32F1xx_HAL_Driver/Src/stm32f1xx_hal_i2c.c **** 
2904:Drivers/STM32F1xx_HAL_Driver/Src/stm32f1xx_hal_i2c.c **** /**
2905:Drivers/STM32F1xx_HAL_Driver/Src/stm32f1xx_hal_i2c.c ****   * @}
2906:Drivers/STM32F1xx_HAL_Driver/Src/stm32f1xx_hal_i2c.c ****   */
2907:Drivers/STM32F1xx_HAL_Driver/Src/stm32f1xx_hal_i2c.c **** 
2908:Drivers/STM32F1xx_HAL_Driver/Src/stm32f1xx_hal_i2c.c **** /**
2909:Drivers/STM32F1xx_HAL_Driver/Src/stm32f1xx_hal_i2c.c ****   * @}
2910:Drivers/STM32F1xx_HAL_Driver/Src/stm32f1xx_hal_i2c.c ****   */
2911:Drivers/STM32F1xx_HAL_Driver/Src/stm32f1xx_hal_i2c.c **** 
2912:Drivers/STM32F1xx_HAL_Driver/Src/stm32f1xx_hal_i2c.c **** /** @addtogroup I2C_Private_Functions
2913:Drivers/STM32F1xx_HAL_Driver/Src/stm32f1xx_hal_i2c.c ****   * @{
2914:Drivers/STM32F1xx_HAL_Driver/Src/stm32f1xx_hal_i2c.c ****   */
2915:Drivers/STM32F1xx_HAL_Driver/Src/stm32f1xx_hal_i2c.c **** 
2916:Drivers/STM32F1xx_HAL_Driver/Src/stm32f1xx_hal_i2c.c **** /**
2917:Drivers/STM32F1xx_HAL_Driver/Src/stm32f1xx_hal_i2c.c ****   * @brief  Handle TXE flag for Master Transmit Mode
2918:Drivers/STM32F1xx_HAL_Driver/Src/stm32f1xx_hal_i2c.c ****   * @param  hi2c Pointer to a I2C_HandleTypeDef structure that contains
2919:Drivers/STM32F1xx_HAL_Driver/Src/stm32f1xx_hal_i2c.c ****   *                the configuration information for the specified I2C.
2920:Drivers/STM32F1xx_HAL_Driver/Src/stm32f1xx_hal_i2c.c ****   * @retval HAL status
2921:Drivers/STM32F1xx_HAL_Driver/Src/stm32f1xx_hal_i2c.c ****   */
2922:Drivers/STM32F1xx_HAL_Driver/Src/stm32f1xx_hal_i2c.c **** static HAL_StatusTypeDef I2C_MasterTransmit_TXE(I2C_HandleTypeDef *hi2c)
2923:Drivers/STM32F1xx_HAL_Driver/Src/stm32f1xx_hal_i2c.c **** {
 6617              		.loc 1 2923 0
 6618              		.cfi_startproc
ARM GAS  /var/folders/kh/x4vltyy52lbg7p4pcyglc5080000gp/T//cccbl2Nm.s 			page 169


 6619              		@ args = 0, pretend = 0, frame = 8
 6620              		@ frame_needed = 1, uses_anonymous_args = 0
 6621              		@ link register save eliminated.
 6622 0000 80B4     		push	{r7}
 6623              	.LCFI181:
 6624              		.cfi_def_cfa_offset 4
 6625              		.cfi_offset 7, -4
 6626 0002 83B0     		sub	sp, sp, #12
 6627              	.LCFI182:
 6628              		.cfi_def_cfa_offset 16
 6629 0004 00AF     		add	r7, sp, #0
 6630              	.LCFI183:
 6631              		.cfi_def_cfa_register 7
 6632 0006 7860     		str	r0, [r7, #4]
2924:Drivers/STM32F1xx_HAL_Driver/Src/stm32f1xx_hal_i2c.c ****   if(hi2c->XferCount == 0)
 6633              		.loc 1 2924 0
 6634 0008 7B68     		ldr	r3, [r7, #4]
 6635 000a 5B8D     		ldrh	r3, [r3, #42]	@ movhi
 6636 000c 9BB2     		uxth	r3, r3
 6637 000e 002B     		cmp	r3, #0
 6638 0010 08D1     		bne	.L328
2925:Drivers/STM32F1xx_HAL_Driver/Src/stm32f1xx_hal_i2c.c ****   {
2926:Drivers/STM32F1xx_HAL_Driver/Src/stm32f1xx_hal_i2c.c ****     /* Disable BUF interrupt */
2927:Drivers/STM32F1xx_HAL_Driver/Src/stm32f1xx_hal_i2c.c ****     __HAL_I2C_DISABLE_IT(hi2c, I2C_IT_BUF);
 6639              		.loc 1 2927 0
 6640 0012 7B68     		ldr	r3, [r7, #4]
 6641 0014 1B68     		ldr	r3, [r3]
 6642 0016 7A68     		ldr	r2, [r7, #4]
 6643 0018 1268     		ldr	r2, [r2]
 6644 001a 5268     		ldr	r2, [r2, #4]
 6645 001c 22F48062 		bic	r2, r2, #1024
 6646 0020 5A60     		str	r2, [r3, #4]
 6647 0022 0FE0     		b	.L329
 6648              	.L328:
2928:Drivers/STM32F1xx_HAL_Driver/Src/stm32f1xx_hal_i2c.c ****   }
2929:Drivers/STM32F1xx_HAL_Driver/Src/stm32f1xx_hal_i2c.c ****   else
2930:Drivers/STM32F1xx_HAL_Driver/Src/stm32f1xx_hal_i2c.c ****   {
2931:Drivers/STM32F1xx_HAL_Driver/Src/stm32f1xx_hal_i2c.c ****     /* Write data to DR */
2932:Drivers/STM32F1xx_HAL_Driver/Src/stm32f1xx_hal_i2c.c ****     hi2c->Instance->DR = (*hi2c->pBuffPtr++);
 6649              		.loc 1 2932 0
 6650 0024 7B68     		ldr	r3, [r7, #4]
 6651 0026 1A68     		ldr	r2, [r3]
 6652 0028 7B68     		ldr	r3, [r7, #4]
 6653 002a 5B6A     		ldr	r3, [r3, #36]
 6654 002c 581C     		adds	r0, r3, #1
 6655 002e 7968     		ldr	r1, [r7, #4]
 6656 0030 4862     		str	r0, [r1, #36]
 6657 0032 1B78     		ldrb	r3, [r3]	@ zero_extendqisi2
 6658 0034 1361     		str	r3, [r2, #16]
2933:Drivers/STM32F1xx_HAL_Driver/Src/stm32f1xx_hal_i2c.c ****     hi2c->XferCount--;
 6659              		.loc 1 2933 0
 6660 0036 7B68     		ldr	r3, [r7, #4]
 6661 0038 5B8D     		ldrh	r3, [r3, #42]	@ movhi
 6662 003a 9BB2     		uxth	r3, r3
 6663 003c 013B     		subs	r3, r3, #1
 6664 003e 9AB2     		uxth	r2, r3
 6665 0040 7B68     		ldr	r3, [r7, #4]
ARM GAS  /var/folders/kh/x4vltyy52lbg7p4pcyglc5080000gp/T//cccbl2Nm.s 			page 170


 6666 0042 5A85     		strh	r2, [r3, #42]	@ movhi
 6667              	.L329:
2934:Drivers/STM32F1xx_HAL_Driver/Src/stm32f1xx_hal_i2c.c ****   }
2935:Drivers/STM32F1xx_HAL_Driver/Src/stm32f1xx_hal_i2c.c ****   
2936:Drivers/STM32F1xx_HAL_Driver/Src/stm32f1xx_hal_i2c.c ****   return HAL_OK;
 6668              		.loc 1 2936 0
 6669 0044 0023     		movs	r3, #0
2937:Drivers/STM32F1xx_HAL_Driver/Src/stm32f1xx_hal_i2c.c **** }
 6670              		.loc 1 2937 0
 6671 0046 1846     		mov	r0, r3
 6672 0048 0C37     		adds	r7, r7, #12
 6673              	.LCFI184:
 6674              		.cfi_def_cfa_offset 4
 6675 004a BD46     		mov	sp, r7
 6676              	.LCFI185:
 6677              		.cfi_def_cfa_register 13
 6678              		@ sp needed
 6679 004c 80BC     		pop	{r7}
 6680              	.LCFI186:
 6681              		.cfi_restore 7
 6682              		.cfi_def_cfa_offset 0
 6683 004e 7047     		bx	lr
 6684              		.cfi_endproc
 6685              	.LFE98:
 6687              		.section	.text.I2C_MasterTransmit_BTF,"ax",%progbits
 6688              		.align	2
 6689              		.thumb
 6690              		.thumb_func
 6692              	I2C_MasterTransmit_BTF:
 6693              	.LFB99:
2938:Drivers/STM32F1xx_HAL_Driver/Src/stm32f1xx_hal_i2c.c **** 
2939:Drivers/STM32F1xx_HAL_Driver/Src/stm32f1xx_hal_i2c.c **** /**
2940:Drivers/STM32F1xx_HAL_Driver/Src/stm32f1xx_hal_i2c.c ****   * @brief  Handle BTF flag for Master Transmit Mode
2941:Drivers/STM32F1xx_HAL_Driver/Src/stm32f1xx_hal_i2c.c ****   * @param  hi2c Pointer to a I2C_HandleTypeDef structure that contains
2942:Drivers/STM32F1xx_HAL_Driver/Src/stm32f1xx_hal_i2c.c ****   *                the configuration information for the specified I2C.
2943:Drivers/STM32F1xx_HAL_Driver/Src/stm32f1xx_hal_i2c.c ****   * @retval HAL status
2944:Drivers/STM32F1xx_HAL_Driver/Src/stm32f1xx_hal_i2c.c ****   */
2945:Drivers/STM32F1xx_HAL_Driver/Src/stm32f1xx_hal_i2c.c **** static HAL_StatusTypeDef I2C_MasterTransmit_BTF(I2C_HandleTypeDef *hi2c)
2946:Drivers/STM32F1xx_HAL_Driver/Src/stm32f1xx_hal_i2c.c **** {
 6694              		.loc 1 2946 0
 6695              		.cfi_startproc
 6696              		@ args = 0, pretend = 0, frame = 8
 6697              		@ frame_needed = 1, uses_anonymous_args = 0
 6698 0000 80B5     		push	{r7, lr}
 6699              	.LCFI187:
 6700              		.cfi_def_cfa_offset 8
 6701              		.cfi_offset 7, -8
 6702              		.cfi_offset 14, -4
 6703 0002 82B0     		sub	sp, sp, #8
 6704              	.LCFI188:
 6705              		.cfi_def_cfa_offset 16
 6706 0004 00AF     		add	r7, sp, #0
 6707              	.LCFI189:
 6708              		.cfi_def_cfa_register 7
 6709 0006 7860     		str	r0, [r7, #4]
2947:Drivers/STM32F1xx_HAL_Driver/Src/stm32f1xx_hal_i2c.c ****   if(hi2c->XferCount != 0)
 6710              		.loc 1 2947 0
ARM GAS  /var/folders/kh/x4vltyy52lbg7p4pcyglc5080000gp/T//cccbl2Nm.s 			page 171


 6711 0008 7B68     		ldr	r3, [r7, #4]
 6712 000a 5B8D     		ldrh	r3, [r3, #42]	@ movhi
 6713 000c 9BB2     		uxth	r3, r3
 6714 000e 002B     		cmp	r3, #0
 6715 0010 10D0     		beq	.L332
2948:Drivers/STM32F1xx_HAL_Driver/Src/stm32f1xx_hal_i2c.c ****   {
2949:Drivers/STM32F1xx_HAL_Driver/Src/stm32f1xx_hal_i2c.c ****     /* Write data to DR */
2950:Drivers/STM32F1xx_HAL_Driver/Src/stm32f1xx_hal_i2c.c ****     hi2c->Instance->DR = (*hi2c->pBuffPtr++);
 6716              		.loc 1 2950 0
 6717 0012 7B68     		ldr	r3, [r7, #4]
 6718 0014 1A68     		ldr	r2, [r3]
 6719 0016 7B68     		ldr	r3, [r7, #4]
 6720 0018 5B6A     		ldr	r3, [r3, #36]
 6721 001a 581C     		adds	r0, r3, #1
 6722 001c 7968     		ldr	r1, [r7, #4]
 6723 001e 4862     		str	r0, [r1, #36]
 6724 0020 1B78     		ldrb	r3, [r3]	@ zero_extendqisi2
 6725 0022 1361     		str	r3, [r2, #16]
2951:Drivers/STM32F1xx_HAL_Driver/Src/stm32f1xx_hal_i2c.c ****     hi2c->XferCount--;
 6726              		.loc 1 2951 0
 6727 0024 7B68     		ldr	r3, [r7, #4]
 6728 0026 5B8D     		ldrh	r3, [r3, #42]	@ movhi
 6729 0028 9BB2     		uxth	r3, r3
 6730 002a 013B     		subs	r3, r3, #1
 6731 002c 9AB2     		uxth	r2, r3
 6732 002e 7B68     		ldr	r3, [r7, #4]
 6733 0030 5A85     		strh	r2, [r3, #42]	@ movhi
 6734 0032 24E0     		b	.L333
 6735              	.L332:
2952:Drivers/STM32F1xx_HAL_Driver/Src/stm32f1xx_hal_i2c.c ****   }
2953:Drivers/STM32F1xx_HAL_Driver/Src/stm32f1xx_hal_i2c.c ****   else
2954:Drivers/STM32F1xx_HAL_Driver/Src/stm32f1xx_hal_i2c.c ****   {
2955:Drivers/STM32F1xx_HAL_Driver/Src/stm32f1xx_hal_i2c.c ****     /* Disable EVT, BUF and ERR interrupt */
2956:Drivers/STM32F1xx_HAL_Driver/Src/stm32f1xx_hal_i2c.c ****     __HAL_I2C_DISABLE_IT(hi2c, I2C_IT_EVT | I2C_IT_BUF | I2C_IT_ERR);
 6736              		.loc 1 2956 0
 6737 0034 7B68     		ldr	r3, [r7, #4]
 6738 0036 1B68     		ldr	r3, [r3]
 6739 0038 7A68     		ldr	r2, [r7, #4]
 6740 003a 1268     		ldr	r2, [r2]
 6741 003c 5268     		ldr	r2, [r2, #4]
 6742 003e 22F4E062 		bic	r2, r2, #1792
 6743 0042 5A60     		str	r2, [r3, #4]
2957:Drivers/STM32F1xx_HAL_Driver/Src/stm32f1xx_hal_i2c.c **** 
2958:Drivers/STM32F1xx_HAL_Driver/Src/stm32f1xx_hal_i2c.c ****     /* Generate Stop */
2959:Drivers/STM32F1xx_HAL_Driver/Src/stm32f1xx_hal_i2c.c ****     SET_BIT(hi2c->Instance->CR1, I2C_CR1_STOP);
 6744              		.loc 1 2959 0
 6745 0044 7B68     		ldr	r3, [r7, #4]
 6746 0046 1B68     		ldr	r3, [r3]
 6747 0048 7A68     		ldr	r2, [r7, #4]
 6748 004a 1268     		ldr	r2, [r2]
 6749 004c 1268     		ldr	r2, [r2]
 6750 004e 42F40072 		orr	r2, r2, #512
 6751 0052 1A60     		str	r2, [r3]
2960:Drivers/STM32F1xx_HAL_Driver/Src/stm32f1xx_hal_i2c.c **** 
2961:Drivers/STM32F1xx_HAL_Driver/Src/stm32f1xx_hal_i2c.c ****     if(hi2c->Mode == HAL_I2C_MODE_MEM)
 6752              		.loc 1 2961 0
 6753 0054 7B68     		ldr	r3, [r7, #4]
ARM GAS  /var/folders/kh/x4vltyy52lbg7p4pcyglc5080000gp/T//cccbl2Nm.s 			page 172


 6754 0056 93F83630 		ldrb	r3, [r3, #54]
 6755 005a DBB2     		uxtb	r3, r3
 6756 005c 402B     		cmp	r3, #64
 6757 005e 07D1     		bne	.L334
2962:Drivers/STM32F1xx_HAL_Driver/Src/stm32f1xx_hal_i2c.c ****     {
2963:Drivers/STM32F1xx_HAL_Driver/Src/stm32f1xx_hal_i2c.c ****       hi2c->State = HAL_I2C_STATE_READY;
 6758              		.loc 1 2963 0
 6759 0060 7B68     		ldr	r3, [r7, #4]
 6760 0062 2022     		movs	r2, #32
 6761 0064 83F83520 		strb	r2, [r3, #53]
2964:Drivers/STM32F1xx_HAL_Driver/Src/stm32f1xx_hal_i2c.c **** 
2965:Drivers/STM32F1xx_HAL_Driver/Src/stm32f1xx_hal_i2c.c ****       HAL_I2C_MemTxCpltCallback(hi2c);
 6762              		.loc 1 2965 0
 6763 0068 7868     		ldr	r0, [r7, #4]
 6764 006a FFF7FEFF 		bl	HAL_I2C_MemTxCpltCallback
 6765 006e 06E0     		b	.L333
 6766              	.L334:
2966:Drivers/STM32F1xx_HAL_Driver/Src/stm32f1xx_hal_i2c.c ****     }
2967:Drivers/STM32F1xx_HAL_Driver/Src/stm32f1xx_hal_i2c.c ****     else
2968:Drivers/STM32F1xx_HAL_Driver/Src/stm32f1xx_hal_i2c.c ****     {
2969:Drivers/STM32F1xx_HAL_Driver/Src/stm32f1xx_hal_i2c.c ****       hi2c->State = HAL_I2C_STATE_READY;
 6767              		.loc 1 2969 0
 6768 0070 7B68     		ldr	r3, [r7, #4]
 6769 0072 2022     		movs	r2, #32
 6770 0074 83F83520 		strb	r2, [r3, #53]
2970:Drivers/STM32F1xx_HAL_Driver/Src/stm32f1xx_hal_i2c.c **** 
2971:Drivers/STM32F1xx_HAL_Driver/Src/stm32f1xx_hal_i2c.c ****       HAL_I2C_MasterTxCpltCallback(hi2c);
 6771              		.loc 1 2971 0
 6772 0078 7868     		ldr	r0, [r7, #4]
 6773 007a FFF7FEFF 		bl	HAL_I2C_MasterTxCpltCallback
 6774              	.L333:
2972:Drivers/STM32F1xx_HAL_Driver/Src/stm32f1xx_hal_i2c.c ****     }
2973:Drivers/STM32F1xx_HAL_Driver/Src/stm32f1xx_hal_i2c.c ****   }
2974:Drivers/STM32F1xx_HAL_Driver/Src/stm32f1xx_hal_i2c.c ****   return HAL_OK;
 6775              		.loc 1 2974 0
 6776 007e 0023     		movs	r3, #0
2975:Drivers/STM32F1xx_HAL_Driver/Src/stm32f1xx_hal_i2c.c **** }
 6777              		.loc 1 2975 0
 6778 0080 1846     		mov	r0, r3
 6779 0082 0837     		adds	r7, r7, #8
 6780              	.LCFI190:
 6781              		.cfi_def_cfa_offset 8
 6782 0084 BD46     		mov	sp, r7
 6783              	.LCFI191:
 6784              		.cfi_def_cfa_register 13
 6785              		@ sp needed
 6786 0086 80BD     		pop	{r7, pc}
 6787              		.cfi_endproc
 6788              	.LFE99:
 6790              		.section	.text.I2C_MasterReceive_RXNE,"ax",%progbits
 6791              		.align	2
 6792              		.thumb
 6793              		.thumb_func
 6795              	I2C_MasterReceive_RXNE:
 6796              	.LFB100:
2976:Drivers/STM32F1xx_HAL_Driver/Src/stm32f1xx_hal_i2c.c **** 
2977:Drivers/STM32F1xx_HAL_Driver/Src/stm32f1xx_hal_i2c.c **** /**
ARM GAS  /var/folders/kh/x4vltyy52lbg7p4pcyglc5080000gp/T//cccbl2Nm.s 			page 173


2978:Drivers/STM32F1xx_HAL_Driver/Src/stm32f1xx_hal_i2c.c ****   * @brief  Handle RXNE flag for Master Receive Mode
2979:Drivers/STM32F1xx_HAL_Driver/Src/stm32f1xx_hal_i2c.c ****   * @param  hi2c Pointer to a I2C_HandleTypeDef structure that contains
2980:Drivers/STM32F1xx_HAL_Driver/Src/stm32f1xx_hal_i2c.c ****   *                the configuration information for the specified I2C.
2981:Drivers/STM32F1xx_HAL_Driver/Src/stm32f1xx_hal_i2c.c ****   * @retval HAL status
2982:Drivers/STM32F1xx_HAL_Driver/Src/stm32f1xx_hal_i2c.c ****   */
2983:Drivers/STM32F1xx_HAL_Driver/Src/stm32f1xx_hal_i2c.c **** static HAL_StatusTypeDef I2C_MasterReceive_RXNE(I2C_HandleTypeDef *hi2c)
2984:Drivers/STM32F1xx_HAL_Driver/Src/stm32f1xx_hal_i2c.c **** {
 6797              		.loc 1 2984 0
 6798              		.cfi_startproc
 6799              		@ args = 0, pretend = 0, frame = 16
 6800              		@ frame_needed = 1, uses_anonymous_args = 0
 6801 0000 80B5     		push	{r7, lr}
 6802              	.LCFI192:
 6803              		.cfi_def_cfa_offset 8
 6804              		.cfi_offset 7, -8
 6805              		.cfi_offset 14, -4
 6806 0002 84B0     		sub	sp, sp, #16
 6807              	.LCFI193:
 6808              		.cfi_def_cfa_offset 24
 6809 0004 00AF     		add	r7, sp, #0
 6810              	.LCFI194:
 6811              		.cfi_def_cfa_register 7
 6812 0006 7860     		str	r0, [r7, #4]
2985:Drivers/STM32F1xx_HAL_Driver/Src/stm32f1xx_hal_i2c.c ****   uint32_t tmp = 0;
 6813              		.loc 1 2985 0
 6814 0008 0023     		movs	r3, #0
 6815 000a FB60     		str	r3, [r7, #12]
2986:Drivers/STM32F1xx_HAL_Driver/Src/stm32f1xx_hal_i2c.c **** 
2987:Drivers/STM32F1xx_HAL_Driver/Src/stm32f1xx_hal_i2c.c ****   tmp = hi2c->XferCount;
 6816              		.loc 1 2987 0
 6817 000c 7B68     		ldr	r3, [r7, #4]
 6818 000e 5B8D     		ldrh	r3, [r3, #42]	@ movhi
 6819 0010 9BB2     		uxth	r3, r3
 6820 0012 FB60     		str	r3, [r7, #12]
2988:Drivers/STM32F1xx_HAL_Driver/Src/stm32f1xx_hal_i2c.c ****   if(tmp > 3)
 6821              		.loc 1 2988 0
 6822 0014 FB68     		ldr	r3, [r7, #12]
 6823 0016 032B     		cmp	r3, #3
 6824 0018 11D9     		bls	.L337
2989:Drivers/STM32F1xx_HAL_Driver/Src/stm32f1xx_hal_i2c.c ****   {
2990:Drivers/STM32F1xx_HAL_Driver/Src/stm32f1xx_hal_i2c.c ****     /* Read data from DR */
2991:Drivers/STM32F1xx_HAL_Driver/Src/stm32f1xx_hal_i2c.c ****     (*hi2c->pBuffPtr++) = hi2c->Instance->DR;
 6825              		.loc 1 2991 0
 6826 001a 7B68     		ldr	r3, [r7, #4]
 6827 001c 5B6A     		ldr	r3, [r3, #36]
 6828 001e 591C     		adds	r1, r3, #1
 6829 0020 7A68     		ldr	r2, [r7, #4]
 6830 0022 5162     		str	r1, [r2, #36]
 6831 0024 7A68     		ldr	r2, [r7, #4]
 6832 0026 1268     		ldr	r2, [r2]
 6833 0028 1269     		ldr	r2, [r2, #16]
 6834 002a D2B2     		uxtb	r2, r2
 6835 002c 1A70     		strb	r2, [r3]
2992:Drivers/STM32F1xx_HAL_Driver/Src/stm32f1xx_hal_i2c.c ****     hi2c->XferCount--;
 6836              		.loc 1 2992 0
 6837 002e 7B68     		ldr	r3, [r7, #4]
 6838 0030 5B8D     		ldrh	r3, [r3, #42]	@ movhi
ARM GAS  /var/folders/kh/x4vltyy52lbg7p4pcyglc5080000gp/T//cccbl2Nm.s 			page 174


 6839 0032 9BB2     		uxth	r3, r3
 6840 0034 013B     		subs	r3, r3, #1
 6841 0036 9AB2     		uxth	r2, r3
 6842 0038 7B68     		ldr	r3, [r7, #4]
 6843 003a 5A85     		strh	r2, [r3, #42]	@ movhi
 6844 003c 3CE0     		b	.L338
 6845              	.L337:
2993:Drivers/STM32F1xx_HAL_Driver/Src/stm32f1xx_hal_i2c.c ****   }
2994:Drivers/STM32F1xx_HAL_Driver/Src/stm32f1xx_hal_i2c.c ****   else if((tmp == 2) || (tmp == 3))
 6846              		.loc 1 2994 0
 6847 003e FB68     		ldr	r3, [r7, #12]
 6848 0040 022B     		cmp	r3, #2
 6849 0042 02D0     		beq	.L339
 6850              		.loc 1 2994 0 is_stmt 0 discriminator 1
 6851 0044 FB68     		ldr	r3, [r7, #12]
 6852 0046 032B     		cmp	r3, #3
 6853 0048 08D1     		bne	.L340
 6854              	.L339:
2995:Drivers/STM32F1xx_HAL_Driver/Src/stm32f1xx_hal_i2c.c ****   {
2996:Drivers/STM32F1xx_HAL_Driver/Src/stm32f1xx_hal_i2c.c ****     /* Disable BUF interrupt */
2997:Drivers/STM32F1xx_HAL_Driver/Src/stm32f1xx_hal_i2c.c ****     __HAL_I2C_DISABLE_IT(hi2c, I2C_IT_BUF);
 6855              		.loc 1 2997 0 is_stmt 1
 6856 004a 7B68     		ldr	r3, [r7, #4]
 6857 004c 1B68     		ldr	r3, [r3]
 6858 004e 7A68     		ldr	r2, [r7, #4]
 6859 0050 1268     		ldr	r2, [r2]
 6860 0052 5268     		ldr	r2, [r2, #4]
 6861 0054 22F48062 		bic	r2, r2, #1024
 6862 0058 5A60     		str	r2, [r3, #4]
 6863 005a 2DE0     		b	.L338
 6864              	.L340:
2998:Drivers/STM32F1xx_HAL_Driver/Src/stm32f1xx_hal_i2c.c ****   }
2999:Drivers/STM32F1xx_HAL_Driver/Src/stm32f1xx_hal_i2c.c ****   else
3000:Drivers/STM32F1xx_HAL_Driver/Src/stm32f1xx_hal_i2c.c ****   {
3001:Drivers/STM32F1xx_HAL_Driver/Src/stm32f1xx_hal_i2c.c ****     /* Disable EVT, BUF and ERR interrupt */
3002:Drivers/STM32F1xx_HAL_Driver/Src/stm32f1xx_hal_i2c.c ****     __HAL_I2C_DISABLE_IT(hi2c, I2C_IT_EVT | I2C_IT_BUF | I2C_IT_ERR);
 6865              		.loc 1 3002 0
 6866 005c 7B68     		ldr	r3, [r7, #4]
 6867 005e 1B68     		ldr	r3, [r3]
 6868 0060 7A68     		ldr	r2, [r7, #4]
 6869 0062 1268     		ldr	r2, [r2]
 6870 0064 5268     		ldr	r2, [r2, #4]
 6871 0066 22F4E062 		bic	r2, r2, #1792
 6872 006a 5A60     		str	r2, [r3, #4]
3003:Drivers/STM32F1xx_HAL_Driver/Src/stm32f1xx_hal_i2c.c **** 
3004:Drivers/STM32F1xx_HAL_Driver/Src/stm32f1xx_hal_i2c.c ****     /* Read data from DR */
3005:Drivers/STM32F1xx_HAL_Driver/Src/stm32f1xx_hal_i2c.c ****     (*hi2c->pBuffPtr++) = hi2c->Instance->DR;
 6873              		.loc 1 3005 0
 6874 006c 7B68     		ldr	r3, [r7, #4]
 6875 006e 5B6A     		ldr	r3, [r3, #36]
 6876 0070 591C     		adds	r1, r3, #1
 6877 0072 7A68     		ldr	r2, [r7, #4]
 6878 0074 5162     		str	r1, [r2, #36]
 6879 0076 7A68     		ldr	r2, [r7, #4]
 6880 0078 1268     		ldr	r2, [r2]
 6881 007a 1269     		ldr	r2, [r2, #16]
 6882 007c D2B2     		uxtb	r2, r2
ARM GAS  /var/folders/kh/x4vltyy52lbg7p4pcyglc5080000gp/T//cccbl2Nm.s 			page 175


 6883 007e 1A70     		strb	r2, [r3]
3006:Drivers/STM32F1xx_HAL_Driver/Src/stm32f1xx_hal_i2c.c ****     hi2c->XferCount--;
 6884              		.loc 1 3006 0
 6885 0080 7B68     		ldr	r3, [r7, #4]
 6886 0082 5B8D     		ldrh	r3, [r3, #42]	@ movhi
 6887 0084 9BB2     		uxth	r3, r3
 6888 0086 013B     		subs	r3, r3, #1
 6889 0088 9AB2     		uxth	r2, r3
 6890 008a 7B68     		ldr	r3, [r7, #4]
 6891 008c 5A85     		strh	r2, [r3, #42]	@ movhi
3007:Drivers/STM32F1xx_HAL_Driver/Src/stm32f1xx_hal_i2c.c **** 
3008:Drivers/STM32F1xx_HAL_Driver/Src/stm32f1xx_hal_i2c.c ****     if(hi2c->Mode == HAL_I2C_MODE_MEM)
 6892              		.loc 1 3008 0
 6893 008e 7B68     		ldr	r3, [r7, #4]
 6894 0090 93F83630 		ldrb	r3, [r3, #54]
 6895 0094 DBB2     		uxtb	r3, r3
 6896 0096 402B     		cmp	r3, #64
 6897 0098 07D1     		bne	.L341
3009:Drivers/STM32F1xx_HAL_Driver/Src/stm32f1xx_hal_i2c.c ****     {
3010:Drivers/STM32F1xx_HAL_Driver/Src/stm32f1xx_hal_i2c.c ****       hi2c->State = HAL_I2C_STATE_READY;
 6898              		.loc 1 3010 0
 6899 009a 7B68     		ldr	r3, [r7, #4]
 6900 009c 2022     		movs	r2, #32
 6901 009e 83F83520 		strb	r2, [r3, #53]
3011:Drivers/STM32F1xx_HAL_Driver/Src/stm32f1xx_hal_i2c.c **** 
3012:Drivers/STM32F1xx_HAL_Driver/Src/stm32f1xx_hal_i2c.c ****       HAL_I2C_MemRxCpltCallback(hi2c);
 6902              		.loc 1 3012 0
 6903 00a2 7868     		ldr	r0, [r7, #4]
 6904 00a4 FFF7FEFF 		bl	HAL_I2C_MemRxCpltCallback
 6905 00a8 06E0     		b	.L338
 6906              	.L341:
3013:Drivers/STM32F1xx_HAL_Driver/Src/stm32f1xx_hal_i2c.c ****     }
3014:Drivers/STM32F1xx_HAL_Driver/Src/stm32f1xx_hal_i2c.c ****     else
3015:Drivers/STM32F1xx_HAL_Driver/Src/stm32f1xx_hal_i2c.c ****     {
3016:Drivers/STM32F1xx_HAL_Driver/Src/stm32f1xx_hal_i2c.c ****       hi2c->State = HAL_I2C_STATE_READY;
 6907              		.loc 1 3016 0
 6908 00aa 7B68     		ldr	r3, [r7, #4]
 6909 00ac 2022     		movs	r2, #32
 6910 00ae 83F83520 		strb	r2, [r3, #53]
3017:Drivers/STM32F1xx_HAL_Driver/Src/stm32f1xx_hal_i2c.c **** 
3018:Drivers/STM32F1xx_HAL_Driver/Src/stm32f1xx_hal_i2c.c ****       HAL_I2C_MasterRxCpltCallback(hi2c);
 6911              		.loc 1 3018 0
 6912 00b2 7868     		ldr	r0, [r7, #4]
 6913 00b4 FFF7FEFF 		bl	HAL_I2C_MasterRxCpltCallback
 6914              	.L338:
3019:Drivers/STM32F1xx_HAL_Driver/Src/stm32f1xx_hal_i2c.c ****     }
3020:Drivers/STM32F1xx_HAL_Driver/Src/stm32f1xx_hal_i2c.c ****   }
3021:Drivers/STM32F1xx_HAL_Driver/Src/stm32f1xx_hal_i2c.c ****   return HAL_OK;
 6915              		.loc 1 3021 0
 6916 00b8 0023     		movs	r3, #0
3022:Drivers/STM32F1xx_HAL_Driver/Src/stm32f1xx_hal_i2c.c **** }
 6917              		.loc 1 3022 0
 6918 00ba 1846     		mov	r0, r3
 6919 00bc 1037     		adds	r7, r7, #16
 6920              	.LCFI195:
 6921              		.cfi_def_cfa_offset 8
 6922 00be BD46     		mov	sp, r7
ARM GAS  /var/folders/kh/x4vltyy52lbg7p4pcyglc5080000gp/T//cccbl2Nm.s 			page 176


 6923              	.LCFI196:
 6924              		.cfi_def_cfa_register 13
 6925              		@ sp needed
 6926 00c0 80BD     		pop	{r7, pc}
 6927              		.cfi_endproc
 6928              	.LFE100:
 6930 00c2 00BF     		.section	.text.I2C_MasterReceive_BTF,"ax",%progbits
 6931              		.align	2
 6932              		.thumb
 6933              		.thumb_func
 6935              	I2C_MasterReceive_BTF:
 6936              	.LFB101:
3023:Drivers/STM32F1xx_HAL_Driver/Src/stm32f1xx_hal_i2c.c **** 
3024:Drivers/STM32F1xx_HAL_Driver/Src/stm32f1xx_hal_i2c.c **** /**
3025:Drivers/STM32F1xx_HAL_Driver/Src/stm32f1xx_hal_i2c.c ****   * @brief  Handle BTF flag for Master Receive Mode
3026:Drivers/STM32F1xx_HAL_Driver/Src/stm32f1xx_hal_i2c.c ****   * @param  hi2c Pointer to a I2C_HandleTypeDef structure that contains
3027:Drivers/STM32F1xx_HAL_Driver/Src/stm32f1xx_hal_i2c.c ****   *                the configuration information for the specified I2C.
3028:Drivers/STM32F1xx_HAL_Driver/Src/stm32f1xx_hal_i2c.c ****   * @retval HAL status
3029:Drivers/STM32F1xx_HAL_Driver/Src/stm32f1xx_hal_i2c.c ****   */
3030:Drivers/STM32F1xx_HAL_Driver/Src/stm32f1xx_hal_i2c.c **** static HAL_StatusTypeDef I2C_MasterReceive_BTF(I2C_HandleTypeDef *hi2c)
3031:Drivers/STM32F1xx_HAL_Driver/Src/stm32f1xx_hal_i2c.c **** {
 6937              		.loc 1 3031 0
 6938              		.cfi_startproc
 6939              		@ args = 0, pretend = 0, frame = 8
 6940              		@ frame_needed = 1, uses_anonymous_args = 0
 6941 0000 80B5     		push	{r7, lr}
 6942              	.LCFI197:
 6943              		.cfi_def_cfa_offset 8
 6944              		.cfi_offset 7, -8
 6945              		.cfi_offset 14, -4
 6946 0002 82B0     		sub	sp, sp, #8
 6947              	.LCFI198:
 6948              		.cfi_def_cfa_offset 16
 6949 0004 00AF     		add	r7, sp, #0
 6950              	.LCFI199:
 6951              		.cfi_def_cfa_register 7
 6952 0006 7860     		str	r0, [r7, #4]
3032:Drivers/STM32F1xx_HAL_Driver/Src/stm32f1xx_hal_i2c.c ****   if(hi2c->XferCount == 3)
 6953              		.loc 1 3032 0
 6954 0008 7B68     		ldr	r3, [r7, #4]
 6955 000a 5B8D     		ldrh	r3, [r3, #42]	@ movhi
 6956 000c 9BB2     		uxth	r3, r3
 6957 000e 032B     		cmp	r3, #3
 6958 0010 19D1     		bne	.L344
3033:Drivers/STM32F1xx_HAL_Driver/Src/stm32f1xx_hal_i2c.c ****   {
3034:Drivers/STM32F1xx_HAL_Driver/Src/stm32f1xx_hal_i2c.c ****     /* Disable Acknowledge */
3035:Drivers/STM32F1xx_HAL_Driver/Src/stm32f1xx_hal_i2c.c ****     CLEAR_BIT(hi2c->Instance->CR1, I2C_CR1_ACK);
 6959              		.loc 1 3035 0
 6960 0012 7B68     		ldr	r3, [r7, #4]
 6961 0014 1B68     		ldr	r3, [r3]
 6962 0016 7A68     		ldr	r2, [r7, #4]
 6963 0018 1268     		ldr	r2, [r2]
 6964 001a 1268     		ldr	r2, [r2]
 6965 001c 22F48062 		bic	r2, r2, #1024
 6966 0020 1A60     		str	r2, [r3]
3036:Drivers/STM32F1xx_HAL_Driver/Src/stm32f1xx_hal_i2c.c **** 
3037:Drivers/STM32F1xx_HAL_Driver/Src/stm32f1xx_hal_i2c.c ****     /* Read data from DR */
ARM GAS  /var/folders/kh/x4vltyy52lbg7p4pcyglc5080000gp/T//cccbl2Nm.s 			page 177


3038:Drivers/STM32F1xx_HAL_Driver/Src/stm32f1xx_hal_i2c.c ****     (*hi2c->pBuffPtr++) = hi2c->Instance->DR;
 6967              		.loc 1 3038 0
 6968 0022 7B68     		ldr	r3, [r7, #4]
 6969 0024 5B6A     		ldr	r3, [r3, #36]
 6970 0026 591C     		adds	r1, r3, #1
 6971 0028 7A68     		ldr	r2, [r7, #4]
 6972 002a 5162     		str	r1, [r2, #36]
 6973 002c 7A68     		ldr	r2, [r7, #4]
 6974 002e 1268     		ldr	r2, [r2]
 6975 0030 1269     		ldr	r2, [r2, #16]
 6976 0032 D2B2     		uxtb	r2, r2
 6977 0034 1A70     		strb	r2, [r3]
3039:Drivers/STM32F1xx_HAL_Driver/Src/stm32f1xx_hal_i2c.c ****     hi2c->XferCount--;
 6978              		.loc 1 3039 0
 6979 0036 7B68     		ldr	r3, [r7, #4]
 6980 0038 5B8D     		ldrh	r3, [r3, #42]	@ movhi
 6981 003a 9BB2     		uxth	r3, r3
 6982 003c 013B     		subs	r3, r3, #1
 6983 003e 9AB2     		uxth	r2, r3
 6984 0040 7B68     		ldr	r3, [r7, #4]
 6985 0042 5A85     		strh	r2, [r3, #42]	@ movhi
 6986 0044 5DE0     		b	.L345
 6987              	.L344:
3040:Drivers/STM32F1xx_HAL_Driver/Src/stm32f1xx_hal_i2c.c ****   }
3041:Drivers/STM32F1xx_HAL_Driver/Src/stm32f1xx_hal_i2c.c ****   else if(hi2c->XferCount == 2)
 6988              		.loc 1 3041 0
 6989 0046 7B68     		ldr	r3, [r7, #4]
 6990 0048 5B8D     		ldrh	r3, [r3, #42]	@ movhi
 6991 004a 9BB2     		uxth	r3, r3
 6992 004c 022B     		cmp	r3, #2
 6993 004e 47D1     		bne	.L346
3042:Drivers/STM32F1xx_HAL_Driver/Src/stm32f1xx_hal_i2c.c ****   {
3043:Drivers/STM32F1xx_HAL_Driver/Src/stm32f1xx_hal_i2c.c ****     /* Disable EVT and ERR interrupt */
3044:Drivers/STM32F1xx_HAL_Driver/Src/stm32f1xx_hal_i2c.c ****     /* Workaround - Wong data read into data register */
3045:Drivers/STM32F1xx_HAL_Driver/Src/stm32f1xx_hal_i2c.c ****     __HAL_I2C_DISABLE_IT(hi2c, I2C_IT_EVT | I2C_IT_ERR);
 6994              		.loc 1 3045 0
 6995 0050 7B68     		ldr	r3, [r7, #4]
 6996 0052 1B68     		ldr	r3, [r3]
 6997 0054 7A68     		ldr	r2, [r7, #4]
 6998 0056 1268     		ldr	r2, [r2]
 6999 0058 5268     		ldr	r2, [r2, #4]
 7000 005a 22F44072 		bic	r2, r2, #768
 7001 005e 5A60     		str	r2, [r3, #4]
3046:Drivers/STM32F1xx_HAL_Driver/Src/stm32f1xx_hal_i2c.c **** 
3047:Drivers/STM32F1xx_HAL_Driver/Src/stm32f1xx_hal_i2c.c ****     /* Generate Stop */
3048:Drivers/STM32F1xx_HAL_Driver/Src/stm32f1xx_hal_i2c.c ****     SET_BIT(hi2c->Instance->CR1, I2C_CR1_STOP);
 7002              		.loc 1 3048 0
 7003 0060 7B68     		ldr	r3, [r7, #4]
 7004 0062 1B68     		ldr	r3, [r3]
 7005 0064 7A68     		ldr	r2, [r7, #4]
 7006 0066 1268     		ldr	r2, [r2]
 7007 0068 1268     		ldr	r2, [r2]
 7008 006a 42F40072 		orr	r2, r2, #512
 7009 006e 1A60     		str	r2, [r3]
3049:Drivers/STM32F1xx_HAL_Driver/Src/stm32f1xx_hal_i2c.c **** 
3050:Drivers/STM32F1xx_HAL_Driver/Src/stm32f1xx_hal_i2c.c ****     /* Read data from DR */
3051:Drivers/STM32F1xx_HAL_Driver/Src/stm32f1xx_hal_i2c.c ****     (*hi2c->pBuffPtr++) = hi2c->Instance->DR;
ARM GAS  /var/folders/kh/x4vltyy52lbg7p4pcyglc5080000gp/T//cccbl2Nm.s 			page 178


 7010              		.loc 1 3051 0
 7011 0070 7B68     		ldr	r3, [r7, #4]
 7012 0072 5B6A     		ldr	r3, [r3, #36]
 7013 0074 591C     		adds	r1, r3, #1
 7014 0076 7A68     		ldr	r2, [r7, #4]
 7015 0078 5162     		str	r1, [r2, #36]
 7016 007a 7A68     		ldr	r2, [r7, #4]
 7017 007c 1268     		ldr	r2, [r2]
 7018 007e 1269     		ldr	r2, [r2, #16]
 7019 0080 D2B2     		uxtb	r2, r2
 7020 0082 1A70     		strb	r2, [r3]
3052:Drivers/STM32F1xx_HAL_Driver/Src/stm32f1xx_hal_i2c.c ****     hi2c->XferCount--;
 7021              		.loc 1 3052 0
 7022 0084 7B68     		ldr	r3, [r7, #4]
 7023 0086 5B8D     		ldrh	r3, [r3, #42]	@ movhi
 7024 0088 9BB2     		uxth	r3, r3
 7025 008a 013B     		subs	r3, r3, #1
 7026 008c 9AB2     		uxth	r2, r3
 7027 008e 7B68     		ldr	r3, [r7, #4]
 7028 0090 5A85     		strh	r2, [r3, #42]	@ movhi
3053:Drivers/STM32F1xx_HAL_Driver/Src/stm32f1xx_hal_i2c.c **** 
3054:Drivers/STM32F1xx_HAL_Driver/Src/stm32f1xx_hal_i2c.c ****     /* Read data from DR */
3055:Drivers/STM32F1xx_HAL_Driver/Src/stm32f1xx_hal_i2c.c ****     (*hi2c->pBuffPtr++) = hi2c->Instance->DR;
 7029              		.loc 1 3055 0
 7030 0092 7B68     		ldr	r3, [r7, #4]
 7031 0094 5B6A     		ldr	r3, [r3, #36]
 7032 0096 591C     		adds	r1, r3, #1
 7033 0098 7A68     		ldr	r2, [r7, #4]
 7034 009a 5162     		str	r1, [r2, #36]
 7035 009c 7A68     		ldr	r2, [r7, #4]
 7036 009e 1268     		ldr	r2, [r2]
 7037 00a0 1269     		ldr	r2, [r2, #16]
 7038 00a2 D2B2     		uxtb	r2, r2
 7039 00a4 1A70     		strb	r2, [r3]
3056:Drivers/STM32F1xx_HAL_Driver/Src/stm32f1xx_hal_i2c.c ****     hi2c->XferCount--;
 7040              		.loc 1 3056 0
 7041 00a6 7B68     		ldr	r3, [r7, #4]
 7042 00a8 5B8D     		ldrh	r3, [r3, #42]	@ movhi
 7043 00aa 9BB2     		uxth	r3, r3
 7044 00ac 013B     		subs	r3, r3, #1
 7045 00ae 9AB2     		uxth	r2, r3
 7046 00b0 7B68     		ldr	r3, [r7, #4]
 7047 00b2 5A85     		strh	r2, [r3, #42]	@ movhi
3057:Drivers/STM32F1xx_HAL_Driver/Src/stm32f1xx_hal_i2c.c **** 
3058:Drivers/STM32F1xx_HAL_Driver/Src/stm32f1xx_hal_i2c.c ****     if(hi2c->Mode == HAL_I2C_MODE_MEM)
 7048              		.loc 1 3058 0
 7049 00b4 7B68     		ldr	r3, [r7, #4]
 7050 00b6 93F83630 		ldrb	r3, [r3, #54]
 7051 00ba DBB2     		uxtb	r3, r3
 7052 00bc 402B     		cmp	r3, #64
 7053 00be 07D1     		bne	.L347
3059:Drivers/STM32F1xx_HAL_Driver/Src/stm32f1xx_hal_i2c.c ****     {
3060:Drivers/STM32F1xx_HAL_Driver/Src/stm32f1xx_hal_i2c.c ****       hi2c->State = HAL_I2C_STATE_READY;
 7054              		.loc 1 3060 0
 7055 00c0 7B68     		ldr	r3, [r7, #4]
 7056 00c2 2022     		movs	r2, #32
 7057 00c4 83F83520 		strb	r2, [r3, #53]
ARM GAS  /var/folders/kh/x4vltyy52lbg7p4pcyglc5080000gp/T//cccbl2Nm.s 			page 179


3061:Drivers/STM32F1xx_HAL_Driver/Src/stm32f1xx_hal_i2c.c **** 
3062:Drivers/STM32F1xx_HAL_Driver/Src/stm32f1xx_hal_i2c.c ****       HAL_I2C_MemRxCpltCallback(hi2c);
 7058              		.loc 1 3062 0
 7059 00c8 7868     		ldr	r0, [r7, #4]
 7060 00ca FFF7FEFF 		bl	HAL_I2C_MemRxCpltCallback
 7061 00ce 18E0     		b	.L345
 7062              	.L347:
3063:Drivers/STM32F1xx_HAL_Driver/Src/stm32f1xx_hal_i2c.c ****     }
3064:Drivers/STM32F1xx_HAL_Driver/Src/stm32f1xx_hal_i2c.c ****     else
3065:Drivers/STM32F1xx_HAL_Driver/Src/stm32f1xx_hal_i2c.c ****     {
3066:Drivers/STM32F1xx_HAL_Driver/Src/stm32f1xx_hal_i2c.c ****       hi2c->State = HAL_I2C_STATE_READY;
 7063              		.loc 1 3066 0
 7064 00d0 7B68     		ldr	r3, [r7, #4]
 7065 00d2 2022     		movs	r2, #32
 7066 00d4 83F83520 		strb	r2, [r3, #53]
3067:Drivers/STM32F1xx_HAL_Driver/Src/stm32f1xx_hal_i2c.c **** 
3068:Drivers/STM32F1xx_HAL_Driver/Src/stm32f1xx_hal_i2c.c ****       HAL_I2C_MasterRxCpltCallback(hi2c);
 7067              		.loc 1 3068 0
 7068 00d8 7868     		ldr	r0, [r7, #4]
 7069 00da FFF7FEFF 		bl	HAL_I2C_MasterRxCpltCallback
 7070 00de 10E0     		b	.L345
 7071              	.L346:
3069:Drivers/STM32F1xx_HAL_Driver/Src/stm32f1xx_hal_i2c.c ****     }
3070:Drivers/STM32F1xx_HAL_Driver/Src/stm32f1xx_hal_i2c.c ****   }
3071:Drivers/STM32F1xx_HAL_Driver/Src/stm32f1xx_hal_i2c.c ****   else
3072:Drivers/STM32F1xx_HAL_Driver/Src/stm32f1xx_hal_i2c.c ****   {
3073:Drivers/STM32F1xx_HAL_Driver/Src/stm32f1xx_hal_i2c.c ****     /* Read data from DR */
3074:Drivers/STM32F1xx_HAL_Driver/Src/stm32f1xx_hal_i2c.c ****     (*hi2c->pBuffPtr++) = hi2c->Instance->DR;
 7072              		.loc 1 3074 0
 7073 00e0 7B68     		ldr	r3, [r7, #4]
 7074 00e2 5B6A     		ldr	r3, [r3, #36]
 7075 00e4 591C     		adds	r1, r3, #1
 7076 00e6 7A68     		ldr	r2, [r7, #4]
 7077 00e8 5162     		str	r1, [r2, #36]
 7078 00ea 7A68     		ldr	r2, [r7, #4]
 7079 00ec 1268     		ldr	r2, [r2]
 7080 00ee 1269     		ldr	r2, [r2, #16]
 7081 00f0 D2B2     		uxtb	r2, r2
 7082 00f2 1A70     		strb	r2, [r3]
3075:Drivers/STM32F1xx_HAL_Driver/Src/stm32f1xx_hal_i2c.c ****     hi2c->XferCount--;
 7083              		.loc 1 3075 0
 7084 00f4 7B68     		ldr	r3, [r7, #4]
 7085 00f6 5B8D     		ldrh	r3, [r3, #42]	@ movhi
 7086 00f8 9BB2     		uxth	r3, r3
 7087 00fa 013B     		subs	r3, r3, #1
 7088 00fc 9AB2     		uxth	r2, r3
 7089 00fe 7B68     		ldr	r3, [r7, #4]
 7090 0100 5A85     		strh	r2, [r3, #42]	@ movhi
 7091              	.L345:
3076:Drivers/STM32F1xx_HAL_Driver/Src/stm32f1xx_hal_i2c.c ****   }
3077:Drivers/STM32F1xx_HAL_Driver/Src/stm32f1xx_hal_i2c.c ****   return HAL_OK;
 7092              		.loc 1 3077 0
 7093 0102 0023     		movs	r3, #0
3078:Drivers/STM32F1xx_HAL_Driver/Src/stm32f1xx_hal_i2c.c **** }
 7094              		.loc 1 3078 0
 7095 0104 1846     		mov	r0, r3
 7096 0106 0837     		adds	r7, r7, #8
ARM GAS  /var/folders/kh/x4vltyy52lbg7p4pcyglc5080000gp/T//cccbl2Nm.s 			page 180


 7097              	.LCFI200:
 7098              		.cfi_def_cfa_offset 8
 7099 0108 BD46     		mov	sp, r7
 7100              	.LCFI201:
 7101              		.cfi_def_cfa_register 13
 7102              		@ sp needed
 7103 010a 80BD     		pop	{r7, pc}
 7104              		.cfi_endproc
 7105              	.LFE101:
 7107              		.section	.text.I2C_SlaveTransmit_TXE,"ax",%progbits
 7108              		.align	2
 7109              		.thumb
 7110              		.thumb_func
 7112              	I2C_SlaveTransmit_TXE:
 7113              	.LFB102:
3079:Drivers/STM32F1xx_HAL_Driver/Src/stm32f1xx_hal_i2c.c **** 
3080:Drivers/STM32F1xx_HAL_Driver/Src/stm32f1xx_hal_i2c.c **** /**
3081:Drivers/STM32F1xx_HAL_Driver/Src/stm32f1xx_hal_i2c.c ****   * @brief  Handle TXE flag for Slave Transmit Mode
3082:Drivers/STM32F1xx_HAL_Driver/Src/stm32f1xx_hal_i2c.c ****   * @param  hi2c Pointer to a I2C_HandleTypeDef structure that contains
3083:Drivers/STM32F1xx_HAL_Driver/Src/stm32f1xx_hal_i2c.c ****   *                the configuration information for the specified I2C.
3084:Drivers/STM32F1xx_HAL_Driver/Src/stm32f1xx_hal_i2c.c ****   * @retval HAL status
3085:Drivers/STM32F1xx_HAL_Driver/Src/stm32f1xx_hal_i2c.c ****   */
3086:Drivers/STM32F1xx_HAL_Driver/Src/stm32f1xx_hal_i2c.c **** static HAL_StatusTypeDef I2C_SlaveTransmit_TXE(I2C_HandleTypeDef *hi2c)
3087:Drivers/STM32F1xx_HAL_Driver/Src/stm32f1xx_hal_i2c.c **** {
 7114              		.loc 1 3087 0
 7115              		.cfi_startproc
 7116              		@ args = 0, pretend = 0, frame = 8
 7117              		@ frame_needed = 1, uses_anonymous_args = 0
 7118              		@ link register save eliminated.
 7119 0000 80B4     		push	{r7}
 7120              	.LCFI202:
 7121              		.cfi_def_cfa_offset 4
 7122              		.cfi_offset 7, -4
 7123 0002 83B0     		sub	sp, sp, #12
 7124              	.LCFI203:
 7125              		.cfi_def_cfa_offset 16
 7126 0004 00AF     		add	r7, sp, #0
 7127              	.LCFI204:
 7128              		.cfi_def_cfa_register 7
 7129 0006 7860     		str	r0, [r7, #4]
3088:Drivers/STM32F1xx_HAL_Driver/Src/stm32f1xx_hal_i2c.c ****   if(hi2c->XferCount != 0)
 7130              		.loc 1 3088 0
 7131 0008 7B68     		ldr	r3, [r7, #4]
 7132 000a 5B8D     		ldrh	r3, [r3, #42]	@ movhi
 7133 000c 9BB2     		uxth	r3, r3
 7134 000e 002B     		cmp	r3, #0
 7135 0010 0FD0     		beq	.L351
3089:Drivers/STM32F1xx_HAL_Driver/Src/stm32f1xx_hal_i2c.c ****   {
3090:Drivers/STM32F1xx_HAL_Driver/Src/stm32f1xx_hal_i2c.c ****     /* Write data to DR */
3091:Drivers/STM32F1xx_HAL_Driver/Src/stm32f1xx_hal_i2c.c ****     hi2c->Instance->DR = (*hi2c->pBuffPtr++);
 7136              		.loc 1 3091 0
 7137 0012 7B68     		ldr	r3, [r7, #4]
 7138 0014 1A68     		ldr	r2, [r3]
 7139 0016 7B68     		ldr	r3, [r7, #4]
 7140 0018 5B6A     		ldr	r3, [r3, #36]
 7141 001a 581C     		adds	r0, r3, #1
 7142 001c 7968     		ldr	r1, [r7, #4]
ARM GAS  /var/folders/kh/x4vltyy52lbg7p4pcyglc5080000gp/T//cccbl2Nm.s 			page 181


 7143 001e 4862     		str	r0, [r1, #36]
 7144 0020 1B78     		ldrb	r3, [r3]	@ zero_extendqisi2
 7145 0022 1361     		str	r3, [r2, #16]
3092:Drivers/STM32F1xx_HAL_Driver/Src/stm32f1xx_hal_i2c.c ****     hi2c->XferCount--;
 7146              		.loc 1 3092 0
 7147 0024 7B68     		ldr	r3, [r7, #4]
 7148 0026 5B8D     		ldrh	r3, [r3, #42]	@ movhi
 7149 0028 9BB2     		uxth	r3, r3
 7150 002a 013B     		subs	r3, r3, #1
 7151 002c 9AB2     		uxth	r2, r3
 7152 002e 7B68     		ldr	r3, [r7, #4]
 7153 0030 5A85     		strh	r2, [r3, #42]	@ movhi
 7154              	.L351:
3093:Drivers/STM32F1xx_HAL_Driver/Src/stm32f1xx_hal_i2c.c ****   }
3094:Drivers/STM32F1xx_HAL_Driver/Src/stm32f1xx_hal_i2c.c ****   return HAL_OK;
 7155              		.loc 1 3094 0
 7156 0032 0023     		movs	r3, #0
3095:Drivers/STM32F1xx_HAL_Driver/Src/stm32f1xx_hal_i2c.c **** }
 7157              		.loc 1 3095 0
 7158 0034 1846     		mov	r0, r3
 7159 0036 0C37     		adds	r7, r7, #12
 7160              	.LCFI205:
 7161              		.cfi_def_cfa_offset 4
 7162 0038 BD46     		mov	sp, r7
 7163              	.LCFI206:
 7164              		.cfi_def_cfa_register 13
 7165              		@ sp needed
 7166 003a 80BC     		pop	{r7}
 7167              	.LCFI207:
 7168              		.cfi_restore 7
 7169              		.cfi_def_cfa_offset 0
 7170 003c 7047     		bx	lr
 7171              		.cfi_endproc
 7172              	.LFE102:
 7174 003e 00BF     		.section	.text.I2C_SlaveTransmit_BTF,"ax",%progbits
 7175              		.align	2
 7176              		.thumb
 7177              		.thumb_func
 7179              	I2C_SlaveTransmit_BTF:
 7180              	.LFB103:
3096:Drivers/STM32F1xx_HAL_Driver/Src/stm32f1xx_hal_i2c.c **** 
3097:Drivers/STM32F1xx_HAL_Driver/Src/stm32f1xx_hal_i2c.c **** /**
3098:Drivers/STM32F1xx_HAL_Driver/Src/stm32f1xx_hal_i2c.c ****   * @brief  Handle BTF flag for Slave Transmit Mode
3099:Drivers/STM32F1xx_HAL_Driver/Src/stm32f1xx_hal_i2c.c ****   * @param  hi2c Pointer to a I2C_HandleTypeDef structure that contains
3100:Drivers/STM32F1xx_HAL_Driver/Src/stm32f1xx_hal_i2c.c ****   *                the configuration information for the specified I2C.
3101:Drivers/STM32F1xx_HAL_Driver/Src/stm32f1xx_hal_i2c.c ****   * @retval HAL status
3102:Drivers/STM32F1xx_HAL_Driver/Src/stm32f1xx_hal_i2c.c ****   */
3103:Drivers/STM32F1xx_HAL_Driver/Src/stm32f1xx_hal_i2c.c **** static HAL_StatusTypeDef I2C_SlaveTransmit_BTF(I2C_HandleTypeDef *hi2c)
3104:Drivers/STM32F1xx_HAL_Driver/Src/stm32f1xx_hal_i2c.c **** {
 7181              		.loc 1 3104 0
 7182              		.cfi_startproc
 7183              		@ args = 0, pretend = 0, frame = 8
 7184              		@ frame_needed = 1, uses_anonymous_args = 0
 7185              		@ link register save eliminated.
 7186 0000 80B4     		push	{r7}
 7187              	.LCFI208:
 7188              		.cfi_def_cfa_offset 4
ARM GAS  /var/folders/kh/x4vltyy52lbg7p4pcyglc5080000gp/T//cccbl2Nm.s 			page 182


 7189              		.cfi_offset 7, -4
 7190 0002 83B0     		sub	sp, sp, #12
 7191              	.LCFI209:
 7192              		.cfi_def_cfa_offset 16
 7193 0004 00AF     		add	r7, sp, #0
 7194              	.LCFI210:
 7195              		.cfi_def_cfa_register 7
 7196 0006 7860     		str	r0, [r7, #4]
3105:Drivers/STM32F1xx_HAL_Driver/Src/stm32f1xx_hal_i2c.c ****   if(hi2c->XferCount != 0)
 7197              		.loc 1 3105 0
 7198 0008 7B68     		ldr	r3, [r7, #4]
 7199 000a 5B8D     		ldrh	r3, [r3, #42]	@ movhi
 7200 000c 9BB2     		uxth	r3, r3
 7201 000e 002B     		cmp	r3, #0
 7202 0010 0FD0     		beq	.L354
3106:Drivers/STM32F1xx_HAL_Driver/Src/stm32f1xx_hal_i2c.c ****   {
3107:Drivers/STM32F1xx_HAL_Driver/Src/stm32f1xx_hal_i2c.c ****     /* Write data to DR */
3108:Drivers/STM32F1xx_HAL_Driver/Src/stm32f1xx_hal_i2c.c ****     hi2c->Instance->DR = (*hi2c->pBuffPtr++);
 7203              		.loc 1 3108 0
 7204 0012 7B68     		ldr	r3, [r7, #4]
 7205 0014 1A68     		ldr	r2, [r3]
 7206 0016 7B68     		ldr	r3, [r7, #4]
 7207 0018 5B6A     		ldr	r3, [r3, #36]
 7208 001a 581C     		adds	r0, r3, #1
 7209 001c 7968     		ldr	r1, [r7, #4]
 7210 001e 4862     		str	r0, [r1, #36]
 7211 0020 1B78     		ldrb	r3, [r3]	@ zero_extendqisi2
 7212 0022 1361     		str	r3, [r2, #16]
3109:Drivers/STM32F1xx_HAL_Driver/Src/stm32f1xx_hal_i2c.c ****     hi2c->XferCount--;
 7213              		.loc 1 3109 0
 7214 0024 7B68     		ldr	r3, [r7, #4]
 7215 0026 5B8D     		ldrh	r3, [r3, #42]	@ movhi
 7216 0028 9BB2     		uxth	r3, r3
 7217 002a 013B     		subs	r3, r3, #1
 7218 002c 9AB2     		uxth	r2, r3
 7219 002e 7B68     		ldr	r3, [r7, #4]
 7220 0030 5A85     		strh	r2, [r3, #42]	@ movhi
 7221              	.L354:
3110:Drivers/STM32F1xx_HAL_Driver/Src/stm32f1xx_hal_i2c.c ****   }
3111:Drivers/STM32F1xx_HAL_Driver/Src/stm32f1xx_hal_i2c.c ****   return HAL_OK;
 7222              		.loc 1 3111 0
 7223 0032 0023     		movs	r3, #0
3112:Drivers/STM32F1xx_HAL_Driver/Src/stm32f1xx_hal_i2c.c **** }
 7224              		.loc 1 3112 0
 7225 0034 1846     		mov	r0, r3
 7226 0036 0C37     		adds	r7, r7, #12
 7227              	.LCFI211:
 7228              		.cfi_def_cfa_offset 4
 7229 0038 BD46     		mov	sp, r7
 7230              	.LCFI212:
 7231              		.cfi_def_cfa_register 13
 7232              		@ sp needed
 7233 003a 80BC     		pop	{r7}
 7234              	.LCFI213:
 7235              		.cfi_restore 7
 7236              		.cfi_def_cfa_offset 0
 7237 003c 7047     		bx	lr
ARM GAS  /var/folders/kh/x4vltyy52lbg7p4pcyglc5080000gp/T//cccbl2Nm.s 			page 183


 7238              		.cfi_endproc
 7239              	.LFE103:
 7241 003e 00BF     		.section	.text.I2C_SlaveReceive_RXNE,"ax",%progbits
 7242              		.align	2
 7243              		.thumb
 7244              		.thumb_func
 7246              	I2C_SlaveReceive_RXNE:
 7247              	.LFB104:
3113:Drivers/STM32F1xx_HAL_Driver/Src/stm32f1xx_hal_i2c.c **** 
3114:Drivers/STM32F1xx_HAL_Driver/Src/stm32f1xx_hal_i2c.c **** /**
3115:Drivers/STM32F1xx_HAL_Driver/Src/stm32f1xx_hal_i2c.c ****   * @brief  Handle RXNE flag for Slave Receive Mode
3116:Drivers/STM32F1xx_HAL_Driver/Src/stm32f1xx_hal_i2c.c ****   * @param  hi2c Pointer to a I2C_HandleTypeDef structure that contains
3117:Drivers/STM32F1xx_HAL_Driver/Src/stm32f1xx_hal_i2c.c ****   *                the configuration information for the specified I2C.
3118:Drivers/STM32F1xx_HAL_Driver/Src/stm32f1xx_hal_i2c.c ****   * @retval HAL status
3119:Drivers/STM32F1xx_HAL_Driver/Src/stm32f1xx_hal_i2c.c ****   */
3120:Drivers/STM32F1xx_HAL_Driver/Src/stm32f1xx_hal_i2c.c **** static HAL_StatusTypeDef I2C_SlaveReceive_RXNE(I2C_HandleTypeDef *hi2c)
3121:Drivers/STM32F1xx_HAL_Driver/Src/stm32f1xx_hal_i2c.c **** {
 7248              		.loc 1 3121 0
 7249              		.cfi_startproc
 7250              		@ args = 0, pretend = 0, frame = 8
 7251              		@ frame_needed = 1, uses_anonymous_args = 0
 7252              		@ link register save eliminated.
 7253 0000 80B4     		push	{r7}
 7254              	.LCFI214:
 7255              		.cfi_def_cfa_offset 4
 7256              		.cfi_offset 7, -4
 7257 0002 83B0     		sub	sp, sp, #12
 7258              	.LCFI215:
 7259              		.cfi_def_cfa_offset 16
 7260 0004 00AF     		add	r7, sp, #0
 7261              	.LCFI216:
 7262              		.cfi_def_cfa_register 7
 7263 0006 7860     		str	r0, [r7, #4]
3122:Drivers/STM32F1xx_HAL_Driver/Src/stm32f1xx_hal_i2c.c ****   if(hi2c->XferCount != 0)
 7264              		.loc 1 3122 0
 7265 0008 7B68     		ldr	r3, [r7, #4]
 7266 000a 5B8D     		ldrh	r3, [r3, #42]	@ movhi
 7267 000c 9BB2     		uxth	r3, r3
 7268 000e 002B     		cmp	r3, #0
 7269 0010 10D0     		beq	.L357
3123:Drivers/STM32F1xx_HAL_Driver/Src/stm32f1xx_hal_i2c.c ****   {
3124:Drivers/STM32F1xx_HAL_Driver/Src/stm32f1xx_hal_i2c.c ****     /* Read data from DR */
3125:Drivers/STM32F1xx_HAL_Driver/Src/stm32f1xx_hal_i2c.c ****     (*hi2c->pBuffPtr++) = hi2c->Instance->DR;
 7270              		.loc 1 3125 0
 7271 0012 7B68     		ldr	r3, [r7, #4]
 7272 0014 5B6A     		ldr	r3, [r3, #36]
 7273 0016 591C     		adds	r1, r3, #1
 7274 0018 7A68     		ldr	r2, [r7, #4]
 7275 001a 5162     		str	r1, [r2, #36]
 7276 001c 7A68     		ldr	r2, [r7, #4]
 7277 001e 1268     		ldr	r2, [r2]
 7278 0020 1269     		ldr	r2, [r2, #16]
 7279 0022 D2B2     		uxtb	r2, r2
 7280 0024 1A70     		strb	r2, [r3]
3126:Drivers/STM32F1xx_HAL_Driver/Src/stm32f1xx_hal_i2c.c ****     hi2c->XferCount--;
 7281              		.loc 1 3126 0
 7282 0026 7B68     		ldr	r3, [r7, #4]
ARM GAS  /var/folders/kh/x4vltyy52lbg7p4pcyglc5080000gp/T//cccbl2Nm.s 			page 184


 7283 0028 5B8D     		ldrh	r3, [r3, #42]	@ movhi
 7284 002a 9BB2     		uxth	r3, r3
 7285 002c 013B     		subs	r3, r3, #1
 7286 002e 9AB2     		uxth	r2, r3
 7287 0030 7B68     		ldr	r3, [r7, #4]
 7288 0032 5A85     		strh	r2, [r3, #42]	@ movhi
 7289              	.L357:
3127:Drivers/STM32F1xx_HAL_Driver/Src/stm32f1xx_hal_i2c.c ****   }
3128:Drivers/STM32F1xx_HAL_Driver/Src/stm32f1xx_hal_i2c.c ****   return HAL_OK;
 7290              		.loc 1 3128 0
 7291 0034 0023     		movs	r3, #0
3129:Drivers/STM32F1xx_HAL_Driver/Src/stm32f1xx_hal_i2c.c **** }
 7292              		.loc 1 3129 0
 7293 0036 1846     		mov	r0, r3
 7294 0038 0C37     		adds	r7, r7, #12
 7295              	.LCFI217:
 7296              		.cfi_def_cfa_offset 4
 7297 003a BD46     		mov	sp, r7
 7298              	.LCFI218:
 7299              		.cfi_def_cfa_register 13
 7300              		@ sp needed
 7301 003c 80BC     		pop	{r7}
 7302              	.LCFI219:
 7303              		.cfi_restore 7
 7304              		.cfi_def_cfa_offset 0
 7305 003e 7047     		bx	lr
 7306              		.cfi_endproc
 7307              	.LFE104:
 7309              		.section	.text.I2C_SlaveReceive_BTF,"ax",%progbits
 7310              		.align	2
 7311              		.thumb
 7312              		.thumb_func
 7314              	I2C_SlaveReceive_BTF:
 7315              	.LFB105:
3130:Drivers/STM32F1xx_HAL_Driver/Src/stm32f1xx_hal_i2c.c **** 
3131:Drivers/STM32F1xx_HAL_Driver/Src/stm32f1xx_hal_i2c.c **** /**
3132:Drivers/STM32F1xx_HAL_Driver/Src/stm32f1xx_hal_i2c.c ****   * @brief  Handle BTF flag for Slave Receive Mode
3133:Drivers/STM32F1xx_HAL_Driver/Src/stm32f1xx_hal_i2c.c ****   * @param  hi2c Pointer to a I2C_HandleTypeDef structure that contains
3134:Drivers/STM32F1xx_HAL_Driver/Src/stm32f1xx_hal_i2c.c ****   *                the configuration information for the specified I2C.
3135:Drivers/STM32F1xx_HAL_Driver/Src/stm32f1xx_hal_i2c.c ****   * @retval HAL status
3136:Drivers/STM32F1xx_HAL_Driver/Src/stm32f1xx_hal_i2c.c ****   */
3137:Drivers/STM32F1xx_HAL_Driver/Src/stm32f1xx_hal_i2c.c **** static HAL_StatusTypeDef I2C_SlaveReceive_BTF(I2C_HandleTypeDef *hi2c)
3138:Drivers/STM32F1xx_HAL_Driver/Src/stm32f1xx_hal_i2c.c **** {
 7316              		.loc 1 3138 0
 7317              		.cfi_startproc
 7318              		@ args = 0, pretend = 0, frame = 8
 7319              		@ frame_needed = 1, uses_anonymous_args = 0
 7320              		@ link register save eliminated.
 7321 0000 80B4     		push	{r7}
 7322              	.LCFI220:
 7323              		.cfi_def_cfa_offset 4
 7324              		.cfi_offset 7, -4
 7325 0002 83B0     		sub	sp, sp, #12
 7326              	.LCFI221:
 7327              		.cfi_def_cfa_offset 16
 7328 0004 00AF     		add	r7, sp, #0
 7329              	.LCFI222:
ARM GAS  /var/folders/kh/x4vltyy52lbg7p4pcyglc5080000gp/T//cccbl2Nm.s 			page 185


 7330              		.cfi_def_cfa_register 7
 7331 0006 7860     		str	r0, [r7, #4]
3139:Drivers/STM32F1xx_HAL_Driver/Src/stm32f1xx_hal_i2c.c ****   if(hi2c->XferCount != 0)
 7332              		.loc 1 3139 0
 7333 0008 7B68     		ldr	r3, [r7, #4]
 7334 000a 5B8D     		ldrh	r3, [r3, #42]	@ movhi
 7335 000c 9BB2     		uxth	r3, r3
 7336 000e 002B     		cmp	r3, #0
 7337 0010 10D0     		beq	.L360
3140:Drivers/STM32F1xx_HAL_Driver/Src/stm32f1xx_hal_i2c.c ****   {
3141:Drivers/STM32F1xx_HAL_Driver/Src/stm32f1xx_hal_i2c.c ****     /* Read data from DR */
3142:Drivers/STM32F1xx_HAL_Driver/Src/stm32f1xx_hal_i2c.c ****     (*hi2c->pBuffPtr++) = hi2c->Instance->DR;
 7338              		.loc 1 3142 0
 7339 0012 7B68     		ldr	r3, [r7, #4]
 7340 0014 5B6A     		ldr	r3, [r3, #36]
 7341 0016 591C     		adds	r1, r3, #1
 7342 0018 7A68     		ldr	r2, [r7, #4]
 7343 001a 5162     		str	r1, [r2, #36]
 7344 001c 7A68     		ldr	r2, [r7, #4]
 7345 001e 1268     		ldr	r2, [r2]
 7346 0020 1269     		ldr	r2, [r2, #16]
 7347 0022 D2B2     		uxtb	r2, r2
 7348 0024 1A70     		strb	r2, [r3]
3143:Drivers/STM32F1xx_HAL_Driver/Src/stm32f1xx_hal_i2c.c ****     hi2c->XferCount--;
 7349              		.loc 1 3143 0
 7350 0026 7B68     		ldr	r3, [r7, #4]
 7351 0028 5B8D     		ldrh	r3, [r3, #42]	@ movhi
 7352 002a 9BB2     		uxth	r3, r3
 7353 002c 013B     		subs	r3, r3, #1
 7354 002e 9AB2     		uxth	r2, r3
 7355 0030 7B68     		ldr	r3, [r7, #4]
 7356 0032 5A85     		strh	r2, [r3, #42]	@ movhi
 7357              	.L360:
3144:Drivers/STM32F1xx_HAL_Driver/Src/stm32f1xx_hal_i2c.c ****   }
3145:Drivers/STM32F1xx_HAL_Driver/Src/stm32f1xx_hal_i2c.c ****   return HAL_OK;
 7358              		.loc 1 3145 0
 7359 0034 0023     		movs	r3, #0
3146:Drivers/STM32F1xx_HAL_Driver/Src/stm32f1xx_hal_i2c.c **** }
 7360              		.loc 1 3146 0
 7361 0036 1846     		mov	r0, r3
 7362 0038 0C37     		adds	r7, r7, #12
 7363              	.LCFI223:
 7364              		.cfi_def_cfa_offset 4
 7365 003a BD46     		mov	sp, r7
 7366              	.LCFI224:
 7367              		.cfi_def_cfa_register 13
 7368              		@ sp needed
 7369 003c 80BC     		pop	{r7}
 7370              	.LCFI225:
 7371              		.cfi_restore 7
 7372              		.cfi_def_cfa_offset 0
 7373 003e 7047     		bx	lr
 7374              		.cfi_endproc
 7375              	.LFE105:
 7377              		.section	.text.I2C_Slave_ADDR,"ax",%progbits
 7378              		.align	2
 7379              		.thumb
ARM GAS  /var/folders/kh/x4vltyy52lbg7p4pcyglc5080000gp/T//cccbl2Nm.s 			page 186


 7380              		.thumb_func
 7382              	I2C_Slave_ADDR:
 7383              	.LFB106:
3147:Drivers/STM32F1xx_HAL_Driver/Src/stm32f1xx_hal_i2c.c **** 
3148:Drivers/STM32F1xx_HAL_Driver/Src/stm32f1xx_hal_i2c.c **** /**
3149:Drivers/STM32F1xx_HAL_Driver/Src/stm32f1xx_hal_i2c.c ****   * @brief  Handle ADD flag for Slave
3150:Drivers/STM32F1xx_HAL_Driver/Src/stm32f1xx_hal_i2c.c ****   * @param  hi2c Pointer to a I2C_HandleTypeDef structure that contains
3151:Drivers/STM32F1xx_HAL_Driver/Src/stm32f1xx_hal_i2c.c ****   *                the configuration information for the specified I2C.
3152:Drivers/STM32F1xx_HAL_Driver/Src/stm32f1xx_hal_i2c.c ****   * @retval HAL status
3153:Drivers/STM32F1xx_HAL_Driver/Src/stm32f1xx_hal_i2c.c ****   */
3154:Drivers/STM32F1xx_HAL_Driver/Src/stm32f1xx_hal_i2c.c **** static HAL_StatusTypeDef I2C_Slave_ADDR(I2C_HandleTypeDef *hi2c)
3155:Drivers/STM32F1xx_HAL_Driver/Src/stm32f1xx_hal_i2c.c **** {
 7384              		.loc 1 3155 0
 7385              		.cfi_startproc
 7386              		@ args = 0, pretend = 0, frame = 16
 7387              		@ frame_needed = 1, uses_anonymous_args = 0
 7388              		@ link register save eliminated.
 7389 0000 80B4     		push	{r7}
 7390              	.LCFI226:
 7391              		.cfi_def_cfa_offset 4
 7392              		.cfi_offset 7, -4
 7393 0002 85B0     		sub	sp, sp, #20
 7394              	.LCFI227:
 7395              		.cfi_def_cfa_offset 24
 7396 0004 00AF     		add	r7, sp, #0
 7397              	.LCFI228:
 7398              		.cfi_def_cfa_register 7
 7399 0006 7860     		str	r0, [r7, #4]
 7400              	.LBB98:
3156:Drivers/STM32F1xx_HAL_Driver/Src/stm32f1xx_hal_i2c.c ****   /* Clear ADDR flag */
3157:Drivers/STM32F1xx_HAL_Driver/Src/stm32f1xx_hal_i2c.c ****   __HAL_I2C_CLEAR_ADDRFLAG(hi2c);
 7401              		.loc 1 3157 0
 7402 0008 7B68     		ldr	r3, [r7, #4]
 7403 000a 1B68     		ldr	r3, [r3]
 7404 000c 5B69     		ldr	r3, [r3, #20]
 7405 000e FB60     		str	r3, [r7, #12]
 7406 0010 7B68     		ldr	r3, [r7, #4]
 7407 0012 1B68     		ldr	r3, [r3]
 7408 0014 9B69     		ldr	r3, [r3, #24]
 7409 0016 FB60     		str	r3, [r7, #12]
 7410 0018 FB68     		ldr	r3, [r7, #12]
 7411              	.LBE98:
3158:Drivers/STM32F1xx_HAL_Driver/Src/stm32f1xx_hal_i2c.c **** 
3159:Drivers/STM32F1xx_HAL_Driver/Src/stm32f1xx_hal_i2c.c ****   return HAL_OK;
 7412              		.loc 1 3159 0
 7413 001a 0023     		movs	r3, #0
3160:Drivers/STM32F1xx_HAL_Driver/Src/stm32f1xx_hal_i2c.c **** }
 7414              		.loc 1 3160 0
 7415 001c 1846     		mov	r0, r3
 7416 001e 1437     		adds	r7, r7, #20
 7417              	.LCFI229:
 7418              		.cfi_def_cfa_offset 4
 7419 0020 BD46     		mov	sp, r7
 7420              	.LCFI230:
 7421              		.cfi_def_cfa_register 13
 7422              		@ sp needed
 7423 0022 80BC     		pop	{r7}
ARM GAS  /var/folders/kh/x4vltyy52lbg7p4pcyglc5080000gp/T//cccbl2Nm.s 			page 187


 7424              	.LCFI231:
 7425              		.cfi_restore 7
 7426              		.cfi_def_cfa_offset 0
 7427 0024 7047     		bx	lr
 7428              		.cfi_endproc
 7429              	.LFE106:
 7431 0026 00BF     		.section	.text.I2C_Slave_STOPF,"ax",%progbits
 7432              		.align	2
 7433              		.thumb
 7434              		.thumb_func
 7436              	I2C_Slave_STOPF:
 7437              	.LFB107:
3161:Drivers/STM32F1xx_HAL_Driver/Src/stm32f1xx_hal_i2c.c **** 
3162:Drivers/STM32F1xx_HAL_Driver/Src/stm32f1xx_hal_i2c.c **** /**
3163:Drivers/STM32F1xx_HAL_Driver/Src/stm32f1xx_hal_i2c.c ****   * @brief  Handle STOPF flag for Slave Mode
3164:Drivers/STM32F1xx_HAL_Driver/Src/stm32f1xx_hal_i2c.c ****   * @param  hi2c Pointer to a I2C_HandleTypeDef structure that contains
3165:Drivers/STM32F1xx_HAL_Driver/Src/stm32f1xx_hal_i2c.c ****   *                the configuration information for the specified I2C.
3166:Drivers/STM32F1xx_HAL_Driver/Src/stm32f1xx_hal_i2c.c ****   * @retval HAL status
3167:Drivers/STM32F1xx_HAL_Driver/Src/stm32f1xx_hal_i2c.c ****   */
3168:Drivers/STM32F1xx_HAL_Driver/Src/stm32f1xx_hal_i2c.c **** static HAL_StatusTypeDef I2C_Slave_STOPF(I2C_HandleTypeDef *hi2c)
3169:Drivers/STM32F1xx_HAL_Driver/Src/stm32f1xx_hal_i2c.c **** {
 7438              		.loc 1 3169 0
 7439              		.cfi_startproc
 7440              		@ args = 0, pretend = 0, frame = 16
 7441              		@ frame_needed = 1, uses_anonymous_args = 0
 7442 0000 80B5     		push	{r7, lr}
 7443              	.LCFI232:
 7444              		.cfi_def_cfa_offset 8
 7445              		.cfi_offset 7, -8
 7446              		.cfi_offset 14, -4
 7447 0002 84B0     		sub	sp, sp, #16
 7448              	.LCFI233:
 7449              		.cfi_def_cfa_offset 24
 7450 0004 00AF     		add	r7, sp, #0
 7451              	.LCFI234:
 7452              		.cfi_def_cfa_register 7
 7453 0006 7860     		str	r0, [r7, #4]
3170:Drivers/STM32F1xx_HAL_Driver/Src/stm32f1xx_hal_i2c.c ****   /* Disable EVT, BUF and ERR interrupt */
3171:Drivers/STM32F1xx_HAL_Driver/Src/stm32f1xx_hal_i2c.c ****   __HAL_I2C_DISABLE_IT(hi2c, I2C_IT_EVT | I2C_IT_BUF | I2C_IT_ERR);
 7454              		.loc 1 3171 0
 7455 0008 7B68     		ldr	r3, [r7, #4]
 7456 000a 1B68     		ldr	r3, [r3]
 7457 000c 7A68     		ldr	r2, [r7, #4]
 7458 000e 1268     		ldr	r2, [r2]
 7459 0010 5268     		ldr	r2, [r2, #4]
 7460 0012 22F4E062 		bic	r2, r2, #1792
 7461 0016 5A60     		str	r2, [r3, #4]
 7462              	.LBB99:
3172:Drivers/STM32F1xx_HAL_Driver/Src/stm32f1xx_hal_i2c.c **** 
3173:Drivers/STM32F1xx_HAL_Driver/Src/stm32f1xx_hal_i2c.c ****   /* Clear STOPF flag */
3174:Drivers/STM32F1xx_HAL_Driver/Src/stm32f1xx_hal_i2c.c ****   __HAL_I2C_CLEAR_STOPFLAG(hi2c);
 7463              		.loc 1 3174 0
 7464 0018 7B68     		ldr	r3, [r7, #4]
 7465 001a 1B68     		ldr	r3, [r3]
 7466 001c 5B69     		ldr	r3, [r3, #20]
 7467 001e FB60     		str	r3, [r7, #12]
 7468 0020 7B68     		ldr	r3, [r7, #4]
ARM GAS  /var/folders/kh/x4vltyy52lbg7p4pcyglc5080000gp/T//cccbl2Nm.s 			page 188


 7469 0022 1A68     		ldr	r2, [r3]
 7470 0024 7B68     		ldr	r3, [r7, #4]
 7471 0026 1B68     		ldr	r3, [r3]
 7472 0028 1B68     		ldr	r3, [r3]
 7473 002a 43F00103 		orr	r3, r3, #1
 7474 002e 1360     		str	r3, [r2]
 7475 0030 FB60     		str	r3, [r7, #12]
 7476 0032 FB68     		ldr	r3, [r7, #12]
 7477              	.LBE99:
3175:Drivers/STM32F1xx_HAL_Driver/Src/stm32f1xx_hal_i2c.c **** 
3176:Drivers/STM32F1xx_HAL_Driver/Src/stm32f1xx_hal_i2c.c ****   /* Disable Acknowledge */
3177:Drivers/STM32F1xx_HAL_Driver/Src/stm32f1xx_hal_i2c.c ****   CLEAR_BIT(hi2c->Instance->CR1, I2C_CR1_ACK);
 7478              		.loc 1 3177 0
 7479 0034 7B68     		ldr	r3, [r7, #4]
 7480 0036 1B68     		ldr	r3, [r3]
 7481 0038 7A68     		ldr	r2, [r7, #4]
 7482 003a 1268     		ldr	r2, [r2]
 7483 003c 1268     		ldr	r2, [r2]
 7484 003e 22F48062 		bic	r2, r2, #1024
 7485 0042 1A60     		str	r2, [r3]
3178:Drivers/STM32F1xx_HAL_Driver/Src/stm32f1xx_hal_i2c.c **** 
3179:Drivers/STM32F1xx_HAL_Driver/Src/stm32f1xx_hal_i2c.c ****   hi2c->State = HAL_I2C_STATE_READY;
 7486              		.loc 1 3179 0
 7487 0044 7B68     		ldr	r3, [r7, #4]
 7488 0046 2022     		movs	r2, #32
 7489 0048 83F83520 		strb	r2, [r3, #53]
3180:Drivers/STM32F1xx_HAL_Driver/Src/stm32f1xx_hal_i2c.c **** 
3181:Drivers/STM32F1xx_HAL_Driver/Src/stm32f1xx_hal_i2c.c ****   HAL_I2C_SlaveRxCpltCallback(hi2c);
 7490              		.loc 1 3181 0
 7491 004c 7868     		ldr	r0, [r7, #4]
 7492 004e FFF7FEFF 		bl	HAL_I2C_SlaveRxCpltCallback
3182:Drivers/STM32F1xx_HAL_Driver/Src/stm32f1xx_hal_i2c.c **** 
3183:Drivers/STM32F1xx_HAL_Driver/Src/stm32f1xx_hal_i2c.c ****   return HAL_OK;
 7493              		.loc 1 3183 0
 7494 0052 0023     		movs	r3, #0
3184:Drivers/STM32F1xx_HAL_Driver/Src/stm32f1xx_hal_i2c.c **** }
 7495              		.loc 1 3184 0
 7496 0054 1846     		mov	r0, r3
 7497 0056 1037     		adds	r7, r7, #16
 7498              	.LCFI235:
 7499              		.cfi_def_cfa_offset 8
 7500 0058 BD46     		mov	sp, r7
 7501              	.LCFI236:
 7502              		.cfi_def_cfa_register 13
 7503              		@ sp needed
 7504 005a 80BD     		pop	{r7, pc}
 7505              		.cfi_endproc
 7506              	.LFE107:
 7508              		.section	.text.I2C_Slave_AF,"ax",%progbits
 7509              		.align	2
 7510              		.thumb
 7511              		.thumb_func
 7513              	I2C_Slave_AF:
 7514              	.LFB108:
3185:Drivers/STM32F1xx_HAL_Driver/Src/stm32f1xx_hal_i2c.c **** 
3186:Drivers/STM32F1xx_HAL_Driver/Src/stm32f1xx_hal_i2c.c **** /**
3187:Drivers/STM32F1xx_HAL_Driver/Src/stm32f1xx_hal_i2c.c ****   * @brief  Handle Acknowledge Failed for Slave Mode
ARM GAS  /var/folders/kh/x4vltyy52lbg7p4pcyglc5080000gp/T//cccbl2Nm.s 			page 189


3188:Drivers/STM32F1xx_HAL_Driver/Src/stm32f1xx_hal_i2c.c ****   * @param  hi2c Pointer to a I2C_HandleTypeDef structure that contains
3189:Drivers/STM32F1xx_HAL_Driver/Src/stm32f1xx_hal_i2c.c ****   *                the configuration information for the specified I2C.
3190:Drivers/STM32F1xx_HAL_Driver/Src/stm32f1xx_hal_i2c.c ****   * @retval HAL status
3191:Drivers/STM32F1xx_HAL_Driver/Src/stm32f1xx_hal_i2c.c ****   */
3192:Drivers/STM32F1xx_HAL_Driver/Src/stm32f1xx_hal_i2c.c **** static HAL_StatusTypeDef I2C_Slave_AF(I2C_HandleTypeDef *hi2c)
3193:Drivers/STM32F1xx_HAL_Driver/Src/stm32f1xx_hal_i2c.c **** {
 7515              		.loc 1 3193 0
 7516              		.cfi_startproc
 7517              		@ args = 0, pretend = 0, frame = 8
 7518              		@ frame_needed = 1, uses_anonymous_args = 0
 7519 0000 80B5     		push	{r7, lr}
 7520              	.LCFI237:
 7521              		.cfi_def_cfa_offset 8
 7522              		.cfi_offset 7, -8
 7523              		.cfi_offset 14, -4
 7524 0002 82B0     		sub	sp, sp, #8
 7525              	.LCFI238:
 7526              		.cfi_def_cfa_offset 16
 7527 0004 00AF     		add	r7, sp, #0
 7528              	.LCFI239:
 7529              		.cfi_def_cfa_register 7
 7530 0006 7860     		str	r0, [r7, #4]
3194:Drivers/STM32F1xx_HAL_Driver/Src/stm32f1xx_hal_i2c.c ****   /* Disable EVT, BUF and ERR interrupt */
3195:Drivers/STM32F1xx_HAL_Driver/Src/stm32f1xx_hal_i2c.c ****   __HAL_I2C_DISABLE_IT(hi2c, I2C_IT_EVT | I2C_IT_BUF | I2C_IT_ERR);
 7531              		.loc 1 3195 0
 7532 0008 7B68     		ldr	r3, [r7, #4]
 7533 000a 1B68     		ldr	r3, [r3]
 7534 000c 7A68     		ldr	r2, [r7, #4]
 7535 000e 1268     		ldr	r2, [r2]
 7536 0010 5268     		ldr	r2, [r2, #4]
 7537 0012 22F4E062 		bic	r2, r2, #1792
 7538 0016 5A60     		str	r2, [r3, #4]
3196:Drivers/STM32F1xx_HAL_Driver/Src/stm32f1xx_hal_i2c.c **** 
3197:Drivers/STM32F1xx_HAL_Driver/Src/stm32f1xx_hal_i2c.c ****   /* Clear AF flag */
3198:Drivers/STM32F1xx_HAL_Driver/Src/stm32f1xx_hal_i2c.c ****   __HAL_I2C_CLEAR_FLAG(hi2c, I2C_FLAG_AF);
 7539              		.loc 1 3198 0
 7540 0018 7B68     		ldr	r3, [r7, #4]
 7541 001a 1B68     		ldr	r3, [r3]
 7542 001c 7A68     		ldr	r2, [r7, #4]
 7543 001e 1268     		ldr	r2, [r2]
 7544 0020 5269     		ldr	r2, [r2, #20]
 7545 0022 22F48062 		bic	r2, r2, #1024
 7546 0026 5A61     		str	r2, [r3, #20]
3199:Drivers/STM32F1xx_HAL_Driver/Src/stm32f1xx_hal_i2c.c **** 
3200:Drivers/STM32F1xx_HAL_Driver/Src/stm32f1xx_hal_i2c.c ****   /* Disable Acknowledge */
3201:Drivers/STM32F1xx_HAL_Driver/Src/stm32f1xx_hal_i2c.c ****   CLEAR_BIT(hi2c->Instance->CR1, I2C_CR1_ACK);
 7547              		.loc 1 3201 0
 7548 0028 7B68     		ldr	r3, [r7, #4]
 7549 002a 1B68     		ldr	r3, [r3]
 7550 002c 7A68     		ldr	r2, [r7, #4]
 7551 002e 1268     		ldr	r2, [r2]
 7552 0030 1268     		ldr	r2, [r2]
 7553 0032 22F48062 		bic	r2, r2, #1024
 7554 0036 1A60     		str	r2, [r3]
3202:Drivers/STM32F1xx_HAL_Driver/Src/stm32f1xx_hal_i2c.c **** 
3203:Drivers/STM32F1xx_HAL_Driver/Src/stm32f1xx_hal_i2c.c ****   hi2c->State = HAL_I2C_STATE_READY;
 7555              		.loc 1 3203 0
ARM GAS  /var/folders/kh/x4vltyy52lbg7p4pcyglc5080000gp/T//cccbl2Nm.s 			page 190


 7556 0038 7B68     		ldr	r3, [r7, #4]
 7557 003a 2022     		movs	r2, #32
 7558 003c 83F83520 		strb	r2, [r3, #53]
3204:Drivers/STM32F1xx_HAL_Driver/Src/stm32f1xx_hal_i2c.c **** 
3205:Drivers/STM32F1xx_HAL_Driver/Src/stm32f1xx_hal_i2c.c ****   HAL_I2C_SlaveTxCpltCallback(hi2c);
 7559              		.loc 1 3205 0
 7560 0040 7868     		ldr	r0, [r7, #4]
 7561 0042 FFF7FEFF 		bl	HAL_I2C_SlaveTxCpltCallback
3206:Drivers/STM32F1xx_HAL_Driver/Src/stm32f1xx_hal_i2c.c **** 
3207:Drivers/STM32F1xx_HAL_Driver/Src/stm32f1xx_hal_i2c.c ****   return HAL_OK;
 7562              		.loc 1 3207 0
 7563 0046 0023     		movs	r3, #0
3208:Drivers/STM32F1xx_HAL_Driver/Src/stm32f1xx_hal_i2c.c **** }
 7564              		.loc 1 3208 0
 7565 0048 1846     		mov	r0, r3
 7566 004a 0837     		adds	r7, r7, #8
 7567              	.LCFI240:
 7568              		.cfi_def_cfa_offset 8
 7569 004c BD46     		mov	sp, r7
 7570              	.LCFI241:
 7571              		.cfi_def_cfa_register 13
 7572              		@ sp needed
 7573 004e 80BD     		pop	{r7, pc}
 7574              		.cfi_endproc
 7575              	.LFE108:
 7577              		.section	.text.I2C_MasterRequestWrite,"ax",%progbits
 7578              		.align	2
 7579              		.thumb
 7580              		.thumb_func
 7582              	I2C_MasterRequestWrite:
 7583              	.LFB109:
3209:Drivers/STM32F1xx_HAL_Driver/Src/stm32f1xx_hal_i2c.c **** 
3210:Drivers/STM32F1xx_HAL_Driver/Src/stm32f1xx_hal_i2c.c **** /**
3211:Drivers/STM32F1xx_HAL_Driver/Src/stm32f1xx_hal_i2c.c ****   * @brief  Master sends target device address followed by internal memory address for write reques
3212:Drivers/STM32F1xx_HAL_Driver/Src/stm32f1xx_hal_i2c.c ****   * @param  hi2c Pointer to a I2C_HandleTypeDef structure that contains
3213:Drivers/STM32F1xx_HAL_Driver/Src/stm32f1xx_hal_i2c.c ****   *                the configuration information for the specified I2C.
3214:Drivers/STM32F1xx_HAL_Driver/Src/stm32f1xx_hal_i2c.c ****   * @param  DevAddress Target device address
3215:Drivers/STM32F1xx_HAL_Driver/Src/stm32f1xx_hal_i2c.c ****   * @param  Timeout Timeout duration
3216:Drivers/STM32F1xx_HAL_Driver/Src/stm32f1xx_hal_i2c.c ****   * @retval HAL status
3217:Drivers/STM32F1xx_HAL_Driver/Src/stm32f1xx_hal_i2c.c ****   */
3218:Drivers/STM32F1xx_HAL_Driver/Src/stm32f1xx_hal_i2c.c **** static HAL_StatusTypeDef I2C_MasterRequestWrite(I2C_HandleTypeDef *hi2c, uint16_t DevAddress, uint3
3219:Drivers/STM32F1xx_HAL_Driver/Src/stm32f1xx_hal_i2c.c **** {
 7584              		.loc 1 3219 0
 7585              		.cfi_startproc
 7586              		@ args = 0, pretend = 0, frame = 16
 7587              		@ frame_needed = 1, uses_anonymous_args = 0
 7588 0000 80B5     		push	{r7, lr}
 7589              	.LCFI242:
 7590              		.cfi_def_cfa_offset 8
 7591              		.cfi_offset 7, -8
 7592              		.cfi_offset 14, -4
 7593 0002 84B0     		sub	sp, sp, #16
 7594              	.LCFI243:
 7595              		.cfi_def_cfa_offset 24
 7596 0004 00AF     		add	r7, sp, #0
 7597              	.LCFI244:
 7598              		.cfi_def_cfa_register 7
ARM GAS  /var/folders/kh/x4vltyy52lbg7p4pcyglc5080000gp/T//cccbl2Nm.s 			page 191


 7599 0006 F860     		str	r0, [r7, #12]
 7600 0008 0B46     		mov	r3, r1
 7601 000a 7A60     		str	r2, [r7, #4]
 7602 000c 7B81     		strh	r3, [r7, #10]	@ movhi
3220:Drivers/STM32F1xx_HAL_Driver/Src/stm32f1xx_hal_i2c.c ****   /* Generate Start */
3221:Drivers/STM32F1xx_HAL_Driver/Src/stm32f1xx_hal_i2c.c ****   SET_BIT(hi2c->Instance->CR1, I2C_CR1_START);
 7603              		.loc 1 3221 0
 7604 000e FB68     		ldr	r3, [r7, #12]
 7605 0010 1B68     		ldr	r3, [r3]
 7606 0012 FA68     		ldr	r2, [r7, #12]
 7607 0014 1268     		ldr	r2, [r2]
 7608 0016 1268     		ldr	r2, [r2]
 7609 0018 42F48072 		orr	r2, r2, #256
 7610 001c 1A60     		str	r2, [r3]
3222:Drivers/STM32F1xx_HAL_Driver/Src/stm32f1xx_hal_i2c.c **** 
3223:Drivers/STM32F1xx_HAL_Driver/Src/stm32f1xx_hal_i2c.c ****   /* Wait until SB flag is set */
3224:Drivers/STM32F1xx_HAL_Driver/Src/stm32f1xx_hal_i2c.c ****   if(I2C_WaitOnFlagUntilTimeout(hi2c, I2C_FLAG_SB, RESET, Timeout) != HAL_OK)
 7611              		.loc 1 3224 0
 7612 001e 7B68     		ldr	r3, [r7, #4]
 7613 0020 0022     		movs	r2, #0
 7614 0022 4FF00111 		mov	r1, #65537
 7615 0026 F868     		ldr	r0, [r7, #12]
 7616 0028 FFF7FEFF 		bl	I2C_WaitOnFlagUntilTimeout
 7617 002c 0346     		mov	r3, r0
 7618 002e 002B     		cmp	r3, #0
 7619 0030 01D0     		beq	.L369
3225:Drivers/STM32F1xx_HAL_Driver/Src/stm32f1xx_hal_i2c.c ****   {
3226:Drivers/STM32F1xx_HAL_Driver/Src/stm32f1xx_hal_i2c.c ****     return HAL_TIMEOUT;
 7620              		.loc 1 3226 0
 7621 0032 0323     		movs	r3, #3
 7622 0034 3FE0     		b	.L370
 7623              	.L369:
3227:Drivers/STM32F1xx_HAL_Driver/Src/stm32f1xx_hal_i2c.c ****   }
3228:Drivers/STM32F1xx_HAL_Driver/Src/stm32f1xx_hal_i2c.c **** 
3229:Drivers/STM32F1xx_HAL_Driver/Src/stm32f1xx_hal_i2c.c ****   if(hi2c->Init.AddressingMode == I2C_ADDRESSINGMODE_7BIT)
 7624              		.loc 1 3229 0
 7625 0036 FB68     		ldr	r3, [r7, #12]
 7626 0038 1B69     		ldr	r3, [r3, #16]
 7627 003a B3F5804F 		cmp	r3, #16384
 7628 003e 07D1     		bne	.L371
3230:Drivers/STM32F1xx_HAL_Driver/Src/stm32f1xx_hal_i2c.c ****   {
3231:Drivers/STM32F1xx_HAL_Driver/Src/stm32f1xx_hal_i2c.c ****     /* Send slave address */
3232:Drivers/STM32F1xx_HAL_Driver/Src/stm32f1xx_hal_i2c.c ****     hi2c->Instance->DR = I2C_7BIT_ADD_WRITE(DevAddress);
 7629              		.loc 1 3232 0
 7630 0040 FB68     		ldr	r3, [r7, #12]
 7631 0042 1B68     		ldr	r3, [r3]
 7632 0044 7A89     		ldrh	r2, [r7, #10]	@ movhi
 7633 0046 D2B2     		uxtb	r2, r2
 7634 0048 02F0FE02 		and	r2, r2, #254
 7635 004c 1A61     		str	r2, [r3, #16]
 7636 004e 21E0     		b	.L372
 7637              	.L371:
3233:Drivers/STM32F1xx_HAL_Driver/Src/stm32f1xx_hal_i2c.c ****   }
3234:Drivers/STM32F1xx_HAL_Driver/Src/stm32f1xx_hal_i2c.c ****   else
3235:Drivers/STM32F1xx_HAL_Driver/Src/stm32f1xx_hal_i2c.c ****   {
3236:Drivers/STM32F1xx_HAL_Driver/Src/stm32f1xx_hal_i2c.c ****     /* Send header of slave address */
3237:Drivers/STM32F1xx_HAL_Driver/Src/stm32f1xx_hal_i2c.c ****     hi2c->Instance->DR = I2C_10BIT_HEADER_WRITE(DevAddress);
ARM GAS  /var/folders/kh/x4vltyy52lbg7p4pcyglc5080000gp/T//cccbl2Nm.s 			page 192


 7638              		.loc 1 3237 0
 7639 0050 FB68     		ldr	r3, [r7, #12]
 7640 0052 1B68     		ldr	r3, [r3]
 7641 0054 7A89     		ldrh	r2, [r7, #10]
 7642 0056 D211     		asrs	r2, r2, #7
 7643 0058 52B2     		sxtb	r2, r2
 7644 005a 02F00602 		and	r2, r2, #6
 7645 005e 52B2     		sxtb	r2, r2
 7646 0060 62F00F02 		orn	r2, r2, #15
 7647 0064 52B2     		sxtb	r2, r2
 7648 0066 D2B2     		uxtb	r2, r2
 7649 0068 1A61     		str	r2, [r3, #16]
3238:Drivers/STM32F1xx_HAL_Driver/Src/stm32f1xx_hal_i2c.c **** 
3239:Drivers/STM32F1xx_HAL_Driver/Src/stm32f1xx_hal_i2c.c ****     /* Wait until ADD10 flag is set */
3240:Drivers/STM32F1xx_HAL_Driver/Src/stm32f1xx_hal_i2c.c ****     if(I2C_WaitOnMasterAddressFlagUntilTimeout(hi2c, I2C_FLAG_ADD10, Timeout) != HAL_OK)
 7650              		.loc 1 3240 0
 7651 006a 7A68     		ldr	r2, [r7, #4]
 7652 006c 1449     		ldr	r1, .L377
 7653 006e F868     		ldr	r0, [r7, #12]
 7654 0070 FFF7FEFF 		bl	I2C_WaitOnMasterAddressFlagUntilTimeout
 7655 0074 0346     		mov	r3, r0
 7656 0076 002B     		cmp	r3, #0
 7657 0078 07D0     		beq	.L373
3241:Drivers/STM32F1xx_HAL_Driver/Src/stm32f1xx_hal_i2c.c ****     {
3242:Drivers/STM32F1xx_HAL_Driver/Src/stm32f1xx_hal_i2c.c ****       if(hi2c->ErrorCode == HAL_I2C_ERROR_AF)
 7658              		.loc 1 3242 0
 7659 007a FB68     		ldr	r3, [r7, #12]
 7660 007c 9B6B     		ldr	r3, [r3, #56]
 7661 007e 042B     		cmp	r3, #4
 7662 0080 01D1     		bne	.L374
3243:Drivers/STM32F1xx_HAL_Driver/Src/stm32f1xx_hal_i2c.c ****       {
3244:Drivers/STM32F1xx_HAL_Driver/Src/stm32f1xx_hal_i2c.c ****         return HAL_ERROR;
 7663              		.loc 1 3244 0
 7664 0082 0123     		movs	r3, #1
 7665 0084 17E0     		b	.L370
 7666              	.L374:
3245:Drivers/STM32F1xx_HAL_Driver/Src/stm32f1xx_hal_i2c.c ****       }
3246:Drivers/STM32F1xx_HAL_Driver/Src/stm32f1xx_hal_i2c.c ****       else
3247:Drivers/STM32F1xx_HAL_Driver/Src/stm32f1xx_hal_i2c.c ****       {
3248:Drivers/STM32F1xx_HAL_Driver/Src/stm32f1xx_hal_i2c.c ****         return HAL_TIMEOUT;
 7667              		.loc 1 3248 0
 7668 0086 0323     		movs	r3, #3
 7669 0088 15E0     		b	.L370
 7670              	.L373:
3249:Drivers/STM32F1xx_HAL_Driver/Src/stm32f1xx_hal_i2c.c ****       }
3250:Drivers/STM32F1xx_HAL_Driver/Src/stm32f1xx_hal_i2c.c ****     }
3251:Drivers/STM32F1xx_HAL_Driver/Src/stm32f1xx_hal_i2c.c **** 
3252:Drivers/STM32F1xx_HAL_Driver/Src/stm32f1xx_hal_i2c.c ****     /* Send slave address */
3253:Drivers/STM32F1xx_HAL_Driver/Src/stm32f1xx_hal_i2c.c ****     hi2c->Instance->DR = I2C_10BIT_ADDRESS(DevAddress);
 7671              		.loc 1 3253 0
 7672 008a FB68     		ldr	r3, [r7, #12]
 7673 008c 1B68     		ldr	r3, [r3]
 7674 008e 7A89     		ldrh	r2, [r7, #10]	@ movhi
 7675 0090 D2B2     		uxtb	r2, r2
 7676 0092 1A61     		str	r2, [r3, #16]
 7677              	.L372:
3254:Drivers/STM32F1xx_HAL_Driver/Src/stm32f1xx_hal_i2c.c ****   }
ARM GAS  /var/folders/kh/x4vltyy52lbg7p4pcyglc5080000gp/T//cccbl2Nm.s 			page 193


3255:Drivers/STM32F1xx_HAL_Driver/Src/stm32f1xx_hal_i2c.c **** 
3256:Drivers/STM32F1xx_HAL_Driver/Src/stm32f1xx_hal_i2c.c ****   /* Wait until ADDR flag is set */
3257:Drivers/STM32F1xx_HAL_Driver/Src/stm32f1xx_hal_i2c.c ****   if(I2C_WaitOnMasterAddressFlagUntilTimeout(hi2c, I2C_FLAG_ADDR, Timeout) != HAL_OK)
 7678              		.loc 1 3257 0
 7679 0094 7A68     		ldr	r2, [r7, #4]
 7680 0096 0B49     		ldr	r1, .L377+4
 7681 0098 F868     		ldr	r0, [r7, #12]
 7682 009a FFF7FEFF 		bl	I2C_WaitOnMasterAddressFlagUntilTimeout
 7683 009e 0346     		mov	r3, r0
 7684 00a0 002B     		cmp	r3, #0
 7685 00a2 07D0     		beq	.L375
3258:Drivers/STM32F1xx_HAL_Driver/Src/stm32f1xx_hal_i2c.c ****   {
3259:Drivers/STM32F1xx_HAL_Driver/Src/stm32f1xx_hal_i2c.c ****     if(hi2c->ErrorCode == HAL_I2C_ERROR_AF)
 7686              		.loc 1 3259 0
 7687 00a4 FB68     		ldr	r3, [r7, #12]
 7688 00a6 9B6B     		ldr	r3, [r3, #56]
 7689 00a8 042B     		cmp	r3, #4
 7690 00aa 01D1     		bne	.L376
3260:Drivers/STM32F1xx_HAL_Driver/Src/stm32f1xx_hal_i2c.c ****     {
3261:Drivers/STM32F1xx_HAL_Driver/Src/stm32f1xx_hal_i2c.c ****       return HAL_ERROR;
 7691              		.loc 1 3261 0
 7692 00ac 0123     		movs	r3, #1
 7693 00ae 02E0     		b	.L370
 7694              	.L376:
3262:Drivers/STM32F1xx_HAL_Driver/Src/stm32f1xx_hal_i2c.c ****     }
3263:Drivers/STM32F1xx_HAL_Driver/Src/stm32f1xx_hal_i2c.c ****     else
3264:Drivers/STM32F1xx_HAL_Driver/Src/stm32f1xx_hal_i2c.c ****     {
3265:Drivers/STM32F1xx_HAL_Driver/Src/stm32f1xx_hal_i2c.c ****       return HAL_TIMEOUT;
 7695              		.loc 1 3265 0
 7696 00b0 0323     		movs	r3, #3
 7697 00b2 00E0     		b	.L370
 7698              	.L375:
3266:Drivers/STM32F1xx_HAL_Driver/Src/stm32f1xx_hal_i2c.c ****     }
3267:Drivers/STM32F1xx_HAL_Driver/Src/stm32f1xx_hal_i2c.c ****   }
3268:Drivers/STM32F1xx_HAL_Driver/Src/stm32f1xx_hal_i2c.c **** 
3269:Drivers/STM32F1xx_HAL_Driver/Src/stm32f1xx_hal_i2c.c ****   return HAL_OK;
 7699              		.loc 1 3269 0
 7700 00b4 0023     		movs	r3, #0
 7701              	.L370:
3270:Drivers/STM32F1xx_HAL_Driver/Src/stm32f1xx_hal_i2c.c **** }
 7702              		.loc 1 3270 0
 7703 00b6 1846     		mov	r0, r3
 7704 00b8 1037     		adds	r7, r7, #16
 7705              	.LCFI245:
 7706              		.cfi_def_cfa_offset 8
 7707 00ba BD46     		mov	sp, r7
 7708              	.LCFI246:
 7709              		.cfi_def_cfa_register 13
 7710              		@ sp needed
 7711 00bc 80BD     		pop	{r7, pc}
 7712              	.L378:
 7713 00be 00BF     		.align	2
 7714              	.L377:
 7715 00c0 08000100 		.word	65544
 7716 00c4 02000100 		.word	65538
 7717              		.cfi_endproc
 7718              	.LFE109:
ARM GAS  /var/folders/kh/x4vltyy52lbg7p4pcyglc5080000gp/T//cccbl2Nm.s 			page 194


 7720              		.section	.text.I2C_MasterRequestRead,"ax",%progbits
 7721              		.align	2
 7722              		.thumb
 7723              		.thumb_func
 7725              	I2C_MasterRequestRead:
 7726              	.LFB110:
3271:Drivers/STM32F1xx_HAL_Driver/Src/stm32f1xx_hal_i2c.c **** 
3272:Drivers/STM32F1xx_HAL_Driver/Src/stm32f1xx_hal_i2c.c **** /**
3273:Drivers/STM32F1xx_HAL_Driver/Src/stm32f1xx_hal_i2c.c ****   * @brief  Master sends target device address followed by internal memory address for read request
3274:Drivers/STM32F1xx_HAL_Driver/Src/stm32f1xx_hal_i2c.c ****   * @param  hi2c Pointer to a I2C_HandleTypeDef structure that contains
3275:Drivers/STM32F1xx_HAL_Driver/Src/stm32f1xx_hal_i2c.c ****   *                the configuration information for the specified I2C.
3276:Drivers/STM32F1xx_HAL_Driver/Src/stm32f1xx_hal_i2c.c ****   * @param  DevAddress Target device address
3277:Drivers/STM32F1xx_HAL_Driver/Src/stm32f1xx_hal_i2c.c ****   * @param  Timeout Timeout duration
3278:Drivers/STM32F1xx_HAL_Driver/Src/stm32f1xx_hal_i2c.c ****   * @retval HAL status
3279:Drivers/STM32F1xx_HAL_Driver/Src/stm32f1xx_hal_i2c.c ****   */
3280:Drivers/STM32F1xx_HAL_Driver/Src/stm32f1xx_hal_i2c.c **** static HAL_StatusTypeDef I2C_MasterRequestRead(I2C_HandleTypeDef *hi2c, uint16_t DevAddress, uint32
3281:Drivers/STM32F1xx_HAL_Driver/Src/stm32f1xx_hal_i2c.c **** {
 7727              		.loc 1 3281 0
 7728              		.cfi_startproc
 7729              		@ args = 0, pretend = 0, frame = 24
 7730              		@ frame_needed = 1, uses_anonymous_args = 0
 7731 0000 80B5     		push	{r7, lr}
 7732              	.LCFI247:
 7733              		.cfi_def_cfa_offset 8
 7734              		.cfi_offset 7, -8
 7735              		.cfi_offset 14, -4
 7736 0002 86B0     		sub	sp, sp, #24
 7737              	.LCFI248:
 7738              		.cfi_def_cfa_offset 32
 7739 0004 00AF     		add	r7, sp, #0
 7740              	.LCFI249:
 7741              		.cfi_def_cfa_register 7
 7742 0006 F860     		str	r0, [r7, #12]
 7743 0008 0B46     		mov	r3, r1
 7744 000a 7A60     		str	r2, [r7, #4]
 7745 000c 7B81     		strh	r3, [r7, #10]	@ movhi
3282:Drivers/STM32F1xx_HAL_Driver/Src/stm32f1xx_hal_i2c.c ****   /* Enable Acknowledge */
3283:Drivers/STM32F1xx_HAL_Driver/Src/stm32f1xx_hal_i2c.c ****   SET_BIT(hi2c->Instance->CR1, I2C_CR1_ACK);
 7746              		.loc 1 3283 0
 7747 000e FB68     		ldr	r3, [r7, #12]
 7748 0010 1B68     		ldr	r3, [r3]
 7749 0012 FA68     		ldr	r2, [r7, #12]
 7750 0014 1268     		ldr	r2, [r2]
 7751 0016 1268     		ldr	r2, [r2]
 7752 0018 42F48062 		orr	r2, r2, #1024
 7753 001c 1A60     		str	r2, [r3]
3284:Drivers/STM32F1xx_HAL_Driver/Src/stm32f1xx_hal_i2c.c **** 
3285:Drivers/STM32F1xx_HAL_Driver/Src/stm32f1xx_hal_i2c.c ****   /* Generate Start */
3286:Drivers/STM32F1xx_HAL_Driver/Src/stm32f1xx_hal_i2c.c ****   SET_BIT(hi2c->Instance->CR1, I2C_CR1_START);
 7754              		.loc 1 3286 0
 7755 001e FB68     		ldr	r3, [r7, #12]
 7756 0020 1B68     		ldr	r3, [r3]
 7757 0022 FA68     		ldr	r2, [r7, #12]
 7758 0024 1268     		ldr	r2, [r2]
 7759 0026 1268     		ldr	r2, [r2]
 7760 0028 42F48072 		orr	r2, r2, #256
 7761 002c 1A60     		str	r2, [r3]
ARM GAS  /var/folders/kh/x4vltyy52lbg7p4pcyglc5080000gp/T//cccbl2Nm.s 			page 195


3287:Drivers/STM32F1xx_HAL_Driver/Src/stm32f1xx_hal_i2c.c **** 
3288:Drivers/STM32F1xx_HAL_Driver/Src/stm32f1xx_hal_i2c.c ****   /* Wait until SB flag is set */
3289:Drivers/STM32F1xx_HAL_Driver/Src/stm32f1xx_hal_i2c.c ****   if(I2C_WaitOnFlagUntilTimeout(hi2c, I2C_FLAG_SB, RESET, Timeout) != HAL_OK)
 7762              		.loc 1 3289 0
 7763 002e 7B68     		ldr	r3, [r7, #4]
 7764 0030 0022     		movs	r2, #0
 7765 0032 4FF00111 		mov	r1, #65537
 7766 0036 F868     		ldr	r0, [r7, #12]
 7767 0038 FFF7FEFF 		bl	I2C_WaitOnFlagUntilTimeout
 7768 003c 0346     		mov	r3, r0
 7769 003e 002B     		cmp	r3, #0
 7770 0040 01D0     		beq	.L380
3290:Drivers/STM32F1xx_HAL_Driver/Src/stm32f1xx_hal_i2c.c ****   {
3291:Drivers/STM32F1xx_HAL_Driver/Src/stm32f1xx_hal_i2c.c ****     return HAL_TIMEOUT;
 7771              		.loc 1 3291 0
 7772 0042 0323     		movs	r3, #3
 7773 0044 7AE0     		b	.L381
 7774              	.L380:
3292:Drivers/STM32F1xx_HAL_Driver/Src/stm32f1xx_hal_i2c.c ****   }
3293:Drivers/STM32F1xx_HAL_Driver/Src/stm32f1xx_hal_i2c.c **** 
3294:Drivers/STM32F1xx_HAL_Driver/Src/stm32f1xx_hal_i2c.c ****   if(hi2c->Init.AddressingMode == I2C_ADDRESSINGMODE_7BIT)
 7775              		.loc 1 3294 0
 7776 0046 FB68     		ldr	r3, [r7, #12]
 7777 0048 1B69     		ldr	r3, [r3, #16]
 7778 004a B3F5804F 		cmp	r3, #16384
 7779 004e 08D1     		bne	.L382
3295:Drivers/STM32F1xx_HAL_Driver/Src/stm32f1xx_hal_i2c.c ****   {
3296:Drivers/STM32F1xx_HAL_Driver/Src/stm32f1xx_hal_i2c.c ****     /* Send slave address */
3297:Drivers/STM32F1xx_HAL_Driver/Src/stm32f1xx_hal_i2c.c ****     hi2c->Instance->DR = I2C_7BIT_ADD_READ(DevAddress);
 7780              		.loc 1 3297 0
 7781 0050 FB68     		ldr	r3, [r7, #12]
 7782 0052 1B68     		ldr	r3, [r3]
 7783 0054 7A89     		ldrh	r2, [r7, #10]	@ movhi
 7784 0056 D2B2     		uxtb	r2, r2
 7785 0058 42F00102 		orr	r2, r2, #1
 7786 005c D2B2     		uxtb	r2, r2
 7787 005e 1A61     		str	r2, [r3, #16]
 7788 0060 5BE0     		b	.L383
 7789              	.L382:
3298:Drivers/STM32F1xx_HAL_Driver/Src/stm32f1xx_hal_i2c.c ****   }
3299:Drivers/STM32F1xx_HAL_Driver/Src/stm32f1xx_hal_i2c.c ****   else
3300:Drivers/STM32F1xx_HAL_Driver/Src/stm32f1xx_hal_i2c.c ****   {
3301:Drivers/STM32F1xx_HAL_Driver/Src/stm32f1xx_hal_i2c.c ****     /* Send header of slave address */
3302:Drivers/STM32F1xx_HAL_Driver/Src/stm32f1xx_hal_i2c.c ****     hi2c->Instance->DR = I2C_10BIT_HEADER_WRITE(DevAddress);
 7790              		.loc 1 3302 0
 7791 0062 FB68     		ldr	r3, [r7, #12]
 7792 0064 1B68     		ldr	r3, [r3]
 7793 0066 7A89     		ldrh	r2, [r7, #10]
 7794 0068 D211     		asrs	r2, r2, #7
 7795 006a 52B2     		sxtb	r2, r2
 7796 006c 02F00602 		and	r2, r2, #6
 7797 0070 52B2     		sxtb	r2, r2
 7798 0072 62F00F02 		orn	r2, r2, #15
 7799 0076 52B2     		sxtb	r2, r2
 7800 0078 D2B2     		uxtb	r2, r2
 7801 007a 1A61     		str	r2, [r3, #16]
3303:Drivers/STM32F1xx_HAL_Driver/Src/stm32f1xx_hal_i2c.c **** 
ARM GAS  /var/folders/kh/x4vltyy52lbg7p4pcyglc5080000gp/T//cccbl2Nm.s 			page 196


3304:Drivers/STM32F1xx_HAL_Driver/Src/stm32f1xx_hal_i2c.c ****     /* Wait until ADD10 flag is set */
3305:Drivers/STM32F1xx_HAL_Driver/Src/stm32f1xx_hal_i2c.c ****     if(I2C_WaitOnMasterAddressFlagUntilTimeout(hi2c, I2C_FLAG_ADD10, Timeout) != HAL_OK)
 7802              		.loc 1 3305 0
 7803 007c 7A68     		ldr	r2, [r7, #4]
 7804 007e 3149     		ldr	r1, .L391
 7805 0080 F868     		ldr	r0, [r7, #12]
 7806 0082 FFF7FEFF 		bl	I2C_WaitOnMasterAddressFlagUntilTimeout
 7807 0086 0346     		mov	r3, r0
 7808 0088 002B     		cmp	r3, #0
 7809 008a 07D0     		beq	.L384
3306:Drivers/STM32F1xx_HAL_Driver/Src/stm32f1xx_hal_i2c.c ****     {
3307:Drivers/STM32F1xx_HAL_Driver/Src/stm32f1xx_hal_i2c.c ****       if(hi2c->ErrorCode == HAL_I2C_ERROR_AF)
 7810              		.loc 1 3307 0
 7811 008c FB68     		ldr	r3, [r7, #12]
 7812 008e 9B6B     		ldr	r3, [r3, #56]
 7813 0090 042B     		cmp	r3, #4
 7814 0092 01D1     		bne	.L385
3308:Drivers/STM32F1xx_HAL_Driver/Src/stm32f1xx_hal_i2c.c ****       {
3309:Drivers/STM32F1xx_HAL_Driver/Src/stm32f1xx_hal_i2c.c ****         return HAL_ERROR;
 7815              		.loc 1 3309 0
 7816 0094 0123     		movs	r3, #1
 7817 0096 51E0     		b	.L381
 7818              	.L385:
3310:Drivers/STM32F1xx_HAL_Driver/Src/stm32f1xx_hal_i2c.c ****       }
3311:Drivers/STM32F1xx_HAL_Driver/Src/stm32f1xx_hal_i2c.c ****       else
3312:Drivers/STM32F1xx_HAL_Driver/Src/stm32f1xx_hal_i2c.c ****       {
3313:Drivers/STM32F1xx_HAL_Driver/Src/stm32f1xx_hal_i2c.c ****         return HAL_TIMEOUT;
 7819              		.loc 1 3313 0
 7820 0098 0323     		movs	r3, #3
 7821 009a 4FE0     		b	.L381
 7822              	.L384:
3314:Drivers/STM32F1xx_HAL_Driver/Src/stm32f1xx_hal_i2c.c ****       }
3315:Drivers/STM32F1xx_HAL_Driver/Src/stm32f1xx_hal_i2c.c ****     }
3316:Drivers/STM32F1xx_HAL_Driver/Src/stm32f1xx_hal_i2c.c **** 
3317:Drivers/STM32F1xx_HAL_Driver/Src/stm32f1xx_hal_i2c.c ****     /* Send slave address */
3318:Drivers/STM32F1xx_HAL_Driver/Src/stm32f1xx_hal_i2c.c ****     hi2c->Instance->DR = I2C_10BIT_ADDRESS(DevAddress);
 7823              		.loc 1 3318 0
 7824 009c FB68     		ldr	r3, [r7, #12]
 7825 009e 1B68     		ldr	r3, [r3]
 7826 00a0 7A89     		ldrh	r2, [r7, #10]	@ movhi
 7827 00a2 D2B2     		uxtb	r2, r2
 7828 00a4 1A61     		str	r2, [r3, #16]
3319:Drivers/STM32F1xx_HAL_Driver/Src/stm32f1xx_hal_i2c.c **** 
3320:Drivers/STM32F1xx_HAL_Driver/Src/stm32f1xx_hal_i2c.c ****     /* Wait until ADDR flag is set */
3321:Drivers/STM32F1xx_HAL_Driver/Src/stm32f1xx_hal_i2c.c ****     if(I2C_WaitOnMasterAddressFlagUntilTimeout(hi2c, I2C_FLAG_ADDR, Timeout) != HAL_OK)
 7829              		.loc 1 3321 0
 7830 00a6 7A68     		ldr	r2, [r7, #4]
 7831 00a8 2749     		ldr	r1, .L391+4
 7832 00aa F868     		ldr	r0, [r7, #12]
 7833 00ac FFF7FEFF 		bl	I2C_WaitOnMasterAddressFlagUntilTimeout
 7834 00b0 0346     		mov	r3, r0
 7835 00b2 002B     		cmp	r3, #0
 7836 00b4 07D0     		beq	.L386
3322:Drivers/STM32F1xx_HAL_Driver/Src/stm32f1xx_hal_i2c.c ****     {
3323:Drivers/STM32F1xx_HAL_Driver/Src/stm32f1xx_hal_i2c.c ****       if(hi2c->ErrorCode == HAL_I2C_ERROR_AF)
 7837              		.loc 1 3323 0
 7838 00b6 FB68     		ldr	r3, [r7, #12]
ARM GAS  /var/folders/kh/x4vltyy52lbg7p4pcyglc5080000gp/T//cccbl2Nm.s 			page 197


 7839 00b8 9B6B     		ldr	r3, [r3, #56]
 7840 00ba 042B     		cmp	r3, #4
 7841 00bc 01D1     		bne	.L387
3324:Drivers/STM32F1xx_HAL_Driver/Src/stm32f1xx_hal_i2c.c ****       {
3325:Drivers/STM32F1xx_HAL_Driver/Src/stm32f1xx_hal_i2c.c ****         return HAL_ERROR;
 7842              		.loc 1 3325 0
 7843 00be 0123     		movs	r3, #1
 7844 00c0 3CE0     		b	.L381
 7845              	.L387:
3326:Drivers/STM32F1xx_HAL_Driver/Src/stm32f1xx_hal_i2c.c ****       }
3327:Drivers/STM32F1xx_HAL_Driver/Src/stm32f1xx_hal_i2c.c ****       else
3328:Drivers/STM32F1xx_HAL_Driver/Src/stm32f1xx_hal_i2c.c ****       {
3329:Drivers/STM32F1xx_HAL_Driver/Src/stm32f1xx_hal_i2c.c ****         return HAL_TIMEOUT;
 7846              		.loc 1 3329 0
 7847 00c2 0323     		movs	r3, #3
 7848 00c4 3AE0     		b	.L381
 7849              	.L386:
 7850              	.LBB100:
3330:Drivers/STM32F1xx_HAL_Driver/Src/stm32f1xx_hal_i2c.c ****       }
3331:Drivers/STM32F1xx_HAL_Driver/Src/stm32f1xx_hal_i2c.c ****     }
3332:Drivers/STM32F1xx_HAL_Driver/Src/stm32f1xx_hal_i2c.c **** 
3333:Drivers/STM32F1xx_HAL_Driver/Src/stm32f1xx_hal_i2c.c ****     /* Clear ADDR flag */
3334:Drivers/STM32F1xx_HAL_Driver/Src/stm32f1xx_hal_i2c.c ****     __HAL_I2C_CLEAR_ADDRFLAG(hi2c);
 7851              		.loc 1 3334 0
 7852 00c6 FB68     		ldr	r3, [r7, #12]
 7853 00c8 1B68     		ldr	r3, [r3]
 7854 00ca 5B69     		ldr	r3, [r3, #20]
 7855 00cc 7B61     		str	r3, [r7, #20]
 7856 00ce FB68     		ldr	r3, [r7, #12]
 7857 00d0 1B68     		ldr	r3, [r3]
 7858 00d2 9B69     		ldr	r3, [r3, #24]
 7859 00d4 7B61     		str	r3, [r7, #20]
 7860 00d6 7B69     		ldr	r3, [r7, #20]
 7861              	.LBE100:
3335:Drivers/STM32F1xx_HAL_Driver/Src/stm32f1xx_hal_i2c.c **** 
3336:Drivers/STM32F1xx_HAL_Driver/Src/stm32f1xx_hal_i2c.c ****     /* Generate Restart */
3337:Drivers/STM32F1xx_HAL_Driver/Src/stm32f1xx_hal_i2c.c ****     SET_BIT(hi2c->Instance->CR1, I2C_CR1_START);
 7862              		.loc 1 3337 0
 7863 00d8 FB68     		ldr	r3, [r7, #12]
 7864 00da 1B68     		ldr	r3, [r3]
 7865 00dc FA68     		ldr	r2, [r7, #12]
 7866 00de 1268     		ldr	r2, [r2]
 7867 00e0 1268     		ldr	r2, [r2]
 7868 00e2 42F48072 		orr	r2, r2, #256
 7869 00e6 1A60     		str	r2, [r3]
3338:Drivers/STM32F1xx_HAL_Driver/Src/stm32f1xx_hal_i2c.c **** 
3339:Drivers/STM32F1xx_HAL_Driver/Src/stm32f1xx_hal_i2c.c ****     /* Wait until SB flag is set */
3340:Drivers/STM32F1xx_HAL_Driver/Src/stm32f1xx_hal_i2c.c ****     if(I2C_WaitOnFlagUntilTimeout(hi2c, I2C_FLAG_SB, RESET, Timeout) != HAL_OK)
 7870              		.loc 1 3340 0
 7871 00e8 7B68     		ldr	r3, [r7, #4]
 7872 00ea 0022     		movs	r2, #0
 7873 00ec 4FF00111 		mov	r1, #65537
 7874 00f0 F868     		ldr	r0, [r7, #12]
 7875 00f2 FFF7FEFF 		bl	I2C_WaitOnFlagUntilTimeout
 7876 00f6 0346     		mov	r3, r0
 7877 00f8 002B     		cmp	r3, #0
 7878 00fa 01D0     		beq	.L388
ARM GAS  /var/folders/kh/x4vltyy52lbg7p4pcyglc5080000gp/T//cccbl2Nm.s 			page 198


3341:Drivers/STM32F1xx_HAL_Driver/Src/stm32f1xx_hal_i2c.c ****     {
3342:Drivers/STM32F1xx_HAL_Driver/Src/stm32f1xx_hal_i2c.c ****       return HAL_TIMEOUT;
 7879              		.loc 1 3342 0
 7880 00fc 0323     		movs	r3, #3
 7881 00fe 1DE0     		b	.L381
 7882              	.L388:
3343:Drivers/STM32F1xx_HAL_Driver/Src/stm32f1xx_hal_i2c.c ****     }
3344:Drivers/STM32F1xx_HAL_Driver/Src/stm32f1xx_hal_i2c.c **** 
3345:Drivers/STM32F1xx_HAL_Driver/Src/stm32f1xx_hal_i2c.c ****     /* Send header of slave address */
3346:Drivers/STM32F1xx_HAL_Driver/Src/stm32f1xx_hal_i2c.c ****     hi2c->Instance->DR = I2C_10BIT_HEADER_READ(DevAddress);
 7883              		.loc 1 3346 0
 7884 0100 FB68     		ldr	r3, [r7, #12]
 7885 0102 1B68     		ldr	r3, [r3]
 7886 0104 7A89     		ldrh	r2, [r7, #10]
 7887 0106 D211     		asrs	r2, r2, #7
 7888 0108 52B2     		sxtb	r2, r2
 7889 010a 02F00602 		and	r2, r2, #6
 7890 010e 52B2     		sxtb	r2, r2
 7891 0110 62F00E02 		orn	r2, r2, #14
 7892 0114 52B2     		sxtb	r2, r2
 7893 0116 D2B2     		uxtb	r2, r2
 7894 0118 1A61     		str	r2, [r3, #16]
 7895              	.L383:
3347:Drivers/STM32F1xx_HAL_Driver/Src/stm32f1xx_hal_i2c.c ****   }
3348:Drivers/STM32F1xx_HAL_Driver/Src/stm32f1xx_hal_i2c.c **** 
3349:Drivers/STM32F1xx_HAL_Driver/Src/stm32f1xx_hal_i2c.c ****   /* Wait until ADDR flag is set */
3350:Drivers/STM32F1xx_HAL_Driver/Src/stm32f1xx_hal_i2c.c ****   if(I2C_WaitOnMasterAddressFlagUntilTimeout(hi2c, I2C_FLAG_ADDR, Timeout) != HAL_OK)
 7896              		.loc 1 3350 0
 7897 011a 7A68     		ldr	r2, [r7, #4]
 7898 011c 0A49     		ldr	r1, .L391+4
 7899 011e F868     		ldr	r0, [r7, #12]
 7900 0120 FFF7FEFF 		bl	I2C_WaitOnMasterAddressFlagUntilTimeout
 7901 0124 0346     		mov	r3, r0
 7902 0126 002B     		cmp	r3, #0
 7903 0128 07D0     		beq	.L389
3351:Drivers/STM32F1xx_HAL_Driver/Src/stm32f1xx_hal_i2c.c ****   {
3352:Drivers/STM32F1xx_HAL_Driver/Src/stm32f1xx_hal_i2c.c ****     if(hi2c->ErrorCode == HAL_I2C_ERROR_AF)
 7904              		.loc 1 3352 0
 7905 012a FB68     		ldr	r3, [r7, #12]
 7906 012c 9B6B     		ldr	r3, [r3, #56]
 7907 012e 042B     		cmp	r3, #4
 7908 0130 01D1     		bne	.L390
3353:Drivers/STM32F1xx_HAL_Driver/Src/stm32f1xx_hal_i2c.c ****     {
3354:Drivers/STM32F1xx_HAL_Driver/Src/stm32f1xx_hal_i2c.c ****       return HAL_ERROR;
 7909              		.loc 1 3354 0
 7910 0132 0123     		movs	r3, #1
 7911 0134 02E0     		b	.L381
 7912              	.L390:
3355:Drivers/STM32F1xx_HAL_Driver/Src/stm32f1xx_hal_i2c.c ****     }
3356:Drivers/STM32F1xx_HAL_Driver/Src/stm32f1xx_hal_i2c.c ****     else
3357:Drivers/STM32F1xx_HAL_Driver/Src/stm32f1xx_hal_i2c.c ****     {
3358:Drivers/STM32F1xx_HAL_Driver/Src/stm32f1xx_hal_i2c.c ****       return HAL_TIMEOUT;
 7913              		.loc 1 3358 0
 7914 0136 0323     		movs	r3, #3
 7915 0138 00E0     		b	.L381
 7916              	.L389:
3359:Drivers/STM32F1xx_HAL_Driver/Src/stm32f1xx_hal_i2c.c ****     }
ARM GAS  /var/folders/kh/x4vltyy52lbg7p4pcyglc5080000gp/T//cccbl2Nm.s 			page 199


3360:Drivers/STM32F1xx_HAL_Driver/Src/stm32f1xx_hal_i2c.c ****   }
3361:Drivers/STM32F1xx_HAL_Driver/Src/stm32f1xx_hal_i2c.c **** 
3362:Drivers/STM32F1xx_HAL_Driver/Src/stm32f1xx_hal_i2c.c ****   return HAL_OK;
 7917              		.loc 1 3362 0
 7918 013a 0023     		movs	r3, #0
 7919              	.L381:
3363:Drivers/STM32F1xx_HAL_Driver/Src/stm32f1xx_hal_i2c.c **** }
 7920              		.loc 1 3363 0
 7921 013c 1846     		mov	r0, r3
 7922 013e 1837     		adds	r7, r7, #24
 7923              	.LCFI250:
 7924              		.cfi_def_cfa_offset 8
 7925 0140 BD46     		mov	sp, r7
 7926              	.LCFI251:
 7927              		.cfi_def_cfa_register 13
 7928              		@ sp needed
 7929 0142 80BD     		pop	{r7, pc}
 7930              	.L392:
 7931              		.align	2
 7932              	.L391:
 7933 0144 08000100 		.word	65544
 7934 0148 02000100 		.word	65538
 7935              		.cfi_endproc
 7936              	.LFE110:
 7938              		.section	.text.I2C_RequestMemoryWrite,"ax",%progbits
 7939              		.align	2
 7940              		.thumb
 7941              		.thumb_func
 7943              	I2C_RequestMemoryWrite:
 7944              	.LFB111:
3364:Drivers/STM32F1xx_HAL_Driver/Src/stm32f1xx_hal_i2c.c **** 
3365:Drivers/STM32F1xx_HAL_Driver/Src/stm32f1xx_hal_i2c.c **** /**
3366:Drivers/STM32F1xx_HAL_Driver/Src/stm32f1xx_hal_i2c.c ****   * @brief  Master sends target device address followed by internal memory address for write reques
3367:Drivers/STM32F1xx_HAL_Driver/Src/stm32f1xx_hal_i2c.c ****   * @param  hi2c Pointer to a I2C_HandleTypeDef structure that contains
3368:Drivers/STM32F1xx_HAL_Driver/Src/stm32f1xx_hal_i2c.c ****   *                the configuration information for the specified I2C.
3369:Drivers/STM32F1xx_HAL_Driver/Src/stm32f1xx_hal_i2c.c ****   * @param  DevAddress Target device address
3370:Drivers/STM32F1xx_HAL_Driver/Src/stm32f1xx_hal_i2c.c ****   * @param  MemAddress Internal memory address
3371:Drivers/STM32F1xx_HAL_Driver/Src/stm32f1xx_hal_i2c.c ****   * @param  MemAddSize Size of internal memory address
3372:Drivers/STM32F1xx_HAL_Driver/Src/stm32f1xx_hal_i2c.c ****   * @param  Timeout Timeout duration
3373:Drivers/STM32F1xx_HAL_Driver/Src/stm32f1xx_hal_i2c.c ****   * @retval HAL status
3374:Drivers/STM32F1xx_HAL_Driver/Src/stm32f1xx_hal_i2c.c ****   */
3375:Drivers/STM32F1xx_HAL_Driver/Src/stm32f1xx_hal_i2c.c **** static HAL_StatusTypeDef I2C_RequestMemoryWrite(I2C_HandleTypeDef *hi2c, uint16_t DevAddress, uint1
3376:Drivers/STM32F1xx_HAL_Driver/Src/stm32f1xx_hal_i2c.c **** {
 7945              		.loc 1 3376 0
 7946              		.cfi_startproc
 7947              		@ args = 4, pretend = 0, frame = 24
 7948              		@ frame_needed = 1, uses_anonymous_args = 0
 7949 0000 80B5     		push	{r7, lr}
 7950              	.LCFI252:
 7951              		.cfi_def_cfa_offset 8
 7952              		.cfi_offset 7, -8
 7953              		.cfi_offset 14, -4
 7954 0002 86B0     		sub	sp, sp, #24
 7955              	.LCFI253:
 7956              		.cfi_def_cfa_offset 32
 7957 0004 00AF     		add	r7, sp, #0
 7958              	.LCFI254:
ARM GAS  /var/folders/kh/x4vltyy52lbg7p4pcyglc5080000gp/T//cccbl2Nm.s 			page 200


 7959              		.cfi_def_cfa_register 7
 7960 0006 F860     		str	r0, [r7, #12]
 7961 0008 0846     		mov	r0, r1
 7962 000a 1146     		mov	r1, r2
 7963 000c 1A46     		mov	r2, r3
 7964 000e 0346     		mov	r3, r0	@ movhi
 7965 0010 7B81     		strh	r3, [r7, #10]	@ movhi
 7966 0012 0B46     		mov	r3, r1	@ movhi
 7967 0014 3B81     		strh	r3, [r7, #8]	@ movhi
 7968 0016 1346     		mov	r3, r2	@ movhi
 7969 0018 FB80     		strh	r3, [r7, #6]	@ movhi
3377:Drivers/STM32F1xx_HAL_Driver/Src/stm32f1xx_hal_i2c.c ****   /* Generate Start */
3378:Drivers/STM32F1xx_HAL_Driver/Src/stm32f1xx_hal_i2c.c ****   SET_BIT(hi2c->Instance->CR1, I2C_CR1_START);
 7970              		.loc 1 3378 0
 7971 001a FB68     		ldr	r3, [r7, #12]
 7972 001c 1B68     		ldr	r3, [r3]
 7973 001e FA68     		ldr	r2, [r7, #12]
 7974 0020 1268     		ldr	r2, [r2]
 7975 0022 1268     		ldr	r2, [r2]
 7976 0024 42F48072 		orr	r2, r2, #256
 7977 0028 1A60     		str	r2, [r3]
3379:Drivers/STM32F1xx_HAL_Driver/Src/stm32f1xx_hal_i2c.c **** 
3380:Drivers/STM32F1xx_HAL_Driver/Src/stm32f1xx_hal_i2c.c ****   /* Wait until SB flag is set */
3381:Drivers/STM32F1xx_HAL_Driver/Src/stm32f1xx_hal_i2c.c ****   if(I2C_WaitOnFlagUntilTimeout(hi2c, I2C_FLAG_SB, RESET, Timeout) != HAL_OK)
 7978              		.loc 1 3381 0
 7979 002a 3B6A     		ldr	r3, [r7, #32]
 7980 002c 0022     		movs	r2, #0
 7981 002e 4FF00111 		mov	r1, #65537
 7982 0032 F868     		ldr	r0, [r7, #12]
 7983 0034 FFF7FEFF 		bl	I2C_WaitOnFlagUntilTimeout
 7984 0038 0346     		mov	r3, r0
 7985 003a 002B     		cmp	r3, #0
 7986 003c 01D0     		beq	.L394
3382:Drivers/STM32F1xx_HAL_Driver/Src/stm32f1xx_hal_i2c.c ****   {
3383:Drivers/STM32F1xx_HAL_Driver/Src/stm32f1xx_hal_i2c.c ****     return HAL_TIMEOUT;
 7987              		.loc 1 3383 0
 7988 003e 0323     		movs	r3, #3
 7989 0040 63E0     		b	.L395
 7990              	.L394:
3384:Drivers/STM32F1xx_HAL_Driver/Src/stm32f1xx_hal_i2c.c ****   }
3385:Drivers/STM32F1xx_HAL_Driver/Src/stm32f1xx_hal_i2c.c **** 
3386:Drivers/STM32F1xx_HAL_Driver/Src/stm32f1xx_hal_i2c.c ****   /* Send slave address */
3387:Drivers/STM32F1xx_HAL_Driver/Src/stm32f1xx_hal_i2c.c ****   hi2c->Instance->DR = I2C_7BIT_ADD_WRITE(DevAddress);
 7991              		.loc 1 3387 0
 7992 0042 FB68     		ldr	r3, [r7, #12]
 7993 0044 1B68     		ldr	r3, [r3]
 7994 0046 7A89     		ldrh	r2, [r7, #10]	@ movhi
 7995 0048 D2B2     		uxtb	r2, r2
 7996 004a 02F0FE02 		and	r2, r2, #254
 7997 004e 1A61     		str	r2, [r3, #16]
3388:Drivers/STM32F1xx_HAL_Driver/Src/stm32f1xx_hal_i2c.c **** 
3389:Drivers/STM32F1xx_HAL_Driver/Src/stm32f1xx_hal_i2c.c ****   /* Wait until ADDR flag is set */
3390:Drivers/STM32F1xx_HAL_Driver/Src/stm32f1xx_hal_i2c.c ****   if(I2C_WaitOnMasterAddressFlagUntilTimeout(hi2c, I2C_FLAG_ADDR, Timeout) != HAL_OK)
 7998              		.loc 1 3390 0
 7999 0050 3A6A     		ldr	r2, [r7, #32]
 8000 0052 3049     		ldr	r1, .L404
 8001 0054 F868     		ldr	r0, [r7, #12]
ARM GAS  /var/folders/kh/x4vltyy52lbg7p4pcyglc5080000gp/T//cccbl2Nm.s 			page 201


 8002 0056 FFF7FEFF 		bl	I2C_WaitOnMasterAddressFlagUntilTimeout
 8003 005a 0346     		mov	r3, r0
 8004 005c 002B     		cmp	r3, #0
 8005 005e 07D0     		beq	.L396
3391:Drivers/STM32F1xx_HAL_Driver/Src/stm32f1xx_hal_i2c.c ****   {
3392:Drivers/STM32F1xx_HAL_Driver/Src/stm32f1xx_hal_i2c.c ****     if(hi2c->ErrorCode == HAL_I2C_ERROR_AF)
 8006              		.loc 1 3392 0
 8007 0060 FB68     		ldr	r3, [r7, #12]
 8008 0062 9B6B     		ldr	r3, [r3, #56]
 8009 0064 042B     		cmp	r3, #4
 8010 0066 01D1     		bne	.L397
3393:Drivers/STM32F1xx_HAL_Driver/Src/stm32f1xx_hal_i2c.c ****     {
3394:Drivers/STM32F1xx_HAL_Driver/Src/stm32f1xx_hal_i2c.c ****       return HAL_ERROR;
 8011              		.loc 1 3394 0
 8012 0068 0123     		movs	r3, #1
 8013 006a 4EE0     		b	.L395
 8014              	.L397:
3395:Drivers/STM32F1xx_HAL_Driver/Src/stm32f1xx_hal_i2c.c ****     }
3396:Drivers/STM32F1xx_HAL_Driver/Src/stm32f1xx_hal_i2c.c ****     else
3397:Drivers/STM32F1xx_HAL_Driver/Src/stm32f1xx_hal_i2c.c ****     {
3398:Drivers/STM32F1xx_HAL_Driver/Src/stm32f1xx_hal_i2c.c ****       return HAL_TIMEOUT;
 8015              		.loc 1 3398 0
 8016 006c 0323     		movs	r3, #3
 8017 006e 4CE0     		b	.L395
 8018              	.L396:
 8019              	.LBB101:
3399:Drivers/STM32F1xx_HAL_Driver/Src/stm32f1xx_hal_i2c.c ****     }
3400:Drivers/STM32F1xx_HAL_Driver/Src/stm32f1xx_hal_i2c.c ****   }
3401:Drivers/STM32F1xx_HAL_Driver/Src/stm32f1xx_hal_i2c.c **** 
3402:Drivers/STM32F1xx_HAL_Driver/Src/stm32f1xx_hal_i2c.c ****   /* Clear ADDR flag */
3403:Drivers/STM32F1xx_HAL_Driver/Src/stm32f1xx_hal_i2c.c ****   __HAL_I2C_CLEAR_ADDRFLAG(hi2c);
 8020              		.loc 1 3403 0
 8021 0070 FB68     		ldr	r3, [r7, #12]
 8022 0072 1B68     		ldr	r3, [r3]
 8023 0074 5B69     		ldr	r3, [r3, #20]
 8024 0076 7B61     		str	r3, [r7, #20]
 8025 0078 FB68     		ldr	r3, [r7, #12]
 8026 007a 1B68     		ldr	r3, [r3]
 8027 007c 9B69     		ldr	r3, [r3, #24]
 8028 007e 7B61     		str	r3, [r7, #20]
 8029 0080 7B69     		ldr	r3, [r7, #20]
 8030              	.LBE101:
3404:Drivers/STM32F1xx_HAL_Driver/Src/stm32f1xx_hal_i2c.c **** 
3405:Drivers/STM32F1xx_HAL_Driver/Src/stm32f1xx_hal_i2c.c ****   /* Wait until TXE flag is set */
3406:Drivers/STM32F1xx_HAL_Driver/Src/stm32f1xx_hal_i2c.c ****   if(I2C_WaitOnTXEFlagUntilTimeout(hi2c, Timeout) != HAL_OK)
 8031              		.loc 1 3406 0
 8032 0082 396A     		ldr	r1, [r7, #32]
 8033 0084 F868     		ldr	r0, [r7, #12]
 8034 0086 FFF7FEFF 		bl	I2C_WaitOnTXEFlagUntilTimeout
 8035 008a 0346     		mov	r3, r0
 8036 008c 002B     		cmp	r3, #0
 8037 008e 0FD0     		beq	.L398
3407:Drivers/STM32F1xx_HAL_Driver/Src/stm32f1xx_hal_i2c.c ****   {
3408:Drivers/STM32F1xx_HAL_Driver/Src/stm32f1xx_hal_i2c.c ****     if(hi2c->ErrorCode == HAL_I2C_ERROR_AF)
 8038              		.loc 1 3408 0
 8039 0090 FB68     		ldr	r3, [r7, #12]
 8040 0092 9B6B     		ldr	r3, [r3, #56]
ARM GAS  /var/folders/kh/x4vltyy52lbg7p4pcyglc5080000gp/T//cccbl2Nm.s 			page 202


 8041 0094 042B     		cmp	r3, #4
 8042 0096 09D1     		bne	.L399
3409:Drivers/STM32F1xx_HAL_Driver/Src/stm32f1xx_hal_i2c.c ****     {
3410:Drivers/STM32F1xx_HAL_Driver/Src/stm32f1xx_hal_i2c.c ****       /* Generate Stop */
3411:Drivers/STM32F1xx_HAL_Driver/Src/stm32f1xx_hal_i2c.c ****       SET_BIT(hi2c->Instance->CR1,I2C_CR1_STOP);
 8043              		.loc 1 3411 0
 8044 0098 FB68     		ldr	r3, [r7, #12]
 8045 009a 1B68     		ldr	r3, [r3]
 8046 009c FA68     		ldr	r2, [r7, #12]
 8047 009e 1268     		ldr	r2, [r2]
 8048 00a0 1268     		ldr	r2, [r2]
 8049 00a2 42F40072 		orr	r2, r2, #512
 8050 00a6 1A60     		str	r2, [r3]
3412:Drivers/STM32F1xx_HAL_Driver/Src/stm32f1xx_hal_i2c.c ****       return HAL_ERROR;
 8051              		.loc 1 3412 0
 8052 00a8 0123     		movs	r3, #1
 8053 00aa 2EE0     		b	.L395
 8054              	.L399:
3413:Drivers/STM32F1xx_HAL_Driver/Src/stm32f1xx_hal_i2c.c ****     }
3414:Drivers/STM32F1xx_HAL_Driver/Src/stm32f1xx_hal_i2c.c ****     else
3415:Drivers/STM32F1xx_HAL_Driver/Src/stm32f1xx_hal_i2c.c ****     {
3416:Drivers/STM32F1xx_HAL_Driver/Src/stm32f1xx_hal_i2c.c ****       return HAL_TIMEOUT;
 8055              		.loc 1 3416 0
 8056 00ac 0323     		movs	r3, #3
 8057 00ae 2CE0     		b	.L395
 8058              	.L398:
3417:Drivers/STM32F1xx_HAL_Driver/Src/stm32f1xx_hal_i2c.c ****     }
3418:Drivers/STM32F1xx_HAL_Driver/Src/stm32f1xx_hal_i2c.c ****   }
3419:Drivers/STM32F1xx_HAL_Driver/Src/stm32f1xx_hal_i2c.c **** 
3420:Drivers/STM32F1xx_HAL_Driver/Src/stm32f1xx_hal_i2c.c ****   /* If Memory address size is 8Bit */
3421:Drivers/STM32F1xx_HAL_Driver/Src/stm32f1xx_hal_i2c.c ****   if(MemAddSize == I2C_MEMADD_SIZE_8BIT)
 8059              		.loc 1 3421 0
 8060 00b0 FB88     		ldrh	r3, [r7, #6]
 8061 00b2 012B     		cmp	r3, #1
 8062 00b4 05D1     		bne	.L400
3422:Drivers/STM32F1xx_HAL_Driver/Src/stm32f1xx_hal_i2c.c ****   {
3423:Drivers/STM32F1xx_HAL_Driver/Src/stm32f1xx_hal_i2c.c ****     /* Send Memory Address */
3424:Drivers/STM32F1xx_HAL_Driver/Src/stm32f1xx_hal_i2c.c ****     hi2c->Instance->DR = I2C_MEM_ADD_LSB(MemAddress);
 8063              		.loc 1 3424 0
 8064 00b6 FB68     		ldr	r3, [r7, #12]
 8065 00b8 1B68     		ldr	r3, [r3]
 8066 00ba 3A89     		ldrh	r2, [r7, #8]	@ movhi
 8067 00bc D2B2     		uxtb	r2, r2
 8068 00be 1A61     		str	r2, [r3, #16]
 8069 00c0 22E0     		b	.L401
 8070              	.L400:
3425:Drivers/STM32F1xx_HAL_Driver/Src/stm32f1xx_hal_i2c.c ****   }
3426:Drivers/STM32F1xx_HAL_Driver/Src/stm32f1xx_hal_i2c.c ****   /* If Memory address size is 16Bit */
3427:Drivers/STM32F1xx_HAL_Driver/Src/stm32f1xx_hal_i2c.c ****   else
3428:Drivers/STM32F1xx_HAL_Driver/Src/stm32f1xx_hal_i2c.c ****   {
3429:Drivers/STM32F1xx_HAL_Driver/Src/stm32f1xx_hal_i2c.c ****     /* Send MSB of Memory Address */
3430:Drivers/STM32F1xx_HAL_Driver/Src/stm32f1xx_hal_i2c.c ****     hi2c->Instance->DR = I2C_MEM_ADD_MSB(MemAddress);
 8071              		.loc 1 3430 0
 8072 00c2 FB68     		ldr	r3, [r7, #12]
 8073 00c4 1B68     		ldr	r3, [r3]
 8074 00c6 3A89     		ldrh	r2, [r7, #8]
 8075 00c8 120A     		lsrs	r2, r2, #8
ARM GAS  /var/folders/kh/x4vltyy52lbg7p4pcyglc5080000gp/T//cccbl2Nm.s 			page 203


 8076 00ca 92B2     		uxth	r2, r2
 8077 00cc D2B2     		uxtb	r2, r2
 8078 00ce 1A61     		str	r2, [r3, #16]
3431:Drivers/STM32F1xx_HAL_Driver/Src/stm32f1xx_hal_i2c.c **** 
3432:Drivers/STM32F1xx_HAL_Driver/Src/stm32f1xx_hal_i2c.c ****     /* Wait until TXE flag is set */
3433:Drivers/STM32F1xx_HAL_Driver/Src/stm32f1xx_hal_i2c.c ****     if(I2C_WaitOnTXEFlagUntilTimeout(hi2c, Timeout) != HAL_OK)
 8079              		.loc 1 3433 0
 8080 00d0 396A     		ldr	r1, [r7, #32]
 8081 00d2 F868     		ldr	r0, [r7, #12]
 8082 00d4 FFF7FEFF 		bl	I2C_WaitOnTXEFlagUntilTimeout
 8083 00d8 0346     		mov	r3, r0
 8084 00da 002B     		cmp	r3, #0
 8085 00dc 0FD0     		beq	.L402
3434:Drivers/STM32F1xx_HAL_Driver/Src/stm32f1xx_hal_i2c.c ****     {
3435:Drivers/STM32F1xx_HAL_Driver/Src/stm32f1xx_hal_i2c.c ****       if(hi2c->ErrorCode == HAL_I2C_ERROR_AF)
 8086              		.loc 1 3435 0
 8087 00de FB68     		ldr	r3, [r7, #12]
 8088 00e0 9B6B     		ldr	r3, [r3, #56]
 8089 00e2 042B     		cmp	r3, #4
 8090 00e4 09D1     		bne	.L403
3436:Drivers/STM32F1xx_HAL_Driver/Src/stm32f1xx_hal_i2c.c ****       {
3437:Drivers/STM32F1xx_HAL_Driver/Src/stm32f1xx_hal_i2c.c ****         /* Generate Stop */
3438:Drivers/STM32F1xx_HAL_Driver/Src/stm32f1xx_hal_i2c.c ****         SET_BIT(hi2c->Instance->CR1,I2C_CR1_STOP);
 8091              		.loc 1 3438 0
 8092 00e6 FB68     		ldr	r3, [r7, #12]
 8093 00e8 1B68     		ldr	r3, [r3]
 8094 00ea FA68     		ldr	r2, [r7, #12]
 8095 00ec 1268     		ldr	r2, [r2]
 8096 00ee 1268     		ldr	r2, [r2]
 8097 00f0 42F40072 		orr	r2, r2, #512
 8098 00f4 1A60     		str	r2, [r3]
3439:Drivers/STM32F1xx_HAL_Driver/Src/stm32f1xx_hal_i2c.c ****         return HAL_ERROR;
 8099              		.loc 1 3439 0
 8100 00f6 0123     		movs	r3, #1
 8101 00f8 07E0     		b	.L395
 8102              	.L403:
3440:Drivers/STM32F1xx_HAL_Driver/Src/stm32f1xx_hal_i2c.c ****       }
3441:Drivers/STM32F1xx_HAL_Driver/Src/stm32f1xx_hal_i2c.c ****       else
3442:Drivers/STM32F1xx_HAL_Driver/Src/stm32f1xx_hal_i2c.c ****       {
3443:Drivers/STM32F1xx_HAL_Driver/Src/stm32f1xx_hal_i2c.c ****         return HAL_TIMEOUT;
 8103              		.loc 1 3443 0
 8104 00fa 0323     		movs	r3, #3
 8105 00fc 05E0     		b	.L395
 8106              	.L402:
3444:Drivers/STM32F1xx_HAL_Driver/Src/stm32f1xx_hal_i2c.c ****       }
3445:Drivers/STM32F1xx_HAL_Driver/Src/stm32f1xx_hal_i2c.c ****     }
3446:Drivers/STM32F1xx_HAL_Driver/Src/stm32f1xx_hal_i2c.c **** 
3447:Drivers/STM32F1xx_HAL_Driver/Src/stm32f1xx_hal_i2c.c ****     /* Send LSB of Memory Address */
3448:Drivers/STM32F1xx_HAL_Driver/Src/stm32f1xx_hal_i2c.c ****     hi2c->Instance->DR = I2C_MEM_ADD_LSB(MemAddress);
 8107              		.loc 1 3448 0
 8108 00fe FB68     		ldr	r3, [r7, #12]
 8109 0100 1B68     		ldr	r3, [r3]
 8110 0102 3A89     		ldrh	r2, [r7, #8]	@ movhi
 8111 0104 D2B2     		uxtb	r2, r2
 8112 0106 1A61     		str	r2, [r3, #16]
 8113              	.L401:
3449:Drivers/STM32F1xx_HAL_Driver/Src/stm32f1xx_hal_i2c.c ****   }
ARM GAS  /var/folders/kh/x4vltyy52lbg7p4pcyglc5080000gp/T//cccbl2Nm.s 			page 204


3450:Drivers/STM32F1xx_HAL_Driver/Src/stm32f1xx_hal_i2c.c **** 
3451:Drivers/STM32F1xx_HAL_Driver/Src/stm32f1xx_hal_i2c.c ****   return HAL_OK;
 8114              		.loc 1 3451 0
 8115 0108 0023     		movs	r3, #0
 8116              	.L395:
3452:Drivers/STM32F1xx_HAL_Driver/Src/stm32f1xx_hal_i2c.c **** }
 8117              		.loc 1 3452 0
 8118 010a 1846     		mov	r0, r3
 8119 010c 1837     		adds	r7, r7, #24
 8120              	.LCFI255:
 8121              		.cfi_def_cfa_offset 8
 8122 010e BD46     		mov	sp, r7
 8123              	.LCFI256:
 8124              		.cfi_def_cfa_register 13
 8125              		@ sp needed
 8126 0110 80BD     		pop	{r7, pc}
 8127              	.L405:
 8128 0112 00BF     		.align	2
 8129              	.L404:
 8130 0114 02000100 		.word	65538
 8131              		.cfi_endproc
 8132              	.LFE111:
 8134              		.section	.text.I2C_RequestMemoryRead,"ax",%progbits
 8135              		.align	2
 8136              		.thumb
 8137              		.thumb_func
 8139              	I2C_RequestMemoryRead:
 8140              	.LFB112:
3453:Drivers/STM32F1xx_HAL_Driver/Src/stm32f1xx_hal_i2c.c **** 
3454:Drivers/STM32F1xx_HAL_Driver/Src/stm32f1xx_hal_i2c.c **** /**
3455:Drivers/STM32F1xx_HAL_Driver/Src/stm32f1xx_hal_i2c.c ****   * @brief  Master sends target device address followed by internal memory address for read request
3456:Drivers/STM32F1xx_HAL_Driver/Src/stm32f1xx_hal_i2c.c ****   * @param  hi2c Pointer to a I2C_HandleTypeDef structure that contains
3457:Drivers/STM32F1xx_HAL_Driver/Src/stm32f1xx_hal_i2c.c ****   *                the configuration information for the specified I2C.
3458:Drivers/STM32F1xx_HAL_Driver/Src/stm32f1xx_hal_i2c.c ****   * @param  DevAddress Target device address
3459:Drivers/STM32F1xx_HAL_Driver/Src/stm32f1xx_hal_i2c.c ****   * @param  MemAddress Internal memory address
3460:Drivers/STM32F1xx_HAL_Driver/Src/stm32f1xx_hal_i2c.c ****   * @param  MemAddSize Size of internal memory address
3461:Drivers/STM32F1xx_HAL_Driver/Src/stm32f1xx_hal_i2c.c ****   * @param  Timeout Timeout duration
3462:Drivers/STM32F1xx_HAL_Driver/Src/stm32f1xx_hal_i2c.c ****   * @retval HAL status
3463:Drivers/STM32F1xx_HAL_Driver/Src/stm32f1xx_hal_i2c.c ****   */
3464:Drivers/STM32F1xx_HAL_Driver/Src/stm32f1xx_hal_i2c.c **** static HAL_StatusTypeDef I2C_RequestMemoryRead(I2C_HandleTypeDef *hi2c, uint16_t DevAddress, uint16
3465:Drivers/STM32F1xx_HAL_Driver/Src/stm32f1xx_hal_i2c.c **** {
 8141              		.loc 1 3465 0
 8142              		.cfi_startproc
 8143              		@ args = 4, pretend = 0, frame = 24
 8144              		@ frame_needed = 1, uses_anonymous_args = 0
 8145 0000 80B5     		push	{r7, lr}
 8146              	.LCFI257:
 8147              		.cfi_def_cfa_offset 8
 8148              		.cfi_offset 7, -8
 8149              		.cfi_offset 14, -4
 8150 0002 86B0     		sub	sp, sp, #24
 8151              	.LCFI258:
 8152              		.cfi_def_cfa_offset 32
 8153 0004 00AF     		add	r7, sp, #0
 8154              	.LCFI259:
 8155              		.cfi_def_cfa_register 7
 8156 0006 F860     		str	r0, [r7, #12]
ARM GAS  /var/folders/kh/x4vltyy52lbg7p4pcyglc5080000gp/T//cccbl2Nm.s 			page 205


 8157 0008 0846     		mov	r0, r1
 8158 000a 1146     		mov	r1, r2
 8159 000c 1A46     		mov	r2, r3
 8160 000e 0346     		mov	r3, r0	@ movhi
 8161 0010 7B81     		strh	r3, [r7, #10]	@ movhi
 8162 0012 0B46     		mov	r3, r1	@ movhi
 8163 0014 3B81     		strh	r3, [r7, #8]	@ movhi
 8164 0016 1346     		mov	r3, r2	@ movhi
 8165 0018 FB80     		strh	r3, [r7, #6]	@ movhi
3466:Drivers/STM32F1xx_HAL_Driver/Src/stm32f1xx_hal_i2c.c ****   /* Enable Acknowledge */
3467:Drivers/STM32F1xx_HAL_Driver/Src/stm32f1xx_hal_i2c.c ****   SET_BIT(hi2c->Instance->CR1, I2C_CR1_ACK);
 8166              		.loc 1 3467 0
 8167 001a FB68     		ldr	r3, [r7, #12]
 8168 001c 1B68     		ldr	r3, [r3]
 8169 001e FA68     		ldr	r2, [r7, #12]
 8170 0020 1268     		ldr	r2, [r2]
 8171 0022 1268     		ldr	r2, [r2]
 8172 0024 42F48062 		orr	r2, r2, #1024
 8173 0028 1A60     		str	r2, [r3]
3468:Drivers/STM32F1xx_HAL_Driver/Src/stm32f1xx_hal_i2c.c **** 
3469:Drivers/STM32F1xx_HAL_Driver/Src/stm32f1xx_hal_i2c.c ****   /* Generate Start */
3470:Drivers/STM32F1xx_HAL_Driver/Src/stm32f1xx_hal_i2c.c ****   SET_BIT(hi2c->Instance->CR1, I2C_CR1_START);
 8174              		.loc 1 3470 0
 8175 002a FB68     		ldr	r3, [r7, #12]
 8176 002c 1B68     		ldr	r3, [r3]
 8177 002e FA68     		ldr	r2, [r7, #12]
 8178 0030 1268     		ldr	r2, [r2]
 8179 0032 1268     		ldr	r2, [r2]
 8180 0034 42F48072 		orr	r2, r2, #256
 8181 0038 1A60     		str	r2, [r3]
3471:Drivers/STM32F1xx_HAL_Driver/Src/stm32f1xx_hal_i2c.c **** 
3472:Drivers/STM32F1xx_HAL_Driver/Src/stm32f1xx_hal_i2c.c ****   /* Wait until SB flag is set */
3473:Drivers/STM32F1xx_HAL_Driver/Src/stm32f1xx_hal_i2c.c ****   if(I2C_WaitOnFlagUntilTimeout(hi2c, I2C_FLAG_SB, RESET, Timeout) != HAL_OK)
 8182              		.loc 1 3473 0
 8183 003a 3B6A     		ldr	r3, [r7, #32]
 8184 003c 0022     		movs	r2, #0
 8185 003e 4FF00111 		mov	r1, #65537
 8186 0042 F868     		ldr	r0, [r7, #12]
 8187 0044 FFF7FEFF 		bl	I2C_WaitOnFlagUntilTimeout
 8188 0048 0346     		mov	r3, r0
 8189 004a 002B     		cmp	r3, #0
 8190 004c 01D0     		beq	.L407
3474:Drivers/STM32F1xx_HAL_Driver/Src/stm32f1xx_hal_i2c.c ****   {
3475:Drivers/STM32F1xx_HAL_Driver/Src/stm32f1xx_hal_i2c.c ****     return HAL_TIMEOUT;
 8191              		.loc 1 3475 0
 8192 004e 0323     		movs	r3, #3
 8193 0050 A6E0     		b	.L408
 8194              	.L407:
3476:Drivers/STM32F1xx_HAL_Driver/Src/stm32f1xx_hal_i2c.c ****   }
3477:Drivers/STM32F1xx_HAL_Driver/Src/stm32f1xx_hal_i2c.c **** 
3478:Drivers/STM32F1xx_HAL_Driver/Src/stm32f1xx_hal_i2c.c ****   /* Send slave address */
3479:Drivers/STM32F1xx_HAL_Driver/Src/stm32f1xx_hal_i2c.c ****   hi2c->Instance->DR = I2C_7BIT_ADD_WRITE(DevAddress);
 8195              		.loc 1 3479 0
 8196 0052 FB68     		ldr	r3, [r7, #12]
 8197 0054 1B68     		ldr	r3, [r3]
 8198 0056 7A89     		ldrh	r2, [r7, #10]	@ movhi
 8199 0058 D2B2     		uxtb	r2, r2
ARM GAS  /var/folders/kh/x4vltyy52lbg7p4pcyglc5080000gp/T//cccbl2Nm.s 			page 206


 8200 005a 02F0FE02 		and	r2, r2, #254
 8201 005e 1A61     		str	r2, [r3, #16]
3480:Drivers/STM32F1xx_HAL_Driver/Src/stm32f1xx_hal_i2c.c **** 
3481:Drivers/STM32F1xx_HAL_Driver/Src/stm32f1xx_hal_i2c.c ****   /* Wait until ADDR flag is set */
3482:Drivers/STM32F1xx_HAL_Driver/Src/stm32f1xx_hal_i2c.c ****   if(I2C_WaitOnMasterAddressFlagUntilTimeout(hi2c, I2C_FLAG_ADDR, Timeout) != HAL_OK)
 8202              		.loc 1 3482 0
 8203 0060 3A6A     		ldr	r2, [r7, #32]
 8204 0062 5149     		ldr	r1, .L422
 8205 0064 F868     		ldr	r0, [r7, #12]
 8206 0066 FFF7FEFF 		bl	I2C_WaitOnMasterAddressFlagUntilTimeout
 8207 006a 0346     		mov	r3, r0
 8208 006c 002B     		cmp	r3, #0
 8209 006e 07D0     		beq	.L409
3483:Drivers/STM32F1xx_HAL_Driver/Src/stm32f1xx_hal_i2c.c ****   {
3484:Drivers/STM32F1xx_HAL_Driver/Src/stm32f1xx_hal_i2c.c ****     if(hi2c->ErrorCode == HAL_I2C_ERROR_AF)
 8210              		.loc 1 3484 0
 8211 0070 FB68     		ldr	r3, [r7, #12]
 8212 0072 9B6B     		ldr	r3, [r3, #56]
 8213 0074 042B     		cmp	r3, #4
 8214 0076 01D1     		bne	.L410
3485:Drivers/STM32F1xx_HAL_Driver/Src/stm32f1xx_hal_i2c.c ****     {
3486:Drivers/STM32F1xx_HAL_Driver/Src/stm32f1xx_hal_i2c.c ****       return HAL_ERROR;
 8215              		.loc 1 3486 0
 8216 0078 0123     		movs	r3, #1
 8217 007a 91E0     		b	.L408
 8218              	.L410:
3487:Drivers/STM32F1xx_HAL_Driver/Src/stm32f1xx_hal_i2c.c ****     }
3488:Drivers/STM32F1xx_HAL_Driver/Src/stm32f1xx_hal_i2c.c ****     else
3489:Drivers/STM32F1xx_HAL_Driver/Src/stm32f1xx_hal_i2c.c ****     {
3490:Drivers/STM32F1xx_HAL_Driver/Src/stm32f1xx_hal_i2c.c ****       return HAL_TIMEOUT;
 8219              		.loc 1 3490 0
 8220 007c 0323     		movs	r3, #3
 8221 007e 8FE0     		b	.L408
 8222              	.L409:
 8223              	.LBB102:
3491:Drivers/STM32F1xx_HAL_Driver/Src/stm32f1xx_hal_i2c.c ****     }
3492:Drivers/STM32F1xx_HAL_Driver/Src/stm32f1xx_hal_i2c.c ****   }
3493:Drivers/STM32F1xx_HAL_Driver/Src/stm32f1xx_hal_i2c.c **** 
3494:Drivers/STM32F1xx_HAL_Driver/Src/stm32f1xx_hal_i2c.c ****   /* Clear ADDR flag */
3495:Drivers/STM32F1xx_HAL_Driver/Src/stm32f1xx_hal_i2c.c ****   __HAL_I2C_CLEAR_ADDRFLAG(hi2c);
 8224              		.loc 1 3495 0
 8225 0080 FB68     		ldr	r3, [r7, #12]
 8226 0082 1B68     		ldr	r3, [r3]
 8227 0084 5B69     		ldr	r3, [r3, #20]
 8228 0086 7B61     		str	r3, [r7, #20]
 8229 0088 FB68     		ldr	r3, [r7, #12]
 8230 008a 1B68     		ldr	r3, [r3]
 8231 008c 9B69     		ldr	r3, [r3, #24]
 8232 008e 7B61     		str	r3, [r7, #20]
 8233 0090 7B69     		ldr	r3, [r7, #20]
 8234              	.LBE102:
3496:Drivers/STM32F1xx_HAL_Driver/Src/stm32f1xx_hal_i2c.c **** 
3497:Drivers/STM32F1xx_HAL_Driver/Src/stm32f1xx_hal_i2c.c ****   /* Wait until TXE flag is set */
3498:Drivers/STM32F1xx_HAL_Driver/Src/stm32f1xx_hal_i2c.c ****   if(I2C_WaitOnTXEFlagUntilTimeout(hi2c, Timeout) != HAL_OK)
 8235              		.loc 1 3498 0
 8236 0092 396A     		ldr	r1, [r7, #32]
 8237 0094 F868     		ldr	r0, [r7, #12]
ARM GAS  /var/folders/kh/x4vltyy52lbg7p4pcyglc5080000gp/T//cccbl2Nm.s 			page 207


 8238 0096 FFF7FEFF 		bl	I2C_WaitOnTXEFlagUntilTimeout
 8239 009a 0346     		mov	r3, r0
 8240 009c 002B     		cmp	r3, #0
 8241 009e 0FD0     		beq	.L411
3499:Drivers/STM32F1xx_HAL_Driver/Src/stm32f1xx_hal_i2c.c ****   {
3500:Drivers/STM32F1xx_HAL_Driver/Src/stm32f1xx_hal_i2c.c ****     if(hi2c->ErrorCode == HAL_I2C_ERROR_AF)
 8242              		.loc 1 3500 0
 8243 00a0 FB68     		ldr	r3, [r7, #12]
 8244 00a2 9B6B     		ldr	r3, [r3, #56]
 8245 00a4 042B     		cmp	r3, #4
 8246 00a6 09D1     		bne	.L412
3501:Drivers/STM32F1xx_HAL_Driver/Src/stm32f1xx_hal_i2c.c ****     {
3502:Drivers/STM32F1xx_HAL_Driver/Src/stm32f1xx_hal_i2c.c ****       /* Generate Stop */
3503:Drivers/STM32F1xx_HAL_Driver/Src/stm32f1xx_hal_i2c.c ****       SET_BIT(hi2c->Instance->CR1,I2C_CR1_STOP);
 8247              		.loc 1 3503 0
 8248 00a8 FB68     		ldr	r3, [r7, #12]
 8249 00aa 1B68     		ldr	r3, [r3]
 8250 00ac FA68     		ldr	r2, [r7, #12]
 8251 00ae 1268     		ldr	r2, [r2]
 8252 00b0 1268     		ldr	r2, [r2]
 8253 00b2 42F40072 		orr	r2, r2, #512
 8254 00b6 1A60     		str	r2, [r3]
3504:Drivers/STM32F1xx_HAL_Driver/Src/stm32f1xx_hal_i2c.c ****       return HAL_ERROR;
 8255              		.loc 1 3504 0
 8256 00b8 0123     		movs	r3, #1
 8257 00ba 71E0     		b	.L408
 8258              	.L412:
3505:Drivers/STM32F1xx_HAL_Driver/Src/stm32f1xx_hal_i2c.c ****     }
3506:Drivers/STM32F1xx_HAL_Driver/Src/stm32f1xx_hal_i2c.c ****     else
3507:Drivers/STM32F1xx_HAL_Driver/Src/stm32f1xx_hal_i2c.c ****     {
3508:Drivers/STM32F1xx_HAL_Driver/Src/stm32f1xx_hal_i2c.c ****       return HAL_TIMEOUT;
 8259              		.loc 1 3508 0
 8260 00bc 0323     		movs	r3, #3
 8261 00be 6FE0     		b	.L408
 8262              	.L411:
3509:Drivers/STM32F1xx_HAL_Driver/Src/stm32f1xx_hal_i2c.c ****     }
3510:Drivers/STM32F1xx_HAL_Driver/Src/stm32f1xx_hal_i2c.c ****   }
3511:Drivers/STM32F1xx_HAL_Driver/Src/stm32f1xx_hal_i2c.c **** 
3512:Drivers/STM32F1xx_HAL_Driver/Src/stm32f1xx_hal_i2c.c ****   /* If Memory address size is 8Bit */
3513:Drivers/STM32F1xx_HAL_Driver/Src/stm32f1xx_hal_i2c.c ****   if(MemAddSize == I2C_MEMADD_SIZE_8BIT)
 8263              		.loc 1 3513 0
 8264 00c0 FB88     		ldrh	r3, [r7, #6]
 8265 00c2 012B     		cmp	r3, #1
 8266 00c4 05D1     		bne	.L413
3514:Drivers/STM32F1xx_HAL_Driver/Src/stm32f1xx_hal_i2c.c ****   {
3515:Drivers/STM32F1xx_HAL_Driver/Src/stm32f1xx_hal_i2c.c ****     /* Send Memory Address */
3516:Drivers/STM32F1xx_HAL_Driver/Src/stm32f1xx_hal_i2c.c ****     hi2c->Instance->DR = I2C_MEM_ADD_LSB(MemAddress);
 8267              		.loc 1 3516 0
 8268 00c6 FB68     		ldr	r3, [r7, #12]
 8269 00c8 1B68     		ldr	r3, [r3]
 8270 00ca 3A89     		ldrh	r2, [r7, #8]	@ movhi
 8271 00cc D2B2     		uxtb	r2, r2
 8272 00ce 1A61     		str	r2, [r3, #16]
 8273 00d0 22E0     		b	.L414
 8274              	.L413:
3517:Drivers/STM32F1xx_HAL_Driver/Src/stm32f1xx_hal_i2c.c ****   }
3518:Drivers/STM32F1xx_HAL_Driver/Src/stm32f1xx_hal_i2c.c ****   /* If Memory address size is 16Bit */
ARM GAS  /var/folders/kh/x4vltyy52lbg7p4pcyglc5080000gp/T//cccbl2Nm.s 			page 208


3519:Drivers/STM32F1xx_HAL_Driver/Src/stm32f1xx_hal_i2c.c ****   else
3520:Drivers/STM32F1xx_HAL_Driver/Src/stm32f1xx_hal_i2c.c ****   {
3521:Drivers/STM32F1xx_HAL_Driver/Src/stm32f1xx_hal_i2c.c ****     /* Send MSB of Memory Address */
3522:Drivers/STM32F1xx_HAL_Driver/Src/stm32f1xx_hal_i2c.c ****     hi2c->Instance->DR = I2C_MEM_ADD_MSB(MemAddress);
 8275              		.loc 1 3522 0
 8276 00d2 FB68     		ldr	r3, [r7, #12]
 8277 00d4 1B68     		ldr	r3, [r3]
 8278 00d6 3A89     		ldrh	r2, [r7, #8]
 8279 00d8 120A     		lsrs	r2, r2, #8
 8280 00da 92B2     		uxth	r2, r2
 8281 00dc D2B2     		uxtb	r2, r2
 8282 00de 1A61     		str	r2, [r3, #16]
3523:Drivers/STM32F1xx_HAL_Driver/Src/stm32f1xx_hal_i2c.c **** 
3524:Drivers/STM32F1xx_HAL_Driver/Src/stm32f1xx_hal_i2c.c ****     /* Wait until TXE flag is set */
3525:Drivers/STM32F1xx_HAL_Driver/Src/stm32f1xx_hal_i2c.c ****     if(I2C_WaitOnTXEFlagUntilTimeout(hi2c, Timeout) != HAL_OK)
 8283              		.loc 1 3525 0
 8284 00e0 396A     		ldr	r1, [r7, #32]
 8285 00e2 F868     		ldr	r0, [r7, #12]
 8286 00e4 FFF7FEFF 		bl	I2C_WaitOnTXEFlagUntilTimeout
 8287 00e8 0346     		mov	r3, r0
 8288 00ea 002B     		cmp	r3, #0
 8289 00ec 0FD0     		beq	.L415
3526:Drivers/STM32F1xx_HAL_Driver/Src/stm32f1xx_hal_i2c.c ****     {
3527:Drivers/STM32F1xx_HAL_Driver/Src/stm32f1xx_hal_i2c.c ****       if(hi2c->ErrorCode == HAL_I2C_ERROR_AF)
 8290              		.loc 1 3527 0
 8291 00ee FB68     		ldr	r3, [r7, #12]
 8292 00f0 9B6B     		ldr	r3, [r3, #56]
 8293 00f2 042B     		cmp	r3, #4
 8294 00f4 09D1     		bne	.L416
3528:Drivers/STM32F1xx_HAL_Driver/Src/stm32f1xx_hal_i2c.c ****       {
3529:Drivers/STM32F1xx_HAL_Driver/Src/stm32f1xx_hal_i2c.c ****         /* Generate Stop */
3530:Drivers/STM32F1xx_HAL_Driver/Src/stm32f1xx_hal_i2c.c ****         SET_BIT(hi2c->Instance->CR1,I2C_CR1_STOP);
 8295              		.loc 1 3530 0
 8296 00f6 FB68     		ldr	r3, [r7, #12]
 8297 00f8 1B68     		ldr	r3, [r3]
 8298 00fa FA68     		ldr	r2, [r7, #12]
 8299 00fc 1268     		ldr	r2, [r2]
 8300 00fe 1268     		ldr	r2, [r2]
 8301 0100 42F40072 		orr	r2, r2, #512
 8302 0104 1A60     		str	r2, [r3]
3531:Drivers/STM32F1xx_HAL_Driver/Src/stm32f1xx_hal_i2c.c ****         return HAL_ERROR;
 8303              		.loc 1 3531 0
 8304 0106 0123     		movs	r3, #1
 8305 0108 4AE0     		b	.L408
 8306              	.L416:
3532:Drivers/STM32F1xx_HAL_Driver/Src/stm32f1xx_hal_i2c.c ****       }
3533:Drivers/STM32F1xx_HAL_Driver/Src/stm32f1xx_hal_i2c.c ****       else
3534:Drivers/STM32F1xx_HAL_Driver/Src/stm32f1xx_hal_i2c.c ****       {
3535:Drivers/STM32F1xx_HAL_Driver/Src/stm32f1xx_hal_i2c.c ****         return HAL_TIMEOUT;
 8307              		.loc 1 3535 0
 8308 010a 0323     		movs	r3, #3
 8309 010c 48E0     		b	.L408
 8310              	.L415:
3536:Drivers/STM32F1xx_HAL_Driver/Src/stm32f1xx_hal_i2c.c ****       }
3537:Drivers/STM32F1xx_HAL_Driver/Src/stm32f1xx_hal_i2c.c ****     }
3538:Drivers/STM32F1xx_HAL_Driver/Src/stm32f1xx_hal_i2c.c **** 
3539:Drivers/STM32F1xx_HAL_Driver/Src/stm32f1xx_hal_i2c.c ****     /* Send LSB of Memory Address */
ARM GAS  /var/folders/kh/x4vltyy52lbg7p4pcyglc5080000gp/T//cccbl2Nm.s 			page 209


3540:Drivers/STM32F1xx_HAL_Driver/Src/stm32f1xx_hal_i2c.c ****     hi2c->Instance->DR = I2C_MEM_ADD_LSB(MemAddress);
 8311              		.loc 1 3540 0
 8312 010e FB68     		ldr	r3, [r7, #12]
 8313 0110 1B68     		ldr	r3, [r3]
 8314 0112 3A89     		ldrh	r2, [r7, #8]	@ movhi
 8315 0114 D2B2     		uxtb	r2, r2
 8316 0116 1A61     		str	r2, [r3, #16]
 8317              	.L414:
3541:Drivers/STM32F1xx_HAL_Driver/Src/stm32f1xx_hal_i2c.c ****   }
3542:Drivers/STM32F1xx_HAL_Driver/Src/stm32f1xx_hal_i2c.c **** 
3543:Drivers/STM32F1xx_HAL_Driver/Src/stm32f1xx_hal_i2c.c ****   /* Wait until TXE flag is set */
3544:Drivers/STM32F1xx_HAL_Driver/Src/stm32f1xx_hal_i2c.c ****   if(I2C_WaitOnTXEFlagUntilTimeout(hi2c, Timeout) != HAL_OK)
 8318              		.loc 1 3544 0
 8319 0118 396A     		ldr	r1, [r7, #32]
 8320 011a F868     		ldr	r0, [r7, #12]
 8321 011c FFF7FEFF 		bl	I2C_WaitOnTXEFlagUntilTimeout
 8322 0120 0346     		mov	r3, r0
 8323 0122 002B     		cmp	r3, #0
 8324 0124 0FD0     		beq	.L417
3545:Drivers/STM32F1xx_HAL_Driver/Src/stm32f1xx_hal_i2c.c ****   {
3546:Drivers/STM32F1xx_HAL_Driver/Src/stm32f1xx_hal_i2c.c ****     if(hi2c->ErrorCode == HAL_I2C_ERROR_AF)
 8325              		.loc 1 3546 0
 8326 0126 FB68     		ldr	r3, [r7, #12]
 8327 0128 9B6B     		ldr	r3, [r3, #56]
 8328 012a 042B     		cmp	r3, #4
 8329 012c 09D1     		bne	.L418
3547:Drivers/STM32F1xx_HAL_Driver/Src/stm32f1xx_hal_i2c.c ****     {
3548:Drivers/STM32F1xx_HAL_Driver/Src/stm32f1xx_hal_i2c.c ****       /* Generate Stop */
3549:Drivers/STM32F1xx_HAL_Driver/Src/stm32f1xx_hal_i2c.c ****       SET_BIT(hi2c->Instance->CR1,I2C_CR1_STOP);
 8330              		.loc 1 3549 0
 8331 012e FB68     		ldr	r3, [r7, #12]
 8332 0130 1B68     		ldr	r3, [r3]
 8333 0132 FA68     		ldr	r2, [r7, #12]
 8334 0134 1268     		ldr	r2, [r2]
 8335 0136 1268     		ldr	r2, [r2]
 8336 0138 42F40072 		orr	r2, r2, #512
 8337 013c 1A60     		str	r2, [r3]
3550:Drivers/STM32F1xx_HAL_Driver/Src/stm32f1xx_hal_i2c.c ****       return HAL_ERROR;
 8338              		.loc 1 3550 0
 8339 013e 0123     		movs	r3, #1
 8340 0140 2EE0     		b	.L408
 8341              	.L418:
3551:Drivers/STM32F1xx_HAL_Driver/Src/stm32f1xx_hal_i2c.c ****     }
3552:Drivers/STM32F1xx_HAL_Driver/Src/stm32f1xx_hal_i2c.c ****     else
3553:Drivers/STM32F1xx_HAL_Driver/Src/stm32f1xx_hal_i2c.c ****     {
3554:Drivers/STM32F1xx_HAL_Driver/Src/stm32f1xx_hal_i2c.c ****       return HAL_TIMEOUT;
 8342              		.loc 1 3554 0
 8343 0142 0323     		movs	r3, #3
 8344 0144 2CE0     		b	.L408
 8345              	.L417:
3555:Drivers/STM32F1xx_HAL_Driver/Src/stm32f1xx_hal_i2c.c ****     }
3556:Drivers/STM32F1xx_HAL_Driver/Src/stm32f1xx_hal_i2c.c ****   }
3557:Drivers/STM32F1xx_HAL_Driver/Src/stm32f1xx_hal_i2c.c **** 
3558:Drivers/STM32F1xx_HAL_Driver/Src/stm32f1xx_hal_i2c.c ****   /* Generate Restart */
3559:Drivers/STM32F1xx_HAL_Driver/Src/stm32f1xx_hal_i2c.c ****   SET_BIT(hi2c->Instance->CR1, I2C_CR1_START);
 8346              		.loc 1 3559 0
 8347 0146 FB68     		ldr	r3, [r7, #12]
ARM GAS  /var/folders/kh/x4vltyy52lbg7p4pcyglc5080000gp/T//cccbl2Nm.s 			page 210


 8348 0148 1B68     		ldr	r3, [r3]
 8349 014a FA68     		ldr	r2, [r7, #12]
 8350 014c 1268     		ldr	r2, [r2]
 8351 014e 1268     		ldr	r2, [r2]
 8352 0150 42F48072 		orr	r2, r2, #256
 8353 0154 1A60     		str	r2, [r3]
3560:Drivers/STM32F1xx_HAL_Driver/Src/stm32f1xx_hal_i2c.c **** 
3561:Drivers/STM32F1xx_HAL_Driver/Src/stm32f1xx_hal_i2c.c ****   /* Wait until SB flag is set */
3562:Drivers/STM32F1xx_HAL_Driver/Src/stm32f1xx_hal_i2c.c ****   if(I2C_WaitOnFlagUntilTimeout(hi2c, I2C_FLAG_SB, RESET, Timeout) != HAL_OK)
 8354              		.loc 1 3562 0
 8355 0156 3B6A     		ldr	r3, [r7, #32]
 8356 0158 0022     		movs	r2, #0
 8357 015a 4FF00111 		mov	r1, #65537
 8358 015e F868     		ldr	r0, [r7, #12]
 8359 0160 FFF7FEFF 		bl	I2C_WaitOnFlagUntilTimeout
 8360 0164 0346     		mov	r3, r0
 8361 0166 002B     		cmp	r3, #0
 8362 0168 01D0     		beq	.L419
3563:Drivers/STM32F1xx_HAL_Driver/Src/stm32f1xx_hal_i2c.c ****   {
3564:Drivers/STM32F1xx_HAL_Driver/Src/stm32f1xx_hal_i2c.c ****     return HAL_TIMEOUT;
 8363              		.loc 1 3564 0
 8364 016a 0323     		movs	r3, #3
 8365 016c 18E0     		b	.L408
 8366              	.L419:
3565:Drivers/STM32F1xx_HAL_Driver/Src/stm32f1xx_hal_i2c.c ****   }
3566:Drivers/STM32F1xx_HAL_Driver/Src/stm32f1xx_hal_i2c.c **** 
3567:Drivers/STM32F1xx_HAL_Driver/Src/stm32f1xx_hal_i2c.c ****   /* Send slave address */
3568:Drivers/STM32F1xx_HAL_Driver/Src/stm32f1xx_hal_i2c.c ****   hi2c->Instance->DR = I2C_7BIT_ADD_READ(DevAddress);
 8367              		.loc 1 3568 0
 8368 016e FB68     		ldr	r3, [r7, #12]
 8369 0170 1B68     		ldr	r3, [r3]
 8370 0172 7A89     		ldrh	r2, [r7, #10]	@ movhi
 8371 0174 D2B2     		uxtb	r2, r2
 8372 0176 42F00102 		orr	r2, r2, #1
 8373 017a D2B2     		uxtb	r2, r2
 8374 017c 1A61     		str	r2, [r3, #16]
3569:Drivers/STM32F1xx_HAL_Driver/Src/stm32f1xx_hal_i2c.c **** 
3570:Drivers/STM32F1xx_HAL_Driver/Src/stm32f1xx_hal_i2c.c ****   /* Wait until ADDR flag is set */
3571:Drivers/STM32F1xx_HAL_Driver/Src/stm32f1xx_hal_i2c.c ****   if(I2C_WaitOnMasterAddressFlagUntilTimeout(hi2c, I2C_FLAG_ADDR, Timeout) != HAL_OK)
 8375              		.loc 1 3571 0
 8376 017e 3A6A     		ldr	r2, [r7, #32]
 8377 0180 0949     		ldr	r1, .L422
 8378 0182 F868     		ldr	r0, [r7, #12]
 8379 0184 FFF7FEFF 		bl	I2C_WaitOnMasterAddressFlagUntilTimeout
 8380 0188 0346     		mov	r3, r0
 8381 018a 002B     		cmp	r3, #0
 8382 018c 07D0     		beq	.L420
3572:Drivers/STM32F1xx_HAL_Driver/Src/stm32f1xx_hal_i2c.c ****   {
3573:Drivers/STM32F1xx_HAL_Driver/Src/stm32f1xx_hal_i2c.c ****     if(hi2c->ErrorCode == HAL_I2C_ERROR_AF)
 8383              		.loc 1 3573 0
 8384 018e FB68     		ldr	r3, [r7, #12]
 8385 0190 9B6B     		ldr	r3, [r3, #56]
 8386 0192 042B     		cmp	r3, #4
 8387 0194 01D1     		bne	.L421
3574:Drivers/STM32F1xx_HAL_Driver/Src/stm32f1xx_hal_i2c.c ****     {
3575:Drivers/STM32F1xx_HAL_Driver/Src/stm32f1xx_hal_i2c.c ****       return HAL_ERROR;
 8388              		.loc 1 3575 0
ARM GAS  /var/folders/kh/x4vltyy52lbg7p4pcyglc5080000gp/T//cccbl2Nm.s 			page 211


 8389 0196 0123     		movs	r3, #1
 8390 0198 02E0     		b	.L408
 8391              	.L421:
3576:Drivers/STM32F1xx_HAL_Driver/Src/stm32f1xx_hal_i2c.c ****     }
3577:Drivers/STM32F1xx_HAL_Driver/Src/stm32f1xx_hal_i2c.c ****     else
3578:Drivers/STM32F1xx_HAL_Driver/Src/stm32f1xx_hal_i2c.c ****     {
3579:Drivers/STM32F1xx_HAL_Driver/Src/stm32f1xx_hal_i2c.c ****       return HAL_TIMEOUT;
 8392              		.loc 1 3579 0
 8393 019a 0323     		movs	r3, #3
 8394 019c 00E0     		b	.L408
 8395              	.L420:
3580:Drivers/STM32F1xx_HAL_Driver/Src/stm32f1xx_hal_i2c.c ****     }
3581:Drivers/STM32F1xx_HAL_Driver/Src/stm32f1xx_hal_i2c.c ****   }
3582:Drivers/STM32F1xx_HAL_Driver/Src/stm32f1xx_hal_i2c.c **** 
3583:Drivers/STM32F1xx_HAL_Driver/Src/stm32f1xx_hal_i2c.c ****   return HAL_OK;
 8396              		.loc 1 3583 0
 8397 019e 0023     		movs	r3, #0
 8398              	.L408:
3584:Drivers/STM32F1xx_HAL_Driver/Src/stm32f1xx_hal_i2c.c **** }
 8399              		.loc 1 3584 0
 8400 01a0 1846     		mov	r0, r3
 8401 01a2 1837     		adds	r7, r7, #24
 8402              	.LCFI260:
 8403              		.cfi_def_cfa_offset 8
 8404 01a4 BD46     		mov	sp, r7
 8405              	.LCFI261:
 8406              		.cfi_def_cfa_register 13
 8407              		@ sp needed
 8408 01a6 80BD     		pop	{r7, pc}
 8409              	.L423:
 8410              		.align	2
 8411              	.L422:
 8412 01a8 02000100 		.word	65538
 8413              		.cfi_endproc
 8414              	.LFE112:
 8416              		.section	.text.I2C_DMAMasterTransmitCplt,"ax",%progbits
 8417              		.align	2
 8418              		.thumb
 8419              		.thumb_func
 8421              	I2C_DMAMasterTransmitCplt:
 8422              	.LFB113:
3585:Drivers/STM32F1xx_HAL_Driver/Src/stm32f1xx_hal_i2c.c **** 
3586:Drivers/STM32F1xx_HAL_Driver/Src/stm32f1xx_hal_i2c.c **** /**
3587:Drivers/STM32F1xx_HAL_Driver/Src/stm32f1xx_hal_i2c.c ****   * @brief  DMA I2C master transmit process complete callback.
3588:Drivers/STM32F1xx_HAL_Driver/Src/stm32f1xx_hal_i2c.c ****   * @param  hdma: DMA handle
3589:Drivers/STM32F1xx_HAL_Driver/Src/stm32f1xx_hal_i2c.c ****   * @retval None
3590:Drivers/STM32F1xx_HAL_Driver/Src/stm32f1xx_hal_i2c.c ****   */
3591:Drivers/STM32F1xx_HAL_Driver/Src/stm32f1xx_hal_i2c.c **** static void I2C_DMAMasterTransmitCplt(DMA_HandleTypeDef *hdma)
3592:Drivers/STM32F1xx_HAL_Driver/Src/stm32f1xx_hal_i2c.c **** {
 8423              		.loc 1 3592 0
 8424              		.cfi_startproc
 8425              		@ args = 0, pretend = 0, frame = 16
 8426              		@ frame_needed = 1, uses_anonymous_args = 0
 8427 0000 80B5     		push	{r7, lr}
 8428              	.LCFI262:
 8429              		.cfi_def_cfa_offset 8
 8430              		.cfi_offset 7, -8
ARM GAS  /var/folders/kh/x4vltyy52lbg7p4pcyglc5080000gp/T//cccbl2Nm.s 			page 212


 8431              		.cfi_offset 14, -4
 8432 0002 84B0     		sub	sp, sp, #16
 8433              	.LCFI263:
 8434              		.cfi_def_cfa_offset 24
 8435 0004 00AF     		add	r7, sp, #0
 8436              	.LCFI264:
 8437              		.cfi_def_cfa_register 7
 8438 0006 7860     		str	r0, [r7, #4]
3593:Drivers/STM32F1xx_HAL_Driver/Src/stm32f1xx_hal_i2c.c ****   I2C_HandleTypeDef* hi2c = (I2C_HandleTypeDef*)((DMA_HandleTypeDef*)hdma)->Parent;
 8439              		.loc 1 3593 0
 8440 0008 7B68     		ldr	r3, [r7, #4]
 8441 000a 5B6A     		ldr	r3, [r3, #36]
 8442 000c FB60     		str	r3, [r7, #12]
3594:Drivers/STM32F1xx_HAL_Driver/Src/stm32f1xx_hal_i2c.c **** 
3595:Drivers/STM32F1xx_HAL_Driver/Src/stm32f1xx_hal_i2c.c ****   /* Wait until BTF flag is reset */
3596:Drivers/STM32F1xx_HAL_Driver/Src/stm32f1xx_hal_i2c.c ****   if(I2C_WaitOnFlagUntilTimeout(hi2c, I2C_FLAG_BTF, RESET, I2C_TIMEOUT_FLAG) != HAL_OK)
 8443              		.loc 1 3596 0
 8444 000e 2323     		movs	r3, #35
 8445 0010 0022     		movs	r2, #0
 8446 0012 1B49     		ldr	r1, .L429
 8447 0014 F868     		ldr	r0, [r7, #12]
 8448 0016 FFF7FEFF 		bl	I2C_WaitOnFlagUntilTimeout
 8449 001a 0346     		mov	r3, r0
 8450 001c 002B     		cmp	r3, #0
 8451 001e 05D0     		beq	.L425
3597:Drivers/STM32F1xx_HAL_Driver/Src/stm32f1xx_hal_i2c.c ****   {
3598:Drivers/STM32F1xx_HAL_Driver/Src/stm32f1xx_hal_i2c.c ****     hi2c->ErrorCode |= HAL_I2C_ERROR_TIMEOUT;
 8452              		.loc 1 3598 0
 8453 0020 FB68     		ldr	r3, [r7, #12]
 8454 0022 9B6B     		ldr	r3, [r3, #56]
 8455 0024 43F02002 		orr	r2, r3, #32
 8456 0028 FB68     		ldr	r3, [r7, #12]
 8457 002a 9A63     		str	r2, [r3, #56]
 8458              	.L425:
3599:Drivers/STM32F1xx_HAL_Driver/Src/stm32f1xx_hal_i2c.c ****   }
3600:Drivers/STM32F1xx_HAL_Driver/Src/stm32f1xx_hal_i2c.c **** 
3601:Drivers/STM32F1xx_HAL_Driver/Src/stm32f1xx_hal_i2c.c ****   /* Generate Stop */
3602:Drivers/STM32F1xx_HAL_Driver/Src/stm32f1xx_hal_i2c.c ****   SET_BIT(hi2c->Instance->CR1, I2C_CR1_STOP);
 8459              		.loc 1 3602 0
 8460 002c FB68     		ldr	r3, [r7, #12]
 8461 002e 1B68     		ldr	r3, [r3]
 8462 0030 FA68     		ldr	r2, [r7, #12]
 8463 0032 1268     		ldr	r2, [r2]
 8464 0034 1268     		ldr	r2, [r2]
 8465 0036 42F40072 		orr	r2, r2, #512
 8466 003a 1A60     		str	r2, [r3]
3603:Drivers/STM32F1xx_HAL_Driver/Src/stm32f1xx_hal_i2c.c **** 
3604:Drivers/STM32F1xx_HAL_Driver/Src/stm32f1xx_hal_i2c.c ****   /* Disable DMA Request */
3605:Drivers/STM32F1xx_HAL_Driver/Src/stm32f1xx_hal_i2c.c ****   CLEAR_BIT(hi2c->Instance->CR2, I2C_CR2_DMAEN);
 8467              		.loc 1 3605 0
 8468 003c FB68     		ldr	r3, [r7, #12]
 8469 003e 1B68     		ldr	r3, [r3]
 8470 0040 FA68     		ldr	r2, [r7, #12]
 8471 0042 1268     		ldr	r2, [r2]
 8472 0044 5268     		ldr	r2, [r2, #4]
 8473 0046 22F40062 		bic	r2, r2, #2048
 8474 004a 5A60     		str	r2, [r3, #4]
ARM GAS  /var/folders/kh/x4vltyy52lbg7p4pcyglc5080000gp/T//cccbl2Nm.s 			page 213


3606:Drivers/STM32F1xx_HAL_Driver/Src/stm32f1xx_hal_i2c.c **** 
3607:Drivers/STM32F1xx_HAL_Driver/Src/stm32f1xx_hal_i2c.c ****   hi2c->XferCount = 0;
 8475              		.loc 1 3607 0
 8476 004c FB68     		ldr	r3, [r7, #12]
 8477 004e 0022     		movs	r2, #0
 8478 0050 5A85     		strh	r2, [r3, #42]	@ movhi
3608:Drivers/STM32F1xx_HAL_Driver/Src/stm32f1xx_hal_i2c.c **** 
3609:Drivers/STM32F1xx_HAL_Driver/Src/stm32f1xx_hal_i2c.c ****   hi2c->State = HAL_I2C_STATE_READY;
 8479              		.loc 1 3609 0
 8480 0052 FB68     		ldr	r3, [r7, #12]
 8481 0054 2022     		movs	r2, #32
 8482 0056 83F83520 		strb	r2, [r3, #53]
3610:Drivers/STM32F1xx_HAL_Driver/Src/stm32f1xx_hal_i2c.c ****   hi2c->Mode = HAL_I2C_MODE_NONE;
 8483              		.loc 1 3610 0
 8484 005a FB68     		ldr	r3, [r7, #12]
 8485 005c 0022     		movs	r2, #0
 8486 005e 83F83620 		strb	r2, [r3, #54]
3611:Drivers/STM32F1xx_HAL_Driver/Src/stm32f1xx_hal_i2c.c **** 
3612:Drivers/STM32F1xx_HAL_Driver/Src/stm32f1xx_hal_i2c.c ****   /* Check if Errors has been detected during transfer */
3613:Drivers/STM32F1xx_HAL_Driver/Src/stm32f1xx_hal_i2c.c ****   if(hi2c->ErrorCode != HAL_I2C_ERROR_NONE)
 8487              		.loc 1 3613 0
 8488 0062 FB68     		ldr	r3, [r7, #12]
 8489 0064 9B6B     		ldr	r3, [r3, #56]
 8490 0066 002B     		cmp	r3, #0
 8491 0068 03D0     		beq	.L426
3614:Drivers/STM32F1xx_HAL_Driver/Src/stm32f1xx_hal_i2c.c ****   {
3615:Drivers/STM32F1xx_HAL_Driver/Src/stm32f1xx_hal_i2c.c ****     HAL_I2C_ErrorCallback(hi2c);
 8492              		.loc 1 3615 0
 8493 006a F868     		ldr	r0, [r7, #12]
 8494 006c FFF7FEFF 		bl	HAL_I2C_ErrorCallback
3616:Drivers/STM32F1xx_HAL_Driver/Src/stm32f1xx_hal_i2c.c ****   }
3617:Drivers/STM32F1xx_HAL_Driver/Src/stm32f1xx_hal_i2c.c ****   else
3618:Drivers/STM32F1xx_HAL_Driver/Src/stm32f1xx_hal_i2c.c ****   {
3619:Drivers/STM32F1xx_HAL_Driver/Src/stm32f1xx_hal_i2c.c ****     HAL_I2C_MasterTxCpltCallback(hi2c);
3620:Drivers/STM32F1xx_HAL_Driver/Src/stm32f1xx_hal_i2c.c ****   }
3621:Drivers/STM32F1xx_HAL_Driver/Src/stm32f1xx_hal_i2c.c **** }
 8495              		.loc 1 3621 0
 8496 0070 02E0     		b	.L428
 8497              	.L426:
3619:Drivers/STM32F1xx_HAL_Driver/Src/stm32f1xx_hal_i2c.c ****   }
 8498              		.loc 1 3619 0
 8499 0072 F868     		ldr	r0, [r7, #12]
 8500 0074 FFF7FEFF 		bl	HAL_I2C_MasterTxCpltCallback
 8501              	.L428:
 8502              		.loc 1 3621 0
 8503 0078 00BF     		nop
 8504 007a 1037     		adds	r7, r7, #16
 8505              	.LCFI265:
 8506              		.cfi_def_cfa_offset 8
 8507 007c BD46     		mov	sp, r7
 8508              	.LCFI266:
 8509              		.cfi_def_cfa_register 13
 8510              		@ sp needed
 8511 007e 80BD     		pop	{r7, pc}
 8512              	.L430:
 8513              		.align	2
 8514              	.L429:
ARM GAS  /var/folders/kh/x4vltyy52lbg7p4pcyglc5080000gp/T//cccbl2Nm.s 			page 214


 8515 0080 04000100 		.word	65540
 8516              		.cfi_endproc
 8517              	.LFE113:
 8519              		.section	.text.I2C_DMASlaveTransmitCplt,"ax",%progbits
 8520              		.align	2
 8521              		.thumb
 8522              		.thumb_func
 8524              	I2C_DMASlaveTransmitCplt:
 8525              	.LFB114:
3622:Drivers/STM32F1xx_HAL_Driver/Src/stm32f1xx_hal_i2c.c **** 
3623:Drivers/STM32F1xx_HAL_Driver/Src/stm32f1xx_hal_i2c.c **** /**
3624:Drivers/STM32F1xx_HAL_Driver/Src/stm32f1xx_hal_i2c.c ****   * @brief  DMA I2C slave transmit process complete callback.
3625:Drivers/STM32F1xx_HAL_Driver/Src/stm32f1xx_hal_i2c.c ****   * @param  hdma: DMA handle
3626:Drivers/STM32F1xx_HAL_Driver/Src/stm32f1xx_hal_i2c.c ****   * @retval None
3627:Drivers/STM32F1xx_HAL_Driver/Src/stm32f1xx_hal_i2c.c ****   */
3628:Drivers/STM32F1xx_HAL_Driver/Src/stm32f1xx_hal_i2c.c **** static void I2C_DMASlaveTransmitCplt(DMA_HandleTypeDef *hdma)
3629:Drivers/STM32F1xx_HAL_Driver/Src/stm32f1xx_hal_i2c.c **** {
 8526              		.loc 1 3629 0
 8527              		.cfi_startproc
 8528              		@ args = 0, pretend = 0, frame = 16
 8529              		@ frame_needed = 1, uses_anonymous_args = 0
 8530 0000 80B5     		push	{r7, lr}
 8531              	.LCFI267:
 8532              		.cfi_def_cfa_offset 8
 8533              		.cfi_offset 7, -8
 8534              		.cfi_offset 14, -4
 8535 0002 84B0     		sub	sp, sp, #16
 8536              	.LCFI268:
 8537              		.cfi_def_cfa_offset 24
 8538 0004 00AF     		add	r7, sp, #0
 8539              	.LCFI269:
 8540              		.cfi_def_cfa_register 7
 8541 0006 7860     		str	r0, [r7, #4]
3630:Drivers/STM32F1xx_HAL_Driver/Src/stm32f1xx_hal_i2c.c ****   I2C_HandleTypeDef* hi2c = (I2C_HandleTypeDef*)((DMA_HandleTypeDef*)hdma)->Parent;
 8542              		.loc 1 3630 0
 8543 0008 7B68     		ldr	r3, [r7, #4]
 8544 000a 5B6A     		ldr	r3, [r3, #36]
 8545 000c FB60     		str	r3, [r7, #12]
3631:Drivers/STM32F1xx_HAL_Driver/Src/stm32f1xx_hal_i2c.c **** 
3632:Drivers/STM32F1xx_HAL_Driver/Src/stm32f1xx_hal_i2c.c ****   /* Wait until AF flag is reset */
3633:Drivers/STM32F1xx_HAL_Driver/Src/stm32f1xx_hal_i2c.c ****   if(I2C_WaitOnFlagUntilTimeout(hi2c, I2C_FLAG_AF, RESET, I2C_TIMEOUT_FLAG) != HAL_OK)
 8546              		.loc 1 3633 0
 8547 000e 2323     		movs	r3, #35
 8548 0010 0022     		movs	r2, #0
 8549 0012 4FF48231 		mov	r1, #66560
 8550 0016 F868     		ldr	r0, [r7, #12]
 8551 0018 FFF7FEFF 		bl	I2C_WaitOnFlagUntilTimeout
 8552 001c 0346     		mov	r3, r0
 8553 001e 002B     		cmp	r3, #0
 8554 0020 05D0     		beq	.L432
3634:Drivers/STM32F1xx_HAL_Driver/Src/stm32f1xx_hal_i2c.c ****   {
3635:Drivers/STM32F1xx_HAL_Driver/Src/stm32f1xx_hal_i2c.c ****     hi2c->ErrorCode |= HAL_I2C_ERROR_TIMEOUT;
 8555              		.loc 1 3635 0
 8556 0022 FB68     		ldr	r3, [r7, #12]
 8557 0024 9B6B     		ldr	r3, [r3, #56]
 8558 0026 43F02002 		orr	r2, r3, #32
 8559 002a FB68     		ldr	r3, [r7, #12]
ARM GAS  /var/folders/kh/x4vltyy52lbg7p4pcyglc5080000gp/T//cccbl2Nm.s 			page 215


 8560 002c 9A63     		str	r2, [r3, #56]
 8561              	.L432:
3636:Drivers/STM32F1xx_HAL_Driver/Src/stm32f1xx_hal_i2c.c ****   }
3637:Drivers/STM32F1xx_HAL_Driver/Src/stm32f1xx_hal_i2c.c **** 
3638:Drivers/STM32F1xx_HAL_Driver/Src/stm32f1xx_hal_i2c.c ****   /* Clear AF flag */
3639:Drivers/STM32F1xx_HAL_Driver/Src/stm32f1xx_hal_i2c.c ****   __HAL_I2C_CLEAR_FLAG(hi2c, I2C_FLAG_AF);
 8562              		.loc 1 3639 0
 8563 002e FB68     		ldr	r3, [r7, #12]
 8564 0030 1B68     		ldr	r3, [r3]
 8565 0032 FA68     		ldr	r2, [r7, #12]
 8566 0034 1268     		ldr	r2, [r2]
 8567 0036 5269     		ldr	r2, [r2, #20]
 8568 0038 22F48062 		bic	r2, r2, #1024
 8569 003c 5A61     		str	r2, [r3, #20]
3640:Drivers/STM32F1xx_HAL_Driver/Src/stm32f1xx_hal_i2c.c **** 
3641:Drivers/STM32F1xx_HAL_Driver/Src/stm32f1xx_hal_i2c.c ****   /* Disable Address Acknowledge */
3642:Drivers/STM32F1xx_HAL_Driver/Src/stm32f1xx_hal_i2c.c ****   CLEAR_BIT(hi2c->Instance->CR1, I2C_CR1_ACK);
 8570              		.loc 1 3642 0
 8571 003e FB68     		ldr	r3, [r7, #12]
 8572 0040 1B68     		ldr	r3, [r3]
 8573 0042 FA68     		ldr	r2, [r7, #12]
 8574 0044 1268     		ldr	r2, [r2]
 8575 0046 1268     		ldr	r2, [r2]
 8576 0048 22F48062 		bic	r2, r2, #1024
 8577 004c 1A60     		str	r2, [r3]
3643:Drivers/STM32F1xx_HAL_Driver/Src/stm32f1xx_hal_i2c.c **** 
3644:Drivers/STM32F1xx_HAL_Driver/Src/stm32f1xx_hal_i2c.c ****   /* Disable DMA Request */
3645:Drivers/STM32F1xx_HAL_Driver/Src/stm32f1xx_hal_i2c.c ****   CLEAR_BIT(hi2c->Instance->CR2, I2C_CR2_DMAEN);
 8578              		.loc 1 3645 0
 8579 004e FB68     		ldr	r3, [r7, #12]
 8580 0050 1B68     		ldr	r3, [r3]
 8581 0052 FA68     		ldr	r2, [r7, #12]
 8582 0054 1268     		ldr	r2, [r2]
 8583 0056 5268     		ldr	r2, [r2, #4]
 8584 0058 22F40062 		bic	r2, r2, #2048
 8585 005c 5A60     		str	r2, [r3, #4]
3646:Drivers/STM32F1xx_HAL_Driver/Src/stm32f1xx_hal_i2c.c **** 
3647:Drivers/STM32F1xx_HAL_Driver/Src/stm32f1xx_hal_i2c.c ****   hi2c->XferCount = 0;
 8586              		.loc 1 3647 0
 8587 005e FB68     		ldr	r3, [r7, #12]
 8588 0060 0022     		movs	r2, #0
 8589 0062 5A85     		strh	r2, [r3, #42]	@ movhi
3648:Drivers/STM32F1xx_HAL_Driver/Src/stm32f1xx_hal_i2c.c **** 
3649:Drivers/STM32F1xx_HAL_Driver/Src/stm32f1xx_hal_i2c.c ****   hi2c->State = HAL_I2C_STATE_READY;
 8590              		.loc 1 3649 0
 8591 0064 FB68     		ldr	r3, [r7, #12]
 8592 0066 2022     		movs	r2, #32
 8593 0068 83F83520 		strb	r2, [r3, #53]
3650:Drivers/STM32F1xx_HAL_Driver/Src/stm32f1xx_hal_i2c.c ****   hi2c->Mode = HAL_I2C_MODE_NONE;
 8594              		.loc 1 3650 0
 8595 006c FB68     		ldr	r3, [r7, #12]
 8596 006e 0022     		movs	r2, #0
 8597 0070 83F83620 		strb	r2, [r3, #54]
3651:Drivers/STM32F1xx_HAL_Driver/Src/stm32f1xx_hal_i2c.c **** 
3652:Drivers/STM32F1xx_HAL_Driver/Src/stm32f1xx_hal_i2c.c ****   /* Check if Errors has been detected during transfer */
3653:Drivers/STM32F1xx_HAL_Driver/Src/stm32f1xx_hal_i2c.c ****   if(hi2c->ErrorCode != HAL_I2C_ERROR_NONE)
 8598              		.loc 1 3653 0
ARM GAS  /var/folders/kh/x4vltyy52lbg7p4pcyglc5080000gp/T//cccbl2Nm.s 			page 216


 8599 0074 FB68     		ldr	r3, [r7, #12]
 8600 0076 9B6B     		ldr	r3, [r3, #56]
 8601 0078 002B     		cmp	r3, #0
 8602 007a 03D0     		beq	.L433
3654:Drivers/STM32F1xx_HAL_Driver/Src/stm32f1xx_hal_i2c.c ****   {
3655:Drivers/STM32F1xx_HAL_Driver/Src/stm32f1xx_hal_i2c.c ****     HAL_I2C_ErrorCallback(hi2c);
 8603              		.loc 1 3655 0
 8604 007c F868     		ldr	r0, [r7, #12]
 8605 007e FFF7FEFF 		bl	HAL_I2C_ErrorCallback
3656:Drivers/STM32F1xx_HAL_Driver/Src/stm32f1xx_hal_i2c.c ****   }
3657:Drivers/STM32F1xx_HAL_Driver/Src/stm32f1xx_hal_i2c.c ****   else
3658:Drivers/STM32F1xx_HAL_Driver/Src/stm32f1xx_hal_i2c.c ****   {
3659:Drivers/STM32F1xx_HAL_Driver/Src/stm32f1xx_hal_i2c.c ****     HAL_I2C_SlaveTxCpltCallback(hi2c);
3660:Drivers/STM32F1xx_HAL_Driver/Src/stm32f1xx_hal_i2c.c ****   }
3661:Drivers/STM32F1xx_HAL_Driver/Src/stm32f1xx_hal_i2c.c **** }
 8606              		.loc 1 3661 0
 8607 0082 02E0     		b	.L435
 8608              	.L433:
3659:Drivers/STM32F1xx_HAL_Driver/Src/stm32f1xx_hal_i2c.c ****   }
 8609              		.loc 1 3659 0
 8610 0084 F868     		ldr	r0, [r7, #12]
 8611 0086 FFF7FEFF 		bl	HAL_I2C_SlaveTxCpltCallback
 8612              	.L435:
 8613              		.loc 1 3661 0
 8614 008a 00BF     		nop
 8615 008c 1037     		adds	r7, r7, #16
 8616              	.LCFI270:
 8617              		.cfi_def_cfa_offset 8
 8618 008e BD46     		mov	sp, r7
 8619              	.LCFI271:
 8620              		.cfi_def_cfa_register 13
 8621              		@ sp needed
 8622 0090 80BD     		pop	{r7, pc}
 8623              		.cfi_endproc
 8624              	.LFE114:
 8626 0092 00BF     		.section	.text.I2C_DMAMasterReceiveCplt,"ax",%progbits
 8627              		.align	2
 8628              		.thumb
 8629              		.thumb_func
 8631              	I2C_DMAMasterReceiveCplt:
 8632              	.LFB115:
3662:Drivers/STM32F1xx_HAL_Driver/Src/stm32f1xx_hal_i2c.c **** 
3663:Drivers/STM32F1xx_HAL_Driver/Src/stm32f1xx_hal_i2c.c **** /**
3664:Drivers/STM32F1xx_HAL_Driver/Src/stm32f1xx_hal_i2c.c ****   * @brief  DMA I2C master receive process complete callback
3665:Drivers/STM32F1xx_HAL_Driver/Src/stm32f1xx_hal_i2c.c ****   * @param  hdma: DMA handle
3666:Drivers/STM32F1xx_HAL_Driver/Src/stm32f1xx_hal_i2c.c ****   * @retval None
3667:Drivers/STM32F1xx_HAL_Driver/Src/stm32f1xx_hal_i2c.c ****   */
3668:Drivers/STM32F1xx_HAL_Driver/Src/stm32f1xx_hal_i2c.c **** static void I2C_DMAMasterReceiveCplt(DMA_HandleTypeDef *hdma)
3669:Drivers/STM32F1xx_HAL_Driver/Src/stm32f1xx_hal_i2c.c **** {
 8633              		.loc 1 3669 0
 8634              		.cfi_startproc
 8635              		@ args = 0, pretend = 0, frame = 16
 8636              		@ frame_needed = 1, uses_anonymous_args = 0
 8637 0000 80B5     		push	{r7, lr}
 8638              	.LCFI272:
 8639              		.cfi_def_cfa_offset 8
 8640              		.cfi_offset 7, -8
ARM GAS  /var/folders/kh/x4vltyy52lbg7p4pcyglc5080000gp/T//cccbl2Nm.s 			page 217


 8641              		.cfi_offset 14, -4
 8642 0002 84B0     		sub	sp, sp, #16
 8643              	.LCFI273:
 8644              		.cfi_def_cfa_offset 24
 8645 0004 00AF     		add	r7, sp, #0
 8646              	.LCFI274:
 8647              		.cfi_def_cfa_register 7
 8648 0006 7860     		str	r0, [r7, #4]
3670:Drivers/STM32F1xx_HAL_Driver/Src/stm32f1xx_hal_i2c.c ****   I2C_HandleTypeDef* hi2c = (I2C_HandleTypeDef*)((DMA_HandleTypeDef*)hdma)->Parent;
 8649              		.loc 1 3670 0
 8650 0008 7B68     		ldr	r3, [r7, #4]
 8651 000a 5B6A     		ldr	r3, [r3, #36]
 8652 000c FB60     		str	r3, [r7, #12]
3671:Drivers/STM32F1xx_HAL_Driver/Src/stm32f1xx_hal_i2c.c **** 
3672:Drivers/STM32F1xx_HAL_Driver/Src/stm32f1xx_hal_i2c.c ****   /* Disable Acknowledge */
3673:Drivers/STM32F1xx_HAL_Driver/Src/stm32f1xx_hal_i2c.c ****   CLEAR_BIT(hi2c->Instance->CR1, I2C_CR1_ACK);
 8653              		.loc 1 3673 0
 8654 000e FB68     		ldr	r3, [r7, #12]
 8655 0010 1B68     		ldr	r3, [r3]
 8656 0012 FA68     		ldr	r2, [r7, #12]
 8657 0014 1268     		ldr	r2, [r2]
 8658 0016 1268     		ldr	r2, [r2]
 8659 0018 22F48062 		bic	r2, r2, #1024
 8660 001c 1A60     		str	r2, [r3]
3674:Drivers/STM32F1xx_HAL_Driver/Src/stm32f1xx_hal_i2c.c **** 
3675:Drivers/STM32F1xx_HAL_Driver/Src/stm32f1xx_hal_i2c.c ****   /* Generate Stop */
3676:Drivers/STM32F1xx_HAL_Driver/Src/stm32f1xx_hal_i2c.c ****   SET_BIT(hi2c->Instance->CR1, I2C_CR1_STOP);
 8661              		.loc 1 3676 0
 8662 001e FB68     		ldr	r3, [r7, #12]
 8663 0020 1B68     		ldr	r3, [r3]
 8664 0022 FA68     		ldr	r2, [r7, #12]
 8665 0024 1268     		ldr	r2, [r2]
 8666 0026 1268     		ldr	r2, [r2]
 8667 0028 42F40072 		orr	r2, r2, #512
 8668 002c 1A60     		str	r2, [r3]
3677:Drivers/STM32F1xx_HAL_Driver/Src/stm32f1xx_hal_i2c.c **** 
3678:Drivers/STM32F1xx_HAL_Driver/Src/stm32f1xx_hal_i2c.c ****   /* Disable Last DMA */
3679:Drivers/STM32F1xx_HAL_Driver/Src/stm32f1xx_hal_i2c.c ****   CLEAR_BIT(hi2c->Instance->CR2, I2C_CR2_LAST);
 8669              		.loc 1 3679 0
 8670 002e FB68     		ldr	r3, [r7, #12]
 8671 0030 1B68     		ldr	r3, [r3]
 8672 0032 FA68     		ldr	r2, [r7, #12]
 8673 0034 1268     		ldr	r2, [r2]
 8674 0036 5268     		ldr	r2, [r2, #4]
 8675 0038 22F48052 		bic	r2, r2, #4096
 8676 003c 5A60     		str	r2, [r3, #4]
3680:Drivers/STM32F1xx_HAL_Driver/Src/stm32f1xx_hal_i2c.c **** 
3681:Drivers/STM32F1xx_HAL_Driver/Src/stm32f1xx_hal_i2c.c ****   /* Disable DMA Request */
3682:Drivers/STM32F1xx_HAL_Driver/Src/stm32f1xx_hal_i2c.c ****   CLEAR_BIT(hi2c->Instance->CR2, I2C_CR2_DMAEN);
 8677              		.loc 1 3682 0
 8678 003e FB68     		ldr	r3, [r7, #12]
 8679 0040 1B68     		ldr	r3, [r3]
 8680 0042 FA68     		ldr	r2, [r7, #12]
 8681 0044 1268     		ldr	r2, [r2]
 8682 0046 5268     		ldr	r2, [r2, #4]
 8683 0048 22F40062 		bic	r2, r2, #2048
 8684 004c 5A60     		str	r2, [r3, #4]
ARM GAS  /var/folders/kh/x4vltyy52lbg7p4pcyglc5080000gp/T//cccbl2Nm.s 			page 218


3683:Drivers/STM32F1xx_HAL_Driver/Src/stm32f1xx_hal_i2c.c **** 
3684:Drivers/STM32F1xx_HAL_Driver/Src/stm32f1xx_hal_i2c.c ****   hi2c->XferCount = 0;
 8685              		.loc 1 3684 0
 8686 004e FB68     		ldr	r3, [r7, #12]
 8687 0050 0022     		movs	r2, #0
 8688 0052 5A85     		strh	r2, [r3, #42]	@ movhi
3685:Drivers/STM32F1xx_HAL_Driver/Src/stm32f1xx_hal_i2c.c **** 
3686:Drivers/STM32F1xx_HAL_Driver/Src/stm32f1xx_hal_i2c.c ****   hi2c->State = HAL_I2C_STATE_READY;
 8689              		.loc 1 3686 0
 8690 0054 FB68     		ldr	r3, [r7, #12]
 8691 0056 2022     		movs	r2, #32
 8692 0058 83F83520 		strb	r2, [r3, #53]
3687:Drivers/STM32F1xx_HAL_Driver/Src/stm32f1xx_hal_i2c.c ****   hi2c->Mode = HAL_I2C_MODE_NONE;
 8693              		.loc 1 3687 0
 8694 005c FB68     		ldr	r3, [r7, #12]
 8695 005e 0022     		movs	r2, #0
 8696 0060 83F83620 		strb	r2, [r3, #54]
3688:Drivers/STM32F1xx_HAL_Driver/Src/stm32f1xx_hal_i2c.c **** 
3689:Drivers/STM32F1xx_HAL_Driver/Src/stm32f1xx_hal_i2c.c ****   /* Check if Errors has been detected during transfer */
3690:Drivers/STM32F1xx_HAL_Driver/Src/stm32f1xx_hal_i2c.c ****   if(hi2c->ErrorCode != HAL_I2C_ERROR_NONE)
 8697              		.loc 1 3690 0
 8698 0064 FB68     		ldr	r3, [r7, #12]
 8699 0066 9B6B     		ldr	r3, [r3, #56]
 8700 0068 002B     		cmp	r3, #0
 8701 006a 03D0     		beq	.L437
3691:Drivers/STM32F1xx_HAL_Driver/Src/stm32f1xx_hal_i2c.c ****   {
3692:Drivers/STM32F1xx_HAL_Driver/Src/stm32f1xx_hal_i2c.c ****     HAL_I2C_ErrorCallback(hi2c);
 8702              		.loc 1 3692 0
 8703 006c F868     		ldr	r0, [r7, #12]
 8704 006e FFF7FEFF 		bl	HAL_I2C_ErrorCallback
3693:Drivers/STM32F1xx_HAL_Driver/Src/stm32f1xx_hal_i2c.c ****   }
3694:Drivers/STM32F1xx_HAL_Driver/Src/stm32f1xx_hal_i2c.c ****   else
3695:Drivers/STM32F1xx_HAL_Driver/Src/stm32f1xx_hal_i2c.c ****   {
3696:Drivers/STM32F1xx_HAL_Driver/Src/stm32f1xx_hal_i2c.c ****     HAL_I2C_MasterRxCpltCallback(hi2c);
3697:Drivers/STM32F1xx_HAL_Driver/Src/stm32f1xx_hal_i2c.c ****   }
3698:Drivers/STM32F1xx_HAL_Driver/Src/stm32f1xx_hal_i2c.c **** }
 8705              		.loc 1 3698 0
 8706 0072 02E0     		b	.L439
 8707              	.L437:
3696:Drivers/STM32F1xx_HAL_Driver/Src/stm32f1xx_hal_i2c.c ****   }
 8708              		.loc 1 3696 0
 8709 0074 F868     		ldr	r0, [r7, #12]
 8710 0076 FFF7FEFF 		bl	HAL_I2C_MasterRxCpltCallback
 8711              	.L439:
 8712              		.loc 1 3698 0
 8713 007a 00BF     		nop
 8714 007c 1037     		adds	r7, r7, #16
 8715              	.LCFI275:
 8716              		.cfi_def_cfa_offset 8
 8717 007e BD46     		mov	sp, r7
 8718              	.LCFI276:
 8719              		.cfi_def_cfa_register 13
 8720              		@ sp needed
 8721 0080 80BD     		pop	{r7, pc}
 8722              		.cfi_endproc
 8723              	.LFE115:
 8725 0082 00BF     		.section	.text.I2C_DMASlaveReceiveCplt,"ax",%progbits
ARM GAS  /var/folders/kh/x4vltyy52lbg7p4pcyglc5080000gp/T//cccbl2Nm.s 			page 219


 8726              		.align	2
 8727              		.thumb
 8728              		.thumb_func
 8730              	I2C_DMASlaveReceiveCplt:
 8731              	.LFB116:
3699:Drivers/STM32F1xx_HAL_Driver/Src/stm32f1xx_hal_i2c.c **** 
3700:Drivers/STM32F1xx_HAL_Driver/Src/stm32f1xx_hal_i2c.c **** /**
3701:Drivers/STM32F1xx_HAL_Driver/Src/stm32f1xx_hal_i2c.c ****   * @brief  DMA I2C slave receive process complete callback.
3702:Drivers/STM32F1xx_HAL_Driver/Src/stm32f1xx_hal_i2c.c ****   * @param  hdma: DMA handle
3703:Drivers/STM32F1xx_HAL_Driver/Src/stm32f1xx_hal_i2c.c ****   * @retval None
3704:Drivers/STM32F1xx_HAL_Driver/Src/stm32f1xx_hal_i2c.c ****   */
3705:Drivers/STM32F1xx_HAL_Driver/Src/stm32f1xx_hal_i2c.c **** static void I2C_DMASlaveReceiveCplt(DMA_HandleTypeDef *hdma)
3706:Drivers/STM32F1xx_HAL_Driver/Src/stm32f1xx_hal_i2c.c **** {
 8732              		.loc 1 3706 0
 8733              		.cfi_startproc
 8734              		@ args = 0, pretend = 0, frame = 16
 8735              		@ frame_needed = 1, uses_anonymous_args = 0
 8736 0000 80B5     		push	{r7, lr}
 8737              	.LCFI277:
 8738              		.cfi_def_cfa_offset 8
 8739              		.cfi_offset 7, -8
 8740              		.cfi_offset 14, -4
 8741 0002 84B0     		sub	sp, sp, #16
 8742              	.LCFI278:
 8743              		.cfi_def_cfa_offset 24
 8744 0004 00AF     		add	r7, sp, #0
 8745              	.LCFI279:
 8746              		.cfi_def_cfa_register 7
 8747 0006 7860     		str	r0, [r7, #4]
3707:Drivers/STM32F1xx_HAL_Driver/Src/stm32f1xx_hal_i2c.c ****   I2C_HandleTypeDef* hi2c = (I2C_HandleTypeDef*)((DMA_HandleTypeDef*)hdma)->Parent;
 8748              		.loc 1 3707 0
 8749 0008 7B68     		ldr	r3, [r7, #4]
 8750 000a 5B6A     		ldr	r3, [r3, #36]
 8751 000c FB60     		str	r3, [r7, #12]
3708:Drivers/STM32F1xx_HAL_Driver/Src/stm32f1xx_hal_i2c.c **** 
3709:Drivers/STM32F1xx_HAL_Driver/Src/stm32f1xx_hal_i2c.c ****   /* Wait until STOPF flag is reset */
3710:Drivers/STM32F1xx_HAL_Driver/Src/stm32f1xx_hal_i2c.c ****   if(I2C_WaitOnSTOPFlagUntilTimeout(hi2c, I2C_TIMEOUT_FLAG) != HAL_OK)
 8752              		.loc 1 3710 0
 8753 000e 2321     		movs	r1, #35
 8754 0010 F868     		ldr	r0, [r7, #12]
 8755 0012 FFF7FEFF 		bl	I2C_WaitOnSTOPFlagUntilTimeout
 8756 0016 0346     		mov	r3, r0
 8757 0018 002B     		cmp	r3, #0
 8758 001a 10D0     		beq	.L441
3711:Drivers/STM32F1xx_HAL_Driver/Src/stm32f1xx_hal_i2c.c ****   {
3712:Drivers/STM32F1xx_HAL_Driver/Src/stm32f1xx_hal_i2c.c ****     if(hi2c->ErrorCode == HAL_I2C_ERROR_AF)
 8759              		.loc 1 3712 0
 8760 001c FB68     		ldr	r3, [r7, #12]
 8761 001e 9B6B     		ldr	r3, [r3, #56]
 8762 0020 042B     		cmp	r3, #4
 8763 0022 06D1     		bne	.L442
3713:Drivers/STM32F1xx_HAL_Driver/Src/stm32f1xx_hal_i2c.c ****     {
3714:Drivers/STM32F1xx_HAL_Driver/Src/stm32f1xx_hal_i2c.c ****       hi2c->ErrorCode |= HAL_I2C_ERROR_AF;
 8764              		.loc 1 3714 0
 8765 0024 FB68     		ldr	r3, [r7, #12]
 8766 0026 9B6B     		ldr	r3, [r3, #56]
 8767 0028 43F00402 		orr	r2, r3, #4
ARM GAS  /var/folders/kh/x4vltyy52lbg7p4pcyglc5080000gp/T//cccbl2Nm.s 			page 220


 8768 002c FB68     		ldr	r3, [r7, #12]
 8769 002e 9A63     		str	r2, [r3, #56]
 8770 0030 05E0     		b	.L441
 8771              	.L442:
3715:Drivers/STM32F1xx_HAL_Driver/Src/stm32f1xx_hal_i2c.c ****     }
3716:Drivers/STM32F1xx_HAL_Driver/Src/stm32f1xx_hal_i2c.c ****     else
3717:Drivers/STM32F1xx_HAL_Driver/Src/stm32f1xx_hal_i2c.c ****     {
3718:Drivers/STM32F1xx_HAL_Driver/Src/stm32f1xx_hal_i2c.c ****       hi2c->ErrorCode |= HAL_I2C_ERROR_TIMEOUT;
 8772              		.loc 1 3718 0
 8773 0032 FB68     		ldr	r3, [r7, #12]
 8774 0034 9B6B     		ldr	r3, [r3, #56]
 8775 0036 43F02002 		orr	r2, r3, #32
 8776 003a FB68     		ldr	r3, [r7, #12]
 8777 003c 9A63     		str	r2, [r3, #56]
 8778              	.L441:
 8779              	.LBB103:
3719:Drivers/STM32F1xx_HAL_Driver/Src/stm32f1xx_hal_i2c.c ****     }
3720:Drivers/STM32F1xx_HAL_Driver/Src/stm32f1xx_hal_i2c.c ****   }
3721:Drivers/STM32F1xx_HAL_Driver/Src/stm32f1xx_hal_i2c.c **** 
3722:Drivers/STM32F1xx_HAL_Driver/Src/stm32f1xx_hal_i2c.c ****   /* Clear STOPF flag */
3723:Drivers/STM32F1xx_HAL_Driver/Src/stm32f1xx_hal_i2c.c ****   __HAL_I2C_CLEAR_STOPFLAG(hi2c);
 8780              		.loc 1 3723 0
 8781 003e FB68     		ldr	r3, [r7, #12]
 8782 0040 1B68     		ldr	r3, [r3]
 8783 0042 5B69     		ldr	r3, [r3, #20]
 8784 0044 BB60     		str	r3, [r7, #8]
 8785 0046 FB68     		ldr	r3, [r7, #12]
 8786 0048 1A68     		ldr	r2, [r3]
 8787 004a FB68     		ldr	r3, [r7, #12]
 8788 004c 1B68     		ldr	r3, [r3]
 8789 004e 1B68     		ldr	r3, [r3]
 8790 0050 43F00103 		orr	r3, r3, #1
 8791 0054 1360     		str	r3, [r2]
 8792 0056 BB60     		str	r3, [r7, #8]
 8793 0058 BB68     		ldr	r3, [r7, #8]
 8794              	.LBE103:
3724:Drivers/STM32F1xx_HAL_Driver/Src/stm32f1xx_hal_i2c.c **** 
3725:Drivers/STM32F1xx_HAL_Driver/Src/stm32f1xx_hal_i2c.c ****   /* Disable Address Acknowledge */
3726:Drivers/STM32F1xx_HAL_Driver/Src/stm32f1xx_hal_i2c.c ****   CLEAR_BIT(hi2c->Instance->CR1, I2C_CR1_ACK);
 8795              		.loc 1 3726 0
 8796 005a FB68     		ldr	r3, [r7, #12]
 8797 005c 1B68     		ldr	r3, [r3]
 8798 005e FA68     		ldr	r2, [r7, #12]
 8799 0060 1268     		ldr	r2, [r2]
 8800 0062 1268     		ldr	r2, [r2]
 8801 0064 22F48062 		bic	r2, r2, #1024
 8802 0068 1A60     		str	r2, [r3]
3727:Drivers/STM32F1xx_HAL_Driver/Src/stm32f1xx_hal_i2c.c **** 
3728:Drivers/STM32F1xx_HAL_Driver/Src/stm32f1xx_hal_i2c.c ****   /* Disable DMA Request */
3729:Drivers/STM32F1xx_HAL_Driver/Src/stm32f1xx_hal_i2c.c ****   CLEAR_BIT(hi2c->Instance->CR2, I2C_CR2_DMAEN);
 8803              		.loc 1 3729 0
 8804 006a FB68     		ldr	r3, [r7, #12]
 8805 006c 1B68     		ldr	r3, [r3]
 8806 006e FA68     		ldr	r2, [r7, #12]
 8807 0070 1268     		ldr	r2, [r2]
 8808 0072 5268     		ldr	r2, [r2, #4]
 8809 0074 22F40062 		bic	r2, r2, #2048
ARM GAS  /var/folders/kh/x4vltyy52lbg7p4pcyglc5080000gp/T//cccbl2Nm.s 			page 221


 8810 0078 5A60     		str	r2, [r3, #4]
3730:Drivers/STM32F1xx_HAL_Driver/Src/stm32f1xx_hal_i2c.c **** 
3731:Drivers/STM32F1xx_HAL_Driver/Src/stm32f1xx_hal_i2c.c ****   hi2c->XferCount = 0;
 8811              		.loc 1 3731 0
 8812 007a FB68     		ldr	r3, [r7, #12]
 8813 007c 0022     		movs	r2, #0
 8814 007e 5A85     		strh	r2, [r3, #42]	@ movhi
3732:Drivers/STM32F1xx_HAL_Driver/Src/stm32f1xx_hal_i2c.c **** 
3733:Drivers/STM32F1xx_HAL_Driver/Src/stm32f1xx_hal_i2c.c ****   hi2c->State = HAL_I2C_STATE_READY;
 8815              		.loc 1 3733 0
 8816 0080 FB68     		ldr	r3, [r7, #12]
 8817 0082 2022     		movs	r2, #32
 8818 0084 83F83520 		strb	r2, [r3, #53]
3734:Drivers/STM32F1xx_HAL_Driver/Src/stm32f1xx_hal_i2c.c ****   hi2c->Mode = HAL_I2C_MODE_NONE;
 8819              		.loc 1 3734 0
 8820 0088 FB68     		ldr	r3, [r7, #12]
 8821 008a 0022     		movs	r2, #0
 8822 008c 83F83620 		strb	r2, [r3, #54]
3735:Drivers/STM32F1xx_HAL_Driver/Src/stm32f1xx_hal_i2c.c **** 
3736:Drivers/STM32F1xx_HAL_Driver/Src/stm32f1xx_hal_i2c.c ****   /* Check if Errors has been detected during transfer */
3737:Drivers/STM32F1xx_HAL_Driver/Src/stm32f1xx_hal_i2c.c ****   if(hi2c->ErrorCode != HAL_I2C_ERROR_NONE)
 8823              		.loc 1 3737 0
 8824 0090 FB68     		ldr	r3, [r7, #12]
 8825 0092 9B6B     		ldr	r3, [r3, #56]
 8826 0094 002B     		cmp	r3, #0
 8827 0096 03D0     		beq	.L443
3738:Drivers/STM32F1xx_HAL_Driver/Src/stm32f1xx_hal_i2c.c ****   {
3739:Drivers/STM32F1xx_HAL_Driver/Src/stm32f1xx_hal_i2c.c ****     HAL_I2C_ErrorCallback(hi2c);
 8828              		.loc 1 3739 0
 8829 0098 F868     		ldr	r0, [r7, #12]
 8830 009a FFF7FEFF 		bl	HAL_I2C_ErrorCallback
3740:Drivers/STM32F1xx_HAL_Driver/Src/stm32f1xx_hal_i2c.c ****   }
3741:Drivers/STM32F1xx_HAL_Driver/Src/stm32f1xx_hal_i2c.c ****   else
3742:Drivers/STM32F1xx_HAL_Driver/Src/stm32f1xx_hal_i2c.c ****   {
3743:Drivers/STM32F1xx_HAL_Driver/Src/stm32f1xx_hal_i2c.c ****     HAL_I2C_SlaveRxCpltCallback(hi2c);
3744:Drivers/STM32F1xx_HAL_Driver/Src/stm32f1xx_hal_i2c.c ****   }
3745:Drivers/STM32F1xx_HAL_Driver/Src/stm32f1xx_hal_i2c.c **** }
 8831              		.loc 1 3745 0
 8832 009e 02E0     		b	.L445
 8833              	.L443:
3743:Drivers/STM32F1xx_HAL_Driver/Src/stm32f1xx_hal_i2c.c ****   }
 8834              		.loc 1 3743 0
 8835 00a0 F868     		ldr	r0, [r7, #12]
 8836 00a2 FFF7FEFF 		bl	HAL_I2C_SlaveRxCpltCallback
 8837              	.L445:
 8838              		.loc 1 3745 0
 8839 00a6 00BF     		nop
 8840 00a8 1037     		adds	r7, r7, #16
 8841              	.LCFI280:
 8842              		.cfi_def_cfa_offset 8
 8843 00aa BD46     		mov	sp, r7
 8844              	.LCFI281:
 8845              		.cfi_def_cfa_register 13
 8846              		@ sp needed
 8847 00ac 80BD     		pop	{r7, pc}
 8848              		.cfi_endproc
 8849              	.LFE116:
ARM GAS  /var/folders/kh/x4vltyy52lbg7p4pcyglc5080000gp/T//cccbl2Nm.s 			page 222


 8851 00ae 00BF     		.section	.text.I2C_DMAMemTransmitCplt,"ax",%progbits
 8852              		.align	2
 8853              		.thumb
 8854              		.thumb_func
 8856              	I2C_DMAMemTransmitCplt:
 8857              	.LFB117:
3746:Drivers/STM32F1xx_HAL_Driver/Src/stm32f1xx_hal_i2c.c **** 
3747:Drivers/STM32F1xx_HAL_Driver/Src/stm32f1xx_hal_i2c.c **** /**
3748:Drivers/STM32F1xx_HAL_Driver/Src/stm32f1xx_hal_i2c.c ****   * @brief  DMA I2C Memory Write process complete callback
3749:Drivers/STM32F1xx_HAL_Driver/Src/stm32f1xx_hal_i2c.c ****   * @param  hdma: DMA handle
3750:Drivers/STM32F1xx_HAL_Driver/Src/stm32f1xx_hal_i2c.c ****   * @retval None
3751:Drivers/STM32F1xx_HAL_Driver/Src/stm32f1xx_hal_i2c.c ****   */
3752:Drivers/STM32F1xx_HAL_Driver/Src/stm32f1xx_hal_i2c.c **** static void I2C_DMAMemTransmitCplt(DMA_HandleTypeDef *hdma)
3753:Drivers/STM32F1xx_HAL_Driver/Src/stm32f1xx_hal_i2c.c **** {
 8858              		.loc 1 3753 0
 8859              		.cfi_startproc
 8860              		@ args = 0, pretend = 0, frame = 16
 8861              		@ frame_needed = 1, uses_anonymous_args = 0
 8862 0000 80B5     		push	{r7, lr}
 8863              	.LCFI282:
 8864              		.cfi_def_cfa_offset 8
 8865              		.cfi_offset 7, -8
 8866              		.cfi_offset 14, -4
 8867 0002 84B0     		sub	sp, sp, #16
 8868              	.LCFI283:
 8869              		.cfi_def_cfa_offset 24
 8870 0004 00AF     		add	r7, sp, #0
 8871              	.LCFI284:
 8872              		.cfi_def_cfa_register 7
 8873 0006 7860     		str	r0, [r7, #4]
3754:Drivers/STM32F1xx_HAL_Driver/Src/stm32f1xx_hal_i2c.c ****   I2C_HandleTypeDef* hi2c = (I2C_HandleTypeDef*)((DMA_HandleTypeDef*)hdma)->Parent;
 8874              		.loc 1 3754 0
 8875 0008 7B68     		ldr	r3, [r7, #4]
 8876 000a 5B6A     		ldr	r3, [r3, #36]
 8877 000c FB60     		str	r3, [r7, #12]
3755:Drivers/STM32F1xx_HAL_Driver/Src/stm32f1xx_hal_i2c.c **** 
3756:Drivers/STM32F1xx_HAL_Driver/Src/stm32f1xx_hal_i2c.c ****   /* Wait until BTF flag is reset */
3757:Drivers/STM32F1xx_HAL_Driver/Src/stm32f1xx_hal_i2c.c ****   if(I2C_WaitOnFlagUntilTimeout(hi2c, I2C_FLAG_BTF, RESET, I2C_TIMEOUT_FLAG) != HAL_OK)
 8878              		.loc 1 3757 0
 8879 000e 2323     		movs	r3, #35
 8880 0010 0022     		movs	r2, #0
 8881 0012 1B49     		ldr	r1, .L451
 8882 0014 F868     		ldr	r0, [r7, #12]
 8883 0016 FFF7FEFF 		bl	I2C_WaitOnFlagUntilTimeout
 8884 001a 0346     		mov	r3, r0
 8885 001c 002B     		cmp	r3, #0
 8886 001e 05D0     		beq	.L447
3758:Drivers/STM32F1xx_HAL_Driver/Src/stm32f1xx_hal_i2c.c ****   {
3759:Drivers/STM32F1xx_HAL_Driver/Src/stm32f1xx_hal_i2c.c ****     hi2c->ErrorCode |= HAL_I2C_ERROR_TIMEOUT;
 8887              		.loc 1 3759 0
 8888 0020 FB68     		ldr	r3, [r7, #12]
 8889 0022 9B6B     		ldr	r3, [r3, #56]
 8890 0024 43F02002 		orr	r2, r3, #32
 8891 0028 FB68     		ldr	r3, [r7, #12]
 8892 002a 9A63     		str	r2, [r3, #56]
 8893              	.L447:
3760:Drivers/STM32F1xx_HAL_Driver/Src/stm32f1xx_hal_i2c.c ****   }
ARM GAS  /var/folders/kh/x4vltyy52lbg7p4pcyglc5080000gp/T//cccbl2Nm.s 			page 223


3761:Drivers/STM32F1xx_HAL_Driver/Src/stm32f1xx_hal_i2c.c **** 
3762:Drivers/STM32F1xx_HAL_Driver/Src/stm32f1xx_hal_i2c.c ****   /* Generate Stop */
3763:Drivers/STM32F1xx_HAL_Driver/Src/stm32f1xx_hal_i2c.c ****   SET_BIT(hi2c->Instance->CR1, I2C_CR1_STOP);
 8894              		.loc 1 3763 0
 8895 002c FB68     		ldr	r3, [r7, #12]
 8896 002e 1B68     		ldr	r3, [r3]
 8897 0030 FA68     		ldr	r2, [r7, #12]
 8898 0032 1268     		ldr	r2, [r2]
 8899 0034 1268     		ldr	r2, [r2]
 8900 0036 42F40072 		orr	r2, r2, #512
 8901 003a 1A60     		str	r2, [r3]
3764:Drivers/STM32F1xx_HAL_Driver/Src/stm32f1xx_hal_i2c.c **** 
3765:Drivers/STM32F1xx_HAL_Driver/Src/stm32f1xx_hal_i2c.c ****   /* Disable DMA Request */
3766:Drivers/STM32F1xx_HAL_Driver/Src/stm32f1xx_hal_i2c.c ****   CLEAR_BIT(hi2c->Instance->CR2, I2C_CR2_DMAEN);
 8902              		.loc 1 3766 0
 8903 003c FB68     		ldr	r3, [r7, #12]
 8904 003e 1B68     		ldr	r3, [r3]
 8905 0040 FA68     		ldr	r2, [r7, #12]
 8906 0042 1268     		ldr	r2, [r2]
 8907 0044 5268     		ldr	r2, [r2, #4]
 8908 0046 22F40062 		bic	r2, r2, #2048
 8909 004a 5A60     		str	r2, [r3, #4]
3767:Drivers/STM32F1xx_HAL_Driver/Src/stm32f1xx_hal_i2c.c **** 
3768:Drivers/STM32F1xx_HAL_Driver/Src/stm32f1xx_hal_i2c.c ****   hi2c->XferCount = 0;
 8910              		.loc 1 3768 0
 8911 004c FB68     		ldr	r3, [r7, #12]
 8912 004e 0022     		movs	r2, #0
 8913 0050 5A85     		strh	r2, [r3, #42]	@ movhi
3769:Drivers/STM32F1xx_HAL_Driver/Src/stm32f1xx_hal_i2c.c **** 
3770:Drivers/STM32F1xx_HAL_Driver/Src/stm32f1xx_hal_i2c.c ****   hi2c->State = HAL_I2C_STATE_READY;
 8914              		.loc 1 3770 0
 8915 0052 FB68     		ldr	r3, [r7, #12]
 8916 0054 2022     		movs	r2, #32
 8917 0056 83F83520 		strb	r2, [r3, #53]
3771:Drivers/STM32F1xx_HAL_Driver/Src/stm32f1xx_hal_i2c.c ****   hi2c->Mode = HAL_I2C_MODE_NONE;
 8918              		.loc 1 3771 0
 8919 005a FB68     		ldr	r3, [r7, #12]
 8920 005c 0022     		movs	r2, #0
 8921 005e 83F83620 		strb	r2, [r3, #54]
3772:Drivers/STM32F1xx_HAL_Driver/Src/stm32f1xx_hal_i2c.c **** 
3773:Drivers/STM32F1xx_HAL_Driver/Src/stm32f1xx_hal_i2c.c ****   /* Check if Errors has been detected during transfer */
3774:Drivers/STM32F1xx_HAL_Driver/Src/stm32f1xx_hal_i2c.c ****   if(hi2c->ErrorCode != HAL_I2C_ERROR_NONE)
 8922              		.loc 1 3774 0
 8923 0062 FB68     		ldr	r3, [r7, #12]
 8924 0064 9B6B     		ldr	r3, [r3, #56]
 8925 0066 002B     		cmp	r3, #0
 8926 0068 03D0     		beq	.L448
3775:Drivers/STM32F1xx_HAL_Driver/Src/stm32f1xx_hal_i2c.c ****   {
3776:Drivers/STM32F1xx_HAL_Driver/Src/stm32f1xx_hal_i2c.c ****     HAL_I2C_ErrorCallback(hi2c);
 8927              		.loc 1 3776 0
 8928 006a F868     		ldr	r0, [r7, #12]
 8929 006c FFF7FEFF 		bl	HAL_I2C_ErrorCallback
3777:Drivers/STM32F1xx_HAL_Driver/Src/stm32f1xx_hal_i2c.c ****   }
3778:Drivers/STM32F1xx_HAL_Driver/Src/stm32f1xx_hal_i2c.c ****   else
3779:Drivers/STM32F1xx_HAL_Driver/Src/stm32f1xx_hal_i2c.c ****   {
3780:Drivers/STM32F1xx_HAL_Driver/Src/stm32f1xx_hal_i2c.c ****     HAL_I2C_MemTxCpltCallback(hi2c);
3781:Drivers/STM32F1xx_HAL_Driver/Src/stm32f1xx_hal_i2c.c ****   }
ARM GAS  /var/folders/kh/x4vltyy52lbg7p4pcyglc5080000gp/T//cccbl2Nm.s 			page 224


3782:Drivers/STM32F1xx_HAL_Driver/Src/stm32f1xx_hal_i2c.c **** }
 8930              		.loc 1 3782 0
 8931 0070 02E0     		b	.L450
 8932              	.L448:
3780:Drivers/STM32F1xx_HAL_Driver/Src/stm32f1xx_hal_i2c.c ****   }
 8933              		.loc 1 3780 0
 8934 0072 F868     		ldr	r0, [r7, #12]
 8935 0074 FFF7FEFF 		bl	HAL_I2C_MemTxCpltCallback
 8936              	.L450:
 8937              		.loc 1 3782 0
 8938 0078 00BF     		nop
 8939 007a 1037     		adds	r7, r7, #16
 8940              	.LCFI285:
 8941              		.cfi_def_cfa_offset 8
 8942 007c BD46     		mov	sp, r7
 8943              	.LCFI286:
 8944              		.cfi_def_cfa_register 13
 8945              		@ sp needed
 8946 007e 80BD     		pop	{r7, pc}
 8947              	.L452:
 8948              		.align	2
 8949              	.L451:
 8950 0080 04000100 		.word	65540
 8951              		.cfi_endproc
 8952              	.LFE117:
 8954              		.section	.text.I2C_DMAMemReceiveCplt,"ax",%progbits
 8955              		.align	2
 8956              		.thumb
 8957              		.thumb_func
 8959              	I2C_DMAMemReceiveCplt:
 8960              	.LFB118:
3783:Drivers/STM32F1xx_HAL_Driver/Src/stm32f1xx_hal_i2c.c **** 
3784:Drivers/STM32F1xx_HAL_Driver/Src/stm32f1xx_hal_i2c.c **** /**
3785:Drivers/STM32F1xx_HAL_Driver/Src/stm32f1xx_hal_i2c.c ****   * @brief  DMA I2C Memory Read process complete callback
3786:Drivers/STM32F1xx_HAL_Driver/Src/stm32f1xx_hal_i2c.c ****   * @param  hdma: DMA handle
3787:Drivers/STM32F1xx_HAL_Driver/Src/stm32f1xx_hal_i2c.c ****   * @retval None
3788:Drivers/STM32F1xx_HAL_Driver/Src/stm32f1xx_hal_i2c.c ****   */
3789:Drivers/STM32F1xx_HAL_Driver/Src/stm32f1xx_hal_i2c.c **** static void I2C_DMAMemReceiveCplt(DMA_HandleTypeDef *hdma)
3790:Drivers/STM32F1xx_HAL_Driver/Src/stm32f1xx_hal_i2c.c **** {
 8961              		.loc 1 3790 0
 8962              		.cfi_startproc
 8963              		@ args = 0, pretend = 0, frame = 16
 8964              		@ frame_needed = 1, uses_anonymous_args = 0
 8965 0000 80B5     		push	{r7, lr}
 8966              	.LCFI287:
 8967              		.cfi_def_cfa_offset 8
 8968              		.cfi_offset 7, -8
 8969              		.cfi_offset 14, -4
 8970 0002 84B0     		sub	sp, sp, #16
 8971              	.LCFI288:
 8972              		.cfi_def_cfa_offset 24
 8973 0004 00AF     		add	r7, sp, #0
 8974              	.LCFI289:
 8975              		.cfi_def_cfa_register 7
 8976 0006 7860     		str	r0, [r7, #4]
3791:Drivers/STM32F1xx_HAL_Driver/Src/stm32f1xx_hal_i2c.c ****   I2C_HandleTypeDef* hi2c = (I2C_HandleTypeDef*)((DMA_HandleTypeDef*)hdma)->Parent;
 8977              		.loc 1 3791 0
ARM GAS  /var/folders/kh/x4vltyy52lbg7p4pcyglc5080000gp/T//cccbl2Nm.s 			page 225


 8978 0008 7B68     		ldr	r3, [r7, #4]
 8979 000a 5B6A     		ldr	r3, [r3, #36]
 8980 000c FB60     		str	r3, [r7, #12]
3792:Drivers/STM32F1xx_HAL_Driver/Src/stm32f1xx_hal_i2c.c **** 
3793:Drivers/STM32F1xx_HAL_Driver/Src/stm32f1xx_hal_i2c.c ****   /* Disable Acknowledge */
3794:Drivers/STM32F1xx_HAL_Driver/Src/stm32f1xx_hal_i2c.c ****   CLEAR_BIT(hi2c->Instance->CR1, I2C_CR1_ACK);
 8981              		.loc 1 3794 0
 8982 000e FB68     		ldr	r3, [r7, #12]
 8983 0010 1B68     		ldr	r3, [r3]
 8984 0012 FA68     		ldr	r2, [r7, #12]
 8985 0014 1268     		ldr	r2, [r2]
 8986 0016 1268     		ldr	r2, [r2]
 8987 0018 22F48062 		bic	r2, r2, #1024
 8988 001c 1A60     		str	r2, [r3]
3795:Drivers/STM32F1xx_HAL_Driver/Src/stm32f1xx_hal_i2c.c **** 
3796:Drivers/STM32F1xx_HAL_Driver/Src/stm32f1xx_hal_i2c.c ****   /* Generate Stop */
3797:Drivers/STM32F1xx_HAL_Driver/Src/stm32f1xx_hal_i2c.c ****   SET_BIT(hi2c->Instance->CR1, I2C_CR1_STOP);
 8989              		.loc 1 3797 0
 8990 001e FB68     		ldr	r3, [r7, #12]
 8991 0020 1B68     		ldr	r3, [r3]
 8992 0022 FA68     		ldr	r2, [r7, #12]
 8993 0024 1268     		ldr	r2, [r2]
 8994 0026 1268     		ldr	r2, [r2]
 8995 0028 42F40072 		orr	r2, r2, #512
 8996 002c 1A60     		str	r2, [r3]
3798:Drivers/STM32F1xx_HAL_Driver/Src/stm32f1xx_hal_i2c.c **** 
3799:Drivers/STM32F1xx_HAL_Driver/Src/stm32f1xx_hal_i2c.c ****   /* Disable Last DMA */
3800:Drivers/STM32F1xx_HAL_Driver/Src/stm32f1xx_hal_i2c.c ****   CLEAR_BIT(hi2c->Instance->CR2, I2C_CR2_LAST);
 8997              		.loc 1 3800 0
 8998 002e FB68     		ldr	r3, [r7, #12]
 8999 0030 1B68     		ldr	r3, [r3]
 9000 0032 FA68     		ldr	r2, [r7, #12]
 9001 0034 1268     		ldr	r2, [r2]
 9002 0036 5268     		ldr	r2, [r2, #4]
 9003 0038 22F48052 		bic	r2, r2, #4096
 9004 003c 5A60     		str	r2, [r3, #4]
3801:Drivers/STM32F1xx_HAL_Driver/Src/stm32f1xx_hal_i2c.c **** 
3802:Drivers/STM32F1xx_HAL_Driver/Src/stm32f1xx_hal_i2c.c ****   /* Disable DMA Request */
3803:Drivers/STM32F1xx_HAL_Driver/Src/stm32f1xx_hal_i2c.c ****   CLEAR_BIT(hi2c->Instance->CR2, I2C_CR2_DMAEN);
 9005              		.loc 1 3803 0
 9006 003e FB68     		ldr	r3, [r7, #12]
 9007 0040 1B68     		ldr	r3, [r3]
 9008 0042 FA68     		ldr	r2, [r7, #12]
 9009 0044 1268     		ldr	r2, [r2]
 9010 0046 5268     		ldr	r2, [r2, #4]
 9011 0048 22F40062 		bic	r2, r2, #2048
 9012 004c 5A60     		str	r2, [r3, #4]
3804:Drivers/STM32F1xx_HAL_Driver/Src/stm32f1xx_hal_i2c.c **** 
3805:Drivers/STM32F1xx_HAL_Driver/Src/stm32f1xx_hal_i2c.c ****   hi2c->XferCount = 0;
 9013              		.loc 1 3805 0
 9014 004e FB68     		ldr	r3, [r7, #12]
 9015 0050 0022     		movs	r2, #0
 9016 0052 5A85     		strh	r2, [r3, #42]	@ movhi
3806:Drivers/STM32F1xx_HAL_Driver/Src/stm32f1xx_hal_i2c.c **** 
3807:Drivers/STM32F1xx_HAL_Driver/Src/stm32f1xx_hal_i2c.c ****   hi2c->State = HAL_I2C_STATE_READY;
 9017              		.loc 1 3807 0
 9018 0054 FB68     		ldr	r3, [r7, #12]
ARM GAS  /var/folders/kh/x4vltyy52lbg7p4pcyglc5080000gp/T//cccbl2Nm.s 			page 226


 9019 0056 2022     		movs	r2, #32
 9020 0058 83F83520 		strb	r2, [r3, #53]
3808:Drivers/STM32F1xx_HAL_Driver/Src/stm32f1xx_hal_i2c.c ****   hi2c->Mode = HAL_I2C_MODE_NONE;
 9021              		.loc 1 3808 0
 9022 005c FB68     		ldr	r3, [r7, #12]
 9023 005e 0022     		movs	r2, #0
 9024 0060 83F83620 		strb	r2, [r3, #54]
3809:Drivers/STM32F1xx_HAL_Driver/Src/stm32f1xx_hal_i2c.c **** 
3810:Drivers/STM32F1xx_HAL_Driver/Src/stm32f1xx_hal_i2c.c ****   /* Check if Errors has been detected during transfer */
3811:Drivers/STM32F1xx_HAL_Driver/Src/stm32f1xx_hal_i2c.c ****   if(hi2c->ErrorCode != HAL_I2C_ERROR_NONE)
 9025              		.loc 1 3811 0
 9026 0064 FB68     		ldr	r3, [r7, #12]
 9027 0066 9B6B     		ldr	r3, [r3, #56]
 9028 0068 002B     		cmp	r3, #0
 9029 006a 03D0     		beq	.L454
3812:Drivers/STM32F1xx_HAL_Driver/Src/stm32f1xx_hal_i2c.c ****   {
3813:Drivers/STM32F1xx_HAL_Driver/Src/stm32f1xx_hal_i2c.c ****     HAL_I2C_ErrorCallback(hi2c);
 9030              		.loc 1 3813 0
 9031 006c F868     		ldr	r0, [r7, #12]
 9032 006e FFF7FEFF 		bl	HAL_I2C_ErrorCallback
3814:Drivers/STM32F1xx_HAL_Driver/Src/stm32f1xx_hal_i2c.c ****   }
3815:Drivers/STM32F1xx_HAL_Driver/Src/stm32f1xx_hal_i2c.c ****   else
3816:Drivers/STM32F1xx_HAL_Driver/Src/stm32f1xx_hal_i2c.c ****   {
3817:Drivers/STM32F1xx_HAL_Driver/Src/stm32f1xx_hal_i2c.c ****     HAL_I2C_MemRxCpltCallback(hi2c);
3818:Drivers/STM32F1xx_HAL_Driver/Src/stm32f1xx_hal_i2c.c ****   }
3819:Drivers/STM32F1xx_HAL_Driver/Src/stm32f1xx_hal_i2c.c **** }
 9033              		.loc 1 3819 0
 9034 0072 02E0     		b	.L456
 9035              	.L454:
3817:Drivers/STM32F1xx_HAL_Driver/Src/stm32f1xx_hal_i2c.c ****   }
 9036              		.loc 1 3817 0
 9037 0074 F868     		ldr	r0, [r7, #12]
 9038 0076 FFF7FEFF 		bl	HAL_I2C_MemRxCpltCallback
 9039              	.L456:
 9040              		.loc 1 3819 0
 9041 007a 00BF     		nop
 9042 007c 1037     		adds	r7, r7, #16
 9043              	.LCFI290:
 9044              		.cfi_def_cfa_offset 8
 9045 007e BD46     		mov	sp, r7
 9046              	.LCFI291:
 9047              		.cfi_def_cfa_register 13
 9048              		@ sp needed
 9049 0080 80BD     		pop	{r7, pc}
 9050              		.cfi_endproc
 9051              	.LFE118:
 9053 0082 00BF     		.section	.text.I2C_Configure_Speed,"ax",%progbits
 9054              		.align	2
 9055              		.thumb
 9056              		.thumb_func
 9058              	I2C_Configure_Speed:
 9059              	.LFB119:
3820:Drivers/STM32F1xx_HAL_Driver/Src/stm32f1xx_hal_i2c.c **** 
3821:Drivers/STM32F1xx_HAL_Driver/Src/stm32f1xx_hal_i2c.c **** /**
3822:Drivers/STM32F1xx_HAL_Driver/Src/stm32f1xx_hal_i2c.c ****   * @brief  I2C Configuration Speed function
3823:Drivers/STM32F1xx_HAL_Driver/Src/stm32f1xx_hal_i2c.c ****   * @param  hi2c Pointer to a I2C_HandleTypeDef structure that contains
3824:Drivers/STM32F1xx_HAL_Driver/Src/stm32f1xx_hal_i2c.c ****   *                the configuration information for the specified I2C.
ARM GAS  /var/folders/kh/x4vltyy52lbg7p4pcyglc5080000gp/T//cccbl2Nm.s 			page 227


3825:Drivers/STM32F1xx_HAL_Driver/Src/stm32f1xx_hal_i2c.c ****   * @param  I2CClkSrcFreq: PCLK frequency from RCC.
3826:Drivers/STM32F1xx_HAL_Driver/Src/stm32f1xx_hal_i2c.c ****   * @retval CCR Speed: Speed to set in I2C CCR Register
3827:Drivers/STM32F1xx_HAL_Driver/Src/stm32f1xx_hal_i2c.c ****   */
3828:Drivers/STM32F1xx_HAL_Driver/Src/stm32f1xx_hal_i2c.c **** static uint32_t I2C_Configure_Speed(I2C_HandleTypeDef *hi2c, uint32_t I2CClkSrcFreq)
3829:Drivers/STM32F1xx_HAL_Driver/Src/stm32f1xx_hal_i2c.c **** {
 9060              		.loc 1 3829 0
 9061              		.cfi_startproc
 9062              		@ args = 0, pretend = 0, frame = 16
 9063              		@ frame_needed = 1, uses_anonymous_args = 0
 9064              		@ link register save eliminated.
 9065 0000 80B4     		push	{r7}
 9066              	.LCFI292:
 9067              		.cfi_def_cfa_offset 4
 9068              		.cfi_offset 7, -4
 9069 0002 85B0     		sub	sp, sp, #20
 9070              	.LCFI293:
 9071              		.cfi_def_cfa_offset 24
 9072 0004 00AF     		add	r7, sp, #0
 9073              	.LCFI294:
 9074              		.cfi_def_cfa_register 7
 9075 0006 7860     		str	r0, [r7, #4]
 9076 0008 3960     		str	r1, [r7]
3830:Drivers/STM32F1xx_HAL_Driver/Src/stm32f1xx_hal_i2c.c ****   uint32_t tmp1 = 0;
 9077              		.loc 1 3830 0
 9078 000a 0023     		movs	r3, #0
 9079 000c FB60     		str	r3, [r7, #12]
3831:Drivers/STM32F1xx_HAL_Driver/Src/stm32f1xx_hal_i2c.c ****   
3832:Drivers/STM32F1xx_HAL_Driver/Src/stm32f1xx_hal_i2c.c ****   /* Clock Standard Mode */
3833:Drivers/STM32F1xx_HAL_Driver/Src/stm32f1xx_hal_i2c.c ****   if(hi2c->Init.ClockSpeed <= I2C_STANDARD_MODE_MAX_CLK)
 9080              		.loc 1 3833 0
 9081 000e 7B68     		ldr	r3, [r7, #4]
 9082 0010 5B68     		ldr	r3, [r3, #4]
 9083 0012 214A     		ldr	r2, .L464
 9084 0014 9342     		cmp	r3, r2
 9085 0016 0FD8     		bhi	.L458
3834:Drivers/STM32F1xx_HAL_Driver/Src/stm32f1xx_hal_i2c.c ****   {
3835:Drivers/STM32F1xx_HAL_Driver/Src/stm32f1xx_hal_i2c.c ****     /* Calculate Value to be set in CCR register */
3836:Drivers/STM32F1xx_HAL_Driver/Src/stm32f1xx_hal_i2c.c ****     tmp1 = (I2CClkSrcFreq/(hi2c->Init.ClockSpeed << 1));
 9086              		.loc 1 3836 0
 9087 0018 7B68     		ldr	r3, [r7, #4]
 9088 001a 5B68     		ldr	r3, [r3, #4]
 9089 001c 5B00     		lsls	r3, r3, #1
 9090 001e 3A68     		ldr	r2, [r7]
 9091 0020 B2FBF3F3 		udiv	r3, r2, r3
 9092 0024 FB60     		str	r3, [r7, #12]
3837:Drivers/STM32F1xx_HAL_Driver/Src/stm32f1xx_hal_i2c.c ****     
3838:Drivers/STM32F1xx_HAL_Driver/Src/stm32f1xx_hal_i2c.c ****     /* The minimum allowed value set in CCR register is 0x04 for Standard Mode */
3839:Drivers/STM32F1xx_HAL_Driver/Src/stm32f1xx_hal_i2c.c ****     if( (tmp1 & I2C_CCR_CCR) < 4 )
 9093              		.loc 1 3839 0
 9094 0026 FB68     		ldr	r3, [r7, #12]
 9095 0028 C3F30B03 		ubfx	r3, r3, #0, #12
 9096 002c 032B     		cmp	r3, #3
 9097 002e 01D8     		bhi	.L459
3840:Drivers/STM32F1xx_HAL_Driver/Src/stm32f1xx_hal_i2c.c ****     {
3841:Drivers/STM32F1xx_HAL_Driver/Src/stm32f1xx_hal_i2c.c ****       return 4;
 9098              		.loc 1 3841 0
 9099 0030 0423     		movs	r3, #4
ARM GAS  /var/folders/kh/x4vltyy52lbg7p4pcyglc5080000gp/T//cccbl2Nm.s 			page 228


 9100 0032 2BE0     		b	.L460
 9101              	.L459:
3842:Drivers/STM32F1xx_HAL_Driver/Src/stm32f1xx_hal_i2c.c ****     }
3843:Drivers/STM32F1xx_HAL_Driver/Src/stm32f1xx_hal_i2c.c ****     else
3844:Drivers/STM32F1xx_HAL_Driver/Src/stm32f1xx_hal_i2c.c ****     {
3845:Drivers/STM32F1xx_HAL_Driver/Src/stm32f1xx_hal_i2c.c ****       return tmp1;
 9102              		.loc 1 3845 0
 9103 0034 FB68     		ldr	r3, [r7, #12]
 9104 0036 29E0     		b	.L460
 9105              	.L458:
3846:Drivers/STM32F1xx_HAL_Driver/Src/stm32f1xx_hal_i2c.c ****     }
3847:Drivers/STM32F1xx_HAL_Driver/Src/stm32f1xx_hal_i2c.c ****   }
3848:Drivers/STM32F1xx_HAL_Driver/Src/stm32f1xx_hal_i2c.c ****   else
3849:Drivers/STM32F1xx_HAL_Driver/Src/stm32f1xx_hal_i2c.c ****   {
3850:Drivers/STM32F1xx_HAL_Driver/Src/stm32f1xx_hal_i2c.c ****     /* Clock Fast Mode */
3851:Drivers/STM32F1xx_HAL_Driver/Src/stm32f1xx_hal_i2c.c ****     tmp1 = I2C_CCR_FS;
 9106              		.loc 1 3851 0
 9107 0038 4FF40043 		mov	r3, #32768
 9108 003c FB60     		str	r3, [r7, #12]
3852:Drivers/STM32F1xx_HAL_Driver/Src/stm32f1xx_hal_i2c.c ****     
3853:Drivers/STM32F1xx_HAL_Driver/Src/stm32f1xx_hal_i2c.c ****     /* Duty Cylce tLow/tHigh = 2 */
3854:Drivers/STM32F1xx_HAL_Driver/Src/stm32f1xx_hal_i2c.c ****     if(hi2c->Init.DutyCycle == I2C_DUTYCYCLE_2)
 9109              		.loc 1 3854 0
 9110 003e 7B68     		ldr	r3, [r7, #4]
 9111 0040 9B68     		ldr	r3, [r3, #8]
 9112 0042 002B     		cmp	r3, #0
 9113 0044 0BD1     		bne	.L461
3855:Drivers/STM32F1xx_HAL_Driver/Src/stm32f1xx_hal_i2c.c ****     {
3856:Drivers/STM32F1xx_HAL_Driver/Src/stm32f1xx_hal_i2c.c ****       tmp1 |= (I2CClkSrcFreq/(hi2c->Init.ClockSpeed * 3)) | I2C_DUTYCYCLE_2; 
 9114              		.loc 1 3856 0
 9115 0046 7B68     		ldr	r3, [r7, #4]
 9116 0048 5A68     		ldr	r2, [r3, #4]
 9117 004a 1346     		mov	r3, r2
 9118 004c 5B00     		lsls	r3, r3, #1
 9119 004e 1344     		add	r3, r3, r2
 9120 0050 3A68     		ldr	r2, [r7]
 9121 0052 B2FBF3F3 		udiv	r3, r2, r3
 9122 0056 FA68     		ldr	r2, [r7, #12]
 9123 0058 1343     		orrs	r3, r3, r2
 9124 005a FB60     		str	r3, [r7, #12]
 9125 005c 0EE0     		b	.L462
 9126              	.L461:
3857:Drivers/STM32F1xx_HAL_Driver/Src/stm32f1xx_hal_i2c.c ****     }
3858:Drivers/STM32F1xx_HAL_Driver/Src/stm32f1xx_hal_i2c.c ****     else /* Duty Cylce tLow/tHigh = 16/9 */
3859:Drivers/STM32F1xx_HAL_Driver/Src/stm32f1xx_hal_i2c.c ****     {
3860:Drivers/STM32F1xx_HAL_Driver/Src/stm32f1xx_hal_i2c.c ****       tmp1 |= (I2CClkSrcFreq/(hi2c->Init.ClockSpeed * 25)) | I2C_DUTYCYCLE_16_9;
 9127              		.loc 1 3860 0
 9128 005e 7B68     		ldr	r3, [r7, #4]
 9129 0060 5A68     		ldr	r2, [r3, #4]
 9130 0062 1346     		mov	r3, r2
 9131 0064 9B00     		lsls	r3, r3, #2
 9132 0066 1344     		add	r3, r3, r2
 9133 0068 9A00     		lsls	r2, r3, #2
 9134 006a 1344     		add	r3, r3, r2
 9135 006c 3A68     		ldr	r2, [r7]
 9136 006e B2FBF3F2 		udiv	r2, r2, r3
 9137 0072 FB68     		ldr	r3, [r7, #12]
ARM GAS  /var/folders/kh/x4vltyy52lbg7p4pcyglc5080000gp/T//cccbl2Nm.s 			page 229


 9138 0074 1343     		orrs	r3, r3, r2
 9139 0076 43F48043 		orr	r3, r3, #16384
 9140 007a FB60     		str	r3, [r7, #12]
 9141              	.L462:
3861:Drivers/STM32F1xx_HAL_Driver/Src/stm32f1xx_hal_i2c.c ****     }
3862:Drivers/STM32F1xx_HAL_Driver/Src/stm32f1xx_hal_i2c.c **** 
3863:Drivers/STM32F1xx_HAL_Driver/Src/stm32f1xx_hal_i2c.c ****     /* The minimum allowed value set in CCR register is 0x01 for Fast Mode */
3864:Drivers/STM32F1xx_HAL_Driver/Src/stm32f1xx_hal_i2c.c ****     if( (tmp1 & I2C_CCR_CCR) < 1 )
 9142              		.loc 1 3864 0
 9143 007c FB68     		ldr	r3, [r7, #12]
 9144 007e C3F30B03 		ubfx	r3, r3, #0, #12
 9145 0082 002B     		cmp	r3, #0
 9146 0084 01D1     		bne	.L463
3865:Drivers/STM32F1xx_HAL_Driver/Src/stm32f1xx_hal_i2c.c ****     {
3866:Drivers/STM32F1xx_HAL_Driver/Src/stm32f1xx_hal_i2c.c ****       return 1;
 9147              		.loc 1 3866 0
 9148 0086 0123     		movs	r3, #1
 9149 0088 00E0     		b	.L460
 9150              	.L463:
3867:Drivers/STM32F1xx_HAL_Driver/Src/stm32f1xx_hal_i2c.c ****     }
3868:Drivers/STM32F1xx_HAL_Driver/Src/stm32f1xx_hal_i2c.c ****     else
3869:Drivers/STM32F1xx_HAL_Driver/Src/stm32f1xx_hal_i2c.c ****     {
3870:Drivers/STM32F1xx_HAL_Driver/Src/stm32f1xx_hal_i2c.c ****       return tmp1;
 9151              		.loc 1 3870 0
 9152 008a FB68     		ldr	r3, [r7, #12]
 9153              	.L460:
3871:Drivers/STM32F1xx_HAL_Driver/Src/stm32f1xx_hal_i2c.c ****     }
3872:Drivers/STM32F1xx_HAL_Driver/Src/stm32f1xx_hal_i2c.c ****   }
3873:Drivers/STM32F1xx_HAL_Driver/Src/stm32f1xx_hal_i2c.c **** }
 9154              		.loc 1 3873 0
 9155 008c 1846     		mov	r0, r3
 9156 008e 1437     		adds	r7, r7, #20
 9157              	.LCFI295:
 9158              		.cfi_def_cfa_offset 4
 9159 0090 BD46     		mov	sp, r7
 9160              	.LCFI296:
 9161              		.cfi_def_cfa_register 13
 9162              		@ sp needed
 9163 0092 80BC     		pop	{r7}
 9164              	.LCFI297:
 9165              		.cfi_restore 7
 9166              		.cfi_def_cfa_offset 0
 9167 0094 7047     		bx	lr
 9168              	.L465:
 9169 0096 00BF     		.align	2
 9170              	.L464:
 9171 0098 A0860100 		.word	100000
 9172              		.cfi_endproc
 9173              	.LFE119:
 9175              		.section	.text.I2C_DMAError,"ax",%progbits
 9176              		.align	2
 9177              		.thumb
 9178              		.thumb_func
 9180              	I2C_DMAError:
 9181              	.LFB120:
3874:Drivers/STM32F1xx_HAL_Driver/Src/stm32f1xx_hal_i2c.c **** 
3875:Drivers/STM32F1xx_HAL_Driver/Src/stm32f1xx_hal_i2c.c **** /**
ARM GAS  /var/folders/kh/x4vltyy52lbg7p4pcyglc5080000gp/T//cccbl2Nm.s 			page 230


3876:Drivers/STM32F1xx_HAL_Driver/Src/stm32f1xx_hal_i2c.c ****   * @brief  DMA I2C communication error callback.
3877:Drivers/STM32F1xx_HAL_Driver/Src/stm32f1xx_hal_i2c.c ****   * @param  hdma: DMA handle
3878:Drivers/STM32F1xx_HAL_Driver/Src/stm32f1xx_hal_i2c.c ****   * @retval None
3879:Drivers/STM32F1xx_HAL_Driver/Src/stm32f1xx_hal_i2c.c ****   */
3880:Drivers/STM32F1xx_HAL_Driver/Src/stm32f1xx_hal_i2c.c **** static void I2C_DMAError(DMA_HandleTypeDef *hdma)
3881:Drivers/STM32F1xx_HAL_Driver/Src/stm32f1xx_hal_i2c.c **** {
 9182              		.loc 1 3881 0
 9183              		.cfi_startproc
 9184              		@ args = 0, pretend = 0, frame = 16
 9185              		@ frame_needed = 1, uses_anonymous_args = 0
 9186 0000 80B5     		push	{r7, lr}
 9187              	.LCFI298:
 9188              		.cfi_def_cfa_offset 8
 9189              		.cfi_offset 7, -8
 9190              		.cfi_offset 14, -4
 9191 0002 84B0     		sub	sp, sp, #16
 9192              	.LCFI299:
 9193              		.cfi_def_cfa_offset 24
 9194 0004 00AF     		add	r7, sp, #0
 9195              	.LCFI300:
 9196              		.cfi_def_cfa_register 7
 9197 0006 7860     		str	r0, [r7, #4]
3882:Drivers/STM32F1xx_HAL_Driver/Src/stm32f1xx_hal_i2c.c ****   I2C_HandleTypeDef* hi2c = (I2C_HandleTypeDef*)((DMA_HandleTypeDef*)hdma)->Parent;
 9198              		.loc 1 3882 0
 9199 0008 7B68     		ldr	r3, [r7, #4]
 9200 000a 5B6A     		ldr	r3, [r3, #36]
 9201 000c FB60     		str	r3, [r7, #12]
3883:Drivers/STM32F1xx_HAL_Driver/Src/stm32f1xx_hal_i2c.c **** 
3884:Drivers/STM32F1xx_HAL_Driver/Src/stm32f1xx_hal_i2c.c ****   /* Disable Acknowledge */
3885:Drivers/STM32F1xx_HAL_Driver/Src/stm32f1xx_hal_i2c.c ****   CLEAR_BIT(hi2c->Instance->CR1, I2C_CR1_ACK);
 9202              		.loc 1 3885 0
 9203 000e FB68     		ldr	r3, [r7, #12]
 9204 0010 1B68     		ldr	r3, [r3]
 9205 0012 FA68     		ldr	r2, [r7, #12]
 9206 0014 1268     		ldr	r2, [r2]
 9207 0016 1268     		ldr	r2, [r2]
 9208 0018 22F48062 		bic	r2, r2, #1024
 9209 001c 1A60     		str	r2, [r3]
3886:Drivers/STM32F1xx_HAL_Driver/Src/stm32f1xx_hal_i2c.c **** 
3887:Drivers/STM32F1xx_HAL_Driver/Src/stm32f1xx_hal_i2c.c ****   hi2c->XferCount = 0;
 9210              		.loc 1 3887 0
 9211 001e FB68     		ldr	r3, [r7, #12]
 9212 0020 0022     		movs	r2, #0
 9213 0022 5A85     		strh	r2, [r3, #42]	@ movhi
3888:Drivers/STM32F1xx_HAL_Driver/Src/stm32f1xx_hal_i2c.c **** 
3889:Drivers/STM32F1xx_HAL_Driver/Src/stm32f1xx_hal_i2c.c ****   hi2c->State = HAL_I2C_STATE_READY;
 9214              		.loc 1 3889 0
 9215 0024 FB68     		ldr	r3, [r7, #12]
 9216 0026 2022     		movs	r2, #32
 9217 0028 83F83520 		strb	r2, [r3, #53]
3890:Drivers/STM32F1xx_HAL_Driver/Src/stm32f1xx_hal_i2c.c ****   hi2c->Mode = HAL_I2C_MODE_NONE;
 9218              		.loc 1 3890 0
 9219 002c FB68     		ldr	r3, [r7, #12]
 9220 002e 0022     		movs	r2, #0
 9221 0030 83F83620 		strb	r2, [r3, #54]
3891:Drivers/STM32F1xx_HAL_Driver/Src/stm32f1xx_hal_i2c.c **** 
3892:Drivers/STM32F1xx_HAL_Driver/Src/stm32f1xx_hal_i2c.c ****   hi2c->ErrorCode |= HAL_I2C_ERROR_DMA;
ARM GAS  /var/folders/kh/x4vltyy52lbg7p4pcyglc5080000gp/T//cccbl2Nm.s 			page 231


 9222              		.loc 1 3892 0
 9223 0034 FB68     		ldr	r3, [r7, #12]
 9224 0036 9B6B     		ldr	r3, [r3, #56]
 9225 0038 43F01002 		orr	r2, r3, #16
 9226 003c FB68     		ldr	r3, [r7, #12]
 9227 003e 9A63     		str	r2, [r3, #56]
3893:Drivers/STM32F1xx_HAL_Driver/Src/stm32f1xx_hal_i2c.c **** 
3894:Drivers/STM32F1xx_HAL_Driver/Src/stm32f1xx_hal_i2c.c ****   HAL_I2C_ErrorCallback(hi2c);
 9228              		.loc 1 3894 0
 9229 0040 F868     		ldr	r0, [r7, #12]
 9230 0042 FFF7FEFF 		bl	HAL_I2C_ErrorCallback
3895:Drivers/STM32F1xx_HAL_Driver/Src/stm32f1xx_hal_i2c.c **** }
 9231              		.loc 1 3895 0
 9232 0046 00BF     		nop
 9233 0048 1037     		adds	r7, r7, #16
 9234              	.LCFI301:
 9235              		.cfi_def_cfa_offset 8
 9236 004a BD46     		mov	sp, r7
 9237              	.LCFI302:
 9238              		.cfi_def_cfa_register 13
 9239              		@ sp needed
 9240 004c 80BD     		pop	{r7, pc}
 9241              		.cfi_endproc
 9242              	.LFE120:
 9244 004e 00BF     		.section	.text.I2C_WaitOnFlagUntilTimeout,"ax",%progbits
 9245              		.align	2
 9246              		.thumb
 9247              		.thumb_func
 9249              	I2C_WaitOnFlagUntilTimeout:
 9250              	.LFB121:
3896:Drivers/STM32F1xx_HAL_Driver/Src/stm32f1xx_hal_i2c.c **** 
3897:Drivers/STM32F1xx_HAL_Driver/Src/stm32f1xx_hal_i2c.c **** /**
3898:Drivers/STM32F1xx_HAL_Driver/Src/stm32f1xx_hal_i2c.c ****   * @brief  This function handles I2C Communication Timeout.
3899:Drivers/STM32F1xx_HAL_Driver/Src/stm32f1xx_hal_i2c.c ****   * @param  hi2c Pointer to a I2C_HandleTypeDef structure that contains
3900:Drivers/STM32F1xx_HAL_Driver/Src/stm32f1xx_hal_i2c.c ****   *                the configuration information for the specified I2C.
3901:Drivers/STM32F1xx_HAL_Driver/Src/stm32f1xx_hal_i2c.c ****   * @param  Flag: specifies the I2C flag to check.
3902:Drivers/STM32F1xx_HAL_Driver/Src/stm32f1xx_hal_i2c.c ****   * @param  Status: The new Flag status (SET or RESET).
3903:Drivers/STM32F1xx_HAL_Driver/Src/stm32f1xx_hal_i2c.c ****   * @param  Timeout Timeout duration
3904:Drivers/STM32F1xx_HAL_Driver/Src/stm32f1xx_hal_i2c.c ****   * @retval HAL status
3905:Drivers/STM32F1xx_HAL_Driver/Src/stm32f1xx_hal_i2c.c ****   */
3906:Drivers/STM32F1xx_HAL_Driver/Src/stm32f1xx_hal_i2c.c **** static HAL_StatusTypeDef I2C_WaitOnFlagUntilTimeout(I2C_HandleTypeDef *hi2c, uint32_t Flag, FlagSta
3907:Drivers/STM32F1xx_HAL_Driver/Src/stm32f1xx_hal_i2c.c **** {
 9251              		.loc 1 3907 0
 9252              		.cfi_startproc
 9253              		@ args = 0, pretend = 0, frame = 24
 9254              		@ frame_needed = 1, uses_anonymous_args = 0
 9255 0000 80B5     		push	{r7, lr}
 9256              	.LCFI303:
 9257              		.cfi_def_cfa_offset 8
 9258              		.cfi_offset 7, -8
 9259              		.cfi_offset 14, -4
 9260 0002 86B0     		sub	sp, sp, #24
 9261              	.LCFI304:
 9262              		.cfi_def_cfa_offset 32
 9263 0004 00AF     		add	r7, sp, #0
 9264              	.LCFI305:
 9265              		.cfi_def_cfa_register 7
ARM GAS  /var/folders/kh/x4vltyy52lbg7p4pcyglc5080000gp/T//cccbl2Nm.s 			page 232


 9266 0006 F860     		str	r0, [r7, #12]
 9267 0008 B960     		str	r1, [r7, #8]
 9268 000a 3B60     		str	r3, [r7]
 9269 000c 1346     		mov	r3, r2
 9270 000e FB71     		strb	r3, [r7, #7]
3908:Drivers/STM32F1xx_HAL_Driver/Src/stm32f1xx_hal_i2c.c ****   uint32_t tickstart = 0;
 9271              		.loc 1 3908 0
 9272 0010 0023     		movs	r3, #0
 9273 0012 7B61     		str	r3, [r7, #20]
3909:Drivers/STM32F1xx_HAL_Driver/Src/stm32f1xx_hal_i2c.c **** 
3910:Drivers/STM32F1xx_HAL_Driver/Src/stm32f1xx_hal_i2c.c ****   /* Get tick */
3911:Drivers/STM32F1xx_HAL_Driver/Src/stm32f1xx_hal_i2c.c ****   tickstart = HAL_GetTick();
 9274              		.loc 1 3911 0
 9275 0014 FFF7FEFF 		bl	HAL_GetTick
 9276 0018 7861     		str	r0, [r7, #20]
3912:Drivers/STM32F1xx_HAL_Driver/Src/stm32f1xx_hal_i2c.c **** 
3913:Drivers/STM32F1xx_HAL_Driver/Src/stm32f1xx_hal_i2c.c ****   /* Wait until flag is set */
3914:Drivers/STM32F1xx_HAL_Driver/Src/stm32f1xx_hal_i2c.c ****   if(Status == RESET)
 9277              		.loc 1 3914 0
 9278 001a FB79     		ldrb	r3, [r7, #7]	@ zero_extendqisi2
 9279 001c 002B     		cmp	r3, #0
 9280 001e 53D1     		bne	.L476
3915:Drivers/STM32F1xx_HAL_Driver/Src/stm32f1xx_hal_i2c.c ****   {
3916:Drivers/STM32F1xx_HAL_Driver/Src/stm32f1xx_hal_i2c.c ****     while(__HAL_I2C_GET_FLAG(hi2c, Flag) == RESET)
 9281              		.loc 1 3916 0
 9282 0020 18E0     		b	.L469
 9283              	.L474:
3917:Drivers/STM32F1xx_HAL_Driver/Src/stm32f1xx_hal_i2c.c ****     {
3918:Drivers/STM32F1xx_HAL_Driver/Src/stm32f1xx_hal_i2c.c ****       /* Check for the Timeout */
3919:Drivers/STM32F1xx_HAL_Driver/Src/stm32f1xx_hal_i2c.c ****       if(Timeout != HAL_MAX_DELAY)
 9284              		.loc 1 3919 0
 9285 0022 3B68     		ldr	r3, [r7]
 9286 0024 B3F1FF3F 		cmp	r3, #-1
 9287 0028 14D0     		beq	.L469
3920:Drivers/STM32F1xx_HAL_Driver/Src/stm32f1xx_hal_i2c.c ****       {
3921:Drivers/STM32F1xx_HAL_Driver/Src/stm32f1xx_hal_i2c.c ****         if((Timeout == 0)||((HAL_GetTick() - tickstart ) > Timeout))
 9288              		.loc 1 3921 0
 9289 002a 3B68     		ldr	r3, [r7]
 9290 002c 002B     		cmp	r3, #0
 9291 002e 07D0     		beq	.L470
 9292              		.loc 1 3921 0 is_stmt 0 discriminator 1
 9293 0030 FFF7FEFF 		bl	HAL_GetTick
 9294 0034 0246     		mov	r2, r0
 9295 0036 7B69     		ldr	r3, [r7, #20]
 9296 0038 D21A     		subs	r2, r2, r3
 9297 003a 3B68     		ldr	r3, [r7]
 9298 003c 9A42     		cmp	r2, r3
 9299 003e 09D9     		bls	.L469
 9300              	.L470:
3922:Drivers/STM32F1xx_HAL_Driver/Src/stm32f1xx_hal_i2c.c ****         {
3923:Drivers/STM32F1xx_HAL_Driver/Src/stm32f1xx_hal_i2c.c ****           hi2c->State= HAL_I2C_STATE_READY;
 9301              		.loc 1 3923 0 is_stmt 1
 9302 0040 FB68     		ldr	r3, [r7, #12]
 9303 0042 2022     		movs	r2, #32
 9304 0044 83F83520 		strb	r2, [r3, #53]
3924:Drivers/STM32F1xx_HAL_Driver/Src/stm32f1xx_hal_i2c.c **** 
3925:Drivers/STM32F1xx_HAL_Driver/Src/stm32f1xx_hal_i2c.c ****           /* Process Unlocked */
ARM GAS  /var/folders/kh/x4vltyy52lbg7p4pcyglc5080000gp/T//cccbl2Nm.s 			page 233


3926:Drivers/STM32F1xx_HAL_Driver/Src/stm32f1xx_hal_i2c.c ****           __HAL_UNLOCK(hi2c);
 9305              		.loc 1 3926 0
 9306 0048 FB68     		ldr	r3, [r7, #12]
 9307 004a 0022     		movs	r2, #0
 9308 004c 83F83420 		strb	r2, [r3, #52]
3927:Drivers/STM32F1xx_HAL_Driver/Src/stm32f1xx_hal_i2c.c **** 
3928:Drivers/STM32F1xx_HAL_Driver/Src/stm32f1xx_hal_i2c.c ****           return HAL_TIMEOUT;
 9309              		.loc 1 3928 0
 9310 0050 0323     		movs	r3, #3
 9311 0052 5AE0     		b	.L471
 9312              	.L469:
3916:Drivers/STM32F1xx_HAL_Driver/Src/stm32f1xx_hal_i2c.c ****     {
 9313              		.loc 1 3916 0
 9314 0054 BB68     		ldr	r3, [r7, #8]
 9315 0056 1B0C     		lsrs	r3, r3, #16
 9316 0058 DBB2     		uxtb	r3, r3
 9317 005a 012B     		cmp	r3, #1
 9318 005c 0CD1     		bne	.L472
3916:Drivers/STM32F1xx_HAL_Driver/Src/stm32f1xx_hal_i2c.c ****     {
 9319              		.loc 1 3916 0 is_stmt 0 discriminator 1
 9320 005e FB68     		ldr	r3, [r7, #12]
 9321 0060 1B68     		ldr	r3, [r3]
 9322 0062 5B69     		ldr	r3, [r3, #20]
 9323 0064 DA43     		mvns	r2, r3
 9324 0066 BB68     		ldr	r3, [r7, #8]
 9325 0068 1340     		ands	r3, r3, r2
 9326 006a 9BB2     		uxth	r3, r3
 9327 006c 002B     		cmp	r3, #0
 9328 006e 14BF     		ite	ne
 9329 0070 0123     		movne	r3, #1
 9330 0072 0023     		moveq	r3, #0
 9331 0074 DBB2     		uxtb	r3, r3
 9332 0076 0BE0     		b	.L473
 9333              	.L472:
3916:Drivers/STM32F1xx_HAL_Driver/Src/stm32f1xx_hal_i2c.c ****     {
 9334              		.loc 1 3916 0 discriminator 2
 9335 0078 FB68     		ldr	r3, [r7, #12]
 9336 007a 1B68     		ldr	r3, [r3]
 9337 007c 9B69     		ldr	r3, [r3, #24]
 9338 007e DA43     		mvns	r2, r3
 9339 0080 BB68     		ldr	r3, [r7, #8]
 9340 0082 1340     		ands	r3, r3, r2
 9341 0084 9BB2     		uxth	r3, r3
 9342 0086 002B     		cmp	r3, #0
 9343 0088 14BF     		ite	ne
 9344 008a 0123     		movne	r3, #1
 9345 008c 0023     		moveq	r3, #0
 9346 008e DBB2     		uxtb	r3, r3
 9347              	.L473:
3916:Drivers/STM32F1xx_HAL_Driver/Src/stm32f1xx_hal_i2c.c ****     {
 9348              		.loc 1 3916 0 discriminator 4
 9349 0090 002B     		cmp	r3, #0
 9350 0092 C6D1     		bne	.L474
 9351 0094 38E0     		b	.L475
 9352              	.L480:
3929:Drivers/STM32F1xx_HAL_Driver/Src/stm32f1xx_hal_i2c.c ****         }
3930:Drivers/STM32F1xx_HAL_Driver/Src/stm32f1xx_hal_i2c.c ****       }
ARM GAS  /var/folders/kh/x4vltyy52lbg7p4pcyglc5080000gp/T//cccbl2Nm.s 			page 234


3931:Drivers/STM32F1xx_HAL_Driver/Src/stm32f1xx_hal_i2c.c ****     }
3932:Drivers/STM32F1xx_HAL_Driver/Src/stm32f1xx_hal_i2c.c ****   }
3933:Drivers/STM32F1xx_HAL_Driver/Src/stm32f1xx_hal_i2c.c ****   else
3934:Drivers/STM32F1xx_HAL_Driver/Src/stm32f1xx_hal_i2c.c ****   {
3935:Drivers/STM32F1xx_HAL_Driver/Src/stm32f1xx_hal_i2c.c ****     while(__HAL_I2C_GET_FLAG(hi2c, Flag) != RESET)
3936:Drivers/STM32F1xx_HAL_Driver/Src/stm32f1xx_hal_i2c.c ****     {
3937:Drivers/STM32F1xx_HAL_Driver/Src/stm32f1xx_hal_i2c.c ****       /* Check for the Timeout */
3938:Drivers/STM32F1xx_HAL_Driver/Src/stm32f1xx_hal_i2c.c ****       if(Timeout != HAL_MAX_DELAY)
 9353              		.loc 1 3938 0 is_stmt 1
 9354 0096 3B68     		ldr	r3, [r7]
 9355 0098 B3F1FF3F 		cmp	r3, #-1
 9356 009c 14D0     		beq	.L476
3939:Drivers/STM32F1xx_HAL_Driver/Src/stm32f1xx_hal_i2c.c ****       {
3940:Drivers/STM32F1xx_HAL_Driver/Src/stm32f1xx_hal_i2c.c ****         if((Timeout == 0)||((HAL_GetTick() - tickstart ) > Timeout))
 9357              		.loc 1 3940 0
 9358 009e 3B68     		ldr	r3, [r7]
 9359 00a0 002B     		cmp	r3, #0
 9360 00a2 07D0     		beq	.L477
 9361              		.loc 1 3940 0 is_stmt 0 discriminator 1
 9362 00a4 FFF7FEFF 		bl	HAL_GetTick
 9363 00a8 0246     		mov	r2, r0
 9364 00aa 7B69     		ldr	r3, [r7, #20]
 9365 00ac D21A     		subs	r2, r2, r3
 9366 00ae 3B68     		ldr	r3, [r7]
 9367 00b0 9A42     		cmp	r2, r3
 9368 00b2 09D9     		bls	.L476
 9369              	.L477:
3941:Drivers/STM32F1xx_HAL_Driver/Src/stm32f1xx_hal_i2c.c ****         {
3942:Drivers/STM32F1xx_HAL_Driver/Src/stm32f1xx_hal_i2c.c ****           hi2c->State= HAL_I2C_STATE_READY;
 9370              		.loc 1 3942 0 is_stmt 1
 9371 00b4 FB68     		ldr	r3, [r7, #12]
 9372 00b6 2022     		movs	r2, #32
 9373 00b8 83F83520 		strb	r2, [r3, #53]
3943:Drivers/STM32F1xx_HAL_Driver/Src/stm32f1xx_hal_i2c.c **** 
3944:Drivers/STM32F1xx_HAL_Driver/Src/stm32f1xx_hal_i2c.c ****           /* Process Unlocked */
3945:Drivers/STM32F1xx_HAL_Driver/Src/stm32f1xx_hal_i2c.c ****           __HAL_UNLOCK(hi2c);
 9374              		.loc 1 3945 0
 9375 00bc FB68     		ldr	r3, [r7, #12]
 9376 00be 0022     		movs	r2, #0
 9377 00c0 83F83420 		strb	r2, [r3, #52]
3946:Drivers/STM32F1xx_HAL_Driver/Src/stm32f1xx_hal_i2c.c **** 
3947:Drivers/STM32F1xx_HAL_Driver/Src/stm32f1xx_hal_i2c.c ****           return HAL_TIMEOUT;
 9378              		.loc 1 3947 0
 9379 00c4 0323     		movs	r3, #3
 9380 00c6 20E0     		b	.L471
 9381              	.L476:
3935:Drivers/STM32F1xx_HAL_Driver/Src/stm32f1xx_hal_i2c.c ****     {
 9382              		.loc 1 3935 0
 9383 00c8 BB68     		ldr	r3, [r7, #8]
 9384 00ca 1B0C     		lsrs	r3, r3, #16
 9385 00cc DBB2     		uxtb	r3, r3
 9386 00ce 012B     		cmp	r3, #1
 9387 00d0 0CD1     		bne	.L478
3935:Drivers/STM32F1xx_HAL_Driver/Src/stm32f1xx_hal_i2c.c ****     {
 9388              		.loc 1 3935 0 is_stmt 0 discriminator 1
 9389 00d2 FB68     		ldr	r3, [r7, #12]
 9390 00d4 1B68     		ldr	r3, [r3]
ARM GAS  /var/folders/kh/x4vltyy52lbg7p4pcyglc5080000gp/T//cccbl2Nm.s 			page 235


 9391 00d6 5B69     		ldr	r3, [r3, #20]
 9392 00d8 DA43     		mvns	r2, r3
 9393 00da BB68     		ldr	r3, [r7, #8]
 9394 00dc 1340     		ands	r3, r3, r2
 9395 00de 9BB2     		uxth	r3, r3
 9396 00e0 002B     		cmp	r3, #0
 9397 00e2 0CBF     		ite	eq
 9398 00e4 0123     		moveq	r3, #1
 9399 00e6 0023     		movne	r3, #0
 9400 00e8 DBB2     		uxtb	r3, r3
 9401 00ea 0BE0     		b	.L479
 9402              	.L478:
3935:Drivers/STM32F1xx_HAL_Driver/Src/stm32f1xx_hal_i2c.c ****     {
 9403              		.loc 1 3935 0 discriminator 2
 9404 00ec FB68     		ldr	r3, [r7, #12]
 9405 00ee 1B68     		ldr	r3, [r3]
 9406 00f0 9B69     		ldr	r3, [r3, #24]
 9407 00f2 DA43     		mvns	r2, r3
 9408 00f4 BB68     		ldr	r3, [r7, #8]
 9409 00f6 1340     		ands	r3, r3, r2
 9410 00f8 9BB2     		uxth	r3, r3
 9411 00fa 002B     		cmp	r3, #0
 9412 00fc 0CBF     		ite	eq
 9413 00fe 0123     		moveq	r3, #1
 9414 0100 0023     		movne	r3, #0
 9415 0102 DBB2     		uxtb	r3, r3
 9416              	.L479:
3935:Drivers/STM32F1xx_HAL_Driver/Src/stm32f1xx_hal_i2c.c ****     {
 9417              		.loc 1 3935 0 discriminator 4
 9418 0104 002B     		cmp	r3, #0
 9419 0106 C6D1     		bne	.L480
 9420              	.L475:
3948:Drivers/STM32F1xx_HAL_Driver/Src/stm32f1xx_hal_i2c.c ****         }
3949:Drivers/STM32F1xx_HAL_Driver/Src/stm32f1xx_hal_i2c.c ****       }
3950:Drivers/STM32F1xx_HAL_Driver/Src/stm32f1xx_hal_i2c.c ****     }
3951:Drivers/STM32F1xx_HAL_Driver/Src/stm32f1xx_hal_i2c.c ****   }
3952:Drivers/STM32F1xx_HAL_Driver/Src/stm32f1xx_hal_i2c.c ****   return HAL_OK;
 9421              		.loc 1 3952 0 is_stmt 1
 9422 0108 0023     		movs	r3, #0
 9423              	.L471:
3953:Drivers/STM32F1xx_HAL_Driver/Src/stm32f1xx_hal_i2c.c **** }
 9424              		.loc 1 3953 0
 9425 010a 1846     		mov	r0, r3
 9426 010c 1837     		adds	r7, r7, #24
 9427              	.LCFI306:
 9428              		.cfi_def_cfa_offset 8
 9429 010e BD46     		mov	sp, r7
 9430              	.LCFI307:
 9431              		.cfi_def_cfa_register 13
 9432              		@ sp needed
 9433 0110 80BD     		pop	{r7, pc}
 9434              		.cfi_endproc
 9435              	.LFE121:
 9437 0112 00BF     		.section	.text.I2C_WaitOnMasterAddressFlagUntilTimeout,"ax",%progbits
 9438              		.align	2
 9439              		.thumb
 9440              		.thumb_func
ARM GAS  /var/folders/kh/x4vltyy52lbg7p4pcyglc5080000gp/T//cccbl2Nm.s 			page 236


 9442              	I2C_WaitOnMasterAddressFlagUntilTimeout:
 9443              	.LFB122:
3954:Drivers/STM32F1xx_HAL_Driver/Src/stm32f1xx_hal_i2c.c **** 
3955:Drivers/STM32F1xx_HAL_Driver/Src/stm32f1xx_hal_i2c.c **** /**
3956:Drivers/STM32F1xx_HAL_Driver/Src/stm32f1xx_hal_i2c.c ****   * @brief  This function handles I2C Communication Timeout for Master addressing phase.
3957:Drivers/STM32F1xx_HAL_Driver/Src/stm32f1xx_hal_i2c.c ****   * @param  hi2c Pointer to a I2C_HandleTypeDef structure that contains
3958:Drivers/STM32F1xx_HAL_Driver/Src/stm32f1xx_hal_i2c.c ****   *                the configuration information for the specified I2C.
3959:Drivers/STM32F1xx_HAL_Driver/Src/stm32f1xx_hal_i2c.c ****   * @param  Flag: specifies the I2C flag to check.
3960:Drivers/STM32F1xx_HAL_Driver/Src/stm32f1xx_hal_i2c.c ****   * @param  Timeout Timeout duration
3961:Drivers/STM32F1xx_HAL_Driver/Src/stm32f1xx_hal_i2c.c ****   * @retval HAL status
3962:Drivers/STM32F1xx_HAL_Driver/Src/stm32f1xx_hal_i2c.c ****   */
3963:Drivers/STM32F1xx_HAL_Driver/Src/stm32f1xx_hal_i2c.c **** static HAL_StatusTypeDef I2C_WaitOnMasterAddressFlagUntilTimeout(I2C_HandleTypeDef *hi2c, uint32_t 
3964:Drivers/STM32F1xx_HAL_Driver/Src/stm32f1xx_hal_i2c.c **** {
 9444              		.loc 1 3964 0
 9445              		.cfi_startproc
 9446              		@ args = 0, pretend = 0, frame = 24
 9447              		@ frame_needed = 1, uses_anonymous_args = 0
 9448 0000 80B5     		push	{r7, lr}
 9449              	.LCFI308:
 9450              		.cfi_def_cfa_offset 8
 9451              		.cfi_offset 7, -8
 9452              		.cfi_offset 14, -4
 9453 0002 86B0     		sub	sp, sp, #24
 9454              	.LCFI309:
 9455              		.cfi_def_cfa_offset 32
 9456 0004 00AF     		add	r7, sp, #0
 9457              	.LCFI310:
 9458              		.cfi_def_cfa_register 7
 9459 0006 F860     		str	r0, [r7, #12]
 9460 0008 B960     		str	r1, [r7, #8]
 9461 000a 7A60     		str	r2, [r7, #4]
3965:Drivers/STM32F1xx_HAL_Driver/Src/stm32f1xx_hal_i2c.c ****   uint32_t tickstart = 0;
 9462              		.loc 1 3965 0
 9463 000c 0023     		movs	r3, #0
 9464 000e 7B61     		str	r3, [r7, #20]
3966:Drivers/STM32F1xx_HAL_Driver/Src/stm32f1xx_hal_i2c.c **** 
3967:Drivers/STM32F1xx_HAL_Driver/Src/stm32f1xx_hal_i2c.c ****   /* Get tick */
3968:Drivers/STM32F1xx_HAL_Driver/Src/stm32f1xx_hal_i2c.c ****   tickstart = HAL_GetTick();
 9465              		.loc 1 3968 0
 9466 0010 FFF7FEFF 		bl	HAL_GetTick
 9467 0014 7861     		str	r0, [r7, #20]
3969:Drivers/STM32F1xx_HAL_Driver/Src/stm32f1xx_hal_i2c.c **** 
3970:Drivers/STM32F1xx_HAL_Driver/Src/stm32f1xx_hal_i2c.c ****   while(__HAL_I2C_GET_FLAG(hi2c, Flag) == RESET)
 9468              		.loc 1 3970 0
 9469 0016 3CE0     		b	.L482
 9470              	.L488:
3971:Drivers/STM32F1xx_HAL_Driver/Src/stm32f1xx_hal_i2c.c ****   {
3972:Drivers/STM32F1xx_HAL_Driver/Src/stm32f1xx_hal_i2c.c ****     if(__HAL_I2C_GET_FLAG(hi2c, I2C_FLAG_AF) == SET)
 9471              		.loc 1 3972 0
 9472 0018 FB68     		ldr	r3, [r7, #12]
 9473 001a 1B68     		ldr	r3, [r3]
 9474 001c 5B69     		ldr	r3, [r3, #20]
 9475 001e 03F48063 		and	r3, r3, #1024
 9476 0022 002B     		cmp	r3, #0
 9477 0024 1CD0     		beq	.L483
3973:Drivers/STM32F1xx_HAL_Driver/Src/stm32f1xx_hal_i2c.c ****     {
3974:Drivers/STM32F1xx_HAL_Driver/Src/stm32f1xx_hal_i2c.c ****       /* Generate Stop */
ARM GAS  /var/folders/kh/x4vltyy52lbg7p4pcyglc5080000gp/T//cccbl2Nm.s 			page 237


3975:Drivers/STM32F1xx_HAL_Driver/Src/stm32f1xx_hal_i2c.c ****       SET_BIT(hi2c->Instance->CR1, I2C_CR1_STOP);
 9478              		.loc 1 3975 0
 9479 0026 FB68     		ldr	r3, [r7, #12]
 9480 0028 1B68     		ldr	r3, [r3]
 9481 002a FA68     		ldr	r2, [r7, #12]
 9482 002c 1268     		ldr	r2, [r2]
 9483 002e 1268     		ldr	r2, [r2]
 9484 0030 42F40072 		orr	r2, r2, #512
 9485 0034 1A60     		str	r2, [r3]
3976:Drivers/STM32F1xx_HAL_Driver/Src/stm32f1xx_hal_i2c.c **** 
3977:Drivers/STM32F1xx_HAL_Driver/Src/stm32f1xx_hal_i2c.c ****       /* Clear AF Flag */
3978:Drivers/STM32F1xx_HAL_Driver/Src/stm32f1xx_hal_i2c.c ****       __HAL_I2C_CLEAR_FLAG(hi2c, I2C_FLAG_AF);
 9486              		.loc 1 3978 0
 9487 0036 FB68     		ldr	r3, [r7, #12]
 9488 0038 1B68     		ldr	r3, [r3]
 9489 003a FA68     		ldr	r2, [r7, #12]
 9490 003c 1268     		ldr	r2, [r2]
 9491 003e 5269     		ldr	r2, [r2, #20]
 9492 0040 22F48062 		bic	r2, r2, #1024
 9493 0044 5A61     		str	r2, [r3, #20]
3979:Drivers/STM32F1xx_HAL_Driver/Src/stm32f1xx_hal_i2c.c **** 
3980:Drivers/STM32F1xx_HAL_Driver/Src/stm32f1xx_hal_i2c.c ****       hi2c->ErrorCode = HAL_I2C_ERROR_AF;
 9494              		.loc 1 3980 0
 9495 0046 FB68     		ldr	r3, [r7, #12]
 9496 0048 0422     		movs	r2, #4
 9497 004a 9A63     		str	r2, [r3, #56]
3981:Drivers/STM32F1xx_HAL_Driver/Src/stm32f1xx_hal_i2c.c ****       hi2c->State= HAL_I2C_STATE_READY;
 9498              		.loc 1 3981 0
 9499 004c FB68     		ldr	r3, [r7, #12]
 9500 004e 2022     		movs	r2, #32
 9501 0050 83F83520 		strb	r2, [r3, #53]
3982:Drivers/STM32F1xx_HAL_Driver/Src/stm32f1xx_hal_i2c.c **** 
3983:Drivers/STM32F1xx_HAL_Driver/Src/stm32f1xx_hal_i2c.c ****       /* Process Unlocked */
3984:Drivers/STM32F1xx_HAL_Driver/Src/stm32f1xx_hal_i2c.c ****       __HAL_UNLOCK(hi2c);
 9502              		.loc 1 3984 0
 9503 0054 FB68     		ldr	r3, [r7, #12]
 9504 0056 0022     		movs	r2, #0
 9505 0058 83F83420 		strb	r2, [r3, #52]
3985:Drivers/STM32F1xx_HAL_Driver/Src/stm32f1xx_hal_i2c.c **** 
3986:Drivers/STM32F1xx_HAL_Driver/Src/stm32f1xx_hal_i2c.c ****       return HAL_ERROR;
 9506              		.loc 1 3986 0
 9507 005c 0123     		movs	r3, #1
 9508 005e 39E0     		b	.L484
 9509              	.L483:
3987:Drivers/STM32F1xx_HAL_Driver/Src/stm32f1xx_hal_i2c.c ****     }
3988:Drivers/STM32F1xx_HAL_Driver/Src/stm32f1xx_hal_i2c.c **** 
3989:Drivers/STM32F1xx_HAL_Driver/Src/stm32f1xx_hal_i2c.c ****     /* Check for the Timeout */
3990:Drivers/STM32F1xx_HAL_Driver/Src/stm32f1xx_hal_i2c.c ****     if(Timeout != HAL_MAX_DELAY)
 9510              		.loc 1 3990 0
 9511 0060 7B68     		ldr	r3, [r7, #4]
 9512 0062 B3F1FF3F 		cmp	r3, #-1
 9513 0066 14D0     		beq	.L482
3991:Drivers/STM32F1xx_HAL_Driver/Src/stm32f1xx_hal_i2c.c ****     {
3992:Drivers/STM32F1xx_HAL_Driver/Src/stm32f1xx_hal_i2c.c ****       if((Timeout == 0)||((HAL_GetTick() - tickstart ) > Timeout))
 9514              		.loc 1 3992 0
 9515 0068 7B68     		ldr	r3, [r7, #4]
 9516 006a 002B     		cmp	r3, #0
ARM GAS  /var/folders/kh/x4vltyy52lbg7p4pcyglc5080000gp/T//cccbl2Nm.s 			page 238


 9517 006c 07D0     		beq	.L485
 9518              		.loc 1 3992 0 is_stmt 0 discriminator 1
 9519 006e FFF7FEFF 		bl	HAL_GetTick
 9520 0072 0246     		mov	r2, r0
 9521 0074 7B69     		ldr	r3, [r7, #20]
 9522 0076 D21A     		subs	r2, r2, r3
 9523 0078 7B68     		ldr	r3, [r7, #4]
 9524 007a 9A42     		cmp	r2, r3
 9525 007c 09D9     		bls	.L482
 9526              	.L485:
3993:Drivers/STM32F1xx_HAL_Driver/Src/stm32f1xx_hal_i2c.c ****       {
3994:Drivers/STM32F1xx_HAL_Driver/Src/stm32f1xx_hal_i2c.c ****         hi2c->State= HAL_I2C_STATE_READY;
 9527              		.loc 1 3994 0 is_stmt 1
 9528 007e FB68     		ldr	r3, [r7, #12]
 9529 0080 2022     		movs	r2, #32
 9530 0082 83F83520 		strb	r2, [r3, #53]
3995:Drivers/STM32F1xx_HAL_Driver/Src/stm32f1xx_hal_i2c.c **** 
3996:Drivers/STM32F1xx_HAL_Driver/Src/stm32f1xx_hal_i2c.c ****         /* Process Unlocked */
3997:Drivers/STM32F1xx_HAL_Driver/Src/stm32f1xx_hal_i2c.c ****         __HAL_UNLOCK(hi2c);
 9531              		.loc 1 3997 0
 9532 0086 FB68     		ldr	r3, [r7, #12]
 9533 0088 0022     		movs	r2, #0
 9534 008a 83F83420 		strb	r2, [r3, #52]
3998:Drivers/STM32F1xx_HAL_Driver/Src/stm32f1xx_hal_i2c.c **** 
3999:Drivers/STM32F1xx_HAL_Driver/Src/stm32f1xx_hal_i2c.c ****         return HAL_TIMEOUT;
 9535              		.loc 1 3999 0
 9536 008e 0323     		movs	r3, #3
 9537 0090 20E0     		b	.L484
 9538              	.L482:
3970:Drivers/STM32F1xx_HAL_Driver/Src/stm32f1xx_hal_i2c.c ****   {
 9539              		.loc 1 3970 0
 9540 0092 BB68     		ldr	r3, [r7, #8]
 9541 0094 1B0C     		lsrs	r3, r3, #16
 9542 0096 DBB2     		uxtb	r3, r3
 9543 0098 012B     		cmp	r3, #1
 9544 009a 0CD1     		bne	.L486
3970:Drivers/STM32F1xx_HAL_Driver/Src/stm32f1xx_hal_i2c.c ****   {
 9545              		.loc 1 3970 0 is_stmt 0 discriminator 1
 9546 009c FB68     		ldr	r3, [r7, #12]
 9547 009e 1B68     		ldr	r3, [r3]
 9548 00a0 5B69     		ldr	r3, [r3, #20]
 9549 00a2 DA43     		mvns	r2, r3
 9550 00a4 BB68     		ldr	r3, [r7, #8]
 9551 00a6 1340     		ands	r3, r3, r2
 9552 00a8 9BB2     		uxth	r3, r3
 9553 00aa 002B     		cmp	r3, #0
 9554 00ac 14BF     		ite	ne
 9555 00ae 0123     		movne	r3, #1
 9556 00b0 0023     		moveq	r3, #0
 9557 00b2 DBB2     		uxtb	r3, r3
 9558 00b4 0BE0     		b	.L487
 9559              	.L486:
3970:Drivers/STM32F1xx_HAL_Driver/Src/stm32f1xx_hal_i2c.c ****   {
 9560              		.loc 1 3970 0 discriminator 2
 9561 00b6 FB68     		ldr	r3, [r7, #12]
 9562 00b8 1B68     		ldr	r3, [r3]
 9563 00ba 9B69     		ldr	r3, [r3, #24]
ARM GAS  /var/folders/kh/x4vltyy52lbg7p4pcyglc5080000gp/T//cccbl2Nm.s 			page 239


 9564 00bc DA43     		mvns	r2, r3
 9565 00be BB68     		ldr	r3, [r7, #8]
 9566 00c0 1340     		ands	r3, r3, r2
 9567 00c2 9BB2     		uxth	r3, r3
 9568 00c4 002B     		cmp	r3, #0
 9569 00c6 14BF     		ite	ne
 9570 00c8 0123     		movne	r3, #1
 9571 00ca 0023     		moveq	r3, #0
 9572 00cc DBB2     		uxtb	r3, r3
 9573              	.L487:
3970:Drivers/STM32F1xx_HAL_Driver/Src/stm32f1xx_hal_i2c.c ****   {
 9574              		.loc 1 3970 0 discriminator 4
 9575 00ce 002B     		cmp	r3, #0
 9576 00d0 A2D1     		bne	.L488
4000:Drivers/STM32F1xx_HAL_Driver/Src/stm32f1xx_hal_i2c.c ****       }
4001:Drivers/STM32F1xx_HAL_Driver/Src/stm32f1xx_hal_i2c.c ****     }
4002:Drivers/STM32F1xx_HAL_Driver/Src/stm32f1xx_hal_i2c.c ****   }
4003:Drivers/STM32F1xx_HAL_Driver/Src/stm32f1xx_hal_i2c.c ****   return HAL_OK;
 9577              		.loc 1 4003 0 is_stmt 1
 9578 00d2 0023     		movs	r3, #0
 9579              	.L484:
4004:Drivers/STM32F1xx_HAL_Driver/Src/stm32f1xx_hal_i2c.c **** }
 9580              		.loc 1 4004 0
 9581 00d4 1846     		mov	r0, r3
 9582 00d6 1837     		adds	r7, r7, #24
 9583              	.LCFI311:
 9584              		.cfi_def_cfa_offset 8
 9585 00d8 BD46     		mov	sp, r7
 9586              	.LCFI312:
 9587              		.cfi_def_cfa_register 13
 9588              		@ sp needed
 9589 00da 80BD     		pop	{r7, pc}
 9590              		.cfi_endproc
 9591              	.LFE122:
 9593              		.section	.text.I2C_WaitOnTXEFlagUntilTimeout,"ax",%progbits
 9594              		.align	2
 9595              		.thumb
 9596              		.thumb_func
 9598              	I2C_WaitOnTXEFlagUntilTimeout:
 9599              	.LFB123:
4005:Drivers/STM32F1xx_HAL_Driver/Src/stm32f1xx_hal_i2c.c **** 
4006:Drivers/STM32F1xx_HAL_Driver/Src/stm32f1xx_hal_i2c.c **** /**
4007:Drivers/STM32F1xx_HAL_Driver/Src/stm32f1xx_hal_i2c.c ****   * @brief  This function handles I2C Communication Timeout for specific usage of TXE flag.
4008:Drivers/STM32F1xx_HAL_Driver/Src/stm32f1xx_hal_i2c.c ****   * @param  hi2c Pointer to a I2C_HandleTypeDef structure that contains
4009:Drivers/STM32F1xx_HAL_Driver/Src/stm32f1xx_hal_i2c.c ****   *                the configuration information for the specified I2C.
4010:Drivers/STM32F1xx_HAL_Driver/Src/stm32f1xx_hal_i2c.c ****   * @param  Timeout Timeout duration
4011:Drivers/STM32F1xx_HAL_Driver/Src/stm32f1xx_hal_i2c.c ****   * @retval HAL status
4012:Drivers/STM32F1xx_HAL_Driver/Src/stm32f1xx_hal_i2c.c ****   */
4013:Drivers/STM32F1xx_HAL_Driver/Src/stm32f1xx_hal_i2c.c **** static HAL_StatusTypeDef I2C_WaitOnTXEFlagUntilTimeout(I2C_HandleTypeDef *hi2c, uint32_t Timeout)  
4014:Drivers/STM32F1xx_HAL_Driver/Src/stm32f1xx_hal_i2c.c **** {  
 9600              		.loc 1 4014 0
 9601              		.cfi_startproc
 9602              		@ args = 0, pretend = 0, frame = 16
 9603              		@ frame_needed = 1, uses_anonymous_args = 0
 9604 0000 80B5     		push	{r7, lr}
 9605              	.LCFI313:
 9606              		.cfi_def_cfa_offset 8
ARM GAS  /var/folders/kh/x4vltyy52lbg7p4pcyglc5080000gp/T//cccbl2Nm.s 			page 240


 9607              		.cfi_offset 7, -8
 9608              		.cfi_offset 14, -4
 9609 0002 84B0     		sub	sp, sp, #16
 9610              	.LCFI314:
 9611              		.cfi_def_cfa_offset 24
 9612 0004 00AF     		add	r7, sp, #0
 9613              	.LCFI315:
 9614              		.cfi_def_cfa_register 7
 9615 0006 7860     		str	r0, [r7, #4]
 9616 0008 3960     		str	r1, [r7]
4015:Drivers/STM32F1xx_HAL_Driver/Src/stm32f1xx_hal_i2c.c ****   uint32_t tickstart = HAL_GetTick();
 9617              		.loc 1 4015 0
 9618 000a FFF7FEFF 		bl	HAL_GetTick
 9619 000e F860     		str	r0, [r7, #12]
4016:Drivers/STM32F1xx_HAL_Driver/Src/stm32f1xx_hal_i2c.c ****   
4017:Drivers/STM32F1xx_HAL_Driver/Src/stm32f1xx_hal_i2c.c ****   while(__HAL_I2C_GET_FLAG(hi2c, I2C_FLAG_TXE) == RESET)
 9620              		.loc 1 4017 0
 9621 0010 26E0     		b	.L490
 9622              	.L494:
4018:Drivers/STM32F1xx_HAL_Driver/Src/stm32f1xx_hal_i2c.c ****   {
4019:Drivers/STM32F1xx_HAL_Driver/Src/stm32f1xx_hal_i2c.c ****     /* Check if a NACK is detected */
4020:Drivers/STM32F1xx_HAL_Driver/Src/stm32f1xx_hal_i2c.c ****     if(I2C_IsAcknowledgeFailed(hi2c) != HAL_OK)
 9623              		.loc 1 4020 0
 9624 0012 7868     		ldr	r0, [r7, #4]
 9625 0014 FFF7FEFF 		bl	I2C_IsAcknowledgeFailed
 9626 0018 0346     		mov	r3, r0
 9627 001a 002B     		cmp	r3, #0
 9628 001c 01D0     		beq	.L491
4021:Drivers/STM32F1xx_HAL_Driver/Src/stm32f1xx_hal_i2c.c ****     {
4022:Drivers/STM32F1xx_HAL_Driver/Src/stm32f1xx_hal_i2c.c ****       return HAL_ERROR;
 9629              		.loc 1 4022 0
 9630 001e 0123     		movs	r3, #1
 9631 0020 26E0     		b	.L492
 9632              	.L491:
4023:Drivers/STM32F1xx_HAL_Driver/Src/stm32f1xx_hal_i2c.c ****     }
4024:Drivers/STM32F1xx_HAL_Driver/Src/stm32f1xx_hal_i2c.c **** 		
4025:Drivers/STM32F1xx_HAL_Driver/Src/stm32f1xx_hal_i2c.c ****     /* Check for the Timeout */
4026:Drivers/STM32F1xx_HAL_Driver/Src/stm32f1xx_hal_i2c.c ****     if(Timeout != HAL_MAX_DELAY)
 9633              		.loc 1 4026 0
 9634 0022 3B68     		ldr	r3, [r7]
 9635 0024 B3F1FF3F 		cmp	r3, #-1
 9636 0028 1AD0     		beq	.L490
4027:Drivers/STM32F1xx_HAL_Driver/Src/stm32f1xx_hal_i2c.c ****     {
4028:Drivers/STM32F1xx_HAL_Driver/Src/stm32f1xx_hal_i2c.c ****       if((Timeout == 0) || ((HAL_GetTick()-tickstart) > Timeout))
 9637              		.loc 1 4028 0
 9638 002a 3B68     		ldr	r3, [r7]
 9639 002c 002B     		cmp	r3, #0
 9640 002e 07D0     		beq	.L493
 9641              		.loc 1 4028 0 is_stmt 0 discriminator 1
 9642 0030 FFF7FEFF 		bl	HAL_GetTick
 9643 0034 0246     		mov	r2, r0
 9644 0036 FB68     		ldr	r3, [r7, #12]
 9645 0038 D21A     		subs	r2, r2, r3
 9646 003a 3B68     		ldr	r3, [r7]
 9647 003c 9A42     		cmp	r2, r3
 9648 003e 0FD9     		bls	.L490
 9649              	.L493:
ARM GAS  /var/folders/kh/x4vltyy52lbg7p4pcyglc5080000gp/T//cccbl2Nm.s 			page 241


4029:Drivers/STM32F1xx_HAL_Driver/Src/stm32f1xx_hal_i2c.c ****       {
4030:Drivers/STM32F1xx_HAL_Driver/Src/stm32f1xx_hal_i2c.c ****         hi2c->ErrorCode |= HAL_I2C_ERROR_TIMEOUT;
 9650              		.loc 1 4030 0 is_stmt 1
 9651 0040 7B68     		ldr	r3, [r7, #4]
 9652 0042 9B6B     		ldr	r3, [r3, #56]
 9653 0044 43F02002 		orr	r2, r3, #32
 9654 0048 7B68     		ldr	r3, [r7, #4]
 9655 004a 9A63     		str	r2, [r3, #56]
4031:Drivers/STM32F1xx_HAL_Driver/Src/stm32f1xx_hal_i2c.c ****         hi2c->State= HAL_I2C_STATE_READY;
 9656              		.loc 1 4031 0
 9657 004c 7B68     		ldr	r3, [r7, #4]
 9658 004e 2022     		movs	r2, #32
 9659 0050 83F83520 		strb	r2, [r3, #53]
4032:Drivers/STM32F1xx_HAL_Driver/Src/stm32f1xx_hal_i2c.c **** 
4033:Drivers/STM32F1xx_HAL_Driver/Src/stm32f1xx_hal_i2c.c ****         /* Process Unlocked */
4034:Drivers/STM32F1xx_HAL_Driver/Src/stm32f1xx_hal_i2c.c ****         __HAL_UNLOCK(hi2c);
 9660              		.loc 1 4034 0
 9661 0054 7B68     		ldr	r3, [r7, #4]
 9662 0056 0022     		movs	r2, #0
 9663 0058 83F83420 		strb	r2, [r3, #52]
4035:Drivers/STM32F1xx_HAL_Driver/Src/stm32f1xx_hal_i2c.c **** 
4036:Drivers/STM32F1xx_HAL_Driver/Src/stm32f1xx_hal_i2c.c ****         return HAL_TIMEOUT;
 9664              		.loc 1 4036 0
 9665 005c 0323     		movs	r3, #3
 9666 005e 07E0     		b	.L492
 9667              	.L490:
4017:Drivers/STM32F1xx_HAL_Driver/Src/stm32f1xx_hal_i2c.c ****   {
 9668              		.loc 1 4017 0
 9669 0060 7B68     		ldr	r3, [r7, #4]
 9670 0062 1B68     		ldr	r3, [r3]
 9671 0064 5B69     		ldr	r3, [r3, #20]
 9672 0066 03F08003 		and	r3, r3, #128
 9673 006a 002B     		cmp	r3, #0
 9674 006c D1D0     		beq	.L494
4037:Drivers/STM32F1xx_HAL_Driver/Src/stm32f1xx_hal_i2c.c ****       }
4038:Drivers/STM32F1xx_HAL_Driver/Src/stm32f1xx_hal_i2c.c ****     }
4039:Drivers/STM32F1xx_HAL_Driver/Src/stm32f1xx_hal_i2c.c ****   }
4040:Drivers/STM32F1xx_HAL_Driver/Src/stm32f1xx_hal_i2c.c ****   return HAL_OK;      
 9675              		.loc 1 4040 0
 9676 006e 0023     		movs	r3, #0
 9677              	.L492:
4041:Drivers/STM32F1xx_HAL_Driver/Src/stm32f1xx_hal_i2c.c **** }
 9678              		.loc 1 4041 0
 9679 0070 1846     		mov	r0, r3
 9680 0072 1037     		adds	r7, r7, #16
 9681              	.LCFI316:
 9682              		.cfi_def_cfa_offset 8
 9683 0074 BD46     		mov	sp, r7
 9684              	.LCFI317:
 9685              		.cfi_def_cfa_register 13
 9686              		@ sp needed
 9687 0076 80BD     		pop	{r7, pc}
 9688              		.cfi_endproc
 9689              	.LFE123:
 9691              		.section	.text.I2C_WaitOnBTFFlagUntilTimeout,"ax",%progbits
 9692              		.align	2
 9693              		.thumb
ARM GAS  /var/folders/kh/x4vltyy52lbg7p4pcyglc5080000gp/T//cccbl2Nm.s 			page 242


 9694              		.thumb_func
 9696              	I2C_WaitOnBTFFlagUntilTimeout:
 9697              	.LFB124:
4042:Drivers/STM32F1xx_HAL_Driver/Src/stm32f1xx_hal_i2c.c **** 
4043:Drivers/STM32F1xx_HAL_Driver/Src/stm32f1xx_hal_i2c.c **** /**
4044:Drivers/STM32F1xx_HAL_Driver/Src/stm32f1xx_hal_i2c.c ****   * @brief  This function handles I2C Communication Timeout for specific usage of BTF flag.
4045:Drivers/STM32F1xx_HAL_Driver/Src/stm32f1xx_hal_i2c.c ****   * @param  hi2c Pointer to a I2C_HandleTypeDef structure that contains
4046:Drivers/STM32F1xx_HAL_Driver/Src/stm32f1xx_hal_i2c.c ****   *                the configuration information for the specified I2C.
4047:Drivers/STM32F1xx_HAL_Driver/Src/stm32f1xx_hal_i2c.c ****   * @param  Timeout Timeout duration
4048:Drivers/STM32F1xx_HAL_Driver/Src/stm32f1xx_hal_i2c.c ****   * @retval HAL status
4049:Drivers/STM32F1xx_HAL_Driver/Src/stm32f1xx_hal_i2c.c ****   */
4050:Drivers/STM32F1xx_HAL_Driver/Src/stm32f1xx_hal_i2c.c **** static HAL_StatusTypeDef I2C_WaitOnBTFFlagUntilTimeout(I2C_HandleTypeDef *hi2c, uint32_t Timeout)  
4051:Drivers/STM32F1xx_HAL_Driver/Src/stm32f1xx_hal_i2c.c **** {  
 9698              		.loc 1 4051 0
 9699              		.cfi_startproc
 9700              		@ args = 0, pretend = 0, frame = 16
 9701              		@ frame_needed = 1, uses_anonymous_args = 0
 9702 0000 80B5     		push	{r7, lr}
 9703              	.LCFI318:
 9704              		.cfi_def_cfa_offset 8
 9705              		.cfi_offset 7, -8
 9706              		.cfi_offset 14, -4
 9707 0002 84B0     		sub	sp, sp, #16
 9708              	.LCFI319:
 9709              		.cfi_def_cfa_offset 24
 9710 0004 00AF     		add	r7, sp, #0
 9711              	.LCFI320:
 9712              		.cfi_def_cfa_register 7
 9713 0006 7860     		str	r0, [r7, #4]
 9714 0008 3960     		str	r1, [r7]
4052:Drivers/STM32F1xx_HAL_Driver/Src/stm32f1xx_hal_i2c.c ****   uint32_t tickstart = HAL_GetTick();
 9715              		.loc 1 4052 0
 9716 000a FFF7FEFF 		bl	HAL_GetTick
 9717 000e F860     		str	r0, [r7, #12]
4053:Drivers/STM32F1xx_HAL_Driver/Src/stm32f1xx_hal_i2c.c ****   
4054:Drivers/STM32F1xx_HAL_Driver/Src/stm32f1xx_hal_i2c.c ****   while(__HAL_I2C_GET_FLAG(hi2c, I2C_FLAG_BTF) == RESET)
 9718              		.loc 1 4054 0
 9719 0010 26E0     		b	.L496
 9720              	.L500:
4055:Drivers/STM32F1xx_HAL_Driver/Src/stm32f1xx_hal_i2c.c ****   {
4056:Drivers/STM32F1xx_HAL_Driver/Src/stm32f1xx_hal_i2c.c ****     /* Check if a NACK is detected */
4057:Drivers/STM32F1xx_HAL_Driver/Src/stm32f1xx_hal_i2c.c ****     if(I2C_IsAcknowledgeFailed(hi2c) != HAL_OK)
 9721              		.loc 1 4057 0
 9722 0012 7868     		ldr	r0, [r7, #4]
 9723 0014 FFF7FEFF 		bl	I2C_IsAcknowledgeFailed
 9724 0018 0346     		mov	r3, r0
 9725 001a 002B     		cmp	r3, #0
 9726 001c 01D0     		beq	.L497
4058:Drivers/STM32F1xx_HAL_Driver/Src/stm32f1xx_hal_i2c.c ****     {
4059:Drivers/STM32F1xx_HAL_Driver/Src/stm32f1xx_hal_i2c.c ****       return HAL_ERROR;
 9727              		.loc 1 4059 0
 9728 001e 0123     		movs	r3, #1
 9729 0020 26E0     		b	.L498
 9730              	.L497:
4060:Drivers/STM32F1xx_HAL_Driver/Src/stm32f1xx_hal_i2c.c ****     }
4061:Drivers/STM32F1xx_HAL_Driver/Src/stm32f1xx_hal_i2c.c **** 		
4062:Drivers/STM32F1xx_HAL_Driver/Src/stm32f1xx_hal_i2c.c ****     /* Check for the Timeout */
ARM GAS  /var/folders/kh/x4vltyy52lbg7p4pcyglc5080000gp/T//cccbl2Nm.s 			page 243


4063:Drivers/STM32F1xx_HAL_Driver/Src/stm32f1xx_hal_i2c.c ****     if(Timeout != HAL_MAX_DELAY)
 9731              		.loc 1 4063 0
 9732 0022 3B68     		ldr	r3, [r7]
 9733 0024 B3F1FF3F 		cmp	r3, #-1
 9734 0028 1AD0     		beq	.L496
4064:Drivers/STM32F1xx_HAL_Driver/Src/stm32f1xx_hal_i2c.c ****     {
4065:Drivers/STM32F1xx_HAL_Driver/Src/stm32f1xx_hal_i2c.c ****       if((Timeout == 0) || ((HAL_GetTick()-tickstart) > Timeout))
 9735              		.loc 1 4065 0
 9736 002a 3B68     		ldr	r3, [r7]
 9737 002c 002B     		cmp	r3, #0
 9738 002e 07D0     		beq	.L499
 9739              		.loc 1 4065 0 is_stmt 0 discriminator 1
 9740 0030 FFF7FEFF 		bl	HAL_GetTick
 9741 0034 0246     		mov	r2, r0
 9742 0036 FB68     		ldr	r3, [r7, #12]
 9743 0038 D21A     		subs	r2, r2, r3
 9744 003a 3B68     		ldr	r3, [r7]
 9745 003c 9A42     		cmp	r2, r3
 9746 003e 0FD9     		bls	.L496
 9747              	.L499:
4066:Drivers/STM32F1xx_HAL_Driver/Src/stm32f1xx_hal_i2c.c ****       {
4067:Drivers/STM32F1xx_HAL_Driver/Src/stm32f1xx_hal_i2c.c ****         hi2c->ErrorCode |= HAL_I2C_ERROR_TIMEOUT;
 9748              		.loc 1 4067 0 is_stmt 1
 9749 0040 7B68     		ldr	r3, [r7, #4]
 9750 0042 9B6B     		ldr	r3, [r3, #56]
 9751 0044 43F02002 		orr	r2, r3, #32
 9752 0048 7B68     		ldr	r3, [r7, #4]
 9753 004a 9A63     		str	r2, [r3, #56]
4068:Drivers/STM32F1xx_HAL_Driver/Src/stm32f1xx_hal_i2c.c ****         hi2c->State= HAL_I2C_STATE_READY;
 9754              		.loc 1 4068 0
 9755 004c 7B68     		ldr	r3, [r7, #4]
 9756 004e 2022     		movs	r2, #32
 9757 0050 83F83520 		strb	r2, [r3, #53]
4069:Drivers/STM32F1xx_HAL_Driver/Src/stm32f1xx_hal_i2c.c **** 
4070:Drivers/STM32F1xx_HAL_Driver/Src/stm32f1xx_hal_i2c.c ****         /* Process Unlocked */
4071:Drivers/STM32F1xx_HAL_Driver/Src/stm32f1xx_hal_i2c.c ****         __HAL_UNLOCK(hi2c);
 9758              		.loc 1 4071 0
 9759 0054 7B68     		ldr	r3, [r7, #4]
 9760 0056 0022     		movs	r2, #0
 9761 0058 83F83420 		strb	r2, [r3, #52]
4072:Drivers/STM32F1xx_HAL_Driver/Src/stm32f1xx_hal_i2c.c **** 
4073:Drivers/STM32F1xx_HAL_Driver/Src/stm32f1xx_hal_i2c.c ****         return HAL_TIMEOUT;
 9762              		.loc 1 4073 0
 9763 005c 0323     		movs	r3, #3
 9764 005e 07E0     		b	.L498
 9765              	.L496:
4054:Drivers/STM32F1xx_HAL_Driver/Src/stm32f1xx_hal_i2c.c ****   {
 9766              		.loc 1 4054 0
 9767 0060 7B68     		ldr	r3, [r7, #4]
 9768 0062 1B68     		ldr	r3, [r3]
 9769 0064 5B69     		ldr	r3, [r3, #20]
 9770 0066 03F00403 		and	r3, r3, #4
 9771 006a 002B     		cmp	r3, #0
 9772 006c D1D0     		beq	.L500
4074:Drivers/STM32F1xx_HAL_Driver/Src/stm32f1xx_hal_i2c.c ****       }
4075:Drivers/STM32F1xx_HAL_Driver/Src/stm32f1xx_hal_i2c.c ****     }
4076:Drivers/STM32F1xx_HAL_Driver/Src/stm32f1xx_hal_i2c.c ****   }
ARM GAS  /var/folders/kh/x4vltyy52lbg7p4pcyglc5080000gp/T//cccbl2Nm.s 			page 244


4077:Drivers/STM32F1xx_HAL_Driver/Src/stm32f1xx_hal_i2c.c ****   return HAL_OK;      
 9773              		.loc 1 4077 0
 9774 006e 0023     		movs	r3, #0
 9775              	.L498:
4078:Drivers/STM32F1xx_HAL_Driver/Src/stm32f1xx_hal_i2c.c **** }
 9776              		.loc 1 4078 0
 9777 0070 1846     		mov	r0, r3
 9778 0072 1037     		adds	r7, r7, #16
 9779              	.LCFI321:
 9780              		.cfi_def_cfa_offset 8
 9781 0074 BD46     		mov	sp, r7
 9782              	.LCFI322:
 9783              		.cfi_def_cfa_register 13
 9784              		@ sp needed
 9785 0076 80BD     		pop	{r7, pc}
 9786              		.cfi_endproc
 9787              	.LFE124:
 9789              		.section	.text.I2C_WaitOnSTOPFlagUntilTimeout,"ax",%progbits
 9790              		.align	2
 9791              		.thumb
 9792              		.thumb_func
 9794              	I2C_WaitOnSTOPFlagUntilTimeout:
 9795              	.LFB125:
4079:Drivers/STM32F1xx_HAL_Driver/Src/stm32f1xx_hal_i2c.c **** 
4080:Drivers/STM32F1xx_HAL_Driver/Src/stm32f1xx_hal_i2c.c **** /**
4081:Drivers/STM32F1xx_HAL_Driver/Src/stm32f1xx_hal_i2c.c ****   * @brief  This function handles I2C Communication Timeout for specific usage of STOP flag.
4082:Drivers/STM32F1xx_HAL_Driver/Src/stm32f1xx_hal_i2c.c ****   * @param  hi2c Pointer to a I2C_HandleTypeDef structure that contains
4083:Drivers/STM32F1xx_HAL_Driver/Src/stm32f1xx_hal_i2c.c ****   *                the configuration information for the specified I2C.
4084:Drivers/STM32F1xx_HAL_Driver/Src/stm32f1xx_hal_i2c.c ****   * @param  Timeout Timeout duration
4085:Drivers/STM32F1xx_HAL_Driver/Src/stm32f1xx_hal_i2c.c ****   * @retval HAL status
4086:Drivers/STM32F1xx_HAL_Driver/Src/stm32f1xx_hal_i2c.c ****   */
4087:Drivers/STM32F1xx_HAL_Driver/Src/stm32f1xx_hal_i2c.c **** static HAL_StatusTypeDef I2C_WaitOnSTOPFlagUntilTimeout(I2C_HandleTypeDef *hi2c, uint32_t Timeout)
4088:Drivers/STM32F1xx_HAL_Driver/Src/stm32f1xx_hal_i2c.c **** {  
 9796              		.loc 1 4088 0
 9797              		.cfi_startproc
 9798              		@ args = 0, pretend = 0, frame = 16
 9799              		@ frame_needed = 1, uses_anonymous_args = 0
 9800 0000 80B5     		push	{r7, lr}
 9801              	.LCFI323:
 9802              		.cfi_def_cfa_offset 8
 9803              		.cfi_offset 7, -8
 9804              		.cfi_offset 14, -4
 9805 0002 84B0     		sub	sp, sp, #16
 9806              	.LCFI324:
 9807              		.cfi_def_cfa_offset 24
 9808 0004 00AF     		add	r7, sp, #0
 9809              	.LCFI325:
 9810              		.cfi_def_cfa_register 7
 9811 0006 7860     		str	r0, [r7, #4]
 9812 0008 3960     		str	r1, [r7]
4089:Drivers/STM32F1xx_HAL_Driver/Src/stm32f1xx_hal_i2c.c ****   uint32_t tickstart = 0x00;
 9813              		.loc 1 4089 0
 9814 000a 0023     		movs	r3, #0
 9815 000c FB60     		str	r3, [r7, #12]
4090:Drivers/STM32F1xx_HAL_Driver/Src/stm32f1xx_hal_i2c.c ****   tickstart = HAL_GetTick();
 9816              		.loc 1 4090 0
 9817 000e FFF7FEFF 		bl	HAL_GetTick
ARM GAS  /var/folders/kh/x4vltyy52lbg7p4pcyglc5080000gp/T//cccbl2Nm.s 			page 245


 9818 0012 F860     		str	r0, [r7, #12]
4091:Drivers/STM32F1xx_HAL_Driver/Src/stm32f1xx_hal_i2c.c ****   
4092:Drivers/STM32F1xx_HAL_Driver/Src/stm32f1xx_hal_i2c.c ****   while(__HAL_I2C_GET_FLAG(hi2c, I2C_FLAG_STOPF) == RESET)
 9819              		.loc 1 4092 0
 9820 0014 22E0     		b	.L502
 9821              	.L506:
4093:Drivers/STM32F1xx_HAL_Driver/Src/stm32f1xx_hal_i2c.c ****   {
4094:Drivers/STM32F1xx_HAL_Driver/Src/stm32f1xx_hal_i2c.c ****     /* Check if a NACK is detected */
4095:Drivers/STM32F1xx_HAL_Driver/Src/stm32f1xx_hal_i2c.c ****     if(I2C_IsAcknowledgeFailed(hi2c) != HAL_OK)
 9822              		.loc 1 4095 0
 9823 0016 7868     		ldr	r0, [r7, #4]
 9824 0018 FFF7FEFF 		bl	I2C_IsAcknowledgeFailed
 9825 001c 0346     		mov	r3, r0
 9826 001e 002B     		cmp	r3, #0
 9827 0020 01D0     		beq	.L503
4096:Drivers/STM32F1xx_HAL_Driver/Src/stm32f1xx_hal_i2c.c ****     {
4097:Drivers/STM32F1xx_HAL_Driver/Src/stm32f1xx_hal_i2c.c ****       return HAL_ERROR;
 9828              		.loc 1 4097 0
 9829 0022 0123     		movs	r3, #1
 9830 0024 22E0     		b	.L504
 9831              	.L503:
4098:Drivers/STM32F1xx_HAL_Driver/Src/stm32f1xx_hal_i2c.c ****     }
4099:Drivers/STM32F1xx_HAL_Driver/Src/stm32f1xx_hal_i2c.c **** 		
4100:Drivers/STM32F1xx_HAL_Driver/Src/stm32f1xx_hal_i2c.c ****     /* Check for the Timeout */
4101:Drivers/STM32F1xx_HAL_Driver/Src/stm32f1xx_hal_i2c.c ****     if((Timeout == 0) || ((HAL_GetTick()-tickstart) > Timeout))
 9832              		.loc 1 4101 0
 9833 0026 3B68     		ldr	r3, [r7]
 9834 0028 002B     		cmp	r3, #0
 9835 002a 07D0     		beq	.L505
 9836              		.loc 1 4101 0 is_stmt 0 discriminator 1
 9837 002c FFF7FEFF 		bl	HAL_GetTick
 9838 0030 0246     		mov	r2, r0
 9839 0032 FB68     		ldr	r3, [r7, #12]
 9840 0034 D21A     		subs	r2, r2, r3
 9841 0036 3B68     		ldr	r3, [r7]
 9842 0038 9A42     		cmp	r2, r3
 9843 003a 0FD9     		bls	.L502
 9844              	.L505:
4102:Drivers/STM32F1xx_HAL_Driver/Src/stm32f1xx_hal_i2c.c ****     {
4103:Drivers/STM32F1xx_HAL_Driver/Src/stm32f1xx_hal_i2c.c ****       hi2c->ErrorCode |= HAL_I2C_ERROR_TIMEOUT;
 9845              		.loc 1 4103 0 is_stmt 1
 9846 003c 7B68     		ldr	r3, [r7, #4]
 9847 003e 9B6B     		ldr	r3, [r3, #56]
 9848 0040 43F02002 		orr	r2, r3, #32
 9849 0044 7B68     		ldr	r3, [r7, #4]
 9850 0046 9A63     		str	r2, [r3, #56]
4104:Drivers/STM32F1xx_HAL_Driver/Src/stm32f1xx_hal_i2c.c ****       hi2c->State= HAL_I2C_STATE_READY;
 9851              		.loc 1 4104 0
 9852 0048 7B68     		ldr	r3, [r7, #4]
 9853 004a 2022     		movs	r2, #32
 9854 004c 83F83520 		strb	r2, [r3, #53]
4105:Drivers/STM32F1xx_HAL_Driver/Src/stm32f1xx_hal_i2c.c **** 
4106:Drivers/STM32F1xx_HAL_Driver/Src/stm32f1xx_hal_i2c.c ****       /* Process Unlocked */
4107:Drivers/STM32F1xx_HAL_Driver/Src/stm32f1xx_hal_i2c.c ****       __HAL_UNLOCK(hi2c);
 9855              		.loc 1 4107 0
 9856 0050 7B68     		ldr	r3, [r7, #4]
 9857 0052 0022     		movs	r2, #0
ARM GAS  /var/folders/kh/x4vltyy52lbg7p4pcyglc5080000gp/T//cccbl2Nm.s 			page 246


 9858 0054 83F83420 		strb	r2, [r3, #52]
4108:Drivers/STM32F1xx_HAL_Driver/Src/stm32f1xx_hal_i2c.c **** 
4109:Drivers/STM32F1xx_HAL_Driver/Src/stm32f1xx_hal_i2c.c ****       return HAL_TIMEOUT;
 9859              		.loc 1 4109 0
 9860 0058 0323     		movs	r3, #3
 9861 005a 07E0     		b	.L504
 9862              	.L502:
4092:Drivers/STM32F1xx_HAL_Driver/Src/stm32f1xx_hal_i2c.c ****   {
 9863              		.loc 1 4092 0
 9864 005c 7B68     		ldr	r3, [r7, #4]
 9865 005e 1B68     		ldr	r3, [r3]
 9866 0060 5B69     		ldr	r3, [r3, #20]
 9867 0062 03F01003 		and	r3, r3, #16
 9868 0066 002B     		cmp	r3, #0
 9869 0068 D5D0     		beq	.L506
4110:Drivers/STM32F1xx_HAL_Driver/Src/stm32f1xx_hal_i2c.c ****     }
4111:Drivers/STM32F1xx_HAL_Driver/Src/stm32f1xx_hal_i2c.c ****   }
4112:Drivers/STM32F1xx_HAL_Driver/Src/stm32f1xx_hal_i2c.c ****   return HAL_OK;
 9870              		.loc 1 4112 0
 9871 006a 0023     		movs	r3, #0
 9872              	.L504:
4113:Drivers/STM32F1xx_HAL_Driver/Src/stm32f1xx_hal_i2c.c **** }
 9873              		.loc 1 4113 0
 9874 006c 1846     		mov	r0, r3
 9875 006e 1037     		adds	r7, r7, #16
 9876              	.LCFI326:
 9877              		.cfi_def_cfa_offset 8
 9878 0070 BD46     		mov	sp, r7
 9879              	.LCFI327:
 9880              		.cfi_def_cfa_register 13
 9881              		@ sp needed
 9882 0072 80BD     		pop	{r7, pc}
 9883              		.cfi_endproc
 9884              	.LFE125:
 9886              		.section	.text.I2C_WaitOnRXNEFlagUntilTimeout,"ax",%progbits
 9887              		.align	2
 9888              		.thumb
 9889              		.thumb_func
 9891              	I2C_WaitOnRXNEFlagUntilTimeout:
 9892              	.LFB126:
4114:Drivers/STM32F1xx_HAL_Driver/Src/stm32f1xx_hal_i2c.c **** 
4115:Drivers/STM32F1xx_HAL_Driver/Src/stm32f1xx_hal_i2c.c **** /**
4116:Drivers/STM32F1xx_HAL_Driver/Src/stm32f1xx_hal_i2c.c ****   * @brief  This function handles I2C Communication Timeout for specific usage of RXNE flag.
4117:Drivers/STM32F1xx_HAL_Driver/Src/stm32f1xx_hal_i2c.c ****   * @param  hi2c Pointer to a I2C_HandleTypeDef structure that contains
4118:Drivers/STM32F1xx_HAL_Driver/Src/stm32f1xx_hal_i2c.c ****   *                the configuration information for the specified I2C.
4119:Drivers/STM32F1xx_HAL_Driver/Src/stm32f1xx_hal_i2c.c ****   * @param  Timeout Timeout duration
4120:Drivers/STM32F1xx_HAL_Driver/Src/stm32f1xx_hal_i2c.c ****   * @retval HAL status
4121:Drivers/STM32F1xx_HAL_Driver/Src/stm32f1xx_hal_i2c.c ****   */
4122:Drivers/STM32F1xx_HAL_Driver/Src/stm32f1xx_hal_i2c.c **** static HAL_StatusTypeDef I2C_WaitOnRXNEFlagUntilTimeout(I2C_HandleTypeDef *hi2c, uint32_t Timeout)
4123:Drivers/STM32F1xx_HAL_Driver/Src/stm32f1xx_hal_i2c.c **** {  
 9893              		.loc 1 4123 0
 9894              		.cfi_startproc
 9895              		@ args = 0, pretend = 0, frame = 16
 9896              		@ frame_needed = 1, uses_anonymous_args = 0
 9897 0000 80B5     		push	{r7, lr}
 9898              	.LCFI328:
 9899              		.cfi_def_cfa_offset 8
ARM GAS  /var/folders/kh/x4vltyy52lbg7p4pcyglc5080000gp/T//cccbl2Nm.s 			page 247


 9900              		.cfi_offset 7, -8
 9901              		.cfi_offset 14, -4
 9902 0002 84B0     		sub	sp, sp, #16
 9903              	.LCFI329:
 9904              		.cfi_def_cfa_offset 24
 9905 0004 00AF     		add	r7, sp, #0
 9906              	.LCFI330:
 9907              		.cfi_def_cfa_register 7
 9908 0006 7860     		str	r0, [r7, #4]
 9909 0008 3960     		str	r1, [r7]
4124:Drivers/STM32F1xx_HAL_Driver/Src/stm32f1xx_hal_i2c.c ****   uint32_t tickstart = 0x00;
 9910              		.loc 1 4124 0
 9911 000a 0023     		movs	r3, #0
 9912 000c FB60     		str	r3, [r7, #12]
4125:Drivers/STM32F1xx_HAL_Driver/Src/stm32f1xx_hal_i2c.c ****   tickstart = HAL_GetTick();
 9913              		.loc 1 4125 0
 9914 000e FFF7FEFF 		bl	HAL_GetTick
 9915 0012 F860     		str	r0, [r7, #12]
4126:Drivers/STM32F1xx_HAL_Driver/Src/stm32f1xx_hal_i2c.c ****   
4127:Drivers/STM32F1xx_HAL_Driver/Src/stm32f1xx_hal_i2c.c ****   while(__HAL_I2C_GET_FLAG(hi2c, I2C_FLAG_RXNE) == RESET)
 9916              		.loc 1 4127 0
 9917 0014 36E0     		b	.L508
 9918              	.L512:
4128:Drivers/STM32F1xx_HAL_Driver/Src/stm32f1xx_hal_i2c.c ****   {
4129:Drivers/STM32F1xx_HAL_Driver/Src/stm32f1xx_hal_i2c.c ****     /* Check if a STOPF is detected */
4130:Drivers/STM32F1xx_HAL_Driver/Src/stm32f1xx_hal_i2c.c ****     if(__HAL_I2C_GET_FLAG(hi2c, I2C_FLAG_STOPF) == SET)
 9919              		.loc 1 4130 0
 9920 0016 7B68     		ldr	r3, [r7, #4]
 9921 0018 1B68     		ldr	r3, [r3]
 9922 001a 5B69     		ldr	r3, [r3, #20]
 9923 001c 03F01003 		and	r3, r3, #16
 9924 0020 002B     		cmp	r3, #0
 9925 0022 14D0     		beq	.L509
4131:Drivers/STM32F1xx_HAL_Driver/Src/stm32f1xx_hal_i2c.c ****     {
4132:Drivers/STM32F1xx_HAL_Driver/Src/stm32f1xx_hal_i2c.c ****       /* Clear STOP Flag */
4133:Drivers/STM32F1xx_HAL_Driver/Src/stm32f1xx_hal_i2c.c ****       __HAL_I2C_CLEAR_FLAG(hi2c, I2C_FLAG_STOPF);
 9926              		.loc 1 4133 0
 9927 0024 7B68     		ldr	r3, [r7, #4]
 9928 0026 1B68     		ldr	r3, [r3]
 9929 0028 7A68     		ldr	r2, [r7, #4]
 9930 002a 1268     		ldr	r2, [r2]
 9931 002c 5269     		ldr	r2, [r2, #20]
 9932 002e 22F01002 		bic	r2, r2, #16
 9933 0032 5A61     		str	r2, [r3, #20]
4134:Drivers/STM32F1xx_HAL_Driver/Src/stm32f1xx_hal_i2c.c **** 
4135:Drivers/STM32F1xx_HAL_Driver/Src/stm32f1xx_hal_i2c.c ****       hi2c->ErrorCode = HAL_I2C_ERROR_NONE;
 9934              		.loc 1 4135 0
 9935 0034 7B68     		ldr	r3, [r7, #4]
 9936 0036 0022     		movs	r2, #0
 9937 0038 9A63     		str	r2, [r3, #56]
4136:Drivers/STM32F1xx_HAL_Driver/Src/stm32f1xx_hal_i2c.c ****       hi2c->State= HAL_I2C_STATE_READY;
 9938              		.loc 1 4136 0
 9939 003a 7B68     		ldr	r3, [r7, #4]
 9940 003c 2022     		movs	r2, #32
 9941 003e 83F83520 		strb	r2, [r3, #53]
4137:Drivers/STM32F1xx_HAL_Driver/Src/stm32f1xx_hal_i2c.c **** 
4138:Drivers/STM32F1xx_HAL_Driver/Src/stm32f1xx_hal_i2c.c ****       /* Process Unlocked */
ARM GAS  /var/folders/kh/x4vltyy52lbg7p4pcyglc5080000gp/T//cccbl2Nm.s 			page 248


4139:Drivers/STM32F1xx_HAL_Driver/Src/stm32f1xx_hal_i2c.c ****       __HAL_UNLOCK(hi2c);
 9942              		.loc 1 4139 0
 9943 0042 7B68     		ldr	r3, [r7, #4]
 9944 0044 0022     		movs	r2, #0
 9945 0046 83F83420 		strb	r2, [r3, #52]
4140:Drivers/STM32F1xx_HAL_Driver/Src/stm32f1xx_hal_i2c.c **** 
4141:Drivers/STM32F1xx_HAL_Driver/Src/stm32f1xx_hal_i2c.c ****       return HAL_ERROR;
 9946              		.loc 1 4141 0
 9947 004a 0123     		movs	r3, #1
 9948 004c 22E0     		b	.L510
 9949              	.L509:
4142:Drivers/STM32F1xx_HAL_Driver/Src/stm32f1xx_hal_i2c.c ****     }
4143:Drivers/STM32F1xx_HAL_Driver/Src/stm32f1xx_hal_i2c.c **** 		
4144:Drivers/STM32F1xx_HAL_Driver/Src/stm32f1xx_hal_i2c.c ****     /* Check for the Timeout */
4145:Drivers/STM32F1xx_HAL_Driver/Src/stm32f1xx_hal_i2c.c ****     if((Timeout == 0) || ((HAL_GetTick()-tickstart) > Timeout))
 9950              		.loc 1 4145 0
 9951 004e 3B68     		ldr	r3, [r7]
 9952 0050 002B     		cmp	r3, #0
 9953 0052 07D0     		beq	.L511
 9954              		.loc 1 4145 0 is_stmt 0 discriminator 1
 9955 0054 FFF7FEFF 		bl	HAL_GetTick
 9956 0058 0246     		mov	r2, r0
 9957 005a FB68     		ldr	r3, [r7, #12]
 9958 005c D21A     		subs	r2, r2, r3
 9959 005e 3B68     		ldr	r3, [r7]
 9960 0060 9A42     		cmp	r2, r3
 9961 0062 0FD9     		bls	.L508
 9962              	.L511:
4146:Drivers/STM32F1xx_HAL_Driver/Src/stm32f1xx_hal_i2c.c ****     {
4147:Drivers/STM32F1xx_HAL_Driver/Src/stm32f1xx_hal_i2c.c ****       hi2c->ErrorCode |= HAL_I2C_ERROR_TIMEOUT;
 9963              		.loc 1 4147 0 is_stmt 1
 9964 0064 7B68     		ldr	r3, [r7, #4]
 9965 0066 9B6B     		ldr	r3, [r3, #56]
 9966 0068 43F02002 		orr	r2, r3, #32
 9967 006c 7B68     		ldr	r3, [r7, #4]
 9968 006e 9A63     		str	r2, [r3, #56]
4148:Drivers/STM32F1xx_HAL_Driver/Src/stm32f1xx_hal_i2c.c ****       hi2c->State= HAL_I2C_STATE_READY;
 9969              		.loc 1 4148 0
 9970 0070 7B68     		ldr	r3, [r7, #4]
 9971 0072 2022     		movs	r2, #32
 9972 0074 83F83520 		strb	r2, [r3, #53]
4149:Drivers/STM32F1xx_HAL_Driver/Src/stm32f1xx_hal_i2c.c **** 
4150:Drivers/STM32F1xx_HAL_Driver/Src/stm32f1xx_hal_i2c.c ****       /* Process Unlocked */
4151:Drivers/STM32F1xx_HAL_Driver/Src/stm32f1xx_hal_i2c.c ****       __HAL_UNLOCK(hi2c);
 9973              		.loc 1 4151 0
 9974 0078 7B68     		ldr	r3, [r7, #4]
 9975 007a 0022     		movs	r2, #0
 9976 007c 83F83420 		strb	r2, [r3, #52]
4152:Drivers/STM32F1xx_HAL_Driver/Src/stm32f1xx_hal_i2c.c **** 
4153:Drivers/STM32F1xx_HAL_Driver/Src/stm32f1xx_hal_i2c.c ****       return HAL_TIMEOUT;
 9977              		.loc 1 4153 0
 9978 0080 0323     		movs	r3, #3
 9979 0082 07E0     		b	.L510
 9980              	.L508:
4127:Drivers/STM32F1xx_HAL_Driver/Src/stm32f1xx_hal_i2c.c ****   {
 9981              		.loc 1 4127 0
 9982 0084 7B68     		ldr	r3, [r7, #4]
ARM GAS  /var/folders/kh/x4vltyy52lbg7p4pcyglc5080000gp/T//cccbl2Nm.s 			page 249


 9983 0086 1B68     		ldr	r3, [r3]
 9984 0088 5B69     		ldr	r3, [r3, #20]
 9985 008a 03F04003 		and	r3, r3, #64
 9986 008e 002B     		cmp	r3, #0
 9987 0090 C1D0     		beq	.L512
4154:Drivers/STM32F1xx_HAL_Driver/Src/stm32f1xx_hal_i2c.c ****     }
4155:Drivers/STM32F1xx_HAL_Driver/Src/stm32f1xx_hal_i2c.c ****   }
4156:Drivers/STM32F1xx_HAL_Driver/Src/stm32f1xx_hal_i2c.c ****   return HAL_OK;
 9988              		.loc 1 4156 0
 9989 0092 0023     		movs	r3, #0
 9990              	.L510:
4157:Drivers/STM32F1xx_HAL_Driver/Src/stm32f1xx_hal_i2c.c **** }
 9991              		.loc 1 4157 0
 9992 0094 1846     		mov	r0, r3
 9993 0096 1037     		adds	r7, r7, #16
 9994              	.LCFI331:
 9995              		.cfi_def_cfa_offset 8
 9996 0098 BD46     		mov	sp, r7
 9997              	.LCFI332:
 9998              		.cfi_def_cfa_register 13
 9999              		@ sp needed
 10000 009a 80BD     		pop	{r7, pc}
 10001              		.cfi_endproc
 10002              	.LFE126:
 10004              		.section	.text.I2C_IsAcknowledgeFailed,"ax",%progbits
 10005              		.align	2
 10006              		.thumb
 10007              		.thumb_func
 10009              	I2C_IsAcknowledgeFailed:
 10010              	.LFB127:
4158:Drivers/STM32F1xx_HAL_Driver/Src/stm32f1xx_hal_i2c.c **** 
4159:Drivers/STM32F1xx_HAL_Driver/Src/stm32f1xx_hal_i2c.c **** /**
4160:Drivers/STM32F1xx_HAL_Driver/Src/stm32f1xx_hal_i2c.c ****   * @brief  This function handles Acknowledge failed detection during an I2C Communication.
4161:Drivers/STM32F1xx_HAL_Driver/Src/stm32f1xx_hal_i2c.c ****   * @param  hi2c Pointer to a I2C_HandleTypeDef structure that contains
4162:Drivers/STM32F1xx_HAL_Driver/Src/stm32f1xx_hal_i2c.c ****   *                the configuration information for the specified I2C.
4163:Drivers/STM32F1xx_HAL_Driver/Src/stm32f1xx_hal_i2c.c ****   * @retval HAL status
4164:Drivers/STM32F1xx_HAL_Driver/Src/stm32f1xx_hal_i2c.c ****   */
4165:Drivers/STM32F1xx_HAL_Driver/Src/stm32f1xx_hal_i2c.c **** static HAL_StatusTypeDef I2C_IsAcknowledgeFailed(I2C_HandleTypeDef *hi2c)
4166:Drivers/STM32F1xx_HAL_Driver/Src/stm32f1xx_hal_i2c.c **** {
 10011              		.loc 1 4166 0
 10012              		.cfi_startproc
 10013              		@ args = 0, pretend = 0, frame = 8
 10014              		@ frame_needed = 1, uses_anonymous_args = 0
 10015              		@ link register save eliminated.
 10016 0000 80B4     		push	{r7}
 10017              	.LCFI333:
 10018              		.cfi_def_cfa_offset 4
 10019              		.cfi_offset 7, -4
 10020 0002 83B0     		sub	sp, sp, #12
 10021              	.LCFI334:
 10022              		.cfi_def_cfa_offset 16
 10023 0004 00AF     		add	r7, sp, #0
 10024              	.LCFI335:
 10025              		.cfi_def_cfa_register 7
 10026 0006 7860     		str	r0, [r7, #4]
4167:Drivers/STM32F1xx_HAL_Driver/Src/stm32f1xx_hal_i2c.c ****   if(__HAL_I2C_GET_FLAG(hi2c, I2C_FLAG_AF) == SET)
 10027              		.loc 1 4167 0
ARM GAS  /var/folders/kh/x4vltyy52lbg7p4pcyglc5080000gp/T//cccbl2Nm.s 			page 250


 10028 0008 7B68     		ldr	r3, [r7, #4]
 10029 000a 1B68     		ldr	r3, [r3]
 10030 000c 5B69     		ldr	r3, [r3, #20]
 10031 000e 03F48063 		and	r3, r3, #1024
 10032 0012 002B     		cmp	r3, #0
 10033 0014 14D0     		beq	.L514
4168:Drivers/STM32F1xx_HAL_Driver/Src/stm32f1xx_hal_i2c.c ****   {
4169:Drivers/STM32F1xx_HAL_Driver/Src/stm32f1xx_hal_i2c.c ****     /* Clear NACKF Flag */
4170:Drivers/STM32F1xx_HAL_Driver/Src/stm32f1xx_hal_i2c.c ****     __HAL_I2C_CLEAR_FLAG(hi2c, I2C_FLAG_AF);
 10034              		.loc 1 4170 0
 10035 0016 7B68     		ldr	r3, [r7, #4]
 10036 0018 1B68     		ldr	r3, [r3]
 10037 001a 7A68     		ldr	r2, [r7, #4]
 10038 001c 1268     		ldr	r2, [r2]
 10039 001e 5269     		ldr	r2, [r2, #20]
 10040 0020 22F48062 		bic	r2, r2, #1024
 10041 0024 5A61     		str	r2, [r3, #20]
4171:Drivers/STM32F1xx_HAL_Driver/Src/stm32f1xx_hal_i2c.c **** 
4172:Drivers/STM32F1xx_HAL_Driver/Src/stm32f1xx_hal_i2c.c ****     hi2c->ErrorCode = HAL_I2C_ERROR_AF;
 10042              		.loc 1 4172 0
 10043 0026 7B68     		ldr	r3, [r7, #4]
 10044 0028 0422     		movs	r2, #4
 10045 002a 9A63     		str	r2, [r3, #56]
4173:Drivers/STM32F1xx_HAL_Driver/Src/stm32f1xx_hal_i2c.c ****     hi2c->State= HAL_I2C_STATE_READY;
 10046              		.loc 1 4173 0
 10047 002c 7B68     		ldr	r3, [r7, #4]
 10048 002e 2022     		movs	r2, #32
 10049 0030 83F83520 		strb	r2, [r3, #53]
4174:Drivers/STM32F1xx_HAL_Driver/Src/stm32f1xx_hal_i2c.c **** 
4175:Drivers/STM32F1xx_HAL_Driver/Src/stm32f1xx_hal_i2c.c ****     /* Process Unlocked */
4176:Drivers/STM32F1xx_HAL_Driver/Src/stm32f1xx_hal_i2c.c ****     __HAL_UNLOCK(hi2c);
 10050              		.loc 1 4176 0
 10051 0034 7B68     		ldr	r3, [r7, #4]
 10052 0036 0022     		movs	r2, #0
 10053 0038 83F83420 		strb	r2, [r3, #52]
4177:Drivers/STM32F1xx_HAL_Driver/Src/stm32f1xx_hal_i2c.c **** 
4178:Drivers/STM32F1xx_HAL_Driver/Src/stm32f1xx_hal_i2c.c ****     return HAL_ERROR;
 10054              		.loc 1 4178 0
 10055 003c 0123     		movs	r3, #1
 10056 003e 00E0     		b	.L515
 10057              	.L514:
4179:Drivers/STM32F1xx_HAL_Driver/Src/stm32f1xx_hal_i2c.c ****   }
4180:Drivers/STM32F1xx_HAL_Driver/Src/stm32f1xx_hal_i2c.c ****   return HAL_OK;
 10058              		.loc 1 4180 0
 10059 0040 0023     		movs	r3, #0
 10060              	.L515:
4181:Drivers/STM32F1xx_HAL_Driver/Src/stm32f1xx_hal_i2c.c **** }
 10061              		.loc 1 4181 0
 10062 0042 1846     		mov	r0, r3
 10063 0044 0C37     		adds	r7, r7, #12
 10064              	.LCFI336:
 10065              		.cfi_def_cfa_offset 4
 10066 0046 BD46     		mov	sp, r7
 10067              	.LCFI337:
 10068              		.cfi_def_cfa_register 13
 10069              		@ sp needed
 10070 0048 80BC     		pop	{r7}
ARM GAS  /var/folders/kh/x4vltyy52lbg7p4pcyglc5080000gp/T//cccbl2Nm.s 			page 251


 10071              	.LCFI338:
 10072              		.cfi_restore 7
 10073              		.cfi_def_cfa_offset 0
 10074 004a 7047     		bx	lr
 10075              		.cfi_endproc
 10076              	.LFE127:
 10078              		.text
 10079              	.Letext0:
 10080              		.file 3 "/usr/local/gcc_arm/gcc-arm-none-eabi-5_4-2016q2/arm-none-eabi/include/machine/_default_ty
 10081              		.file 4 "/usr/local/gcc_arm/gcc-arm-none-eabi-5_4-2016q2/arm-none-eabi/include/sys/_stdint.h"
 10082              		.file 5 "Drivers/CMSIS/Device/ST/STM32F1xx/Include/stm32f103xb.h"
 10083              		.file 6 "Drivers/CMSIS/Device/ST/STM32F1xx/Include/stm32f1xx.h"
 10084              		.file 7 "Drivers/STM32F1xx_HAL_Driver/Inc/stm32f1xx_hal_def.h"
 10085              		.file 8 "Drivers/STM32F1xx_HAL_Driver/Inc/stm32f1xx_hal_dma.h"
 10086              		.file 9 "Drivers/STM32F1xx_HAL_Driver/Inc/stm32f1xx_hal_i2c.h"
 10087              		.file 10 "Drivers/CMSIS/Include/core_cm3.h"
ARM GAS  /var/folders/kh/x4vltyy52lbg7p4pcyglc5080000gp/T//cccbl2Nm.s 			page 252


DEFINED SYMBOLS
                            *ABS*:0000000000000000 stm32f1xx_hal_i2c.c
/var/folders/kh/x4vltyy52lbg7p4pcyglc5080000gp/T//cccbl2Nm.s:20     .text.HAL_I2C_Init:0000000000000000 $t
/var/folders/kh/x4vltyy52lbg7p4pcyglc5080000gp/T//cccbl2Nm.s:25     .text.HAL_I2C_Init:0000000000000000 HAL_I2C_Init
/var/folders/kh/x4vltyy52lbg7p4pcyglc5080000gp/T//cccbl2Nm.s:285    .text.HAL_I2C_MspInit:0000000000000000 HAL_I2C_MspInit
/var/folders/kh/x4vltyy52lbg7p4pcyglc5080000gp/T//cccbl2Nm.s:9058   .text.I2C_Configure_Speed:0000000000000000 I2C_Configure_Speed
/var/folders/kh/x4vltyy52lbg7p4pcyglc5080000gp/T//cccbl2Nm.s:194    .text.HAL_I2C_Init:0000000000000100 $d
/var/folders/kh/x4vltyy52lbg7p4pcyglc5080000gp/T//cccbl2Nm.s:201    .text.HAL_I2C_DeInit:0000000000000000 $t
/var/folders/kh/x4vltyy52lbg7p4pcyglc5080000gp/T//cccbl2Nm.s:206    .text.HAL_I2C_DeInit:0000000000000000 HAL_I2C_DeInit
/var/folders/kh/x4vltyy52lbg7p4pcyglc5080000gp/T//cccbl2Nm.s:326    .text.HAL_I2C_MspDeInit:0000000000000000 HAL_I2C_MspDeInit
/var/folders/kh/x4vltyy52lbg7p4pcyglc5080000gp/T//cccbl2Nm.s:280    .text.HAL_I2C_MspInit:0000000000000000 $t
/var/folders/kh/x4vltyy52lbg7p4pcyglc5080000gp/T//cccbl2Nm.s:321    .text.HAL_I2C_MspDeInit:0000000000000000 $t
/var/folders/kh/x4vltyy52lbg7p4pcyglc5080000gp/T//cccbl2Nm.s:362    .text.HAL_I2C_Master_Transmit:0000000000000000 $t
/var/folders/kh/x4vltyy52lbg7p4pcyglc5080000gp/T//cccbl2Nm.s:367    .text.HAL_I2C_Master_Transmit:0000000000000000 HAL_I2C_Master_Transmit
/var/folders/kh/x4vltyy52lbg7p4pcyglc5080000gp/T//cccbl2Nm.s:9249   .text.I2C_WaitOnFlagUntilTimeout:0000000000000000 I2C_WaitOnFlagUntilTimeout
/var/folders/kh/x4vltyy52lbg7p4pcyglc5080000gp/T//cccbl2Nm.s:7582   .text.I2C_MasterRequestWrite:0000000000000000 I2C_MasterRequestWrite
/var/folders/kh/x4vltyy52lbg7p4pcyglc5080000gp/T//cccbl2Nm.s:9598   .text.I2C_WaitOnTXEFlagUntilTimeout:0000000000000000 I2C_WaitOnTXEFlagUntilTimeout
/var/folders/kh/x4vltyy52lbg7p4pcyglc5080000gp/T//cccbl2Nm.s:9696   .text.I2C_WaitOnBTFFlagUntilTimeout:0000000000000000 I2C_WaitOnBTFFlagUntilTimeout
/var/folders/kh/x4vltyy52lbg7p4pcyglc5080000gp/T//cccbl2Nm.s:633    .text.HAL_I2C_Master_Transmit:0000000000000198 $d
/var/folders/kh/x4vltyy52lbg7p4pcyglc5080000gp/T//cccbl2Nm.s:638    .text.HAL_I2C_Master_Receive:0000000000000000 $t
/var/folders/kh/x4vltyy52lbg7p4pcyglc5080000gp/T//cccbl2Nm.s:643    .text.HAL_I2C_Master_Receive:0000000000000000 HAL_I2C_Master_Receive
/var/folders/kh/x4vltyy52lbg7p4pcyglc5080000gp/T//cccbl2Nm.s:7725   .text.I2C_MasterRequestRead:0000000000000000 I2C_MasterRequestRead
/var/folders/kh/x4vltyy52lbg7p4pcyglc5080000gp/T//cccbl2Nm.s:9891   .text.I2C_WaitOnRXNEFlagUntilTimeout:0000000000000000 I2C_WaitOnRXNEFlagUntilTimeout
/var/folders/kh/x4vltyy52lbg7p4pcyglc5080000gp/T//cccbl2Nm.s:1123   .text.HAL_I2C_Master_Receive:0000000000000290 $d
/var/folders/kh/x4vltyy52lbg7p4pcyglc5080000gp/T//cccbl2Nm.s:1127   .text.HAL_I2C_Master_Receive:0000000000000298 $t
/var/folders/kh/x4vltyy52lbg7p4pcyglc5080000gp/T//cccbl2Nm.s:1217   .text.HAL_I2C_Slave_Transmit:0000000000000000 $t
/var/folders/kh/x4vltyy52lbg7p4pcyglc5080000gp/T//cccbl2Nm.s:1222   .text.HAL_I2C_Slave_Transmit:0000000000000000 HAL_I2C_Slave_Transmit
/var/folders/kh/x4vltyy52lbg7p4pcyglc5080000gp/T//cccbl2Nm.s:1504   .text.HAL_I2C_Slave_Transmit:00000000000001bc $d
/var/folders/kh/x4vltyy52lbg7p4pcyglc5080000gp/T//cccbl2Nm.s:1510   .text.HAL_I2C_Slave_Receive:0000000000000000 $t
/var/folders/kh/x4vltyy52lbg7p4pcyglc5080000gp/T//cccbl2Nm.s:1515   .text.HAL_I2C_Slave_Receive:0000000000000000 HAL_I2C_Slave_Receive
/var/folders/kh/x4vltyy52lbg7p4pcyglc5080000gp/T//cccbl2Nm.s:9794   .text.I2C_WaitOnSTOPFlagUntilTimeout:0000000000000000 I2C_WaitOnSTOPFlagUntilTimeout
/var/folders/kh/x4vltyy52lbg7p4pcyglc5080000gp/T//cccbl2Nm.s:1792   .text.HAL_I2C_Slave_Receive:00000000000001b0 $d
/var/folders/kh/x4vltyy52lbg7p4pcyglc5080000gp/T//cccbl2Nm.s:1798   .text.HAL_I2C_Master_Transmit_IT:0000000000000000 $t
/var/folders/kh/x4vltyy52lbg7p4pcyglc5080000gp/T//cccbl2Nm.s:1803   .text.HAL_I2C_Master_Transmit_IT:0000000000000000 HAL_I2C_Master_Transmit_IT
/var/folders/kh/x4vltyy52lbg7p4pcyglc5080000gp/T//cccbl2Nm.s:1978   .text.HAL_I2C_Master_Transmit_IT:0000000000000100 $d
/var/folders/kh/x4vltyy52lbg7p4pcyglc5080000gp/T//cccbl2Nm.s:1983   .text.HAL_I2C_Master_Receive_IT:0000000000000000 $t
/var/folders/kh/x4vltyy52lbg7p4pcyglc5080000gp/T//cccbl2Nm.s:1988   .text.HAL_I2C_Master_Receive_IT:0000000000000000 HAL_I2C_Master_Receive_IT
/var/folders/kh/x4vltyy52lbg7p4pcyglc5080000gp/T//cccbl2Nm.s:2244   .text.HAL_I2C_Master_Receive_IT:0000000000000190 $d
/var/folders/kh/x4vltyy52lbg7p4pcyglc5080000gp/T//cccbl2Nm.s:2249   .text.HAL_I2C_Slave_Transmit_IT:0000000000000000 $t
/var/folders/kh/x4vltyy52lbg7p4pcyglc5080000gp/T//cccbl2Nm.s:2254   .text.HAL_I2C_Slave_Transmit_IT:0000000000000000 HAL_I2C_Slave_Transmit_IT
/var/folders/kh/x4vltyy52lbg7p4pcyglc5080000gp/T//cccbl2Nm.s:2392   .text.HAL_I2C_Slave_Transmit_IT:00000000000000c8 $d
/var/folders/kh/x4vltyy52lbg7p4pcyglc5080000gp/T//cccbl2Nm.s:2397   .text.HAL_I2C_Slave_Receive_IT:0000000000000000 $t
/var/folders/kh/x4vltyy52lbg7p4pcyglc5080000gp/T//cccbl2Nm.s:2402   .text.HAL_I2C_Slave_Receive_IT:0000000000000000 HAL_I2C_Slave_Receive_IT
/var/folders/kh/x4vltyy52lbg7p4pcyglc5080000gp/T//cccbl2Nm.s:2540   .text.HAL_I2C_Slave_Receive_IT:00000000000000c8 $d
/var/folders/kh/x4vltyy52lbg7p4pcyglc5080000gp/T//cccbl2Nm.s:2545   .text.HAL_I2C_Master_Transmit_DMA:0000000000000000 $t
/var/folders/kh/x4vltyy52lbg7p4pcyglc5080000gp/T//cccbl2Nm.s:2550   .text.HAL_I2C_Master_Transmit_DMA:0000000000000000 HAL_I2C_Master_Transmit_DMA
/var/folders/kh/x4vltyy52lbg7p4pcyglc5080000gp/T//cccbl2Nm.s:2745   .text.HAL_I2C_Master_Transmit_DMA:0000000000000124 $d
/var/folders/kh/x4vltyy52lbg7p4pcyglc5080000gp/T//cccbl2Nm.s:8421   .text.I2C_DMAMasterTransmitCplt:0000000000000000 I2C_DMAMasterTransmitCplt
/var/folders/kh/x4vltyy52lbg7p4pcyglc5080000gp/T//cccbl2Nm.s:9180   .text.I2C_DMAError:0000000000000000 I2C_DMAError
/var/folders/kh/x4vltyy52lbg7p4pcyglc5080000gp/T//cccbl2Nm.s:2752   .text.HAL_I2C_Master_Receive_DMA:0000000000000000 $t
/var/folders/kh/x4vltyy52lbg7p4pcyglc5080000gp/T//cccbl2Nm.s:2757   .text.HAL_I2C_Master_Receive_DMA:0000000000000000 HAL_I2C_Master_Receive_DMA
/var/folders/kh/x4vltyy52lbg7p4pcyglc5080000gp/T//cccbl2Nm.s:2975   .text.HAL_I2C_Master_Receive_DMA:0000000000000150 $d
/var/folders/kh/x4vltyy52lbg7p4pcyglc5080000gp/T//cccbl2Nm.s:8631   .text.I2C_DMAMasterReceiveCplt:0000000000000000 I2C_DMAMasterReceiveCplt
/var/folders/kh/x4vltyy52lbg7p4pcyglc5080000gp/T//cccbl2Nm.s:2982   .text.HAL_I2C_Slave_Transmit_DMA:0000000000000000 $t
/var/folders/kh/x4vltyy52lbg7p4pcyglc5080000gp/T//cccbl2Nm.s:2987   .text.HAL_I2C_Slave_Transmit_DMA:0000000000000000 HAL_I2C_Slave_Transmit_DMA
/var/folders/kh/x4vltyy52lbg7p4pcyglc5080000gp/T//cccbl2Nm.s:3215   .text.HAL_I2C_Slave_Transmit_DMA:0000000000000160 $d
/var/folders/kh/x4vltyy52lbg7p4pcyglc5080000gp/T//cccbl2Nm.s:8524   .text.I2C_DMASlaveTransmitCplt:0000000000000000 I2C_DMASlaveTransmitCplt
ARM GAS  /var/folders/kh/x4vltyy52lbg7p4pcyglc5080000gp/T//cccbl2Nm.s 			page 253


/var/folders/kh/x4vltyy52lbg7p4pcyglc5080000gp/T//cccbl2Nm.s:3223   .text.HAL_I2C_Slave_Receive_DMA:0000000000000000 $t
/var/folders/kh/x4vltyy52lbg7p4pcyglc5080000gp/T//cccbl2Nm.s:3228   .text.HAL_I2C_Slave_Receive_DMA:0000000000000000 HAL_I2C_Slave_Receive_DMA
/var/folders/kh/x4vltyy52lbg7p4pcyglc5080000gp/T//cccbl2Nm.s:3411   .text.HAL_I2C_Slave_Receive_DMA:0000000000000114 $d
/var/folders/kh/x4vltyy52lbg7p4pcyglc5080000gp/T//cccbl2Nm.s:8730   .text.I2C_DMASlaveReceiveCplt:0000000000000000 I2C_DMASlaveReceiveCplt
/var/folders/kh/x4vltyy52lbg7p4pcyglc5080000gp/T//cccbl2Nm.s:3419   .text.HAL_I2C_Mem_Write:0000000000000000 $t
/var/folders/kh/x4vltyy52lbg7p4pcyglc5080000gp/T//cccbl2Nm.s:3424   .text.HAL_I2C_Mem_Write:0000000000000000 HAL_I2C_Mem_Write
/var/folders/kh/x4vltyy52lbg7p4pcyglc5080000gp/T//cccbl2Nm.s:7943   .text.I2C_RequestMemoryWrite:0000000000000000 I2C_RequestMemoryWrite
/var/folders/kh/x4vltyy52lbg7p4pcyglc5080000gp/T//cccbl2Nm.s:3685   .text.HAL_I2C_Mem_Write:0000000000000198 $d
/var/folders/kh/x4vltyy52lbg7p4pcyglc5080000gp/T//cccbl2Nm.s:3690   .text.HAL_I2C_Mem_Read:0000000000000000 $t
/var/folders/kh/x4vltyy52lbg7p4pcyglc5080000gp/T//cccbl2Nm.s:3695   .text.HAL_I2C_Mem_Read:0000000000000000 HAL_I2C_Mem_Read
/var/folders/kh/x4vltyy52lbg7p4pcyglc5080000gp/T//cccbl2Nm.s:8139   .text.I2C_RequestMemoryRead:0000000000000000 I2C_RequestMemoryRead
/var/folders/kh/x4vltyy52lbg7p4pcyglc5080000gp/T//cccbl2Nm.s:4180   .text.HAL_I2C_Mem_Read:000000000000029c $d
/var/folders/kh/x4vltyy52lbg7p4pcyglc5080000gp/T//cccbl2Nm.s:4184   .text.HAL_I2C_Mem_Read:00000000000002a4 $t
/var/folders/kh/x4vltyy52lbg7p4pcyglc5080000gp/T//cccbl2Nm.s:4274   .text.HAL_I2C_Mem_Write_IT:0000000000000000 $t
/var/folders/kh/x4vltyy52lbg7p4pcyglc5080000gp/T//cccbl2Nm.s:4279   .text.HAL_I2C_Mem_Write_IT:0000000000000000 HAL_I2C_Mem_Write_IT
/var/folders/kh/x4vltyy52lbg7p4pcyglc5080000gp/T//cccbl2Nm.s:4448   .text.HAL_I2C_Mem_Write_IT:00000000000000fc $d
/var/folders/kh/x4vltyy52lbg7p4pcyglc5080000gp/T//cccbl2Nm.s:4453   .text.HAL_I2C_Mem_Read_IT:0000000000000000 $t
/var/folders/kh/x4vltyy52lbg7p4pcyglc5080000gp/T//cccbl2Nm.s:4458   .text.HAL_I2C_Mem_Read_IT:0000000000000000 HAL_I2C_Mem_Read_IT
/var/folders/kh/x4vltyy52lbg7p4pcyglc5080000gp/T//cccbl2Nm.s:4720   .text.HAL_I2C_Mem_Read_IT:000000000000019c $d
/var/folders/kh/x4vltyy52lbg7p4pcyglc5080000gp/T//cccbl2Nm.s:4725   .text.HAL_I2C_Mem_Write_DMA:0000000000000000 $t
/var/folders/kh/x4vltyy52lbg7p4pcyglc5080000gp/T//cccbl2Nm.s:4730   .text.HAL_I2C_Mem_Write_DMA:0000000000000000 HAL_I2C_Mem_Write_DMA
/var/folders/kh/x4vltyy52lbg7p4pcyglc5080000gp/T//cccbl2Nm.s:4919   .text.HAL_I2C_Mem_Write_DMA:0000000000000120 $d
/var/folders/kh/x4vltyy52lbg7p4pcyglc5080000gp/T//cccbl2Nm.s:8856   .text.I2C_DMAMemTransmitCplt:0000000000000000 I2C_DMAMemTransmitCplt
/var/folders/kh/x4vltyy52lbg7p4pcyglc5080000gp/T//cccbl2Nm.s:4926   .text.HAL_I2C_Mem_Read_DMA:0000000000000000 $t
/var/folders/kh/x4vltyy52lbg7p4pcyglc5080000gp/T//cccbl2Nm.s:4931   .text.HAL_I2C_Mem_Read_DMA:0000000000000000 HAL_I2C_Mem_Read_DMA
/var/folders/kh/x4vltyy52lbg7p4pcyglc5080000gp/T//cccbl2Nm.s:5155   .text.HAL_I2C_Mem_Read_DMA:000000000000015c $d
/var/folders/kh/x4vltyy52lbg7p4pcyglc5080000gp/T//cccbl2Nm.s:8959   .text.I2C_DMAMemReceiveCplt:0000000000000000 I2C_DMAMemReceiveCplt
/var/folders/kh/x4vltyy52lbg7p4pcyglc5080000gp/T//cccbl2Nm.s:5162   .text.HAL_I2C_IsDeviceReady:0000000000000000 $t
/var/folders/kh/x4vltyy52lbg7p4pcyglc5080000gp/T//cccbl2Nm.s:5167   .text.HAL_I2C_IsDeviceReady:0000000000000000 HAL_I2C_IsDeviceReady
/var/folders/kh/x4vltyy52lbg7p4pcyglc5080000gp/T//cccbl2Nm.s:5489   .text.HAL_I2C_IsDeviceReady:0000000000000220 $d
/var/folders/kh/x4vltyy52lbg7p4pcyglc5080000gp/T//cccbl2Nm.s:5494   .text.HAL_I2C_EV_IRQHandler:0000000000000000 $t
/var/folders/kh/x4vltyy52lbg7p4pcyglc5080000gp/T//cccbl2Nm.s:5499   .text.HAL_I2C_EV_IRQHandler:0000000000000000 HAL_I2C_EV_IRQHandler
/var/folders/kh/x4vltyy52lbg7p4pcyglc5080000gp/T//cccbl2Nm.s:6615   .text.I2C_MasterTransmit_TXE:0000000000000000 I2C_MasterTransmit_TXE
/var/folders/kh/x4vltyy52lbg7p4pcyglc5080000gp/T//cccbl2Nm.s:6692   .text.I2C_MasterTransmit_BTF:0000000000000000 I2C_MasterTransmit_BTF
/var/folders/kh/x4vltyy52lbg7p4pcyglc5080000gp/T//cccbl2Nm.s:6795   .text.I2C_MasterReceive_RXNE:0000000000000000 I2C_MasterReceive_RXNE
/var/folders/kh/x4vltyy52lbg7p4pcyglc5080000gp/T//cccbl2Nm.s:6935   .text.I2C_MasterReceive_BTF:0000000000000000 I2C_MasterReceive_BTF
/var/folders/kh/x4vltyy52lbg7p4pcyglc5080000gp/T//cccbl2Nm.s:7382   .text.I2C_Slave_ADDR:0000000000000000 I2C_Slave_ADDR
/var/folders/kh/x4vltyy52lbg7p4pcyglc5080000gp/T//cccbl2Nm.s:7436   .text.I2C_Slave_STOPF:0000000000000000 I2C_Slave_STOPF
/var/folders/kh/x4vltyy52lbg7p4pcyglc5080000gp/T//cccbl2Nm.s:7112   .text.I2C_SlaveTransmit_TXE:0000000000000000 I2C_SlaveTransmit_TXE
/var/folders/kh/x4vltyy52lbg7p4pcyglc5080000gp/T//cccbl2Nm.s:7179   .text.I2C_SlaveTransmit_BTF:0000000000000000 I2C_SlaveTransmit_BTF
/var/folders/kh/x4vltyy52lbg7p4pcyglc5080000gp/T//cccbl2Nm.s:7246   .text.I2C_SlaveReceive_RXNE:0000000000000000 I2C_SlaveReceive_RXNE
/var/folders/kh/x4vltyy52lbg7p4pcyglc5080000gp/T//cccbl2Nm.s:7314   .text.I2C_SlaveReceive_BTF:0000000000000000 I2C_SlaveReceive_BTF
/var/folders/kh/x4vltyy52lbg7p4pcyglc5080000gp/T//cccbl2Nm.s:5942   .text.HAL_I2C_ER_IRQHandler:0000000000000000 $t
/var/folders/kh/x4vltyy52lbg7p4pcyglc5080000gp/T//cccbl2Nm.s:5947   .text.HAL_I2C_ER_IRQHandler:0000000000000000 HAL_I2C_ER_IRQHandler
/var/folders/kh/x4vltyy52lbg7p4pcyglc5080000gp/T//cccbl2Nm.s:7513   .text.I2C_Slave_AF:0000000000000000 I2C_Slave_AF
/var/folders/kh/x4vltyy52lbg7p4pcyglc5080000gp/T//cccbl2Nm.s:6486   .text.HAL_I2C_ErrorCallback:0000000000000000 HAL_I2C_ErrorCallback
/var/folders/kh/x4vltyy52lbg7p4pcyglc5080000gp/T//cccbl2Nm.s:6235   .text.HAL_I2C_MasterTxCpltCallback:0000000000000000 $t
/var/folders/kh/x4vltyy52lbg7p4pcyglc5080000gp/T//cccbl2Nm.s:6240   .text.HAL_I2C_MasterTxCpltCallback:0000000000000000 HAL_I2C_MasterTxCpltCallback
/var/folders/kh/x4vltyy52lbg7p4pcyglc5080000gp/T//cccbl2Nm.s:6276   .text.HAL_I2C_MasterRxCpltCallback:0000000000000000 $t
/var/folders/kh/x4vltyy52lbg7p4pcyglc5080000gp/T//cccbl2Nm.s:6281   .text.HAL_I2C_MasterRxCpltCallback:0000000000000000 HAL_I2C_MasterRxCpltCallback
/var/folders/kh/x4vltyy52lbg7p4pcyglc5080000gp/T//cccbl2Nm.s:6317   .text.HAL_I2C_SlaveTxCpltCallback:0000000000000000 $t
/var/folders/kh/x4vltyy52lbg7p4pcyglc5080000gp/T//cccbl2Nm.s:6322   .text.HAL_I2C_SlaveTxCpltCallback:0000000000000000 HAL_I2C_SlaveTxCpltCallback
/var/folders/kh/x4vltyy52lbg7p4pcyglc5080000gp/T//cccbl2Nm.s:6358   .text.HAL_I2C_SlaveRxCpltCallback:0000000000000000 $t
/var/folders/kh/x4vltyy52lbg7p4pcyglc5080000gp/T//cccbl2Nm.s:6363   .text.HAL_I2C_SlaveRxCpltCallback:0000000000000000 HAL_I2C_SlaveRxCpltCallback
/var/folders/kh/x4vltyy52lbg7p4pcyglc5080000gp/T//cccbl2Nm.s:6399   .text.HAL_I2C_MemTxCpltCallback:0000000000000000 $t
/var/folders/kh/x4vltyy52lbg7p4pcyglc5080000gp/T//cccbl2Nm.s:6404   .text.HAL_I2C_MemTxCpltCallback:0000000000000000 HAL_I2C_MemTxCpltCallback
/var/folders/kh/x4vltyy52lbg7p4pcyglc5080000gp/T//cccbl2Nm.s:6440   .text.HAL_I2C_MemRxCpltCallback:0000000000000000 $t
ARM GAS  /var/folders/kh/x4vltyy52lbg7p4pcyglc5080000gp/T//cccbl2Nm.s 			page 254


/var/folders/kh/x4vltyy52lbg7p4pcyglc5080000gp/T//cccbl2Nm.s:6445   .text.HAL_I2C_MemRxCpltCallback:0000000000000000 HAL_I2C_MemRxCpltCallback
/var/folders/kh/x4vltyy52lbg7p4pcyglc5080000gp/T//cccbl2Nm.s:6481   .text.HAL_I2C_ErrorCallback:0000000000000000 $t
/var/folders/kh/x4vltyy52lbg7p4pcyglc5080000gp/T//cccbl2Nm.s:6522   .text.HAL_I2C_GetState:0000000000000000 $t
/var/folders/kh/x4vltyy52lbg7p4pcyglc5080000gp/T//cccbl2Nm.s:6527   .text.HAL_I2C_GetState:0000000000000000 HAL_I2C_GetState
/var/folders/kh/x4vltyy52lbg7p4pcyglc5080000gp/T//cccbl2Nm.s:6567   .text.HAL_I2C_GetError:0000000000000000 $t
/var/folders/kh/x4vltyy52lbg7p4pcyglc5080000gp/T//cccbl2Nm.s:6572   .text.HAL_I2C_GetError:0000000000000000 HAL_I2C_GetError
/var/folders/kh/x4vltyy52lbg7p4pcyglc5080000gp/T//cccbl2Nm.s:6611   .text.I2C_MasterTransmit_TXE:0000000000000000 $t
/var/folders/kh/x4vltyy52lbg7p4pcyglc5080000gp/T//cccbl2Nm.s:6688   .text.I2C_MasterTransmit_BTF:0000000000000000 $t
/var/folders/kh/x4vltyy52lbg7p4pcyglc5080000gp/T//cccbl2Nm.s:6791   .text.I2C_MasterReceive_RXNE:0000000000000000 $t
/var/folders/kh/x4vltyy52lbg7p4pcyglc5080000gp/T//cccbl2Nm.s:6931   .text.I2C_MasterReceive_BTF:0000000000000000 $t
/var/folders/kh/x4vltyy52lbg7p4pcyglc5080000gp/T//cccbl2Nm.s:7108   .text.I2C_SlaveTransmit_TXE:0000000000000000 $t
/var/folders/kh/x4vltyy52lbg7p4pcyglc5080000gp/T//cccbl2Nm.s:7175   .text.I2C_SlaveTransmit_BTF:0000000000000000 $t
/var/folders/kh/x4vltyy52lbg7p4pcyglc5080000gp/T//cccbl2Nm.s:7242   .text.I2C_SlaveReceive_RXNE:0000000000000000 $t
/var/folders/kh/x4vltyy52lbg7p4pcyglc5080000gp/T//cccbl2Nm.s:7310   .text.I2C_SlaveReceive_BTF:0000000000000000 $t
/var/folders/kh/x4vltyy52lbg7p4pcyglc5080000gp/T//cccbl2Nm.s:7378   .text.I2C_Slave_ADDR:0000000000000000 $t
/var/folders/kh/x4vltyy52lbg7p4pcyglc5080000gp/T//cccbl2Nm.s:7432   .text.I2C_Slave_STOPF:0000000000000000 $t
/var/folders/kh/x4vltyy52lbg7p4pcyglc5080000gp/T//cccbl2Nm.s:7509   .text.I2C_Slave_AF:0000000000000000 $t
/var/folders/kh/x4vltyy52lbg7p4pcyglc5080000gp/T//cccbl2Nm.s:7578   .text.I2C_MasterRequestWrite:0000000000000000 $t
/var/folders/kh/x4vltyy52lbg7p4pcyglc5080000gp/T//cccbl2Nm.s:9442   .text.I2C_WaitOnMasterAddressFlagUntilTimeout:0000000000000000 I2C_WaitOnMasterAddressFlagUntilTimeout
/var/folders/kh/x4vltyy52lbg7p4pcyglc5080000gp/T//cccbl2Nm.s:7715   .text.I2C_MasterRequestWrite:00000000000000c0 $d
/var/folders/kh/x4vltyy52lbg7p4pcyglc5080000gp/T//cccbl2Nm.s:7721   .text.I2C_MasterRequestRead:0000000000000000 $t
/var/folders/kh/x4vltyy52lbg7p4pcyglc5080000gp/T//cccbl2Nm.s:7933   .text.I2C_MasterRequestRead:0000000000000144 $d
/var/folders/kh/x4vltyy52lbg7p4pcyglc5080000gp/T//cccbl2Nm.s:7939   .text.I2C_RequestMemoryWrite:0000000000000000 $t
/var/folders/kh/x4vltyy52lbg7p4pcyglc5080000gp/T//cccbl2Nm.s:8130   .text.I2C_RequestMemoryWrite:0000000000000114 $d
/var/folders/kh/x4vltyy52lbg7p4pcyglc5080000gp/T//cccbl2Nm.s:8135   .text.I2C_RequestMemoryRead:0000000000000000 $t
/var/folders/kh/x4vltyy52lbg7p4pcyglc5080000gp/T//cccbl2Nm.s:8412   .text.I2C_RequestMemoryRead:00000000000001a8 $d
/var/folders/kh/x4vltyy52lbg7p4pcyglc5080000gp/T//cccbl2Nm.s:8417   .text.I2C_DMAMasterTransmitCplt:0000000000000000 $t
/var/folders/kh/x4vltyy52lbg7p4pcyglc5080000gp/T//cccbl2Nm.s:8515   .text.I2C_DMAMasterTransmitCplt:0000000000000080 $d
/var/folders/kh/x4vltyy52lbg7p4pcyglc5080000gp/T//cccbl2Nm.s:8520   .text.I2C_DMASlaveTransmitCplt:0000000000000000 $t
/var/folders/kh/x4vltyy52lbg7p4pcyglc5080000gp/T//cccbl2Nm.s:8627   .text.I2C_DMAMasterReceiveCplt:0000000000000000 $t
/var/folders/kh/x4vltyy52lbg7p4pcyglc5080000gp/T//cccbl2Nm.s:8726   .text.I2C_DMASlaveReceiveCplt:0000000000000000 $t
/var/folders/kh/x4vltyy52lbg7p4pcyglc5080000gp/T//cccbl2Nm.s:8852   .text.I2C_DMAMemTransmitCplt:0000000000000000 $t
/var/folders/kh/x4vltyy52lbg7p4pcyglc5080000gp/T//cccbl2Nm.s:8950   .text.I2C_DMAMemTransmitCplt:0000000000000080 $d
/var/folders/kh/x4vltyy52lbg7p4pcyglc5080000gp/T//cccbl2Nm.s:8955   .text.I2C_DMAMemReceiveCplt:0000000000000000 $t
/var/folders/kh/x4vltyy52lbg7p4pcyglc5080000gp/T//cccbl2Nm.s:9054   .text.I2C_Configure_Speed:0000000000000000 $t
/var/folders/kh/x4vltyy52lbg7p4pcyglc5080000gp/T//cccbl2Nm.s:9171   .text.I2C_Configure_Speed:0000000000000098 $d
/var/folders/kh/x4vltyy52lbg7p4pcyglc5080000gp/T//cccbl2Nm.s:9176   .text.I2C_DMAError:0000000000000000 $t
/var/folders/kh/x4vltyy52lbg7p4pcyglc5080000gp/T//cccbl2Nm.s:9245   .text.I2C_WaitOnFlagUntilTimeout:0000000000000000 $t
/var/folders/kh/x4vltyy52lbg7p4pcyglc5080000gp/T//cccbl2Nm.s:9438   .text.I2C_WaitOnMasterAddressFlagUntilTimeout:0000000000000000 $t
/var/folders/kh/x4vltyy52lbg7p4pcyglc5080000gp/T//cccbl2Nm.s:9594   .text.I2C_WaitOnTXEFlagUntilTimeout:0000000000000000 $t
/var/folders/kh/x4vltyy52lbg7p4pcyglc5080000gp/T//cccbl2Nm.s:10009  .text.I2C_IsAcknowledgeFailed:0000000000000000 I2C_IsAcknowledgeFailed
/var/folders/kh/x4vltyy52lbg7p4pcyglc5080000gp/T//cccbl2Nm.s:9692   .text.I2C_WaitOnBTFFlagUntilTimeout:0000000000000000 $t
/var/folders/kh/x4vltyy52lbg7p4pcyglc5080000gp/T//cccbl2Nm.s:9790   .text.I2C_WaitOnSTOPFlagUntilTimeout:0000000000000000 $t
/var/folders/kh/x4vltyy52lbg7p4pcyglc5080000gp/T//cccbl2Nm.s:9887   .text.I2C_WaitOnRXNEFlagUntilTimeout:0000000000000000 $t
/var/folders/kh/x4vltyy52lbg7p4pcyglc5080000gp/T//cccbl2Nm.s:10005  .text.I2C_IsAcknowledgeFailed:0000000000000000 $t
                     .debug_frame:0000000000000010 $d

UNDEFINED SYMBOLS
HAL_RCC_GetPCLK1Freq
HAL_DMA_Start_IT
HAL_GetTick
