ARM GAS  /var/folders/kh/x4vltyy52lbg7p4pcyglc5080000gp/T//cccbl2Nm.s 			page 1


   1              		.syntax unified
   2              		.cpu cortex-m3
   3              		.fpu softvfp
   4              		.eabi_attribute 20, 1
   5              		.eabi_attribute 21, 1
   6              		.eabi_attribute 23, 3
   7              		.eabi_attribute 24, 1
   8              		.eabi_attribute 25, 1
   9              		.eabi_attribute 26, 1
  10              		.eabi_attribute 30, 6
  11              		.eabi_attribute 34, 1
  12              		.eabi_attribute 18, 4
  13              		.thumb
  14              		.syntax unified
  15              		.file	"stm32f1xx_hal_i2c.c"
  16              		.text
  17              	.Ltext0:
  18              		.cfi_sections	.debug_frame
  19              		.section	.text.HAL_I2C_Init,"ax",%progbits
  20              		.align	2
  21              		.global	HAL_I2C_Init
  22              		.thumb
  23              		.thumb_func
  25              	HAL_I2C_Init:
  26              	.LFB64:
  27              		.file 1 "Drivers/STM32F1xx_HAL_Driver/Src/stm32f1xx_hal_i2c.c"
   1:Drivers/STM32F1xx_HAL_Driver/Src/stm32f1xx_hal_i2c.c **** /**
   2:Drivers/STM32F1xx_HAL_Driver/Src/stm32f1xx_hal_i2c.c ****   ******************************************************************************
   3:Drivers/STM32F1xx_HAL_Driver/Src/stm32f1xx_hal_i2c.c ****   * @file    stm32f1xx_hal_i2c.c
   4:Drivers/STM32F1xx_HAL_Driver/Src/stm32f1xx_hal_i2c.c ****   * @author  MCD Application Team
   5:Drivers/STM32F1xx_HAL_Driver/Src/stm32f1xx_hal_i2c.c ****   * @version V1.0.4
   6:Drivers/STM32F1xx_HAL_Driver/Src/stm32f1xx_hal_i2c.c ****   * @date    29-April-2016
   7:Drivers/STM32F1xx_HAL_Driver/Src/stm32f1xx_hal_i2c.c ****   * @brief   I2C HAL module driver.
   8:Drivers/STM32F1xx_HAL_Driver/Src/stm32f1xx_hal_i2c.c ****   *          This file provides firmware functions to manage the following
   9:Drivers/STM32F1xx_HAL_Driver/Src/stm32f1xx_hal_i2c.c ****   *          functionalities of the Inter Integrated Circuit (I2C) peripheral:
  10:Drivers/STM32F1xx_HAL_Driver/Src/stm32f1xx_hal_i2c.c ****   *           + Initialization and de-initialization functions
  11:Drivers/STM32F1xx_HAL_Driver/Src/stm32f1xx_hal_i2c.c ****   *           + IO operation functions
  12:Drivers/STM32F1xx_HAL_Driver/Src/stm32f1xx_hal_i2c.c ****   *           + Peripheral Control functions
  13:Drivers/STM32F1xx_HAL_Driver/Src/stm32f1xx_hal_i2c.c ****   *           + Peripheral State functions
  14:Drivers/STM32F1xx_HAL_Driver/Src/stm32f1xx_hal_i2c.c ****   *         
  15:Drivers/STM32F1xx_HAL_Driver/Src/stm32f1xx_hal_i2c.c ****   @verbatim
  16:Drivers/STM32F1xx_HAL_Driver/Src/stm32f1xx_hal_i2c.c ****   ==============================================================================
  17:Drivers/STM32F1xx_HAL_Driver/Src/stm32f1xx_hal_i2c.c ****                         ##### How to use this driver #####
  18:Drivers/STM32F1xx_HAL_Driver/Src/stm32f1xx_hal_i2c.c ****   ==============================================================================
  19:Drivers/STM32F1xx_HAL_Driver/Src/stm32f1xx_hal_i2c.c ****   [..]
  20:Drivers/STM32F1xx_HAL_Driver/Src/stm32f1xx_hal_i2c.c ****     The I2C HAL driver can be used as follows:
  21:Drivers/STM32F1xx_HAL_Driver/Src/stm32f1xx_hal_i2c.c **** 
  22:Drivers/STM32F1xx_HAL_Driver/Src/stm32f1xx_hal_i2c.c ****     (#) Declare a I2C_HandleTypeDef handle structure, for example:
  23:Drivers/STM32F1xx_HAL_Driver/Src/stm32f1xx_hal_i2c.c ****         I2C_HandleTypeDef  hi2c;
  24:Drivers/STM32F1xx_HAL_Driver/Src/stm32f1xx_hal_i2c.c **** 
  25:Drivers/STM32F1xx_HAL_Driver/Src/stm32f1xx_hal_i2c.c ****     (#)Initialize the I2C low level resources by implementing the HAL_I2C_MspInit() API:
  26:Drivers/STM32F1xx_HAL_Driver/Src/stm32f1xx_hal_i2c.c ****         (##) Enable the I2Cx interface clock
  27:Drivers/STM32F1xx_HAL_Driver/Src/stm32f1xx_hal_i2c.c ****         (##) I2C pins configuration
  28:Drivers/STM32F1xx_HAL_Driver/Src/stm32f1xx_hal_i2c.c ****             (+++) Enable the clock for the I2C GPIOs
  29:Drivers/STM32F1xx_HAL_Driver/Src/stm32f1xx_hal_i2c.c ****             (+++) Configure I2C pins as alternate function open-drain
  30:Drivers/STM32F1xx_HAL_Driver/Src/stm32f1xx_hal_i2c.c ****         (##) NVIC configuration if you need to use interrupt process
  31:Drivers/STM32F1xx_HAL_Driver/Src/stm32f1xx_hal_i2c.c ****             (+++) Configure the I2Cx interrupt priority
ARM GAS  /var/folders/kh/x4vltyy52lbg7p4pcyglc5080000gp/T//cccbl2Nm.s 			page 2


  32:Drivers/STM32F1xx_HAL_Driver/Src/stm32f1xx_hal_i2c.c ****             (+++) Enable the NVIC I2C IRQ Channel
  33:Drivers/STM32F1xx_HAL_Driver/Src/stm32f1xx_hal_i2c.c ****         (##) DMA Configuration if you need to use DMA process
  34:Drivers/STM32F1xx_HAL_Driver/Src/stm32f1xx_hal_i2c.c ****             (+++) Declare a DMA_HandleTypeDef handle structure for the transmit or receive channel
  35:Drivers/STM32F1xx_HAL_Driver/Src/stm32f1xx_hal_i2c.c ****             (+++) Enable the DMAx interface clock using
  36:Drivers/STM32F1xx_HAL_Driver/Src/stm32f1xx_hal_i2c.c ****             (+++) Configure the DMA handle parameters
  37:Drivers/STM32F1xx_HAL_Driver/Src/stm32f1xx_hal_i2c.c ****             (+++) Configure the DMA Tx or Rx channel
  38:Drivers/STM32F1xx_HAL_Driver/Src/stm32f1xx_hal_i2c.c ****             (+++) Associate the initialized DMA handle to the hi2c DMA Tx or Rx handle
  39:Drivers/STM32F1xx_HAL_Driver/Src/stm32f1xx_hal_i2c.c ****             (+++) Configure the priority and enable the NVIC for the transfer complete interrupt on
  40:Drivers/STM32F1xx_HAL_Driver/Src/stm32f1xx_hal_i2c.c ****                   the DMA Tx or Rx channel
  41:Drivers/STM32F1xx_HAL_Driver/Src/stm32f1xx_hal_i2c.c **** 
  42:Drivers/STM32F1xx_HAL_Driver/Src/stm32f1xx_hal_i2c.c ****     (#) Configure the Communication Speed, Duty cycle, Addressing mode, Own Address1,
  43:Drivers/STM32F1xx_HAL_Driver/Src/stm32f1xx_hal_i2c.c ****         Dual Addressing mode, Own Address2, General call and Nostretch mode in the hi2c Init struct
  44:Drivers/STM32F1xx_HAL_Driver/Src/stm32f1xx_hal_i2c.c **** 
  45:Drivers/STM32F1xx_HAL_Driver/Src/stm32f1xx_hal_i2c.c ****     (#) Initialize the I2C registers by calling the HAL_I2C_Init(), configures also the low level H
  46:Drivers/STM32F1xx_HAL_Driver/Src/stm32f1xx_hal_i2c.c ****         (GPIO, CLOCK, NVIC...etc) by calling the customized HAL_I2C_MspInit(&hi2c) API.
  47:Drivers/STM32F1xx_HAL_Driver/Src/stm32f1xx_hal_i2c.c **** 
  48:Drivers/STM32F1xx_HAL_Driver/Src/stm32f1xx_hal_i2c.c ****     (#) To check if target device is ready for communication, use the function HAL_I2C_IsDeviceRead
  49:Drivers/STM32F1xx_HAL_Driver/Src/stm32f1xx_hal_i2c.c **** 
  50:Drivers/STM32F1xx_HAL_Driver/Src/stm32f1xx_hal_i2c.c ****     (#) For I2C IO and IO MEM operations, three operation modes are available within this driver :
  51:Drivers/STM32F1xx_HAL_Driver/Src/stm32f1xx_hal_i2c.c **** 
  52:Drivers/STM32F1xx_HAL_Driver/Src/stm32f1xx_hal_i2c.c ****     *** Polling mode IO operation ***
  53:Drivers/STM32F1xx_HAL_Driver/Src/stm32f1xx_hal_i2c.c ****     =================================
  54:Drivers/STM32F1xx_HAL_Driver/Src/stm32f1xx_hal_i2c.c ****     [..]
  55:Drivers/STM32F1xx_HAL_Driver/Src/stm32f1xx_hal_i2c.c ****       (+) Transmit in master mode an amount of data in blocking mode using HAL_I2C_Master_Transmit(
  56:Drivers/STM32F1xx_HAL_Driver/Src/stm32f1xx_hal_i2c.c ****       (+) Receive in master mode an amount of data in blocking mode using HAL_I2C_Master_Receive()
  57:Drivers/STM32F1xx_HAL_Driver/Src/stm32f1xx_hal_i2c.c ****       (+) Transmit in slave mode an amount of data in blocking mode using HAL_I2C_Slave_Transmit()
  58:Drivers/STM32F1xx_HAL_Driver/Src/stm32f1xx_hal_i2c.c ****       (+) Receive in slave mode an amount of data in blocking mode using HAL_I2C_Slave_Receive()
  59:Drivers/STM32F1xx_HAL_Driver/Src/stm32f1xx_hal_i2c.c **** 
  60:Drivers/STM32F1xx_HAL_Driver/Src/stm32f1xx_hal_i2c.c ****     *** Polling mode IO MEM operation ***
  61:Drivers/STM32F1xx_HAL_Driver/Src/stm32f1xx_hal_i2c.c ****     =====================================
  62:Drivers/STM32F1xx_HAL_Driver/Src/stm32f1xx_hal_i2c.c ****     [..]
  63:Drivers/STM32F1xx_HAL_Driver/Src/stm32f1xx_hal_i2c.c ****       (+) Write an amount of data in blocking mode to a specific memory address using HAL_I2C_Mem_W
  64:Drivers/STM32F1xx_HAL_Driver/Src/stm32f1xx_hal_i2c.c ****       (+) Read an amount of data in blocking mode from a specific memory address using HAL_I2C_Mem_
  65:Drivers/STM32F1xx_HAL_Driver/Src/stm32f1xx_hal_i2c.c **** 
  66:Drivers/STM32F1xx_HAL_Driver/Src/stm32f1xx_hal_i2c.c **** 
  67:Drivers/STM32F1xx_HAL_Driver/Src/stm32f1xx_hal_i2c.c ****     *** Interrupt mode IO operation ***
  68:Drivers/STM32F1xx_HAL_Driver/Src/stm32f1xx_hal_i2c.c ****     ===================================
  69:Drivers/STM32F1xx_HAL_Driver/Src/stm32f1xx_hal_i2c.c ****     [..]
  70:Drivers/STM32F1xx_HAL_Driver/Src/stm32f1xx_hal_i2c.c ****       (+) The I2C interrupts should have the highest priority in the application in order 
  71:Drivers/STM32F1xx_HAL_Driver/Src/stm32f1xx_hal_i2c.c ****           to make them uninterruptible.
  72:Drivers/STM32F1xx_HAL_Driver/Src/stm32f1xx_hal_i2c.c ****       (+) Transmit in master mode an amount of data in non-blocking mode using HAL_I2C_Master_Trans
  73:Drivers/STM32F1xx_HAL_Driver/Src/stm32f1xx_hal_i2c.c ****       (+) At transmission end of transfer, HAL_I2C_MasterTxCpltCallback() is executed and user can
  74:Drivers/STM32F1xx_HAL_Driver/Src/stm32f1xx_hal_i2c.c ****            add his own code by customization of function pointer HAL_I2C_MasterTxCpltCallback()
  75:Drivers/STM32F1xx_HAL_Driver/Src/stm32f1xx_hal_i2c.c ****       (+) Receive in master mode an amount of data in non-blocking mode using HAL_I2C_Master_Receiv
  76:Drivers/STM32F1xx_HAL_Driver/Src/stm32f1xx_hal_i2c.c ****       (+) At reception end of transfer, HAL_I2C_MasterRxCpltCallback() is executed and user can
  77:Drivers/STM32F1xx_HAL_Driver/Src/stm32f1xx_hal_i2c.c ****            add his own code by customization of function pointer HAL_I2C_MasterRxCpltCallback()
  78:Drivers/STM32F1xx_HAL_Driver/Src/stm32f1xx_hal_i2c.c ****       (+) Transmit in slave mode an amount of data in non-blocking mode using HAL_I2C_Slave_Transmi
  79:Drivers/STM32F1xx_HAL_Driver/Src/stm32f1xx_hal_i2c.c ****       (+) At transmission end of transfer, HAL_I2C_SlaveTxCpltCallback() is executed and user can
  80:Drivers/STM32F1xx_HAL_Driver/Src/stm32f1xx_hal_i2c.c ****            add his own code by customization of function pointer HAL_I2C_SlaveTxCpltCallback()
  81:Drivers/STM32F1xx_HAL_Driver/Src/stm32f1xx_hal_i2c.c ****       (+) Receive in slave mode an amount of data in non-blocking mode using HAL_I2C_Slave_Receive_
  82:Drivers/STM32F1xx_HAL_Driver/Src/stm32f1xx_hal_i2c.c ****       (+) At reception end of transfer, HAL_I2C_SlaveRxCpltCallback() is executed and user can
  83:Drivers/STM32F1xx_HAL_Driver/Src/stm32f1xx_hal_i2c.c ****            add his own code by customization of function pointer HAL_I2C_SlaveRxCpltCallback()
  84:Drivers/STM32F1xx_HAL_Driver/Src/stm32f1xx_hal_i2c.c ****       (+) In case of transfer Error, HAL_I2C_ErrorCallback() function is executed and user can
  85:Drivers/STM32F1xx_HAL_Driver/Src/stm32f1xx_hal_i2c.c ****            add his own code by customization of function pointer HAL_I2C_ErrorCallback()
  86:Drivers/STM32F1xx_HAL_Driver/Src/stm32f1xx_hal_i2c.c **** 
  87:Drivers/STM32F1xx_HAL_Driver/Src/stm32f1xx_hal_i2c.c ****     *** Interrupt mode IO MEM operation ***
  88:Drivers/STM32F1xx_HAL_Driver/Src/stm32f1xx_hal_i2c.c ****     =======================================
ARM GAS  /var/folders/kh/x4vltyy52lbg7p4pcyglc5080000gp/T//cccbl2Nm.s 			page 3


  89:Drivers/STM32F1xx_HAL_Driver/Src/stm32f1xx_hal_i2c.c ****     [..]
  90:Drivers/STM32F1xx_HAL_Driver/Src/stm32f1xx_hal_i2c.c ****       (+) The I2C interrupts should have the highest priority in the application in order 
  91:Drivers/STM32F1xx_HAL_Driver/Src/stm32f1xx_hal_i2c.c ****           to make them uninterruptible.
  92:Drivers/STM32F1xx_HAL_Driver/Src/stm32f1xx_hal_i2c.c ****       (+) Write an amount of data in non-blocking mode with Interrupt to a specific memory address 
  93:Drivers/STM32F1xx_HAL_Driver/Src/stm32f1xx_hal_i2c.c ****           HAL_I2C_Mem_Write_IT()
  94:Drivers/STM32F1xx_HAL_Driver/Src/stm32f1xx_hal_i2c.c ****       (+) At Memory end of write transfer, HAL_I2C_MemTxCpltCallback() is executed and user can
  95:Drivers/STM32F1xx_HAL_Driver/Src/stm32f1xx_hal_i2c.c ****            add his own code by customization of function pointer HAL_I2C_MemTxCpltCallback()
  96:Drivers/STM32F1xx_HAL_Driver/Src/stm32f1xx_hal_i2c.c ****       (+) Read an amount of data in non-blocking mode with Interrupt from a specific memory address
  97:Drivers/STM32F1xx_HAL_Driver/Src/stm32f1xx_hal_i2c.c ****           HAL_I2C_Mem_Read_IT()
  98:Drivers/STM32F1xx_HAL_Driver/Src/stm32f1xx_hal_i2c.c ****       (+) At Memory end of read transfer, HAL_I2C_MemRxCpltCallback() is executed and user can
  99:Drivers/STM32F1xx_HAL_Driver/Src/stm32f1xx_hal_i2c.c ****            add his own code by customization of function pointer HAL_I2C_MemRxCpltCallback()
 100:Drivers/STM32F1xx_HAL_Driver/Src/stm32f1xx_hal_i2c.c ****       (+) In case of transfer Error, HAL_I2C_ErrorCallback() function is executed and user can
 101:Drivers/STM32F1xx_HAL_Driver/Src/stm32f1xx_hal_i2c.c ****            add his own code by customization of function pointer HAL_I2C_ErrorCallback()
 102:Drivers/STM32F1xx_HAL_Driver/Src/stm32f1xx_hal_i2c.c **** 
 103:Drivers/STM32F1xx_HAL_Driver/Src/stm32f1xx_hal_i2c.c ****     *** DMA mode IO operation ***
 104:Drivers/STM32F1xx_HAL_Driver/Src/stm32f1xx_hal_i2c.c ****     ==============================
 105:Drivers/STM32F1xx_HAL_Driver/Src/stm32f1xx_hal_i2c.c ****     [..]
 106:Drivers/STM32F1xx_HAL_Driver/Src/stm32f1xx_hal_i2c.c ****       (+) Transmit in master mode an amount of data in non-blocking mode (DMA) using
 107:Drivers/STM32F1xx_HAL_Driver/Src/stm32f1xx_hal_i2c.c ****           HAL_I2C_Master_Transmit_DMA()
 108:Drivers/STM32F1xx_HAL_Driver/Src/stm32f1xx_hal_i2c.c ****       (+) At transmission end of transfer, HAL_I2C_MasterTxCpltCallback() is executed and user can
 109:Drivers/STM32F1xx_HAL_Driver/Src/stm32f1xx_hal_i2c.c ****            add his own code by customization of function pointer HAL_I2C_MasterTxCpltCallback()
 110:Drivers/STM32F1xx_HAL_Driver/Src/stm32f1xx_hal_i2c.c ****       (+) Receive in master mode an amount of data in non-blocking mode (DMA) using
 111:Drivers/STM32F1xx_HAL_Driver/Src/stm32f1xx_hal_i2c.c ****           HAL_I2C_Master_Receive_DMA()
 112:Drivers/STM32F1xx_HAL_Driver/Src/stm32f1xx_hal_i2c.c ****       (+) At reception end of transfer, HAL_I2C_MasterRxCpltCallback() is executed and user can
 113:Drivers/STM32F1xx_HAL_Driver/Src/stm32f1xx_hal_i2c.c ****            add his own code by customization of function pointer HAL_I2C_MasterRxCpltCallback()
 114:Drivers/STM32F1xx_HAL_Driver/Src/stm32f1xx_hal_i2c.c ****       (+) Transmit in slave mode an amount of data in non-blocking mode (DMA) using
 115:Drivers/STM32F1xx_HAL_Driver/Src/stm32f1xx_hal_i2c.c ****           HAL_I2C_Slave_Transmit_DMA()
 116:Drivers/STM32F1xx_HAL_Driver/Src/stm32f1xx_hal_i2c.c ****       (+) At transmission end of transfer, HAL_I2C_SlaveTxCpltCallback() is executed and user can
 117:Drivers/STM32F1xx_HAL_Driver/Src/stm32f1xx_hal_i2c.c ****            add his own code by customization of function pointer HAL_I2C_SlaveTxCpltCallback()
 118:Drivers/STM32F1xx_HAL_Driver/Src/stm32f1xx_hal_i2c.c ****       (+) Receive in slave mode an amount of data in non-blocking mode (DMA) using
 119:Drivers/STM32F1xx_HAL_Driver/Src/stm32f1xx_hal_i2c.c ****           HAL_I2C_Slave_Receive_DMA()
 120:Drivers/STM32F1xx_HAL_Driver/Src/stm32f1xx_hal_i2c.c ****       (+) At reception end of transfer, HAL_I2C_SlaveRxCpltCallback() is executed and user can
 121:Drivers/STM32F1xx_HAL_Driver/Src/stm32f1xx_hal_i2c.c ****            add his own code by customization of function pointer HAL_I2C_SlaveRxCpltCallback()
 122:Drivers/STM32F1xx_HAL_Driver/Src/stm32f1xx_hal_i2c.c ****       (+) In case of transfer Error, HAL_I2C_ErrorCallback() function is executed and user can
 123:Drivers/STM32F1xx_HAL_Driver/Src/stm32f1xx_hal_i2c.c ****            add his own code by customization of function pointer HAL_I2C_ErrorCallback()
 124:Drivers/STM32F1xx_HAL_Driver/Src/stm32f1xx_hal_i2c.c **** 
 125:Drivers/STM32F1xx_HAL_Driver/Src/stm32f1xx_hal_i2c.c ****     *** DMA mode IO MEM operation ***
 126:Drivers/STM32F1xx_HAL_Driver/Src/stm32f1xx_hal_i2c.c ****     =================================
 127:Drivers/STM32F1xx_HAL_Driver/Src/stm32f1xx_hal_i2c.c ****     [..]
 128:Drivers/STM32F1xx_HAL_Driver/Src/stm32f1xx_hal_i2c.c ****       (+) Write an amount of data in non-blocking mode with DMA to a specific memory address using
 129:Drivers/STM32F1xx_HAL_Driver/Src/stm32f1xx_hal_i2c.c ****           HAL_I2C_Mem_Write_DMA()
 130:Drivers/STM32F1xx_HAL_Driver/Src/stm32f1xx_hal_i2c.c ****       (+) At Memory end of write transfer, HAL_I2C_MemTxCpltCallback() is executed and user can
 131:Drivers/STM32F1xx_HAL_Driver/Src/stm32f1xx_hal_i2c.c ****            add his own code by customization of function pointer HAL_I2C_MemTxCpltCallback()
 132:Drivers/STM32F1xx_HAL_Driver/Src/stm32f1xx_hal_i2c.c ****       (+) Read an amount of data in non-blocking mode with DMA from a specific memory address using
 133:Drivers/STM32F1xx_HAL_Driver/Src/stm32f1xx_hal_i2c.c ****           HAL_I2C_Mem_Read_DMA()
 134:Drivers/STM32F1xx_HAL_Driver/Src/stm32f1xx_hal_i2c.c ****       (+) At Memory end of read transfer, HAL_I2C_MemRxCpltCallback() is executed and user can
 135:Drivers/STM32F1xx_HAL_Driver/Src/stm32f1xx_hal_i2c.c ****            add his own code by customization of function pointer HAL_I2C_MemRxCpltCallback()
 136:Drivers/STM32F1xx_HAL_Driver/Src/stm32f1xx_hal_i2c.c ****       (+) In case of transfer Error, HAL_I2C_ErrorCallback() function is executed and user can
 137:Drivers/STM32F1xx_HAL_Driver/Src/stm32f1xx_hal_i2c.c ****            add his own code by customization of function pointer HAL_I2C_ErrorCallback()
 138:Drivers/STM32F1xx_HAL_Driver/Src/stm32f1xx_hal_i2c.c **** 
 139:Drivers/STM32F1xx_HAL_Driver/Src/stm32f1xx_hal_i2c.c **** 
 140:Drivers/STM32F1xx_HAL_Driver/Src/stm32f1xx_hal_i2c.c ****      *** I2C HAL driver macros list ***
 141:Drivers/STM32F1xx_HAL_Driver/Src/stm32f1xx_hal_i2c.c ****      ==================================
 142:Drivers/STM32F1xx_HAL_Driver/Src/stm32f1xx_hal_i2c.c ****      [..]
 143:Drivers/STM32F1xx_HAL_Driver/Src/stm32f1xx_hal_i2c.c ****        Below the list of most used macros in I2C HAL driver.
 144:Drivers/STM32F1xx_HAL_Driver/Src/stm32f1xx_hal_i2c.c **** 
 145:Drivers/STM32F1xx_HAL_Driver/Src/stm32f1xx_hal_i2c.c ****       (+) __HAL_I2C_ENABLE: Enable the I2C peripheral
ARM GAS  /var/folders/kh/x4vltyy52lbg7p4pcyglc5080000gp/T//cccbl2Nm.s 			page 4


 146:Drivers/STM32F1xx_HAL_Driver/Src/stm32f1xx_hal_i2c.c ****       (+) __HAL_I2C_DISABLE: Disable the I2C peripheral
 147:Drivers/STM32F1xx_HAL_Driver/Src/stm32f1xx_hal_i2c.c ****       (+) __HAL_I2C_GET_FLAG:    Check whether the specified I2C flag is set or not
 148:Drivers/STM32F1xx_HAL_Driver/Src/stm32f1xx_hal_i2c.c ****       (+) __HAL_I2C_CLEAR_FLAG : Clear the specified I2C pending flag
 149:Drivers/STM32F1xx_HAL_Driver/Src/stm32f1xx_hal_i2c.c ****       (+) __HAL_I2C_ENABLE_IT: Enable the specified I2C interrupt
 150:Drivers/STM32F1xx_HAL_Driver/Src/stm32f1xx_hal_i2c.c ****       (+) __HAL_I2C_DISABLE_IT: Disable the specified I2C interrupt
 151:Drivers/STM32F1xx_HAL_Driver/Src/stm32f1xx_hal_i2c.c ****        (@) You can refer to the I2C HAL driver header file for more useful macros
 152:Drivers/STM32F1xx_HAL_Driver/Src/stm32f1xx_hal_i2c.c **** 
 153:Drivers/STM32F1xx_HAL_Driver/Src/stm32f1xx_hal_i2c.c **** 
 154:Drivers/STM32F1xx_HAL_Driver/Src/stm32f1xx_hal_i2c.c ****      *** I2C Workarounds linked to Silicon Limitation ***
 155:Drivers/STM32F1xx_HAL_Driver/Src/stm32f1xx_hal_i2c.c ****      ====================================================
 156:Drivers/STM32F1xx_HAL_Driver/Src/stm32f1xx_hal_i2c.c ****      [..]
 157:Drivers/STM32F1xx_HAL_Driver/Src/stm32f1xx_hal_i2c.c ****        Below the list of all silicon limitations implemented for HAL on STM32F1xx product.
 158:Drivers/STM32F1xx_HAL_Driver/Src/stm32f1xx_hal_i2c.c ****        (@) See ErrataSheet to know full silicon limitation list of your product.
 159:Drivers/STM32F1xx_HAL_Driver/Src/stm32f1xx_hal_i2c.c **** 
 160:Drivers/STM32F1xx_HAL_Driver/Src/stm32f1xx_hal_i2c.c ****        (#) Workarounds Implemented inside I2C HAL Driver
 161:Drivers/STM32F1xx_HAL_Driver/Src/stm32f1xx_hal_i2c.c ****           (##) Wrong data read into data register (Polling and Interrupt mode)
 162:Drivers/STM32F1xx_HAL_Driver/Src/stm32f1xx_hal_i2c.c ****           (##) Start cannot be generated after a misplaced Stop
 163:Drivers/STM32F1xx_HAL_Driver/Src/stm32f1xx_hal_i2c.c ****           (##) Some software events must be managed before the current byte is being transferred: 
 164:Drivers/STM32F1xx_HAL_Driver/Src/stm32f1xx_hal_i2c.c ****                Workaround: Use DMA in general, except when the Master is receiving a single byte.
 165:Drivers/STM32F1xx_HAL_Driver/Src/stm32f1xx_hal_i2c.c ****                For Interupt mode, I2C should have the highest priority in the application.
 166:Drivers/STM32F1xx_HAL_Driver/Src/stm32f1xx_hal_i2c.c ****           (##) Mismatch on the "Setup time for a repeated Start condition" timing parameter:
 167:Drivers/STM32F1xx_HAL_Driver/Src/stm32f1xx_hal_i2c.c ****                Workaround: Reduce the frequency down to 88 kHz or use the I2C Fast-mode if 
 168:Drivers/STM32F1xx_HAL_Driver/Src/stm32f1xx_hal_i2c.c ****                supported by the slave.
 169:Drivers/STM32F1xx_HAL_Driver/Src/stm32f1xx_hal_i2c.c ****           (##) Data valid time (tVD;DAT) violated without the OVR flag being set:
 170:Drivers/STM32F1xx_HAL_Driver/Src/stm32f1xx_hal_i2c.c ****                Workaround: If the slave device allows it, use the clock stretching mechanism 
 171:Drivers/STM32F1xx_HAL_Driver/Src/stm32f1xx_hal_i2c.c ****                by programming NoStretchMode = I2C_NOSTRETCH_DISABLE in HAL_I2C_Init.
 172:Drivers/STM32F1xx_HAL_Driver/Src/stm32f1xx_hal_i2c.c **** 
 173:Drivers/STM32F1xx_HAL_Driver/Src/stm32f1xx_hal_i2c.c ****   @endverbatim
 174:Drivers/STM32F1xx_HAL_Driver/Src/stm32f1xx_hal_i2c.c ****   ******************************************************************************
 175:Drivers/STM32F1xx_HAL_Driver/Src/stm32f1xx_hal_i2c.c ****   * @attention
 176:Drivers/STM32F1xx_HAL_Driver/Src/stm32f1xx_hal_i2c.c ****   *
 177:Drivers/STM32F1xx_HAL_Driver/Src/stm32f1xx_hal_i2c.c ****   * <h2><center>&copy; COPYRIGHT(c) 2016 STMicroelectronics</center></h2>
 178:Drivers/STM32F1xx_HAL_Driver/Src/stm32f1xx_hal_i2c.c ****   *
 179:Drivers/STM32F1xx_HAL_Driver/Src/stm32f1xx_hal_i2c.c ****   * Redistribution and use in source and binary forms, with or without modification,
 180:Drivers/STM32F1xx_HAL_Driver/Src/stm32f1xx_hal_i2c.c ****   * are permitted provided that the following conditions are met:
 181:Drivers/STM32F1xx_HAL_Driver/Src/stm32f1xx_hal_i2c.c ****   *   1. Redistributions of source code must retain the above copyright notice,
 182:Drivers/STM32F1xx_HAL_Driver/Src/stm32f1xx_hal_i2c.c ****   *      this list of conditions and the following disclaimer.
 183:Drivers/STM32F1xx_HAL_Driver/Src/stm32f1xx_hal_i2c.c ****   *   2. Redistributions in binary form must reproduce the above copyright notice,
 184:Drivers/STM32F1xx_HAL_Driver/Src/stm32f1xx_hal_i2c.c ****   *      this list of conditions and the following disclaimer in the documentation
 185:Drivers/STM32F1xx_HAL_Driver/Src/stm32f1xx_hal_i2c.c ****   *      and/or other materials provided with the distribution.
 186:Drivers/STM32F1xx_HAL_Driver/Src/stm32f1xx_hal_i2c.c ****   *   3. Neither the name of STMicroelectronics nor the names of its contributors
 187:Drivers/STM32F1xx_HAL_Driver/Src/stm32f1xx_hal_i2c.c ****   *      may be used to endorse or promote products derived from this software
 188:Drivers/STM32F1xx_HAL_Driver/Src/stm32f1xx_hal_i2c.c ****   *      without specific prior written permission.
 189:Drivers/STM32F1xx_HAL_Driver/Src/stm32f1xx_hal_i2c.c ****   *
 190:Drivers/STM32F1xx_HAL_Driver/Src/stm32f1xx_hal_i2c.c ****   * THIS SOFTWARE IS PROVIDED BY THE COPYRIGHT HOLDERS AND CONTRIBUTORS "AS IS"
 191:Drivers/STM32F1xx_HAL_Driver/Src/stm32f1xx_hal_i2c.c ****   * AND ANY EXPRESS OR IMPLIED WARRANTIES, INCLUDING, BUT NOT LIMITED TO, THE
 192:Drivers/STM32F1xx_HAL_Driver/Src/stm32f1xx_hal_i2c.c ****   * IMPLIED WARRANTIES OF MERCHANTABILITY AND FITNESS FOR A PARTICULAR PURPOSE ARE
 193:Drivers/STM32F1xx_HAL_Driver/Src/stm32f1xx_hal_i2c.c ****   * DISCLAIMED. IN NO EVENT SHALL THE COPYRIGHT HOLDER OR CONTRIBUTORS BE LIABLE
 194:Drivers/STM32F1xx_HAL_Driver/Src/stm32f1xx_hal_i2c.c ****   * FOR ANY DIRECT, INDIRECT, INCIDENTAL, SPECIAL, EXEMPLARY, OR CONSEQUENTIAL
 195:Drivers/STM32F1xx_HAL_Driver/Src/stm32f1xx_hal_i2c.c ****   * DAMAGES (INCLUDING, BUT NOT LIMITED TO, PROCUREMENT OF SUBSTITUTE GOODS OR
 196:Drivers/STM32F1xx_HAL_Driver/Src/stm32f1xx_hal_i2c.c ****   * SERVICES; LOSS OF USE, DATA, OR PROFITS; OR BUSINESS INTERRUPTION) HOWEVER
 197:Drivers/STM32F1xx_HAL_Driver/Src/stm32f1xx_hal_i2c.c ****   * CAUSED AND ON ANY THEORY OF LIABILITY, WHETHER IN CONTRACT, STRICT LIABILITY,
 198:Drivers/STM32F1xx_HAL_Driver/Src/stm32f1xx_hal_i2c.c ****   * OR TORT (INCLUDING NEGLIGENCE OR OTHERWISE) ARISING IN ANY WAY OUT OF THE USE
 199:Drivers/STM32F1xx_HAL_Driver/Src/stm32f1xx_hal_i2c.c ****   * OF THIS SOFTWARE, EVEN IF ADVISED OF THE POSSIBILITY OF SUCH DAMAGE.
 200:Drivers/STM32F1xx_HAL_Driver/Src/stm32f1xx_hal_i2c.c ****   *
 201:Drivers/STM32F1xx_HAL_Driver/Src/stm32f1xx_hal_i2c.c ****   ******************************************************************************
 202:Drivers/STM32F1xx_HAL_Driver/Src/stm32f1xx_hal_i2c.c ****   */
ARM GAS  /var/folders/kh/x4vltyy52lbg7p4pcyglc5080000gp/T//cccbl2Nm.s 			page 5


 203:Drivers/STM32F1xx_HAL_Driver/Src/stm32f1xx_hal_i2c.c **** 
 204:Drivers/STM32F1xx_HAL_Driver/Src/stm32f1xx_hal_i2c.c **** /* Includes ------------------------------------------------------------------*/
 205:Drivers/STM32F1xx_HAL_Driver/Src/stm32f1xx_hal_i2c.c **** #include "stm32f1xx_hal.h"
 206:Drivers/STM32F1xx_HAL_Driver/Src/stm32f1xx_hal_i2c.c **** 
 207:Drivers/STM32F1xx_HAL_Driver/Src/stm32f1xx_hal_i2c.c **** /** @addtogroup STM32F1xx_HAL_Driver
 208:Drivers/STM32F1xx_HAL_Driver/Src/stm32f1xx_hal_i2c.c ****   * @{
 209:Drivers/STM32F1xx_HAL_Driver/Src/stm32f1xx_hal_i2c.c ****   */
 210:Drivers/STM32F1xx_HAL_Driver/Src/stm32f1xx_hal_i2c.c **** 
 211:Drivers/STM32F1xx_HAL_Driver/Src/stm32f1xx_hal_i2c.c **** /** @defgroup I2C I2C
 212:Drivers/STM32F1xx_HAL_Driver/Src/stm32f1xx_hal_i2c.c ****   * @brief I2C HAL module driver
 213:Drivers/STM32F1xx_HAL_Driver/Src/stm32f1xx_hal_i2c.c ****   * @{
 214:Drivers/STM32F1xx_HAL_Driver/Src/stm32f1xx_hal_i2c.c ****   */
 215:Drivers/STM32F1xx_HAL_Driver/Src/stm32f1xx_hal_i2c.c **** 
 216:Drivers/STM32F1xx_HAL_Driver/Src/stm32f1xx_hal_i2c.c **** #ifdef HAL_I2C_MODULE_ENABLED
 217:Drivers/STM32F1xx_HAL_Driver/Src/stm32f1xx_hal_i2c.c **** 
 218:Drivers/STM32F1xx_HAL_Driver/Src/stm32f1xx_hal_i2c.c **** /* Private typedef -----------------------------------------------------------*/
 219:Drivers/STM32F1xx_HAL_Driver/Src/stm32f1xx_hal_i2c.c **** /* Private constants ---------------------------------------------------------*/
 220:Drivers/STM32F1xx_HAL_Driver/Src/stm32f1xx_hal_i2c.c **** /** @addtogroup I2C_Private_Constants I2C Private Constants
 221:Drivers/STM32F1xx_HAL_Driver/Src/stm32f1xx_hal_i2c.c ****   * @{
 222:Drivers/STM32F1xx_HAL_Driver/Src/stm32f1xx_hal_i2c.c ****   */
 223:Drivers/STM32F1xx_HAL_Driver/Src/stm32f1xx_hal_i2c.c **** #define I2C_TIMEOUT_FLAG          ((uint32_t)35)     /*!< Timeout 35 ms */
 224:Drivers/STM32F1xx_HAL_Driver/Src/stm32f1xx_hal_i2c.c **** #define I2C_TIMEOUT_ADDR_SLAVE    ((uint32_t)10000)  /*!< Timeout 10 s  */
 225:Drivers/STM32F1xx_HAL_Driver/Src/stm32f1xx_hal_i2c.c **** #define I2C_TIMEOUT_BUSY_FLAG     ((uint32_t)10000)  /*!< Timeout 10 s  */
 226:Drivers/STM32F1xx_HAL_Driver/Src/stm32f1xx_hal_i2c.c **** /**
 227:Drivers/STM32F1xx_HAL_Driver/Src/stm32f1xx_hal_i2c.c ****   * @}
 228:Drivers/STM32F1xx_HAL_Driver/Src/stm32f1xx_hal_i2c.c ****   */ 
 229:Drivers/STM32F1xx_HAL_Driver/Src/stm32f1xx_hal_i2c.c **** 
 230:Drivers/STM32F1xx_HAL_Driver/Src/stm32f1xx_hal_i2c.c **** /* Private macro -------------------------------------------------------------*/
 231:Drivers/STM32F1xx_HAL_Driver/Src/stm32f1xx_hal_i2c.c **** /* Private variables ---------------------------------------------------------*/
 232:Drivers/STM32F1xx_HAL_Driver/Src/stm32f1xx_hal_i2c.c **** /* Private function prototypes -----------------------------------------------*/
 233:Drivers/STM32F1xx_HAL_Driver/Src/stm32f1xx_hal_i2c.c **** /** @addtogroup I2C_Private_Functions I2C Private Functions
 234:Drivers/STM32F1xx_HAL_Driver/Src/stm32f1xx_hal_i2c.c ****   * @{
 235:Drivers/STM32F1xx_HAL_Driver/Src/stm32f1xx_hal_i2c.c ****   */
 236:Drivers/STM32F1xx_HAL_Driver/Src/stm32f1xx_hal_i2c.c **** static void I2C_DMAMasterTransmitCplt(DMA_HandleTypeDef *hdma);
 237:Drivers/STM32F1xx_HAL_Driver/Src/stm32f1xx_hal_i2c.c **** static void I2C_DMAMasterReceiveCplt(DMA_HandleTypeDef *hdma);
 238:Drivers/STM32F1xx_HAL_Driver/Src/stm32f1xx_hal_i2c.c **** static void I2C_DMASlaveTransmitCplt(DMA_HandleTypeDef *hdma);
 239:Drivers/STM32F1xx_HAL_Driver/Src/stm32f1xx_hal_i2c.c **** static void I2C_DMASlaveReceiveCplt(DMA_HandleTypeDef *hdma);
 240:Drivers/STM32F1xx_HAL_Driver/Src/stm32f1xx_hal_i2c.c **** static void I2C_DMAMemTransmitCplt(DMA_HandleTypeDef *hdma);
 241:Drivers/STM32F1xx_HAL_Driver/Src/stm32f1xx_hal_i2c.c **** static void I2C_DMAMemReceiveCplt(DMA_HandleTypeDef *hdma);
 242:Drivers/STM32F1xx_HAL_Driver/Src/stm32f1xx_hal_i2c.c **** static void I2C_DMAError(DMA_HandleTypeDef *hdma);
 243:Drivers/STM32F1xx_HAL_Driver/Src/stm32f1xx_hal_i2c.c **** 
 244:Drivers/STM32F1xx_HAL_Driver/Src/stm32f1xx_hal_i2c.c **** static HAL_StatusTypeDef I2C_MasterRequestWrite(I2C_HandleTypeDef *hi2c, uint16_t DevAddress, uint3
 245:Drivers/STM32F1xx_HAL_Driver/Src/stm32f1xx_hal_i2c.c **** static HAL_StatusTypeDef I2C_MasterRequestRead(I2C_HandleTypeDef *hi2c, uint16_t DevAddress, uint32
 246:Drivers/STM32F1xx_HAL_Driver/Src/stm32f1xx_hal_i2c.c **** static HAL_StatusTypeDef I2C_RequestMemoryWrite(I2C_HandleTypeDef *hi2c, uint16_t DevAddress, uint1
 247:Drivers/STM32F1xx_HAL_Driver/Src/stm32f1xx_hal_i2c.c **** static HAL_StatusTypeDef I2C_RequestMemoryRead(I2C_HandleTypeDef *hi2c, uint16_t DevAddress, uint16
 248:Drivers/STM32F1xx_HAL_Driver/Src/stm32f1xx_hal_i2c.c **** static HAL_StatusTypeDef I2C_WaitOnFlagUntilTimeout(I2C_HandleTypeDef *hi2c, uint32_t Flag, FlagSta
 249:Drivers/STM32F1xx_HAL_Driver/Src/stm32f1xx_hal_i2c.c **** static HAL_StatusTypeDef I2C_WaitOnMasterAddressFlagUntilTimeout(I2C_HandleTypeDef *hi2c, uint32_t 
 250:Drivers/STM32F1xx_HAL_Driver/Src/stm32f1xx_hal_i2c.c **** static HAL_StatusTypeDef I2C_WaitOnTXEFlagUntilTimeout(I2C_HandleTypeDef *hi2c, uint32_t Timeout);
 251:Drivers/STM32F1xx_HAL_Driver/Src/stm32f1xx_hal_i2c.c **** static HAL_StatusTypeDef I2C_WaitOnBTFFlagUntilTimeout(I2C_HandleTypeDef *hi2c, uint32_t Timeout);
 252:Drivers/STM32F1xx_HAL_Driver/Src/stm32f1xx_hal_i2c.c **** static HAL_StatusTypeDef I2C_WaitOnRXNEFlagUntilTimeout(I2C_HandleTypeDef *hi2c, uint32_t Timeout);
 253:Drivers/STM32F1xx_HAL_Driver/Src/stm32f1xx_hal_i2c.c **** static HAL_StatusTypeDef I2C_WaitOnSTOPFlagUntilTimeout(I2C_HandleTypeDef *hi2c, uint32_t Timeout);
 254:Drivers/STM32F1xx_HAL_Driver/Src/stm32f1xx_hal_i2c.c **** static HAL_StatusTypeDef I2C_IsAcknowledgeFailed(I2C_HandleTypeDef *hi2c);
 255:Drivers/STM32F1xx_HAL_Driver/Src/stm32f1xx_hal_i2c.c **** 
 256:Drivers/STM32F1xx_HAL_Driver/Src/stm32f1xx_hal_i2c.c **** static HAL_StatusTypeDef I2C_MasterTransmit_TXE(I2C_HandleTypeDef *hi2c);
 257:Drivers/STM32F1xx_HAL_Driver/Src/stm32f1xx_hal_i2c.c **** static HAL_StatusTypeDef I2C_MasterTransmit_BTF(I2C_HandleTypeDef *hi2c);
 258:Drivers/STM32F1xx_HAL_Driver/Src/stm32f1xx_hal_i2c.c **** static HAL_StatusTypeDef I2C_MasterReceive_RXNE(I2C_HandleTypeDef *hi2c);
 259:Drivers/STM32F1xx_HAL_Driver/Src/stm32f1xx_hal_i2c.c **** static HAL_StatusTypeDef I2C_MasterReceive_BTF(I2C_HandleTypeDef *hi2c);
ARM GAS  /var/folders/kh/x4vltyy52lbg7p4pcyglc5080000gp/T//cccbl2Nm.s 			page 6


 260:Drivers/STM32F1xx_HAL_Driver/Src/stm32f1xx_hal_i2c.c **** 
 261:Drivers/STM32F1xx_HAL_Driver/Src/stm32f1xx_hal_i2c.c **** static HAL_StatusTypeDef I2C_SlaveTransmit_TXE(I2C_HandleTypeDef *hi2c);
 262:Drivers/STM32F1xx_HAL_Driver/Src/stm32f1xx_hal_i2c.c **** static HAL_StatusTypeDef I2C_SlaveTransmit_BTF(I2C_HandleTypeDef *hi2c);
 263:Drivers/STM32F1xx_HAL_Driver/Src/stm32f1xx_hal_i2c.c **** static HAL_StatusTypeDef I2C_SlaveReceive_RXNE(I2C_HandleTypeDef *hi2c);
 264:Drivers/STM32F1xx_HAL_Driver/Src/stm32f1xx_hal_i2c.c **** static HAL_StatusTypeDef I2C_SlaveReceive_BTF(I2C_HandleTypeDef *hi2c);
 265:Drivers/STM32F1xx_HAL_Driver/Src/stm32f1xx_hal_i2c.c **** static HAL_StatusTypeDef I2C_Slave_ADDR(I2C_HandleTypeDef *hi2c);
 266:Drivers/STM32F1xx_HAL_Driver/Src/stm32f1xx_hal_i2c.c **** static HAL_StatusTypeDef I2C_Slave_STOPF(I2C_HandleTypeDef *hi2c);
 267:Drivers/STM32F1xx_HAL_Driver/Src/stm32f1xx_hal_i2c.c **** static HAL_StatusTypeDef I2C_Slave_AF(I2C_HandleTypeDef *hi2c);
 268:Drivers/STM32F1xx_HAL_Driver/Src/stm32f1xx_hal_i2c.c **** 
 269:Drivers/STM32F1xx_HAL_Driver/Src/stm32f1xx_hal_i2c.c **** static uint32_t I2C_Configure_Speed(I2C_HandleTypeDef *hi2c, uint32_t I2CClkSrcFreq);
 270:Drivers/STM32F1xx_HAL_Driver/Src/stm32f1xx_hal_i2c.c **** /**
 271:Drivers/STM32F1xx_HAL_Driver/Src/stm32f1xx_hal_i2c.c ****   * @}
 272:Drivers/STM32F1xx_HAL_Driver/Src/stm32f1xx_hal_i2c.c ****   */ 
 273:Drivers/STM32F1xx_HAL_Driver/Src/stm32f1xx_hal_i2c.c ****   
 274:Drivers/STM32F1xx_HAL_Driver/Src/stm32f1xx_hal_i2c.c **** /* Exported functions ---------------------------------------------------------*/
 275:Drivers/STM32F1xx_HAL_Driver/Src/stm32f1xx_hal_i2c.c **** 
 276:Drivers/STM32F1xx_HAL_Driver/Src/stm32f1xx_hal_i2c.c **** /** @defgroup I2C_Exported_Functions I2C Exported Functions
 277:Drivers/STM32F1xx_HAL_Driver/Src/stm32f1xx_hal_i2c.c ****   * @{
 278:Drivers/STM32F1xx_HAL_Driver/Src/stm32f1xx_hal_i2c.c ****   */
 279:Drivers/STM32F1xx_HAL_Driver/Src/stm32f1xx_hal_i2c.c **** 
 280:Drivers/STM32F1xx_HAL_Driver/Src/stm32f1xx_hal_i2c.c **** /** @defgroup I2C_Exported_Functions_Group1 Initialization and de-initialization functions
 281:Drivers/STM32F1xx_HAL_Driver/Src/stm32f1xx_hal_i2c.c ****  *  @brief    Initialization and Configuration functions
 282:Drivers/STM32F1xx_HAL_Driver/Src/stm32f1xx_hal_i2c.c ****  *
 283:Drivers/STM32F1xx_HAL_Driver/Src/stm32f1xx_hal_i2c.c **** @verbatim
 284:Drivers/STM32F1xx_HAL_Driver/Src/stm32f1xx_hal_i2c.c ****  ===============================================================================
 285:Drivers/STM32F1xx_HAL_Driver/Src/stm32f1xx_hal_i2c.c ****               ##### Initialization and de-initialization functions #####
 286:Drivers/STM32F1xx_HAL_Driver/Src/stm32f1xx_hal_i2c.c ****  ===============================================================================
 287:Drivers/STM32F1xx_HAL_Driver/Src/stm32f1xx_hal_i2c.c ****     [..]  This subsection provides a set of functions allowing to initialize and
 288:Drivers/STM32F1xx_HAL_Driver/Src/stm32f1xx_hal_i2c.c ****           de-initialiaze the I2Cx peripheral:
 289:Drivers/STM32F1xx_HAL_Driver/Src/stm32f1xx_hal_i2c.c **** 
 290:Drivers/STM32F1xx_HAL_Driver/Src/stm32f1xx_hal_i2c.c ****       (+) User must Implement HAL_I2C_MspInit() function in which he configures
 291:Drivers/STM32F1xx_HAL_Driver/Src/stm32f1xx_hal_i2c.c ****           all related peripherals resources (CLOCK, GPIO, DMA, IT and NVIC).
 292:Drivers/STM32F1xx_HAL_Driver/Src/stm32f1xx_hal_i2c.c **** 
 293:Drivers/STM32F1xx_HAL_Driver/Src/stm32f1xx_hal_i2c.c ****       (+) Call the function HAL_I2C_Init() to configure the selected device with
 294:Drivers/STM32F1xx_HAL_Driver/Src/stm32f1xx_hal_i2c.c ****           the selected configuration:
 295:Drivers/STM32F1xx_HAL_Driver/Src/stm32f1xx_hal_i2c.c ****         (++) Communication Speed
 296:Drivers/STM32F1xx_HAL_Driver/Src/stm32f1xx_hal_i2c.c ****         (++) Duty cycle
 297:Drivers/STM32F1xx_HAL_Driver/Src/stm32f1xx_hal_i2c.c ****         (++) Addressing mode
 298:Drivers/STM32F1xx_HAL_Driver/Src/stm32f1xx_hal_i2c.c ****         (++) Own Address 1
 299:Drivers/STM32F1xx_HAL_Driver/Src/stm32f1xx_hal_i2c.c ****         (++) Dual Addressing mode
 300:Drivers/STM32F1xx_HAL_Driver/Src/stm32f1xx_hal_i2c.c ****         (++) Own Address 2
 301:Drivers/STM32F1xx_HAL_Driver/Src/stm32f1xx_hal_i2c.c ****         (++) General call mode
 302:Drivers/STM32F1xx_HAL_Driver/Src/stm32f1xx_hal_i2c.c ****         (++) Nostretch mode
 303:Drivers/STM32F1xx_HAL_Driver/Src/stm32f1xx_hal_i2c.c **** 
 304:Drivers/STM32F1xx_HAL_Driver/Src/stm32f1xx_hal_i2c.c ****       (+) Call the function HAL_I2C_DeInit() to restore the default configuration
 305:Drivers/STM32F1xx_HAL_Driver/Src/stm32f1xx_hal_i2c.c ****           of the selected I2Cx periperal.
 306:Drivers/STM32F1xx_HAL_Driver/Src/stm32f1xx_hal_i2c.c **** 
 307:Drivers/STM32F1xx_HAL_Driver/Src/stm32f1xx_hal_i2c.c **** @endverbatim
 308:Drivers/STM32F1xx_HAL_Driver/Src/stm32f1xx_hal_i2c.c ****   * @{
 309:Drivers/STM32F1xx_HAL_Driver/Src/stm32f1xx_hal_i2c.c ****   */
 310:Drivers/STM32F1xx_HAL_Driver/Src/stm32f1xx_hal_i2c.c **** 
 311:Drivers/STM32F1xx_HAL_Driver/Src/stm32f1xx_hal_i2c.c **** /**
 312:Drivers/STM32F1xx_HAL_Driver/Src/stm32f1xx_hal_i2c.c ****   * @brief  Initializes the I2C according to the specified parameters
 313:Drivers/STM32F1xx_HAL_Driver/Src/stm32f1xx_hal_i2c.c ****   *         in the I2C_InitTypeDef and initialize the associated handle.
 314:Drivers/STM32F1xx_HAL_Driver/Src/stm32f1xx_hal_i2c.c ****   * @param  hi2c Pointer to a I2C_HandleTypeDef structure that contains
 315:Drivers/STM32F1xx_HAL_Driver/Src/stm32f1xx_hal_i2c.c ****   *                the configuration information for the specified I2C.
 316:Drivers/STM32F1xx_HAL_Driver/Src/stm32f1xx_hal_i2c.c ****   * @retval HAL status
ARM GAS  /var/folders/kh/x4vltyy52lbg7p4pcyglc5080000gp/T//cccbl2Nm.s 			page 7


 317:Drivers/STM32F1xx_HAL_Driver/Src/stm32f1xx_hal_i2c.c ****   */
 318:Drivers/STM32F1xx_HAL_Driver/Src/stm32f1xx_hal_i2c.c **** HAL_StatusTypeDef HAL_I2C_Init(I2C_HandleTypeDef *hi2c)
 319:Drivers/STM32F1xx_HAL_Driver/Src/stm32f1xx_hal_i2c.c **** {
  28              		.loc 1 319 0
  29              		.cfi_startproc
  30              		@ args = 0, pretend = 0, frame = 16
  31              		@ frame_needed = 1, uses_anonymous_args = 0
  32 0000 90B5     		push	{r4, r7, lr}
  33              	.LCFI0:
  34              		.cfi_def_cfa_offset 12
  35              		.cfi_offset 4, -12
  36              		.cfi_offset 7, -8
  37              		.cfi_offset 14, -4
  38 0002 85B0     		sub	sp, sp, #20
  39              	.LCFI1:
  40              		.cfi_def_cfa_offset 32
  41 0004 00AF     		add	r7, sp, #0
  42              	.LCFI2:
  43              		.cfi_def_cfa_register 7
  44 0006 7860     		str	r0, [r7, #4]
 320:Drivers/STM32F1xx_HAL_Driver/Src/stm32f1xx_hal_i2c.c ****   uint32_t freqrange = 0;
  45              		.loc 1 320 0
  46 0008 0023     		movs	r3, #0
  47 000a FB60     		str	r3, [r7, #12]
 321:Drivers/STM32F1xx_HAL_Driver/Src/stm32f1xx_hal_i2c.c ****   uint32_t pclk1 = 0;
  48              		.loc 1 321 0
  49 000c 0023     		movs	r3, #0
  50 000e BB60     		str	r3, [r7, #8]
 322:Drivers/STM32F1xx_HAL_Driver/Src/stm32f1xx_hal_i2c.c **** 
 323:Drivers/STM32F1xx_HAL_Driver/Src/stm32f1xx_hal_i2c.c ****   /* Check the I2C handle allocation */
 324:Drivers/STM32F1xx_HAL_Driver/Src/stm32f1xx_hal_i2c.c ****   if(hi2c == NULL)
  51              		.loc 1 324 0
  52 0010 7B68     		ldr	r3, [r7, #4]
  53 0012 002B     		cmp	r3, #0
  54 0014 01D1     		bne	.L2
 325:Drivers/STM32F1xx_HAL_Driver/Src/stm32f1xx_hal_i2c.c ****   {
 326:Drivers/STM32F1xx_HAL_Driver/Src/stm32f1xx_hal_i2c.c ****     return HAL_ERROR;
  55              		.loc 1 326 0
  56 0016 0123     		movs	r3, #1
  57 0018 6EE0     		b	.L3
  58              	.L2:
 327:Drivers/STM32F1xx_HAL_Driver/Src/stm32f1xx_hal_i2c.c ****   }
 328:Drivers/STM32F1xx_HAL_Driver/Src/stm32f1xx_hal_i2c.c **** 
 329:Drivers/STM32F1xx_HAL_Driver/Src/stm32f1xx_hal_i2c.c ****   /* Check the parameters */
 330:Drivers/STM32F1xx_HAL_Driver/Src/stm32f1xx_hal_i2c.c ****   assert_param(IS_I2C_ALL_INSTANCE(hi2c->Instance));
 331:Drivers/STM32F1xx_HAL_Driver/Src/stm32f1xx_hal_i2c.c ****   assert_param(IS_I2C_CLOCK_SPEED(hi2c->Init.ClockSpeed));
 332:Drivers/STM32F1xx_HAL_Driver/Src/stm32f1xx_hal_i2c.c ****   assert_param(IS_I2C_DUTY_CYCLE(hi2c->Init.DutyCycle));
 333:Drivers/STM32F1xx_HAL_Driver/Src/stm32f1xx_hal_i2c.c ****   assert_param(IS_I2C_OWN_ADDRESS1(hi2c->Init.OwnAddress1));
 334:Drivers/STM32F1xx_HAL_Driver/Src/stm32f1xx_hal_i2c.c ****   assert_param(IS_I2C_ADDRESSING_MODE(hi2c->Init.AddressingMode));
 335:Drivers/STM32F1xx_HAL_Driver/Src/stm32f1xx_hal_i2c.c ****   assert_param(IS_I2C_DUAL_ADDRESS(hi2c->Init.DualAddressMode));
 336:Drivers/STM32F1xx_HAL_Driver/Src/stm32f1xx_hal_i2c.c ****   assert_param(IS_I2C_OWN_ADDRESS2(hi2c->Init.OwnAddress2));
 337:Drivers/STM32F1xx_HAL_Driver/Src/stm32f1xx_hal_i2c.c ****   assert_param(IS_I2C_GENERAL_CALL(hi2c->Init.GeneralCallMode));
 338:Drivers/STM32F1xx_HAL_Driver/Src/stm32f1xx_hal_i2c.c ****   assert_param(IS_I2C_NO_STRETCH(hi2c->Init.NoStretchMode));
 339:Drivers/STM32F1xx_HAL_Driver/Src/stm32f1xx_hal_i2c.c **** 
 340:Drivers/STM32F1xx_HAL_Driver/Src/stm32f1xx_hal_i2c.c ****   if(hi2c->State == HAL_I2C_STATE_RESET)
  59              		.loc 1 340 0
  60 001a 7B68     		ldr	r3, [r7, #4]
ARM GAS  /var/folders/kh/x4vltyy52lbg7p4pcyglc5080000gp/T//cccbl2Nm.s 			page 8


  61 001c 93F83530 		ldrb	r3, [r3, #53]
  62 0020 DBB2     		uxtb	r3, r3
  63 0022 002B     		cmp	r3, #0
  64 0024 06D1     		bne	.L4
 341:Drivers/STM32F1xx_HAL_Driver/Src/stm32f1xx_hal_i2c.c ****   {
 342:Drivers/STM32F1xx_HAL_Driver/Src/stm32f1xx_hal_i2c.c ****     /* Allocate lock resource and initialize it */
 343:Drivers/STM32F1xx_HAL_Driver/Src/stm32f1xx_hal_i2c.c ****     hi2c->Lock = HAL_UNLOCKED;
  65              		.loc 1 343 0
  66 0026 7B68     		ldr	r3, [r7, #4]
  67 0028 0022     		movs	r2, #0
  68 002a 83F83420 		strb	r2, [r3, #52]
 344:Drivers/STM32F1xx_HAL_Driver/Src/stm32f1xx_hal_i2c.c ****     
 345:Drivers/STM32F1xx_HAL_Driver/Src/stm32f1xx_hal_i2c.c ****     /* Init the low level hardware : GPIO, CLOCK, NVIC */
 346:Drivers/STM32F1xx_HAL_Driver/Src/stm32f1xx_hal_i2c.c ****     HAL_I2C_MspInit(hi2c);
  69              		.loc 1 346 0
  70 002e 7868     		ldr	r0, [r7, #4]
  71 0030 FFF7FEFF 		bl	HAL_I2C_MspInit
  72              	.L4:
 347:Drivers/STM32F1xx_HAL_Driver/Src/stm32f1xx_hal_i2c.c ****   }
 348:Drivers/STM32F1xx_HAL_Driver/Src/stm32f1xx_hal_i2c.c **** 
 349:Drivers/STM32F1xx_HAL_Driver/Src/stm32f1xx_hal_i2c.c ****   hi2c->State = HAL_I2C_STATE_BUSY;
  73              		.loc 1 349 0
  74 0034 7B68     		ldr	r3, [r7, #4]
  75 0036 2422     		movs	r2, #36
  76 0038 83F83520 		strb	r2, [r3, #53]
 350:Drivers/STM32F1xx_HAL_Driver/Src/stm32f1xx_hal_i2c.c **** 
 351:Drivers/STM32F1xx_HAL_Driver/Src/stm32f1xx_hal_i2c.c ****   /* Disable the selected I2C peripheral */
 352:Drivers/STM32F1xx_HAL_Driver/Src/stm32f1xx_hal_i2c.c ****   __HAL_I2C_DISABLE(hi2c);
  77              		.loc 1 352 0
  78 003c 7B68     		ldr	r3, [r7, #4]
  79 003e 1B68     		ldr	r3, [r3]
  80 0040 7A68     		ldr	r2, [r7, #4]
  81 0042 1268     		ldr	r2, [r2]
  82 0044 1268     		ldr	r2, [r2]
  83 0046 22F00102 		bic	r2, r2, #1
  84 004a 1A60     		str	r2, [r3]
 353:Drivers/STM32F1xx_HAL_Driver/Src/stm32f1xx_hal_i2c.c **** 
 354:Drivers/STM32F1xx_HAL_Driver/Src/stm32f1xx_hal_i2c.c ****   /* Get PCLK1 frequency */
 355:Drivers/STM32F1xx_HAL_Driver/Src/stm32f1xx_hal_i2c.c ****   pclk1 = HAL_RCC_GetPCLK1Freq();
  85              		.loc 1 355 0
  86 004c FFF7FEFF 		bl	HAL_RCC_GetPCLK1Freq
  87 0050 B860     		str	r0, [r7, #8]
 356:Drivers/STM32F1xx_HAL_Driver/Src/stm32f1xx_hal_i2c.c **** 
 357:Drivers/STM32F1xx_HAL_Driver/Src/stm32f1xx_hal_i2c.c ****   /* Calculate frequency range */
 358:Drivers/STM32F1xx_HAL_Driver/Src/stm32f1xx_hal_i2c.c ****   freqrange = I2C_FREQ_RANGE(pclk1);
  88              		.loc 1 358 0
  89 0052 BB68     		ldr	r3, [r7, #8]
  90 0054 2A4A     		ldr	r2, .L7
  91 0056 A2FB0323 		umull	r2, r3, r2, r3
  92 005a 9B0C     		lsrs	r3, r3, #18
  93 005c FB60     		str	r3, [r7, #12]
 359:Drivers/STM32F1xx_HAL_Driver/Src/stm32f1xx_hal_i2c.c **** 
 360:Drivers/STM32F1xx_HAL_Driver/Src/stm32f1xx_hal_i2c.c ****   /*---------------------------- I2Cx CR2 Configuration ----------------------*/
 361:Drivers/STM32F1xx_HAL_Driver/Src/stm32f1xx_hal_i2c.c ****   /* Configure I2Cx: Frequency range */
 362:Drivers/STM32F1xx_HAL_Driver/Src/stm32f1xx_hal_i2c.c ****   hi2c->Instance->CR2 = freqrange;
  94              		.loc 1 362 0
  95 005e 7B68     		ldr	r3, [r7, #4]
ARM GAS  /var/folders/kh/x4vltyy52lbg7p4pcyglc5080000gp/T//cccbl2Nm.s 			page 9


  96 0060 1B68     		ldr	r3, [r3]
  97 0062 FA68     		ldr	r2, [r7, #12]
  98 0064 5A60     		str	r2, [r3, #4]
 363:Drivers/STM32F1xx_HAL_Driver/Src/stm32f1xx_hal_i2c.c **** 
 364:Drivers/STM32F1xx_HAL_Driver/Src/stm32f1xx_hal_i2c.c ****   /*---------------------------- I2Cx TRISE Configuration --------------------*/
 365:Drivers/STM32F1xx_HAL_Driver/Src/stm32f1xx_hal_i2c.c ****   /* Configure I2Cx: Rise Time */
 366:Drivers/STM32F1xx_HAL_Driver/Src/stm32f1xx_hal_i2c.c ****   hi2c->Instance->TRISE = I2C_RISE_TIME(freqrange, hi2c->Init.ClockSpeed);
  99              		.loc 1 366 0
 100 0066 7B68     		ldr	r3, [r7, #4]
 101 0068 1A68     		ldr	r2, [r3]
 102 006a 7B68     		ldr	r3, [r7, #4]
 103 006c 5B68     		ldr	r3, [r3, #4]
 104 006e 2549     		ldr	r1, .L7+4
 105 0070 8B42     		cmp	r3, r1
 106 0072 02D8     		bhi	.L5
 107              		.loc 1 366 0 is_stmt 0 discriminator 1
 108 0074 FB68     		ldr	r3, [r7, #12]
 109 0076 0133     		adds	r3, r3, #1
 110 0078 09E0     		b	.L6
 111              	.L5:
 112              		.loc 1 366 0 discriminator 2
 113 007a FB68     		ldr	r3, [r7, #12]
 114 007c 4FF49671 		mov	r1, #300
 115 0080 01FB03F3 		mul	r3, r1, r3
 116 0084 2049     		ldr	r1, .L7+8
 117 0086 A1FB0313 		umull	r1, r3, r1, r3
 118 008a 9B09     		lsrs	r3, r3, #6
 119 008c 0133     		adds	r3, r3, #1
 120              	.L6:
 121              		.loc 1 366 0 discriminator 4
 122 008e 1362     		str	r3, [r2, #32]
 367:Drivers/STM32F1xx_HAL_Driver/Src/stm32f1xx_hal_i2c.c **** 
 368:Drivers/STM32F1xx_HAL_Driver/Src/stm32f1xx_hal_i2c.c ****   /*---------------------------- I2Cx CCR Configuration ----------------------*/
 369:Drivers/STM32F1xx_HAL_Driver/Src/stm32f1xx_hal_i2c.c ****   /* Configure I2Cx: Speed */
 370:Drivers/STM32F1xx_HAL_Driver/Src/stm32f1xx_hal_i2c.c ****   hi2c->Instance->CCR = I2C_Configure_Speed(hi2c, pclk1);
 123              		.loc 1 370 0 is_stmt 1 discriminator 4
 124 0090 7B68     		ldr	r3, [r7, #4]
 125 0092 1C68     		ldr	r4, [r3]
 126 0094 B968     		ldr	r1, [r7, #8]
 127 0096 7868     		ldr	r0, [r7, #4]
 128 0098 FFF7FEFF 		bl	I2C_Configure_Speed
 129 009c 0346     		mov	r3, r0
 130 009e E361     		str	r3, [r4, #28]
 371:Drivers/STM32F1xx_HAL_Driver/Src/stm32f1xx_hal_i2c.c **** 
 372:Drivers/STM32F1xx_HAL_Driver/Src/stm32f1xx_hal_i2c.c ****   /*---------------------------- I2Cx CR1 Configuration ----------------------*/
 373:Drivers/STM32F1xx_HAL_Driver/Src/stm32f1xx_hal_i2c.c ****   /* Configure I2Cx: Generalcall and NoStretch mode */
 374:Drivers/STM32F1xx_HAL_Driver/Src/stm32f1xx_hal_i2c.c ****   hi2c->Instance->CR1 = (hi2c->Init.GeneralCallMode | hi2c->Init.NoStretchMode);
 131              		.loc 1 374 0 discriminator 4
 132 00a0 7B68     		ldr	r3, [r7, #4]
 133 00a2 1B68     		ldr	r3, [r3]
 134 00a4 7A68     		ldr	r2, [r7, #4]
 135 00a6 D169     		ldr	r1, [r2, #28]
 136 00a8 7A68     		ldr	r2, [r7, #4]
 137 00aa 126A     		ldr	r2, [r2, #32]
 138 00ac 0A43     		orrs	r2, r2, r1
 139 00ae 1A60     		str	r2, [r3]
 375:Drivers/STM32F1xx_HAL_Driver/Src/stm32f1xx_hal_i2c.c **** 
ARM GAS  /var/folders/kh/x4vltyy52lbg7p4pcyglc5080000gp/T//cccbl2Nm.s 			page 10


 376:Drivers/STM32F1xx_HAL_Driver/Src/stm32f1xx_hal_i2c.c ****   /*---------------------------- I2Cx OAR1 Configuration ---------------------*/
 377:Drivers/STM32F1xx_HAL_Driver/Src/stm32f1xx_hal_i2c.c ****   /* Configure I2Cx: Own Address1 and addressing mode */
 378:Drivers/STM32F1xx_HAL_Driver/Src/stm32f1xx_hal_i2c.c ****   hi2c->Instance->OAR1 = (hi2c->Init.AddressingMode | hi2c->Init.OwnAddress1);
 140              		.loc 1 378 0 discriminator 4
 141 00b0 7B68     		ldr	r3, [r7, #4]
 142 00b2 1B68     		ldr	r3, [r3]
 143 00b4 7A68     		ldr	r2, [r7, #4]
 144 00b6 1169     		ldr	r1, [r2, #16]
 145 00b8 7A68     		ldr	r2, [r7, #4]
 146 00ba D268     		ldr	r2, [r2, #12]
 147 00bc 0A43     		orrs	r2, r2, r1
 148 00be 9A60     		str	r2, [r3, #8]
 379:Drivers/STM32F1xx_HAL_Driver/Src/stm32f1xx_hal_i2c.c **** 
 380:Drivers/STM32F1xx_HAL_Driver/Src/stm32f1xx_hal_i2c.c ****   /*---------------------------- I2Cx OAR2 Configuration ---------------------*/
 381:Drivers/STM32F1xx_HAL_Driver/Src/stm32f1xx_hal_i2c.c ****   /* Configure I2Cx: Dual mode and Own Address2 */
 382:Drivers/STM32F1xx_HAL_Driver/Src/stm32f1xx_hal_i2c.c ****   hi2c->Instance->OAR2 = (hi2c->Init.DualAddressMode | hi2c->Init.OwnAddress2);
 149              		.loc 1 382 0 discriminator 4
 150 00c0 7B68     		ldr	r3, [r7, #4]
 151 00c2 1B68     		ldr	r3, [r3]
 152 00c4 7A68     		ldr	r2, [r7, #4]
 153 00c6 5169     		ldr	r1, [r2, #20]
 154 00c8 7A68     		ldr	r2, [r7, #4]
 155 00ca 9269     		ldr	r2, [r2, #24]
 156 00cc 0A43     		orrs	r2, r2, r1
 157 00ce DA60     		str	r2, [r3, #12]
 383:Drivers/STM32F1xx_HAL_Driver/Src/stm32f1xx_hal_i2c.c **** 
 384:Drivers/STM32F1xx_HAL_Driver/Src/stm32f1xx_hal_i2c.c ****   /* Enable the selected I2C peripheral */
 385:Drivers/STM32F1xx_HAL_Driver/Src/stm32f1xx_hal_i2c.c ****   __HAL_I2C_ENABLE(hi2c);
 158              		.loc 1 385 0 discriminator 4
 159 00d0 7B68     		ldr	r3, [r7, #4]
 160 00d2 1B68     		ldr	r3, [r3]
 161 00d4 7A68     		ldr	r2, [r7, #4]
 162 00d6 1268     		ldr	r2, [r2]
 163 00d8 1268     		ldr	r2, [r2]
 164 00da 42F00102 		orr	r2, r2, #1
 165 00de 1A60     		str	r2, [r3]
 386:Drivers/STM32F1xx_HAL_Driver/Src/stm32f1xx_hal_i2c.c **** 
 387:Drivers/STM32F1xx_HAL_Driver/Src/stm32f1xx_hal_i2c.c ****   hi2c->ErrorCode = HAL_I2C_ERROR_NONE;
 166              		.loc 1 387 0 discriminator 4
 167 00e0 7B68     		ldr	r3, [r7, #4]
 168 00e2 0022     		movs	r2, #0
 169 00e4 9A63     		str	r2, [r3, #56]
 388:Drivers/STM32F1xx_HAL_Driver/Src/stm32f1xx_hal_i2c.c ****   hi2c->State = HAL_I2C_STATE_READY;
 170              		.loc 1 388 0 discriminator 4
 171 00e6 7B68     		ldr	r3, [r7, #4]
 172 00e8 2022     		movs	r2, #32
 173 00ea 83F83520 		strb	r2, [r3, #53]
 389:Drivers/STM32F1xx_HAL_Driver/Src/stm32f1xx_hal_i2c.c ****   hi2c->Mode = HAL_I2C_MODE_NONE;
 174              		.loc 1 389 0 discriminator 4
 175 00ee 7B68     		ldr	r3, [r7, #4]
 176 00f0 0022     		movs	r2, #0
 177 00f2 83F83620 		strb	r2, [r3, #54]
 390:Drivers/STM32F1xx_HAL_Driver/Src/stm32f1xx_hal_i2c.c **** 
 391:Drivers/STM32F1xx_HAL_Driver/Src/stm32f1xx_hal_i2c.c ****   return HAL_OK;
 178              		.loc 1 391 0 discriminator 4
 179 00f6 0023     		movs	r3, #0
 180              	.L3:
ARM GAS  /var/folders/kh/x4vltyy52lbg7p4pcyglc5080000gp/T//cccbl2Nm.s 			page 11


 392:Drivers/STM32F1xx_HAL_Driver/Src/stm32f1xx_hal_i2c.c **** }
 181              		.loc 1 392 0
 182 00f8 1846     		mov	r0, r3
 183 00fa 1437     		adds	r7, r7, #20
 184              	.LCFI3:
 185              		.cfi_def_cfa_offset 12
 186 00fc BD46     		mov	sp, r7
 187              	.LCFI4:
 188              		.cfi_def_cfa_register 13
 189              		@ sp needed
 190 00fe 90BD     		pop	{r4, r7, pc}
 191              	.L8:
 192              		.align	2
 193              	.L7:
 194 0100 83DE1B43 		.word	1125899907
 195 0104 A0860100 		.word	100000
 196 0108 D34D6210 		.word	274877907
 197              		.cfi_endproc
 198              	.LFE64:
 200              		.section	.text.HAL_I2C_DeInit,"ax",%progbits
 201              		.align	2
 202              		.global	HAL_I2C_DeInit
 203              		.thumb
 204              		.thumb_func
 206              	HAL_I2C_DeInit:
 207              	.LFB65:
 393:Drivers/STM32F1xx_HAL_Driver/Src/stm32f1xx_hal_i2c.c **** 
 394:Drivers/STM32F1xx_HAL_Driver/Src/stm32f1xx_hal_i2c.c **** /**
 395:Drivers/STM32F1xx_HAL_Driver/Src/stm32f1xx_hal_i2c.c ****   * @brief  DeInitialize the I2C peripheral. 
 396:Drivers/STM32F1xx_HAL_Driver/Src/stm32f1xx_hal_i2c.c ****   * @param  hi2c Pointer to a I2C_HandleTypeDef structure that contains
 397:Drivers/STM32F1xx_HAL_Driver/Src/stm32f1xx_hal_i2c.c ****   *                the configuration information for the specified I2C.
 398:Drivers/STM32F1xx_HAL_Driver/Src/stm32f1xx_hal_i2c.c ****   * @retval HAL status
 399:Drivers/STM32F1xx_HAL_Driver/Src/stm32f1xx_hal_i2c.c ****   */
 400:Drivers/STM32F1xx_HAL_Driver/Src/stm32f1xx_hal_i2c.c **** HAL_StatusTypeDef HAL_I2C_DeInit(I2C_HandleTypeDef *hi2c)
 401:Drivers/STM32F1xx_HAL_Driver/Src/stm32f1xx_hal_i2c.c **** {
 208              		.loc 1 401 0
 209              		.cfi_startproc
 210              		@ args = 0, pretend = 0, frame = 8
 211              		@ frame_needed = 1, uses_anonymous_args = 0
 212 0000 80B5     		push	{r7, lr}
 213              	.LCFI5:
 214              		.cfi_def_cfa_offset 8
 215              		.cfi_offset 7, -8
 216              		.cfi_offset 14, -4
 217 0002 82B0     		sub	sp, sp, #8
 218              	.LCFI6:
 219              		.cfi_def_cfa_offset 16
 220 0004 00AF     		add	r7, sp, #0
 221              	.LCFI7:
 222              		.cfi_def_cfa_register 7
 223 0006 7860     		str	r0, [r7, #4]
 402:Drivers/STM32F1xx_HAL_Driver/Src/stm32f1xx_hal_i2c.c ****   /* Check the I2C handle allocation */
 403:Drivers/STM32F1xx_HAL_Driver/Src/stm32f1xx_hal_i2c.c ****   if(hi2c == NULL)
 224              		.loc 1 403 0
 225 0008 7B68     		ldr	r3, [r7, #4]
 226 000a 002B     		cmp	r3, #0
 227 000c 01D1     		bne	.L10
ARM GAS  /var/folders/kh/x4vltyy52lbg7p4pcyglc5080000gp/T//cccbl2Nm.s 			page 12


 404:Drivers/STM32F1xx_HAL_Driver/Src/stm32f1xx_hal_i2c.c ****   {
 405:Drivers/STM32F1xx_HAL_Driver/Src/stm32f1xx_hal_i2c.c ****     return HAL_ERROR;
 228              		.loc 1 405 0
 229 000e 0123     		movs	r3, #1
 230 0010 1EE0     		b	.L11
 231              	.L10:
 406:Drivers/STM32F1xx_HAL_Driver/Src/stm32f1xx_hal_i2c.c ****   }
 407:Drivers/STM32F1xx_HAL_Driver/Src/stm32f1xx_hal_i2c.c **** 
 408:Drivers/STM32F1xx_HAL_Driver/Src/stm32f1xx_hal_i2c.c ****   /* Check the parameters */
 409:Drivers/STM32F1xx_HAL_Driver/Src/stm32f1xx_hal_i2c.c ****   assert_param(IS_I2C_ALL_INSTANCE(hi2c->Instance));
 410:Drivers/STM32F1xx_HAL_Driver/Src/stm32f1xx_hal_i2c.c **** 
 411:Drivers/STM32F1xx_HAL_Driver/Src/stm32f1xx_hal_i2c.c ****   hi2c->State = HAL_I2C_STATE_BUSY;
 232              		.loc 1 411 0
 233 0012 7B68     		ldr	r3, [r7, #4]
 234 0014 2422     		movs	r2, #36
 235 0016 83F83520 		strb	r2, [r3, #53]
 412:Drivers/STM32F1xx_HAL_Driver/Src/stm32f1xx_hal_i2c.c **** 
 413:Drivers/STM32F1xx_HAL_Driver/Src/stm32f1xx_hal_i2c.c ****   /* Disable the I2C Peripheral Clock */
 414:Drivers/STM32F1xx_HAL_Driver/Src/stm32f1xx_hal_i2c.c ****   __HAL_I2C_DISABLE(hi2c);
 236              		.loc 1 414 0
 237 001a 7B68     		ldr	r3, [r7, #4]
 238 001c 1B68     		ldr	r3, [r3]
 239 001e 7A68     		ldr	r2, [r7, #4]
 240 0020 1268     		ldr	r2, [r2]
 241 0022 1268     		ldr	r2, [r2]
 242 0024 22F00102 		bic	r2, r2, #1
 243 0028 1A60     		str	r2, [r3]
 415:Drivers/STM32F1xx_HAL_Driver/Src/stm32f1xx_hal_i2c.c **** 
 416:Drivers/STM32F1xx_HAL_Driver/Src/stm32f1xx_hal_i2c.c ****   /* DeInit the low level hardware: GPIO, CLOCK, NVIC */
 417:Drivers/STM32F1xx_HAL_Driver/Src/stm32f1xx_hal_i2c.c ****   HAL_I2C_MspDeInit(hi2c);
 244              		.loc 1 417 0
 245 002a 7868     		ldr	r0, [r7, #4]
 246 002c FFF7FEFF 		bl	HAL_I2C_MspDeInit
 418:Drivers/STM32F1xx_HAL_Driver/Src/stm32f1xx_hal_i2c.c **** 
 419:Drivers/STM32F1xx_HAL_Driver/Src/stm32f1xx_hal_i2c.c ****   hi2c->ErrorCode = HAL_I2C_ERROR_NONE;
 247              		.loc 1 419 0
 248 0030 7B68     		ldr	r3, [r7, #4]
 249 0032 0022     		movs	r2, #0
 250 0034 9A63     		str	r2, [r3, #56]
 420:Drivers/STM32F1xx_HAL_Driver/Src/stm32f1xx_hal_i2c.c ****   hi2c->State = HAL_I2C_STATE_RESET;
 251              		.loc 1 420 0
 252 0036 7B68     		ldr	r3, [r7, #4]
 253 0038 0022     		movs	r2, #0
 254 003a 83F83520 		strb	r2, [r3, #53]
 421:Drivers/STM32F1xx_HAL_Driver/Src/stm32f1xx_hal_i2c.c ****   hi2c->Mode = HAL_I2C_MODE_NONE;
 255              		.loc 1 421 0
 256 003e 7B68     		ldr	r3, [r7, #4]
 257 0040 0022     		movs	r2, #0
 258 0042 83F83620 		strb	r2, [r3, #54]
 422:Drivers/STM32F1xx_HAL_Driver/Src/stm32f1xx_hal_i2c.c **** 
 423:Drivers/STM32F1xx_HAL_Driver/Src/stm32f1xx_hal_i2c.c ****   /* Release Lock */
 424:Drivers/STM32F1xx_HAL_Driver/Src/stm32f1xx_hal_i2c.c ****   __HAL_UNLOCK(hi2c);
 259              		.loc 1 424 0
 260 0046 7B68     		ldr	r3, [r7, #4]
 261 0048 0022     		movs	r2, #0
 262 004a 83F83420 		strb	r2, [r3, #52]
 425:Drivers/STM32F1xx_HAL_Driver/Src/stm32f1xx_hal_i2c.c **** 
ARM GAS  /var/folders/kh/x4vltyy52lbg7p4pcyglc5080000gp/T//cccbl2Nm.s 			page 13


 426:Drivers/STM32F1xx_HAL_Driver/Src/stm32f1xx_hal_i2c.c ****   return HAL_OK;
 263              		.loc 1 426 0
 264 004e 0023     		movs	r3, #0
 265              	.L11:
 427:Drivers/STM32F1xx_HAL_Driver/Src/stm32f1xx_hal_i2c.c **** }
 266              		.loc 1 427 0
 267 0050 1846     		mov	r0, r3
 268 0052 0837     		adds	r7, r7, #8
 269              	.LCFI8:
 270              		.cfi_def_cfa_offset 8
 271 0054 BD46     		mov	sp, r7
 272              	.LCFI9:
 273              		.cfi_def_cfa_register 13
 274              		@ sp needed
 275 0056 80BD     		pop	{r7, pc}
 276              		.cfi_endproc
 277              	.LFE65:
 279              		.section	.text.HAL_I2C_MspInit,"ax",%progbits
 280              		.align	2
 281              		.weak	HAL_I2C_MspInit
 282              		.thumb
 283              		.thumb_func
 285              	HAL_I2C_MspInit:
 286              	.LFB66:
 428:Drivers/STM32F1xx_HAL_Driver/Src/stm32f1xx_hal_i2c.c **** 
 429:Drivers/STM32F1xx_HAL_Driver/Src/stm32f1xx_hal_i2c.c **** /**
 430:Drivers/STM32F1xx_HAL_Driver/Src/stm32f1xx_hal_i2c.c ****   * @brief Initialize the I2C MSP.
 431:Drivers/STM32F1xx_HAL_Driver/Src/stm32f1xx_hal_i2c.c ****   * @param  hi2c Pointer to a I2C_HandleTypeDef structure that contains
 432:Drivers/STM32F1xx_HAL_Driver/Src/stm32f1xx_hal_i2c.c ****   *                the configuration information for the specified I2C.
 433:Drivers/STM32F1xx_HAL_Driver/Src/stm32f1xx_hal_i2c.c ****   * @retval None
 434:Drivers/STM32F1xx_HAL_Driver/Src/stm32f1xx_hal_i2c.c ****   */
 435:Drivers/STM32F1xx_HAL_Driver/Src/stm32f1xx_hal_i2c.c ****  __weak void HAL_I2C_MspInit(I2C_HandleTypeDef *hi2c)
 436:Drivers/STM32F1xx_HAL_Driver/Src/stm32f1xx_hal_i2c.c **** {
 287              		.loc 1 436 0
 288              		.cfi_startproc
 289              		@ args = 0, pretend = 0, frame = 8
 290              		@ frame_needed = 1, uses_anonymous_args = 0
 291              		@ link register save eliminated.
 292 0000 80B4     		push	{r7}
 293              	.LCFI10:
 294              		.cfi_def_cfa_offset 4
 295              		.cfi_offset 7, -4
 296 0002 83B0     		sub	sp, sp, #12
 297              	.LCFI11:
 298              		.cfi_def_cfa_offset 16
 299 0004 00AF     		add	r7, sp, #0
 300              	.LCFI12:
 301              		.cfi_def_cfa_register 7
 302 0006 7860     		str	r0, [r7, #4]
 437:Drivers/STM32F1xx_HAL_Driver/Src/stm32f1xx_hal_i2c.c ****   /* Prevent unused argument(s) compilation warning */
 438:Drivers/STM32F1xx_HAL_Driver/Src/stm32f1xx_hal_i2c.c ****   UNUSED(hi2c);
 439:Drivers/STM32F1xx_HAL_Driver/Src/stm32f1xx_hal_i2c.c ****   /* NOTE : This function should not be modified, when the callback is needed,
 440:Drivers/STM32F1xx_HAL_Driver/Src/stm32f1xx_hal_i2c.c ****             the HAL_I2C_MspInit could be implemented in the user file
 441:Drivers/STM32F1xx_HAL_Driver/Src/stm32f1xx_hal_i2c.c ****    */
 442:Drivers/STM32F1xx_HAL_Driver/Src/stm32f1xx_hal_i2c.c **** }
 303              		.loc 1 442 0
 304 0008 00BF     		nop
ARM GAS  /var/folders/kh/x4vltyy52lbg7p4pcyglc5080000gp/T//cccbl2Nm.s 			page 14


 305 000a 0C37     		adds	r7, r7, #12
 306              	.LCFI13:
 307              		.cfi_def_cfa_offset 4
 308 000c BD46     		mov	sp, r7
 309              	.LCFI14:
 310              		.cfi_def_cfa_register 13
 311              		@ sp needed
 312 000e 80BC     		pop	{r7}
 313              	.LCFI15:
 314              		.cfi_restore 7
 315              		.cfi_def_cfa_offset 0
 316 0010 7047     		bx	lr
 317              		.cfi_endproc
 318              	.LFE66:
 320 0012 00BF     		.section	.text.HAL_I2C_MspDeInit,"ax",%progbits
 321              		.align	2
 322              		.weak	HAL_I2C_MspDeInit
 323              		.thumb
 324              		.thumb_func
 326              	HAL_I2C_MspDeInit:
 327              	.LFB67:
 443:Drivers/STM32F1xx_HAL_Driver/Src/stm32f1xx_hal_i2c.c **** 
 444:Drivers/STM32F1xx_HAL_Driver/Src/stm32f1xx_hal_i2c.c **** /**
 445:Drivers/STM32F1xx_HAL_Driver/Src/stm32f1xx_hal_i2c.c ****   * @brief DeInitialize the I2C MSP.
 446:Drivers/STM32F1xx_HAL_Driver/Src/stm32f1xx_hal_i2c.c ****   * @param  hi2c Pointer to a I2C_HandleTypeDef structure that contains
 447:Drivers/STM32F1xx_HAL_Driver/Src/stm32f1xx_hal_i2c.c ****   *                the configuration information for the specified I2C.
 448:Drivers/STM32F1xx_HAL_Driver/Src/stm32f1xx_hal_i2c.c ****   * @retval None
 449:Drivers/STM32F1xx_HAL_Driver/Src/stm32f1xx_hal_i2c.c ****   */
 450:Drivers/STM32F1xx_HAL_Driver/Src/stm32f1xx_hal_i2c.c ****  __weak void HAL_I2C_MspDeInit(I2C_HandleTypeDef *hi2c)
 451:Drivers/STM32F1xx_HAL_Driver/Src/stm32f1xx_hal_i2c.c **** {
 328              		.loc 1 451 0
 329              		.cfi_startproc
 330              		@ args = 0, pretend = 0, frame = 8
 331              		@ frame_needed = 1, uses_anonymous_args = 0
 332              		@ link register save eliminated.
 333 0000 80B4     		push	{r7}
 334              	.LCFI16:
 335              		.cfi_def_cfa_offset 4
 336              		.cfi_offset 7, -4
 337 0002 83B0     		sub	sp, sp, #12
 338              	.LCFI17:
 339              		.cfi_def_cfa_offset 16
 340 0004 00AF     		add	r7, sp, #0
 341              	.LCFI18:
 342              		.cfi_def_cfa_register 7
 343 0006 7860     		str	r0, [r7, #4]
 452:Drivers/STM32F1xx_HAL_Driver/Src/stm32f1xx_hal_i2c.c ****   /* Prevent unused argument(s) compilation warning */
 453:Drivers/STM32F1xx_HAL_Driver/Src/stm32f1xx_hal_i2c.c ****   UNUSED(hi2c);
 454:Drivers/STM32F1xx_HAL_Driver/Src/stm32f1xx_hal_i2c.c ****   /* NOTE : This function should not be modified, when the callback is needed,
 455:Drivers/STM32F1xx_HAL_Driver/Src/stm32f1xx_hal_i2c.c ****             the HAL_I2C_MspDeInit could be implemented in the user file
 456:Drivers/STM32F1xx_HAL_Driver/Src/stm32f1xx_hal_i2c.c ****    */
 457:Drivers/STM32F1xx_HAL_Driver/Src/stm32f1xx_hal_i2c.c **** }
 344              		.loc 1 457 0
 345 0008 00BF     		nop
 346 000a 0C37     		adds	r7, r7, #12
 347              	.LCFI19:
 348              		.cfi_def_cfa_offset 4
ARM GAS  /var/folders/kh/x4vltyy52lbg7p4pcyglc5080000gp/T//cccbl2Nm.s 			page 15


 349 000c BD46     		mov	sp, r7
 350              	.LCFI20:
 351              		.cfi_def_cfa_register 13
 352              		@ sp needed
 353 000e 80BC     		pop	{r7}
 354              	.LCFI21:
 355              		.cfi_restore 7
 356              		.cfi_def_cfa_offset 0
 357 0010 7047     		bx	lr
 358              		.cfi_endproc
 359              	.LFE67:
 361 0012 00BF     		.section	.text.HAL_I2C_Master_Transmit,"ax",%progbits
 362              		.align	2
 363              		.global	HAL_I2C_Master_Transmit
 364              		.thumb
 365              		.thumb_func
 367              	HAL_I2C_Master_Transmit:
 368              	.LFB68:
 458:Drivers/STM32F1xx_HAL_Driver/Src/stm32f1xx_hal_i2c.c **** 
 459:Drivers/STM32F1xx_HAL_Driver/Src/stm32f1xx_hal_i2c.c **** /**
 460:Drivers/STM32F1xx_HAL_Driver/Src/stm32f1xx_hal_i2c.c ****   * @}
 461:Drivers/STM32F1xx_HAL_Driver/Src/stm32f1xx_hal_i2c.c ****   */
 462:Drivers/STM32F1xx_HAL_Driver/Src/stm32f1xx_hal_i2c.c **** 
 463:Drivers/STM32F1xx_HAL_Driver/Src/stm32f1xx_hal_i2c.c **** /** @defgroup I2C_Exported_Functions_Group2 Input and Output operation functions
 464:Drivers/STM32F1xx_HAL_Driver/Src/stm32f1xx_hal_i2c.c ****  *  @brief   Data transfers functions
 465:Drivers/STM32F1xx_HAL_Driver/Src/stm32f1xx_hal_i2c.c ****  *
 466:Drivers/STM32F1xx_HAL_Driver/Src/stm32f1xx_hal_i2c.c **** @verbatim
 467:Drivers/STM32F1xx_HAL_Driver/Src/stm32f1xx_hal_i2c.c ****  ===============================================================================
 468:Drivers/STM32F1xx_HAL_Driver/Src/stm32f1xx_hal_i2c.c ****                       ##### IO operation functions #####
 469:Drivers/STM32F1xx_HAL_Driver/Src/stm32f1xx_hal_i2c.c ****  ===============================================================================
 470:Drivers/STM32F1xx_HAL_Driver/Src/stm32f1xx_hal_i2c.c ****     [..]
 471:Drivers/STM32F1xx_HAL_Driver/Src/stm32f1xx_hal_i2c.c ****     This subsection provides a set of functions allowing to manage the I2C data
 472:Drivers/STM32F1xx_HAL_Driver/Src/stm32f1xx_hal_i2c.c ****     transfers.
 473:Drivers/STM32F1xx_HAL_Driver/Src/stm32f1xx_hal_i2c.c **** 
 474:Drivers/STM32F1xx_HAL_Driver/Src/stm32f1xx_hal_i2c.c ****     (#) There are two modes of transfer:
 475:Drivers/STM32F1xx_HAL_Driver/Src/stm32f1xx_hal_i2c.c ****        (++) Blocking mode : The communication is performed in the polling mode.
 476:Drivers/STM32F1xx_HAL_Driver/Src/stm32f1xx_hal_i2c.c ****             The status of all data processing is returned by the same function
 477:Drivers/STM32F1xx_HAL_Driver/Src/stm32f1xx_hal_i2c.c ****             after finishing transfer.
 478:Drivers/STM32F1xx_HAL_Driver/Src/stm32f1xx_hal_i2c.c ****        (++) No-Blocking mode : The communication is performed using Interrupts 
 479:Drivers/STM32F1xx_HAL_Driver/Src/stm32f1xx_hal_i2c.c ****             or DMA. These functions return the status of the transfer startup.
 480:Drivers/STM32F1xx_HAL_Driver/Src/stm32f1xx_hal_i2c.c ****             The end of the data processing will be indicated through the
 481:Drivers/STM32F1xx_HAL_Driver/Src/stm32f1xx_hal_i2c.c ****             dedicated I2C IRQ when using Interrupt mode or the DMA IRQ when
 482:Drivers/STM32F1xx_HAL_Driver/Src/stm32f1xx_hal_i2c.c ****             using DMA mode.
 483:Drivers/STM32F1xx_HAL_Driver/Src/stm32f1xx_hal_i2c.c **** 
 484:Drivers/STM32F1xx_HAL_Driver/Src/stm32f1xx_hal_i2c.c ****     (#) Blocking mode functions are :
 485:Drivers/STM32F1xx_HAL_Driver/Src/stm32f1xx_hal_i2c.c ****         (++) HAL_I2C_Master_Transmit()
 486:Drivers/STM32F1xx_HAL_Driver/Src/stm32f1xx_hal_i2c.c ****         (++) HAL_I2C_Master_Receive()
 487:Drivers/STM32F1xx_HAL_Driver/Src/stm32f1xx_hal_i2c.c ****         (++) HAL_I2C_Slave_Transmit()
 488:Drivers/STM32F1xx_HAL_Driver/Src/stm32f1xx_hal_i2c.c ****         (++) HAL_I2C_Slave_Receive()
 489:Drivers/STM32F1xx_HAL_Driver/Src/stm32f1xx_hal_i2c.c ****         (++) HAL_I2C_Mem_Write()
 490:Drivers/STM32F1xx_HAL_Driver/Src/stm32f1xx_hal_i2c.c ****         (++) HAL_I2C_Mem_Read()
 491:Drivers/STM32F1xx_HAL_Driver/Src/stm32f1xx_hal_i2c.c ****         (++) HAL_I2C_IsDeviceReady()
 492:Drivers/STM32F1xx_HAL_Driver/Src/stm32f1xx_hal_i2c.c **** 
 493:Drivers/STM32F1xx_HAL_Driver/Src/stm32f1xx_hal_i2c.c ****     (#) No-Blocking mode functions with Interrupt are :
 494:Drivers/STM32F1xx_HAL_Driver/Src/stm32f1xx_hal_i2c.c ****         (++) HAL_I2C_Master_Transmit_IT()
 495:Drivers/STM32F1xx_HAL_Driver/Src/stm32f1xx_hal_i2c.c ****         (++) HAL_I2C_Master_Receive_IT()
 496:Drivers/STM32F1xx_HAL_Driver/Src/stm32f1xx_hal_i2c.c ****         (++) HAL_I2C_Slave_Transmit_IT()
ARM GAS  /var/folders/kh/x4vltyy52lbg7p4pcyglc5080000gp/T//cccbl2Nm.s 			page 16


 497:Drivers/STM32F1xx_HAL_Driver/Src/stm32f1xx_hal_i2c.c ****         (++) HAL_I2C_Slave_Receive_IT()
 498:Drivers/STM32F1xx_HAL_Driver/Src/stm32f1xx_hal_i2c.c ****         (++) HAL_I2C_Mem_Write_IT()
 499:Drivers/STM32F1xx_HAL_Driver/Src/stm32f1xx_hal_i2c.c ****         (++) HAL_I2C_Mem_Read_IT()
 500:Drivers/STM32F1xx_HAL_Driver/Src/stm32f1xx_hal_i2c.c **** 
 501:Drivers/STM32F1xx_HAL_Driver/Src/stm32f1xx_hal_i2c.c ****     (#) No-Blocking mode functions with DMA are :
 502:Drivers/STM32F1xx_HAL_Driver/Src/stm32f1xx_hal_i2c.c ****         (++) HAL_I2C_Master_Transmit_DMA()
 503:Drivers/STM32F1xx_HAL_Driver/Src/stm32f1xx_hal_i2c.c ****         (++) HAL_I2C_Master_Receive_DMA()
 504:Drivers/STM32F1xx_HAL_Driver/Src/stm32f1xx_hal_i2c.c ****         (++) HAL_I2C_Slave_Transmit_DMA()
 505:Drivers/STM32F1xx_HAL_Driver/Src/stm32f1xx_hal_i2c.c ****         (++) HAL_I2C_Slave_Receive_DMA()
 506:Drivers/STM32F1xx_HAL_Driver/Src/stm32f1xx_hal_i2c.c ****         (++) HAL_I2C_Mem_Write_DMA()
 507:Drivers/STM32F1xx_HAL_Driver/Src/stm32f1xx_hal_i2c.c ****         (++) HAL_I2C_Mem_Read_DMA()
 508:Drivers/STM32F1xx_HAL_Driver/Src/stm32f1xx_hal_i2c.c **** 
 509:Drivers/STM32F1xx_HAL_Driver/Src/stm32f1xx_hal_i2c.c ****     (#) A set of Transfer Complete Callbacks are provided in non Blocking mode:
 510:Drivers/STM32F1xx_HAL_Driver/Src/stm32f1xx_hal_i2c.c ****         (++) HAL_I2C_MemTxCpltCallback()
 511:Drivers/STM32F1xx_HAL_Driver/Src/stm32f1xx_hal_i2c.c ****         (++) HAL_I2C_MemRxCpltCallback()
 512:Drivers/STM32F1xx_HAL_Driver/Src/stm32f1xx_hal_i2c.c ****         (++) HAL_I2C_MasterTxCpltCallback()
 513:Drivers/STM32F1xx_HAL_Driver/Src/stm32f1xx_hal_i2c.c ****         (++) HAL_I2C_MasterRxCpltCallback()
 514:Drivers/STM32F1xx_HAL_Driver/Src/stm32f1xx_hal_i2c.c ****         (++) HAL_I2C_SlaveTxCpltCallback()
 515:Drivers/STM32F1xx_HAL_Driver/Src/stm32f1xx_hal_i2c.c ****         (++) HAL_I2C_SlaveRxCpltCallback()
 516:Drivers/STM32F1xx_HAL_Driver/Src/stm32f1xx_hal_i2c.c ****         (++) HAL_I2C_ErrorCallback()
 517:Drivers/STM32F1xx_HAL_Driver/Src/stm32f1xx_hal_i2c.c **** 
 518:Drivers/STM32F1xx_HAL_Driver/Src/stm32f1xx_hal_i2c.c **** @endverbatim
 519:Drivers/STM32F1xx_HAL_Driver/Src/stm32f1xx_hal_i2c.c ****   * @{
 520:Drivers/STM32F1xx_HAL_Driver/Src/stm32f1xx_hal_i2c.c ****   */
 521:Drivers/STM32F1xx_HAL_Driver/Src/stm32f1xx_hal_i2c.c **** 
 522:Drivers/STM32F1xx_HAL_Driver/Src/stm32f1xx_hal_i2c.c **** /**
 523:Drivers/STM32F1xx_HAL_Driver/Src/stm32f1xx_hal_i2c.c ****   * @brief  Transmits in master mode an amount of data in blocking mode.
 524:Drivers/STM32F1xx_HAL_Driver/Src/stm32f1xx_hal_i2c.c ****   * @param  hi2c Pointer to a I2C_HandleTypeDef structure that contains
 525:Drivers/STM32F1xx_HAL_Driver/Src/stm32f1xx_hal_i2c.c ****   *                the configuration information for the specified I2C.
 526:Drivers/STM32F1xx_HAL_Driver/Src/stm32f1xx_hal_i2c.c ****   * @param  DevAddress Target device address
 527:Drivers/STM32F1xx_HAL_Driver/Src/stm32f1xx_hal_i2c.c ****   * @param  pData Pointer to data buffer
 528:Drivers/STM32F1xx_HAL_Driver/Src/stm32f1xx_hal_i2c.c ****   * @param  Size Amount of data to be sent
 529:Drivers/STM32F1xx_HAL_Driver/Src/stm32f1xx_hal_i2c.c ****   * @param  Timeout Timeout duration
 530:Drivers/STM32F1xx_HAL_Driver/Src/stm32f1xx_hal_i2c.c ****   * @retval HAL status
 531:Drivers/STM32F1xx_HAL_Driver/Src/stm32f1xx_hal_i2c.c ****   */
 532:Drivers/STM32F1xx_HAL_Driver/Src/stm32f1xx_hal_i2c.c **** HAL_StatusTypeDef HAL_I2C_Master_Transmit(I2C_HandleTypeDef *hi2c, uint16_t DevAddress, uint8_t *pD
 533:Drivers/STM32F1xx_HAL_Driver/Src/stm32f1xx_hal_i2c.c **** {
 369              		.loc 1 533 0
 370              		.cfi_startproc
 371              		@ args = 4, pretend = 0, frame = 24
 372              		@ frame_needed = 1, uses_anonymous_args = 0
 373 0000 80B5     		push	{r7, lr}
 374              	.LCFI22:
 375              		.cfi_def_cfa_offset 8
 376              		.cfi_offset 7, -8
 377              		.cfi_offset 14, -4
 378 0002 86B0     		sub	sp, sp, #24
 379              	.LCFI23:
 380              		.cfi_def_cfa_offset 32
 381 0004 00AF     		add	r7, sp, #0
 382              	.LCFI24:
 383              		.cfi_def_cfa_register 7
 384 0006 F860     		str	r0, [r7, #12]
 385 0008 7A60     		str	r2, [r7, #4]
 386 000a 1A46     		mov	r2, r3
 387 000c 0B46     		mov	r3, r1	@ movhi
 388 000e 7B81     		strh	r3, [r7, #10]	@ movhi
ARM GAS  /var/folders/kh/x4vltyy52lbg7p4pcyglc5080000gp/T//cccbl2Nm.s 			page 17


 389 0010 1346     		mov	r3, r2	@ movhi
 390 0012 3B81     		strh	r3, [r7, #8]	@ movhi
 534:Drivers/STM32F1xx_HAL_Driver/Src/stm32f1xx_hal_i2c.c ****   if(hi2c->State == HAL_I2C_STATE_READY)
 391              		.loc 1 534 0
 392 0014 FB68     		ldr	r3, [r7, #12]
 393 0016 93F83530 		ldrb	r3, [r3, #53]
 394 001a DBB2     		uxtb	r3, r3
 395 001c 202B     		cmp	r3, #32
 396 001e 40F0B680 		bne	.L15
 535:Drivers/STM32F1xx_HAL_Driver/Src/stm32f1xx_hal_i2c.c ****   {
 536:Drivers/STM32F1xx_HAL_Driver/Src/stm32f1xx_hal_i2c.c ****     if((pData == NULL) || (Size == 0))
 397              		.loc 1 536 0
 398 0022 7B68     		ldr	r3, [r7, #4]
 399 0024 002B     		cmp	r3, #0
 400 0026 02D0     		beq	.L16
 401              		.loc 1 536 0 is_stmt 0 discriminator 1
 402 0028 3B89     		ldrh	r3, [r7, #8]
 403 002a 002B     		cmp	r3, #0
 404 002c 01D1     		bne	.L17
 405              	.L16:
 537:Drivers/STM32F1xx_HAL_Driver/Src/stm32f1xx_hal_i2c.c ****     {
 538:Drivers/STM32F1xx_HAL_Driver/Src/stm32f1xx_hal_i2c.c ****       return  HAL_ERROR;
 406              		.loc 1 538 0 is_stmt 1
 407 002e 0123     		movs	r3, #1
 408 0030 AEE0     		b	.L18
 409              	.L17:
 539:Drivers/STM32F1xx_HAL_Driver/Src/stm32f1xx_hal_i2c.c ****     }
 540:Drivers/STM32F1xx_HAL_Driver/Src/stm32f1xx_hal_i2c.c **** 
 541:Drivers/STM32F1xx_HAL_Driver/Src/stm32f1xx_hal_i2c.c ****     /* Wait until BUSY flag is reset */
 542:Drivers/STM32F1xx_HAL_Driver/Src/stm32f1xx_hal_i2c.c ****     if(I2C_WaitOnFlagUntilTimeout(hi2c, I2C_FLAG_BUSY, SET, I2C_TIMEOUT_BUSY_FLAG) != HAL_OK)
 410              		.loc 1 542 0
 411 0032 42F21073 		movw	r3, #10000
 412 0036 0122     		movs	r2, #1
 413 0038 5749     		ldr	r1, .L29
 414 003a F868     		ldr	r0, [r7, #12]
 415 003c FFF7FEFF 		bl	I2C_WaitOnFlagUntilTimeout
 416 0040 0346     		mov	r3, r0
 417 0042 002B     		cmp	r3, #0
 418 0044 01D0     		beq	.L19
 543:Drivers/STM32F1xx_HAL_Driver/Src/stm32f1xx_hal_i2c.c ****     {
 544:Drivers/STM32F1xx_HAL_Driver/Src/stm32f1xx_hal_i2c.c ****       return HAL_BUSY;
 419              		.loc 1 544 0
 420 0046 0223     		movs	r3, #2
 421 0048 A2E0     		b	.L18
 422              	.L19:
 545:Drivers/STM32F1xx_HAL_Driver/Src/stm32f1xx_hal_i2c.c ****     }
 546:Drivers/STM32F1xx_HAL_Driver/Src/stm32f1xx_hal_i2c.c **** 
 547:Drivers/STM32F1xx_HAL_Driver/Src/stm32f1xx_hal_i2c.c ****     /* Process Locked */
 548:Drivers/STM32F1xx_HAL_Driver/Src/stm32f1xx_hal_i2c.c ****     __HAL_LOCK(hi2c);
 423              		.loc 1 548 0
 424 004a FB68     		ldr	r3, [r7, #12]
 425 004c 93F83430 		ldrb	r3, [r3, #52]	@ zero_extendqisi2
 426 0050 012B     		cmp	r3, #1
 427 0052 01D1     		bne	.L20
 428              		.loc 1 548 0 is_stmt 0 discriminator 1
 429 0054 0223     		movs	r3, #2
 430 0056 9BE0     		b	.L18
ARM GAS  /var/folders/kh/x4vltyy52lbg7p4pcyglc5080000gp/T//cccbl2Nm.s 			page 18


 431              	.L20:
 432              		.loc 1 548 0 discriminator 2
 433 0058 FB68     		ldr	r3, [r7, #12]
 434 005a 0122     		movs	r2, #1
 435 005c 83F83420 		strb	r2, [r3, #52]
 549:Drivers/STM32F1xx_HAL_Driver/Src/stm32f1xx_hal_i2c.c **** 
 550:Drivers/STM32F1xx_HAL_Driver/Src/stm32f1xx_hal_i2c.c ****     /* Disable Pos */
 551:Drivers/STM32F1xx_HAL_Driver/Src/stm32f1xx_hal_i2c.c ****     CLEAR_BIT(hi2c->Instance->CR1, I2C_CR1_POS);
 436              		.loc 1 551 0 is_stmt 1 discriminator 2
 437 0060 FB68     		ldr	r3, [r7, #12]
 438 0062 1B68     		ldr	r3, [r3]
 439 0064 FA68     		ldr	r2, [r7, #12]
 440 0066 1268     		ldr	r2, [r2]
 441 0068 1268     		ldr	r2, [r2]
 442 006a 22F40062 		bic	r2, r2, #2048
 443 006e 1A60     		str	r2, [r3]
 552:Drivers/STM32F1xx_HAL_Driver/Src/stm32f1xx_hal_i2c.c **** 
 553:Drivers/STM32F1xx_HAL_Driver/Src/stm32f1xx_hal_i2c.c ****     hi2c->State = HAL_I2C_STATE_BUSY_TX;
 444              		.loc 1 553 0 discriminator 2
 445 0070 FB68     		ldr	r3, [r7, #12]
 446 0072 2122     		movs	r2, #33
 447 0074 83F83520 		strb	r2, [r3, #53]
 554:Drivers/STM32F1xx_HAL_Driver/Src/stm32f1xx_hal_i2c.c ****     hi2c->Mode = HAL_I2C_MODE_MASTER;
 448              		.loc 1 554 0 discriminator 2
 449 0078 FB68     		ldr	r3, [r7, #12]
 450 007a 1022     		movs	r2, #16
 451 007c 83F83620 		strb	r2, [r3, #54]
 555:Drivers/STM32F1xx_HAL_Driver/Src/stm32f1xx_hal_i2c.c ****     hi2c->ErrorCode = HAL_I2C_ERROR_NONE;
 452              		.loc 1 555 0 discriminator 2
 453 0080 FB68     		ldr	r3, [r7, #12]
 454 0082 0022     		movs	r2, #0
 455 0084 9A63     		str	r2, [r3, #56]
 556:Drivers/STM32F1xx_HAL_Driver/Src/stm32f1xx_hal_i2c.c **** 
 557:Drivers/STM32F1xx_HAL_Driver/Src/stm32f1xx_hal_i2c.c ****     /* Send Slave Address */
 558:Drivers/STM32F1xx_HAL_Driver/Src/stm32f1xx_hal_i2c.c ****     if(I2C_MasterRequestWrite(hi2c, DevAddress, Timeout) != HAL_OK)
 456              		.loc 1 558 0 discriminator 2
 457 0086 7B89     		ldrh	r3, [r7, #10]
 458 0088 3A6A     		ldr	r2, [r7, #32]
 459 008a 1946     		mov	r1, r3
 460 008c F868     		ldr	r0, [r7, #12]
 461 008e FFF7FEFF 		bl	I2C_MasterRequestWrite
 462 0092 0346     		mov	r3, r0
 463 0094 002B     		cmp	r3, #0
 464 0096 0FD0     		beq	.L21
 559:Drivers/STM32F1xx_HAL_Driver/Src/stm32f1xx_hal_i2c.c ****     {
 560:Drivers/STM32F1xx_HAL_Driver/Src/stm32f1xx_hal_i2c.c ****       if(hi2c->ErrorCode == HAL_I2C_ERROR_AF)
 465              		.loc 1 560 0
 466 0098 FB68     		ldr	r3, [r7, #12]
 467 009a 9B6B     		ldr	r3, [r3, #56]
 468 009c 042B     		cmp	r3, #4
 469 009e 05D1     		bne	.L22
 561:Drivers/STM32F1xx_HAL_Driver/Src/stm32f1xx_hal_i2c.c ****       {
 562:Drivers/STM32F1xx_HAL_Driver/Src/stm32f1xx_hal_i2c.c ****         /* Process Unlocked */
 563:Drivers/STM32F1xx_HAL_Driver/Src/stm32f1xx_hal_i2c.c ****         __HAL_UNLOCK(hi2c);
 470              		.loc 1 563 0
 471 00a0 FB68     		ldr	r3, [r7, #12]
 472 00a2 0022     		movs	r2, #0
ARM GAS  /var/folders/kh/x4vltyy52lbg7p4pcyglc5080000gp/T//cccbl2Nm.s 			page 19


 473 00a4 83F83420 		strb	r2, [r3, #52]
 564:Drivers/STM32F1xx_HAL_Driver/Src/stm32f1xx_hal_i2c.c ****         return HAL_ERROR;
 474              		.loc 1 564 0
 475 00a8 0123     		movs	r3, #1
 476 00aa 71E0     		b	.L18
 477              	.L22:
 565:Drivers/STM32F1xx_HAL_Driver/Src/stm32f1xx_hal_i2c.c ****       }
 566:Drivers/STM32F1xx_HAL_Driver/Src/stm32f1xx_hal_i2c.c ****       else
 567:Drivers/STM32F1xx_HAL_Driver/Src/stm32f1xx_hal_i2c.c ****       {
 568:Drivers/STM32F1xx_HAL_Driver/Src/stm32f1xx_hal_i2c.c ****         /* Process Unlocked */
 569:Drivers/STM32F1xx_HAL_Driver/Src/stm32f1xx_hal_i2c.c ****         __HAL_UNLOCK(hi2c);
 478              		.loc 1 569 0
 479 00ac FB68     		ldr	r3, [r7, #12]
 480 00ae 0022     		movs	r2, #0
 481 00b0 83F83420 		strb	r2, [r3, #52]
 570:Drivers/STM32F1xx_HAL_Driver/Src/stm32f1xx_hal_i2c.c ****         return HAL_TIMEOUT;
 482              		.loc 1 570 0
 483 00b4 0323     		movs	r3, #3
 484 00b6 6BE0     		b	.L18
 485              	.L21:
 486              	.LBB40:
 571:Drivers/STM32F1xx_HAL_Driver/Src/stm32f1xx_hal_i2c.c ****       }
 572:Drivers/STM32F1xx_HAL_Driver/Src/stm32f1xx_hal_i2c.c ****     }
 573:Drivers/STM32F1xx_HAL_Driver/Src/stm32f1xx_hal_i2c.c **** 
 574:Drivers/STM32F1xx_HAL_Driver/Src/stm32f1xx_hal_i2c.c ****     /* Clear ADDR flag */
 575:Drivers/STM32F1xx_HAL_Driver/Src/stm32f1xx_hal_i2c.c ****     __HAL_I2C_CLEAR_ADDRFLAG(hi2c);
 487              		.loc 1 575 0
 488 00b8 FB68     		ldr	r3, [r7, #12]
 489 00ba 1B68     		ldr	r3, [r3]
 490 00bc 5B69     		ldr	r3, [r3, #20]
 491 00be 7B61     		str	r3, [r7, #20]
 492 00c0 FB68     		ldr	r3, [r7, #12]
 493 00c2 1B68     		ldr	r3, [r3]
 494 00c4 9B69     		ldr	r3, [r3, #24]
 495 00c6 7B61     		str	r3, [r7, #20]
 496 00c8 7B69     		ldr	r3, [r7, #20]
 497              	.LBE40:
 576:Drivers/STM32F1xx_HAL_Driver/Src/stm32f1xx_hal_i2c.c **** 
 577:Drivers/STM32F1xx_HAL_Driver/Src/stm32f1xx_hal_i2c.c ****     while(Size > 0)
 498              		.loc 1 577 0
 499 00ca 34E0     		b	.L23
 500              	.L26:
 578:Drivers/STM32F1xx_HAL_Driver/Src/stm32f1xx_hal_i2c.c ****     {
 579:Drivers/STM32F1xx_HAL_Driver/Src/stm32f1xx_hal_i2c.c ****       /* Wait until TXE flag is set */
 580:Drivers/STM32F1xx_HAL_Driver/Src/stm32f1xx_hal_i2c.c ****       if(I2C_WaitOnTXEFlagUntilTimeout(hi2c, Timeout) != HAL_OK)
 501              		.loc 1 580 0
 502 00cc 396A     		ldr	r1, [r7, #32]
 503 00ce F868     		ldr	r0, [r7, #12]
 504 00d0 FFF7FEFF 		bl	I2C_WaitOnTXEFlagUntilTimeout
 505 00d4 0346     		mov	r3, r0
 506 00d6 002B     		cmp	r3, #0
 507 00d8 0FD0     		beq	.L24
 581:Drivers/STM32F1xx_HAL_Driver/Src/stm32f1xx_hal_i2c.c ****       {
 582:Drivers/STM32F1xx_HAL_Driver/Src/stm32f1xx_hal_i2c.c ****         if(hi2c->ErrorCode == HAL_I2C_ERROR_AF)
 508              		.loc 1 582 0
 509 00da FB68     		ldr	r3, [r7, #12]
 510 00dc 9B6B     		ldr	r3, [r3, #56]
ARM GAS  /var/folders/kh/x4vltyy52lbg7p4pcyglc5080000gp/T//cccbl2Nm.s 			page 20


 511 00de 042B     		cmp	r3, #4
 512 00e0 09D1     		bne	.L25
 583:Drivers/STM32F1xx_HAL_Driver/Src/stm32f1xx_hal_i2c.c ****         {
 584:Drivers/STM32F1xx_HAL_Driver/Src/stm32f1xx_hal_i2c.c ****           /* Generate Stop */
 585:Drivers/STM32F1xx_HAL_Driver/Src/stm32f1xx_hal_i2c.c ****           SET_BIT(hi2c->Instance->CR1,I2C_CR1_STOP);
 513              		.loc 1 585 0
 514 00e2 FB68     		ldr	r3, [r7, #12]
 515 00e4 1B68     		ldr	r3, [r3]
 516 00e6 FA68     		ldr	r2, [r7, #12]
 517 00e8 1268     		ldr	r2, [r2]
 518 00ea 1268     		ldr	r2, [r2]
 519 00ec 42F40072 		orr	r2, r2, #512
 520 00f0 1A60     		str	r2, [r3]
 586:Drivers/STM32F1xx_HAL_Driver/Src/stm32f1xx_hal_i2c.c ****           return HAL_ERROR;
 521              		.loc 1 586 0
 522 00f2 0123     		movs	r3, #1
 523 00f4 4CE0     		b	.L18
 524              	.L25:
 587:Drivers/STM32F1xx_HAL_Driver/Src/stm32f1xx_hal_i2c.c ****         }
 588:Drivers/STM32F1xx_HAL_Driver/Src/stm32f1xx_hal_i2c.c ****         else
 589:Drivers/STM32F1xx_HAL_Driver/Src/stm32f1xx_hal_i2c.c ****         {
 590:Drivers/STM32F1xx_HAL_Driver/Src/stm32f1xx_hal_i2c.c ****           return HAL_TIMEOUT;
 525              		.loc 1 590 0
 526 00f6 0323     		movs	r3, #3
 527 00f8 4AE0     		b	.L18
 528              	.L24:
 591:Drivers/STM32F1xx_HAL_Driver/Src/stm32f1xx_hal_i2c.c ****         }
 592:Drivers/STM32F1xx_HAL_Driver/Src/stm32f1xx_hal_i2c.c ****       }
 593:Drivers/STM32F1xx_HAL_Driver/Src/stm32f1xx_hal_i2c.c **** 
 594:Drivers/STM32F1xx_HAL_Driver/Src/stm32f1xx_hal_i2c.c ****       /* Write data to DR */
 595:Drivers/STM32F1xx_HAL_Driver/Src/stm32f1xx_hal_i2c.c ****       hi2c->Instance->DR = (*pData++);
 529              		.loc 1 595 0
 530 00fa FB68     		ldr	r3, [r7, #12]
 531 00fc 1A68     		ldr	r2, [r3]
 532 00fe 7B68     		ldr	r3, [r7, #4]
 533 0100 591C     		adds	r1, r3, #1
 534 0102 7960     		str	r1, [r7, #4]
 535 0104 1B78     		ldrb	r3, [r3]	@ zero_extendqisi2
 536 0106 1361     		str	r3, [r2, #16]
 596:Drivers/STM32F1xx_HAL_Driver/Src/stm32f1xx_hal_i2c.c ****       Size--;
 537              		.loc 1 596 0
 538 0108 3B89     		ldrh	r3, [r7, #8]
 539 010a 013B     		subs	r3, r3, #1
 540 010c 3B81     		strh	r3, [r7, #8]	@ movhi
 597:Drivers/STM32F1xx_HAL_Driver/Src/stm32f1xx_hal_i2c.c **** 
 598:Drivers/STM32F1xx_HAL_Driver/Src/stm32f1xx_hal_i2c.c ****       if((__HAL_I2C_GET_FLAG(hi2c, I2C_FLAG_BTF) == SET) && (Size != 0))
 541              		.loc 1 598 0
 542 010e FB68     		ldr	r3, [r7, #12]
 543 0110 1B68     		ldr	r3, [r3]
 544 0112 5B69     		ldr	r3, [r3, #20]
 545 0114 03F00403 		and	r3, r3, #4
 546 0118 002B     		cmp	r3, #0
 547 011a 0CD0     		beq	.L23
 548              		.loc 1 598 0 is_stmt 0 discriminator 1
 549 011c 3B89     		ldrh	r3, [r7, #8]
 550 011e 002B     		cmp	r3, #0
 551 0120 09D0     		beq	.L23
ARM GAS  /var/folders/kh/x4vltyy52lbg7p4pcyglc5080000gp/T//cccbl2Nm.s 			page 21


 599:Drivers/STM32F1xx_HAL_Driver/Src/stm32f1xx_hal_i2c.c ****       {
 600:Drivers/STM32F1xx_HAL_Driver/Src/stm32f1xx_hal_i2c.c ****         /* Write data to DR */
 601:Drivers/STM32F1xx_HAL_Driver/Src/stm32f1xx_hal_i2c.c ****         hi2c->Instance->DR = (*pData++);
 552              		.loc 1 601 0 is_stmt 1
 553 0122 FB68     		ldr	r3, [r7, #12]
 554 0124 1A68     		ldr	r2, [r3]
 555 0126 7B68     		ldr	r3, [r7, #4]
 556 0128 591C     		adds	r1, r3, #1
 557 012a 7960     		str	r1, [r7, #4]
 558 012c 1B78     		ldrb	r3, [r3]	@ zero_extendqisi2
 559 012e 1361     		str	r3, [r2, #16]
 602:Drivers/STM32F1xx_HAL_Driver/Src/stm32f1xx_hal_i2c.c ****         Size--;
 560              		.loc 1 602 0
 561 0130 3B89     		ldrh	r3, [r7, #8]
 562 0132 013B     		subs	r3, r3, #1
 563 0134 3B81     		strh	r3, [r7, #8]	@ movhi
 564              	.L23:
 577:Drivers/STM32F1xx_HAL_Driver/Src/stm32f1xx_hal_i2c.c ****     {
 565              		.loc 1 577 0
 566 0136 3B89     		ldrh	r3, [r7, #8]
 567 0138 002B     		cmp	r3, #0
 568 013a C7D1     		bne	.L26
 603:Drivers/STM32F1xx_HAL_Driver/Src/stm32f1xx_hal_i2c.c ****       }
 604:Drivers/STM32F1xx_HAL_Driver/Src/stm32f1xx_hal_i2c.c ****     }
 605:Drivers/STM32F1xx_HAL_Driver/Src/stm32f1xx_hal_i2c.c **** 
 606:Drivers/STM32F1xx_HAL_Driver/Src/stm32f1xx_hal_i2c.c ****     /* Wait until BTF flag is set */
 607:Drivers/STM32F1xx_HAL_Driver/Src/stm32f1xx_hal_i2c.c ****     if(I2C_WaitOnBTFFlagUntilTimeout(hi2c, Timeout) != HAL_OK)
 569              		.loc 1 607 0
 570 013c 396A     		ldr	r1, [r7, #32]
 571 013e F868     		ldr	r0, [r7, #12]
 572 0140 FFF7FEFF 		bl	I2C_WaitOnBTFFlagUntilTimeout
 573 0144 0346     		mov	r3, r0
 574 0146 002B     		cmp	r3, #0
 575 0148 0FD0     		beq	.L27
 608:Drivers/STM32F1xx_HAL_Driver/Src/stm32f1xx_hal_i2c.c ****     {
 609:Drivers/STM32F1xx_HAL_Driver/Src/stm32f1xx_hal_i2c.c ****       if(hi2c->ErrorCode == HAL_I2C_ERROR_AF)
 576              		.loc 1 609 0
 577 014a FB68     		ldr	r3, [r7, #12]
 578 014c 9B6B     		ldr	r3, [r3, #56]
 579 014e 042B     		cmp	r3, #4
 580 0150 09D1     		bne	.L28
 610:Drivers/STM32F1xx_HAL_Driver/Src/stm32f1xx_hal_i2c.c ****       {
 611:Drivers/STM32F1xx_HAL_Driver/Src/stm32f1xx_hal_i2c.c ****         /* Generate Stop */
 612:Drivers/STM32F1xx_HAL_Driver/Src/stm32f1xx_hal_i2c.c ****         SET_BIT(hi2c->Instance->CR1,I2C_CR1_STOP);
 581              		.loc 1 612 0
 582 0152 FB68     		ldr	r3, [r7, #12]
 583 0154 1B68     		ldr	r3, [r3]
 584 0156 FA68     		ldr	r2, [r7, #12]
 585 0158 1268     		ldr	r2, [r2]
 586 015a 1268     		ldr	r2, [r2]
 587 015c 42F40072 		orr	r2, r2, #512
 588 0160 1A60     		str	r2, [r3]
 613:Drivers/STM32F1xx_HAL_Driver/Src/stm32f1xx_hal_i2c.c ****         return HAL_ERROR;
 589              		.loc 1 613 0
 590 0162 0123     		movs	r3, #1
 591 0164 14E0     		b	.L18
 592              	.L28:
ARM GAS  /var/folders/kh/x4vltyy52lbg7p4pcyglc5080000gp/T//cccbl2Nm.s 			page 22


 614:Drivers/STM32F1xx_HAL_Driver/Src/stm32f1xx_hal_i2c.c ****       }
 615:Drivers/STM32F1xx_HAL_Driver/Src/stm32f1xx_hal_i2c.c ****       else
 616:Drivers/STM32F1xx_HAL_Driver/Src/stm32f1xx_hal_i2c.c ****       {
 617:Drivers/STM32F1xx_HAL_Driver/Src/stm32f1xx_hal_i2c.c ****         return HAL_TIMEOUT;
 593              		.loc 1 617 0
 594 0166 0323     		movs	r3, #3
 595 0168 12E0     		b	.L18
 596              	.L27:
 618:Drivers/STM32F1xx_HAL_Driver/Src/stm32f1xx_hal_i2c.c ****       }
 619:Drivers/STM32F1xx_HAL_Driver/Src/stm32f1xx_hal_i2c.c ****     }
 620:Drivers/STM32F1xx_HAL_Driver/Src/stm32f1xx_hal_i2c.c **** 
 621:Drivers/STM32F1xx_HAL_Driver/Src/stm32f1xx_hal_i2c.c ****     /* Generate Stop */
 622:Drivers/STM32F1xx_HAL_Driver/Src/stm32f1xx_hal_i2c.c ****     SET_BIT(hi2c->Instance->CR1, I2C_CR1_STOP);
 597              		.loc 1 622 0
 598 016a FB68     		ldr	r3, [r7, #12]
 599 016c 1B68     		ldr	r3, [r3]
 600 016e FA68     		ldr	r2, [r7, #12]
 601 0170 1268     		ldr	r2, [r2]
 602 0172 1268     		ldr	r2, [r2]
 603 0174 42F40072 		orr	r2, r2, #512
 604 0178 1A60     		str	r2, [r3]
 623:Drivers/STM32F1xx_HAL_Driver/Src/stm32f1xx_hal_i2c.c **** 
 624:Drivers/STM32F1xx_HAL_Driver/Src/stm32f1xx_hal_i2c.c ****     hi2c->State = HAL_I2C_STATE_READY;
 605              		.loc 1 624 0
 606 017a FB68     		ldr	r3, [r7, #12]
 607 017c 2022     		movs	r2, #32
 608 017e 83F83520 		strb	r2, [r3, #53]
 625:Drivers/STM32F1xx_HAL_Driver/Src/stm32f1xx_hal_i2c.c **** 
 626:Drivers/STM32F1xx_HAL_Driver/Src/stm32f1xx_hal_i2c.c ****     /* Process Unlocked */
 627:Drivers/STM32F1xx_HAL_Driver/Src/stm32f1xx_hal_i2c.c ****     __HAL_UNLOCK(hi2c);
 609              		.loc 1 627 0
 610 0182 FB68     		ldr	r3, [r7, #12]
 611 0184 0022     		movs	r2, #0
 612 0186 83F83420 		strb	r2, [r3, #52]
 628:Drivers/STM32F1xx_HAL_Driver/Src/stm32f1xx_hal_i2c.c **** 
 629:Drivers/STM32F1xx_HAL_Driver/Src/stm32f1xx_hal_i2c.c ****     return HAL_OK;
 613              		.loc 1 629 0
 614 018a 0023     		movs	r3, #0
 615 018c 00E0     		b	.L18
 616              	.L15:
 630:Drivers/STM32F1xx_HAL_Driver/Src/stm32f1xx_hal_i2c.c ****   }
 631:Drivers/STM32F1xx_HAL_Driver/Src/stm32f1xx_hal_i2c.c ****   else
 632:Drivers/STM32F1xx_HAL_Driver/Src/stm32f1xx_hal_i2c.c ****   {
 633:Drivers/STM32F1xx_HAL_Driver/Src/stm32f1xx_hal_i2c.c ****     return HAL_BUSY;
 617              		.loc 1 633 0
 618 018e 0223     		movs	r3, #2
 619              	.L18:
 634:Drivers/STM32F1xx_HAL_Driver/Src/stm32f1xx_hal_i2c.c ****   }
 635:Drivers/STM32F1xx_HAL_Driver/Src/stm32f1xx_hal_i2c.c **** }
 620              		.loc 1 635 0
 621 0190 1846     		mov	r0, r3
 622 0192 1837     		adds	r7, r7, #24
 623              	.LCFI25:
 624              		.cfi_def_cfa_offset 8
 625 0194 BD46     		mov	sp, r7
 626              	.LCFI26:
 627              		.cfi_def_cfa_register 13
ARM GAS  /var/folders/kh/x4vltyy52lbg7p4pcyglc5080000gp/T//cccbl2Nm.s 			page 23


 628              		@ sp needed
 629 0196 80BD     		pop	{r7, pc}
 630              	.L30:
 631              		.align	2
 632              	.L29:
 633 0198 02001000 		.word	1048578
 634              		.cfi_endproc
 635              	.LFE68:
 637              		.section	.text.HAL_I2C_Master_Receive,"ax",%progbits
 638              		.align	2
 639              		.global	HAL_I2C_Master_Receive
 640              		.thumb
 641              		.thumb_func
 643              	HAL_I2C_Master_Receive:
 644              	.LFB69:
 636:Drivers/STM32F1xx_HAL_Driver/Src/stm32f1xx_hal_i2c.c **** 
 637:Drivers/STM32F1xx_HAL_Driver/Src/stm32f1xx_hal_i2c.c **** /**
 638:Drivers/STM32F1xx_HAL_Driver/Src/stm32f1xx_hal_i2c.c ****   * @brief  Receives in master mode an amount of data in blocking mode. 
 639:Drivers/STM32F1xx_HAL_Driver/Src/stm32f1xx_hal_i2c.c ****   * @param  hi2c Pointer to a I2C_HandleTypeDef structure that contains
 640:Drivers/STM32F1xx_HAL_Driver/Src/stm32f1xx_hal_i2c.c ****   *                the configuration information for the specified I2C.
 641:Drivers/STM32F1xx_HAL_Driver/Src/stm32f1xx_hal_i2c.c ****   * @param  DevAddress Target device address
 642:Drivers/STM32F1xx_HAL_Driver/Src/stm32f1xx_hal_i2c.c ****   * @param  pData Pointer to data buffer
 643:Drivers/STM32F1xx_HAL_Driver/Src/stm32f1xx_hal_i2c.c ****   * @param  Size Amount of data to be sent
 644:Drivers/STM32F1xx_HAL_Driver/Src/stm32f1xx_hal_i2c.c ****   * @param  Timeout Timeout duration
 645:Drivers/STM32F1xx_HAL_Driver/Src/stm32f1xx_hal_i2c.c ****   * @retval HAL status
 646:Drivers/STM32F1xx_HAL_Driver/Src/stm32f1xx_hal_i2c.c ****   */
 647:Drivers/STM32F1xx_HAL_Driver/Src/stm32f1xx_hal_i2c.c **** HAL_StatusTypeDef HAL_I2C_Master_Receive(I2C_HandleTypeDef *hi2c, uint16_t DevAddress, uint8_t *pDa
 648:Drivers/STM32F1xx_HAL_Driver/Src/stm32f1xx_hal_i2c.c **** {
 645              		.loc 1 648 0
 646              		.cfi_startproc
 647              		@ args = 4, pretend = 0, frame = 32
 648              		@ frame_needed = 1, uses_anonymous_args = 0
 649 0000 80B5     		push	{r7, lr}
 650              	.LCFI27:
 651              		.cfi_def_cfa_offset 8
 652              		.cfi_offset 7, -8
 653              		.cfi_offset 14, -4
 654 0002 88B0     		sub	sp, sp, #32
 655              	.LCFI28:
 656              		.cfi_def_cfa_offset 40
 657 0004 00AF     		add	r7, sp, #0
 658              	.LCFI29:
 659              		.cfi_def_cfa_register 7
 660 0006 F860     		str	r0, [r7, #12]
 661 0008 7A60     		str	r2, [r7, #4]
 662 000a 1A46     		mov	r2, r3
 663 000c 0B46     		mov	r3, r1	@ movhi
 664 000e 7B81     		strh	r3, [r7, #10]	@ movhi
 665 0010 1346     		mov	r3, r2	@ movhi
 666 0012 3B81     		strh	r3, [r7, #8]	@ movhi
 649:Drivers/STM32F1xx_HAL_Driver/Src/stm32f1xx_hal_i2c.c ****   if(hi2c->State == HAL_I2C_STATE_READY)
 667              		.loc 1 649 0
 668 0014 FB68     		ldr	r3, [r7, #12]
 669 0016 93F83530 		ldrb	r3, [r3, #53]
 670 001a DBB2     		uxtb	r3, r3
 671 001c 202B     		cmp	r3, #32
 672 001e 40F07981 		bne	.L32
ARM GAS  /var/folders/kh/x4vltyy52lbg7p4pcyglc5080000gp/T//cccbl2Nm.s 			page 24


 650:Drivers/STM32F1xx_HAL_Driver/Src/stm32f1xx_hal_i2c.c ****   {
 651:Drivers/STM32F1xx_HAL_Driver/Src/stm32f1xx_hal_i2c.c ****     if((pData == NULL) || (Size == 0))
 673              		.loc 1 651 0
 674 0022 7B68     		ldr	r3, [r7, #4]
 675 0024 002B     		cmp	r3, #0
 676 0026 02D0     		beq	.L33
 677              		.loc 1 651 0 is_stmt 0 discriminator 1
 678 0028 3B89     		ldrh	r3, [r7, #8]
 679 002a 002B     		cmp	r3, #0
 680 002c 01D1     		bne	.L34
 681              	.L33:
 652:Drivers/STM32F1xx_HAL_Driver/Src/stm32f1xx_hal_i2c.c ****     {
 653:Drivers/STM32F1xx_HAL_Driver/Src/stm32f1xx_hal_i2c.c ****       return  HAL_ERROR;
 682              		.loc 1 653 0 is_stmt 1
 683 002e 0123     		movs	r3, #1
 684 0030 71E1     		b	.L35
 685              	.L34:
 654:Drivers/STM32F1xx_HAL_Driver/Src/stm32f1xx_hal_i2c.c ****     }
 655:Drivers/STM32F1xx_HAL_Driver/Src/stm32f1xx_hal_i2c.c **** 
 656:Drivers/STM32F1xx_HAL_Driver/Src/stm32f1xx_hal_i2c.c ****     /* Wait until BUSY flag is reset */
 657:Drivers/STM32F1xx_HAL_Driver/Src/stm32f1xx_hal_i2c.c ****     if(I2C_WaitOnFlagUntilTimeout(hi2c, I2C_FLAG_BUSY, SET, I2C_TIMEOUT_BUSY_FLAG) != HAL_OK)
 686              		.loc 1 657 0
 687 0032 42F21073 		movw	r3, #10000
 688 0036 0122     		movs	r2, #1
 689 0038 9549     		ldr	r1, .L56
 690 003a F868     		ldr	r0, [r7, #12]
 691 003c FFF7FEFF 		bl	I2C_WaitOnFlagUntilTimeout
 692 0040 0346     		mov	r3, r0
 693 0042 002B     		cmp	r3, #0
 694 0044 01D0     		beq	.L36
 658:Drivers/STM32F1xx_HAL_Driver/Src/stm32f1xx_hal_i2c.c ****     {
 659:Drivers/STM32F1xx_HAL_Driver/Src/stm32f1xx_hal_i2c.c ****       return HAL_BUSY;
 695              		.loc 1 659 0
 696 0046 0223     		movs	r3, #2
 697 0048 65E1     		b	.L35
 698              	.L36:
 660:Drivers/STM32F1xx_HAL_Driver/Src/stm32f1xx_hal_i2c.c ****     }
 661:Drivers/STM32F1xx_HAL_Driver/Src/stm32f1xx_hal_i2c.c **** 
 662:Drivers/STM32F1xx_HAL_Driver/Src/stm32f1xx_hal_i2c.c ****     /* Process Locked */
 663:Drivers/STM32F1xx_HAL_Driver/Src/stm32f1xx_hal_i2c.c ****     __HAL_LOCK(hi2c);
 699              		.loc 1 663 0
 700 004a FB68     		ldr	r3, [r7, #12]
 701 004c 93F83430 		ldrb	r3, [r3, #52]	@ zero_extendqisi2
 702 0050 012B     		cmp	r3, #1
 703 0052 01D1     		bne	.L37
 704              		.loc 1 663 0 is_stmt 0 discriminator 1
 705 0054 0223     		movs	r3, #2
 706 0056 5EE1     		b	.L35
 707              	.L37:
 708              		.loc 1 663 0 discriminator 2
 709 0058 FB68     		ldr	r3, [r7, #12]
 710 005a 0122     		movs	r2, #1
 711 005c 83F83420 		strb	r2, [r3, #52]
 664:Drivers/STM32F1xx_HAL_Driver/Src/stm32f1xx_hal_i2c.c **** 
 665:Drivers/STM32F1xx_HAL_Driver/Src/stm32f1xx_hal_i2c.c ****     /* Disable Pos */
 666:Drivers/STM32F1xx_HAL_Driver/Src/stm32f1xx_hal_i2c.c ****     CLEAR_BIT(hi2c->Instance->CR1, I2C_CR1_POS);
 712              		.loc 1 666 0 is_stmt 1 discriminator 2
ARM GAS  /var/folders/kh/x4vltyy52lbg7p4pcyglc5080000gp/T//cccbl2Nm.s 			page 25


 713 0060 FB68     		ldr	r3, [r7, #12]
 714 0062 1B68     		ldr	r3, [r3]
 715 0064 FA68     		ldr	r2, [r7, #12]
 716 0066 1268     		ldr	r2, [r2]
 717 0068 1268     		ldr	r2, [r2]
 718 006a 22F40062 		bic	r2, r2, #2048
 719 006e 1A60     		str	r2, [r3]
 667:Drivers/STM32F1xx_HAL_Driver/Src/stm32f1xx_hal_i2c.c **** 
 668:Drivers/STM32F1xx_HAL_Driver/Src/stm32f1xx_hal_i2c.c ****     hi2c->State = HAL_I2C_STATE_BUSY_RX;
 720              		.loc 1 668 0 discriminator 2
 721 0070 FB68     		ldr	r3, [r7, #12]
 722 0072 2222     		movs	r2, #34
 723 0074 83F83520 		strb	r2, [r3, #53]
 669:Drivers/STM32F1xx_HAL_Driver/Src/stm32f1xx_hal_i2c.c ****     hi2c->Mode = HAL_I2C_MODE_MASTER;
 724              		.loc 1 669 0 discriminator 2
 725 0078 FB68     		ldr	r3, [r7, #12]
 726 007a 1022     		movs	r2, #16
 727 007c 83F83620 		strb	r2, [r3, #54]
 670:Drivers/STM32F1xx_HAL_Driver/Src/stm32f1xx_hal_i2c.c ****     hi2c->ErrorCode = HAL_I2C_ERROR_NONE;
 728              		.loc 1 670 0 discriminator 2
 729 0080 FB68     		ldr	r3, [r7, #12]
 730 0082 0022     		movs	r2, #0
 731 0084 9A63     		str	r2, [r3, #56]
 671:Drivers/STM32F1xx_HAL_Driver/Src/stm32f1xx_hal_i2c.c **** 
 672:Drivers/STM32F1xx_HAL_Driver/Src/stm32f1xx_hal_i2c.c ****     /* Send Slave Address */
 673:Drivers/STM32F1xx_HAL_Driver/Src/stm32f1xx_hal_i2c.c ****     if(I2C_MasterRequestRead(hi2c, DevAddress, Timeout) != HAL_OK)
 732              		.loc 1 673 0 discriminator 2
 733 0086 7B89     		ldrh	r3, [r7, #10]
 734 0088 BA6A     		ldr	r2, [r7, #40]
 735 008a 1946     		mov	r1, r3
 736 008c F868     		ldr	r0, [r7, #12]
 737 008e FFF7FEFF 		bl	I2C_MasterRequestRead
 738 0092 0346     		mov	r3, r0
 739 0094 002B     		cmp	r3, #0
 740 0096 0FD0     		beq	.L38
 674:Drivers/STM32F1xx_HAL_Driver/Src/stm32f1xx_hal_i2c.c ****     {
 675:Drivers/STM32F1xx_HAL_Driver/Src/stm32f1xx_hal_i2c.c ****       if(hi2c->ErrorCode == HAL_I2C_ERROR_AF)
 741              		.loc 1 675 0
 742 0098 FB68     		ldr	r3, [r7, #12]
 743 009a 9B6B     		ldr	r3, [r3, #56]
 744 009c 042B     		cmp	r3, #4
 745 009e 05D1     		bne	.L39
 676:Drivers/STM32F1xx_HAL_Driver/Src/stm32f1xx_hal_i2c.c ****       {
 677:Drivers/STM32F1xx_HAL_Driver/Src/stm32f1xx_hal_i2c.c ****         /* Process Unlocked */
 678:Drivers/STM32F1xx_HAL_Driver/Src/stm32f1xx_hal_i2c.c ****         __HAL_UNLOCK(hi2c);
 746              		.loc 1 678 0
 747 00a0 FB68     		ldr	r3, [r7, #12]
 748 00a2 0022     		movs	r2, #0
 749 00a4 83F83420 		strb	r2, [r3, #52]
 679:Drivers/STM32F1xx_HAL_Driver/Src/stm32f1xx_hal_i2c.c ****         return HAL_ERROR;
 750              		.loc 1 679 0
 751 00a8 0123     		movs	r3, #1
 752 00aa 34E1     		b	.L35
 753              	.L39:
 680:Drivers/STM32F1xx_HAL_Driver/Src/stm32f1xx_hal_i2c.c ****       }
 681:Drivers/STM32F1xx_HAL_Driver/Src/stm32f1xx_hal_i2c.c ****       else
 682:Drivers/STM32F1xx_HAL_Driver/Src/stm32f1xx_hal_i2c.c ****       {
ARM GAS  /var/folders/kh/x4vltyy52lbg7p4pcyglc5080000gp/T//cccbl2Nm.s 			page 26


 683:Drivers/STM32F1xx_HAL_Driver/Src/stm32f1xx_hal_i2c.c ****         /* Process Unlocked */
 684:Drivers/STM32F1xx_HAL_Driver/Src/stm32f1xx_hal_i2c.c ****         __HAL_UNLOCK(hi2c);
 754              		.loc 1 684 0
 755 00ac FB68     		ldr	r3, [r7, #12]
 756 00ae 0022     		movs	r2, #0
 757 00b0 83F83420 		strb	r2, [r3, #52]
 685:Drivers/STM32F1xx_HAL_Driver/Src/stm32f1xx_hal_i2c.c ****         return HAL_TIMEOUT;
 758              		.loc 1 685 0
 759 00b4 0323     		movs	r3, #3
 760 00b6 2EE1     		b	.L35
 761              	.L38:
 686:Drivers/STM32F1xx_HAL_Driver/Src/stm32f1xx_hal_i2c.c ****       }
 687:Drivers/STM32F1xx_HAL_Driver/Src/stm32f1xx_hal_i2c.c ****     }
 688:Drivers/STM32F1xx_HAL_Driver/Src/stm32f1xx_hal_i2c.c **** 
 689:Drivers/STM32F1xx_HAL_Driver/Src/stm32f1xx_hal_i2c.c ****     if(Size == 1)
 762              		.loc 1 689 0
 763 00b8 3B89     		ldrh	r3, [r7, #8]
 764 00ba 012B     		cmp	r3, #1
 765 00bc 1BD1     		bne	.L40
 690:Drivers/STM32F1xx_HAL_Driver/Src/stm32f1xx_hal_i2c.c ****     {
 691:Drivers/STM32F1xx_HAL_Driver/Src/stm32f1xx_hal_i2c.c ****       /* Disable Acknowledge */
 692:Drivers/STM32F1xx_HAL_Driver/Src/stm32f1xx_hal_i2c.c ****       CLEAR_BIT(hi2c->Instance->CR1, I2C_CR1_ACK);
 766              		.loc 1 692 0
 767 00be FB68     		ldr	r3, [r7, #12]
 768 00c0 1B68     		ldr	r3, [r3]
 769 00c2 FA68     		ldr	r2, [r7, #12]
 770 00c4 1268     		ldr	r2, [r2]
 771 00c6 1268     		ldr	r2, [r2]
 772 00c8 22F48062 		bic	r2, r2, #1024
 773 00cc 1A60     		str	r2, [r3]
 774              	.LBB41:
 775              	.LBB42:
 776              		.file 2 "Drivers/CMSIS/Include/cmsis_gcc.h"
   1:Drivers/CMSIS/Include/cmsis_gcc.h **** /**************************************************************************//**
   2:Drivers/CMSIS/Include/cmsis_gcc.h ****  * @file     cmsis_gcc.h
   3:Drivers/CMSIS/Include/cmsis_gcc.h ****  * @brief    CMSIS Cortex-M Core Function/Instruction Header File
   4:Drivers/CMSIS/Include/cmsis_gcc.h ****  * @version  V4.30
   5:Drivers/CMSIS/Include/cmsis_gcc.h ****  * @date     20. October 2015
   6:Drivers/CMSIS/Include/cmsis_gcc.h ****  ******************************************************************************/
   7:Drivers/CMSIS/Include/cmsis_gcc.h **** /* Copyright (c) 2009 - 2015 ARM LIMITED
   8:Drivers/CMSIS/Include/cmsis_gcc.h **** 
   9:Drivers/CMSIS/Include/cmsis_gcc.h ****    All rights reserved.
  10:Drivers/CMSIS/Include/cmsis_gcc.h ****    Redistribution and use in source and binary forms, with or without
  11:Drivers/CMSIS/Include/cmsis_gcc.h ****    modification, are permitted provided that the following conditions are met:
  12:Drivers/CMSIS/Include/cmsis_gcc.h ****    - Redistributions of source code must retain the above copyright
  13:Drivers/CMSIS/Include/cmsis_gcc.h ****      notice, this list of conditions and the following disclaimer.
  14:Drivers/CMSIS/Include/cmsis_gcc.h ****    - Redistributions in binary form must reproduce the above copyright
  15:Drivers/CMSIS/Include/cmsis_gcc.h ****      notice, this list of conditions and the following disclaimer in the
  16:Drivers/CMSIS/Include/cmsis_gcc.h ****      documentation and/or other materials provided with the distribution.
  17:Drivers/CMSIS/Include/cmsis_gcc.h ****    - Neither the name of ARM nor the names of its contributors may be used
  18:Drivers/CMSIS/Include/cmsis_gcc.h ****      to endorse or promote products derived from this software without
  19:Drivers/CMSIS/Include/cmsis_gcc.h ****      specific prior written permission.
  20:Drivers/CMSIS/Include/cmsis_gcc.h ****    *
  21:Drivers/CMSIS/Include/cmsis_gcc.h ****    THIS SOFTWARE IS PROVIDED BY THE COPYRIGHT HOLDERS AND CONTRIBUTORS "AS IS"
  22:Drivers/CMSIS/Include/cmsis_gcc.h ****    AND ANY EXPRESS OR IMPLIED WARRANTIES, INCLUDING, BUT NOT LIMITED TO, THE
  23:Drivers/CMSIS/Include/cmsis_gcc.h ****    IMPLIED WARRANTIES OF MERCHANTABILITY AND FITNESS FOR A PARTICULAR PURPOSE
  24:Drivers/CMSIS/Include/cmsis_gcc.h ****    ARE DISCLAIMED. IN NO EVENT SHALL COPYRIGHT HOLDERS AND CONTRIBUTORS BE
ARM GAS  /var/folders/kh/x4vltyy52lbg7p4pcyglc5080000gp/T//cccbl2Nm.s 			page 27


  25:Drivers/CMSIS/Include/cmsis_gcc.h ****    LIABLE FOR ANY DIRECT, INDIRECT, INCIDENTAL, SPECIAL, EXEMPLARY, OR
  26:Drivers/CMSIS/Include/cmsis_gcc.h ****    CONSEQUENTIAL DAMAGES (INCLUDING, BUT NOT LIMITED TO, PROCUREMENT OF
  27:Drivers/CMSIS/Include/cmsis_gcc.h ****    SUBSTITUTE GOODS OR SERVICES; LOSS OF USE, DATA, OR PROFITS; OR BUSINESS
  28:Drivers/CMSIS/Include/cmsis_gcc.h ****    INTERRUPTION) HOWEVER CAUSED AND ON ANY THEORY OF LIABILITY, WHETHER IN
  29:Drivers/CMSIS/Include/cmsis_gcc.h ****    CONTRACT, STRICT LIABILITY, OR TORT (INCLUDING NEGLIGENCE OR OTHERWISE)
  30:Drivers/CMSIS/Include/cmsis_gcc.h ****    ARISING IN ANY WAY OUT OF THE USE OF THIS SOFTWARE, EVEN IF ADVISED OF THE
  31:Drivers/CMSIS/Include/cmsis_gcc.h ****    POSSIBILITY OF SUCH DAMAGE.
  32:Drivers/CMSIS/Include/cmsis_gcc.h ****    ---------------------------------------------------------------------------*/
  33:Drivers/CMSIS/Include/cmsis_gcc.h **** 
  34:Drivers/CMSIS/Include/cmsis_gcc.h **** 
  35:Drivers/CMSIS/Include/cmsis_gcc.h **** #ifndef __CMSIS_GCC_H
  36:Drivers/CMSIS/Include/cmsis_gcc.h **** #define __CMSIS_GCC_H
  37:Drivers/CMSIS/Include/cmsis_gcc.h **** 
  38:Drivers/CMSIS/Include/cmsis_gcc.h **** /* ignore some GCC warnings */
  39:Drivers/CMSIS/Include/cmsis_gcc.h **** #if defined ( __GNUC__ )
  40:Drivers/CMSIS/Include/cmsis_gcc.h **** #pragma GCC diagnostic push
  41:Drivers/CMSIS/Include/cmsis_gcc.h **** #pragma GCC diagnostic ignored "-Wsign-conversion"
  42:Drivers/CMSIS/Include/cmsis_gcc.h **** #pragma GCC diagnostic ignored "-Wconversion"
  43:Drivers/CMSIS/Include/cmsis_gcc.h **** #pragma GCC diagnostic ignored "-Wunused-parameter"
  44:Drivers/CMSIS/Include/cmsis_gcc.h **** #endif
  45:Drivers/CMSIS/Include/cmsis_gcc.h **** 
  46:Drivers/CMSIS/Include/cmsis_gcc.h **** 
  47:Drivers/CMSIS/Include/cmsis_gcc.h **** /* ###########################  Core Function Access  ########################### */
  48:Drivers/CMSIS/Include/cmsis_gcc.h **** /** \ingroup  CMSIS_Core_FunctionInterface
  49:Drivers/CMSIS/Include/cmsis_gcc.h ****     \defgroup CMSIS_Core_RegAccFunctions CMSIS Core Register Access Functions
  50:Drivers/CMSIS/Include/cmsis_gcc.h ****   @{
  51:Drivers/CMSIS/Include/cmsis_gcc.h ****  */
  52:Drivers/CMSIS/Include/cmsis_gcc.h **** 
  53:Drivers/CMSIS/Include/cmsis_gcc.h **** /**
  54:Drivers/CMSIS/Include/cmsis_gcc.h ****   \brief   Enable IRQ Interrupts
  55:Drivers/CMSIS/Include/cmsis_gcc.h ****   \details Enables IRQ interrupts by clearing the I-bit in the CPSR.
  56:Drivers/CMSIS/Include/cmsis_gcc.h ****            Can only be executed in Privileged modes.
  57:Drivers/CMSIS/Include/cmsis_gcc.h ****  */
  58:Drivers/CMSIS/Include/cmsis_gcc.h **** __attribute__( ( always_inline ) ) __STATIC_INLINE void __enable_irq(void)
  59:Drivers/CMSIS/Include/cmsis_gcc.h **** {
  60:Drivers/CMSIS/Include/cmsis_gcc.h ****   __ASM volatile ("cpsie i" : : : "memory");
  61:Drivers/CMSIS/Include/cmsis_gcc.h **** }
  62:Drivers/CMSIS/Include/cmsis_gcc.h **** 
  63:Drivers/CMSIS/Include/cmsis_gcc.h **** 
  64:Drivers/CMSIS/Include/cmsis_gcc.h **** /**
  65:Drivers/CMSIS/Include/cmsis_gcc.h ****   \brief   Disable IRQ Interrupts
  66:Drivers/CMSIS/Include/cmsis_gcc.h ****   \details Disables IRQ interrupts by setting the I-bit in the CPSR.
  67:Drivers/CMSIS/Include/cmsis_gcc.h ****   Can only be executed in Privileged modes.
  68:Drivers/CMSIS/Include/cmsis_gcc.h ****  */
  69:Drivers/CMSIS/Include/cmsis_gcc.h **** __attribute__( ( always_inline ) ) __STATIC_INLINE void __disable_irq(void)
  70:Drivers/CMSIS/Include/cmsis_gcc.h **** {
  71:Drivers/CMSIS/Include/cmsis_gcc.h ****   __ASM volatile ("cpsid i" : : : "memory");
 777              		.loc 2 71 0
 778              		.syntax unified
 779              	@ 71 "Drivers/CMSIS/Include/cmsis_gcc.h" 1
 780 00ce 72B6     		cpsid i
 781              	@ 0 "" 2
 782              		.thumb
 783              		.syntax unified
 784              	.LBE42:
 785              	.LBE41:
 786              	.LBB43:
ARM GAS  /var/folders/kh/x4vltyy52lbg7p4pcyglc5080000gp/T//cccbl2Nm.s 			page 28


 693:Drivers/STM32F1xx_HAL_Driver/Src/stm32f1xx_hal_i2c.c **** 
 694:Drivers/STM32F1xx_HAL_Driver/Src/stm32f1xx_hal_i2c.c ****       /* Disable all active IRQs around ADDR clearing and STOP programming because the EV6_3
 695:Drivers/STM32F1xx_HAL_Driver/Src/stm32f1xx_hal_i2c.c ****          software sequence must complete before the current byte end of transfer */
 696:Drivers/STM32F1xx_HAL_Driver/Src/stm32f1xx_hal_i2c.c ****       __disable_irq();
 697:Drivers/STM32F1xx_HAL_Driver/Src/stm32f1xx_hal_i2c.c **** 
 698:Drivers/STM32F1xx_HAL_Driver/Src/stm32f1xx_hal_i2c.c ****       /* Clear ADDR flag */
 699:Drivers/STM32F1xx_HAL_Driver/Src/stm32f1xx_hal_i2c.c ****       __HAL_I2C_CLEAR_ADDRFLAG(hi2c);
 787              		.loc 1 699 0
 788 00d0 FB68     		ldr	r3, [r7, #12]
 789 00d2 1B68     		ldr	r3, [r3]
 790 00d4 5B69     		ldr	r3, [r3, #20]
 791 00d6 FB61     		str	r3, [r7, #28]
 792 00d8 FB68     		ldr	r3, [r7, #12]
 793 00da 1B68     		ldr	r3, [r3]
 794 00dc 9B69     		ldr	r3, [r3, #24]
 795 00de FB61     		str	r3, [r7, #28]
 796 00e0 FB69     		ldr	r3, [r7, #28]
 797              	.LBE43:
 700:Drivers/STM32F1xx_HAL_Driver/Src/stm32f1xx_hal_i2c.c **** 
 701:Drivers/STM32F1xx_HAL_Driver/Src/stm32f1xx_hal_i2c.c ****       /* Generate Stop */
 702:Drivers/STM32F1xx_HAL_Driver/Src/stm32f1xx_hal_i2c.c ****       SET_BIT(hi2c->Instance->CR1, I2C_CR1_STOP);
 798              		.loc 1 702 0
 799 00e2 FB68     		ldr	r3, [r7, #12]
 800 00e4 1B68     		ldr	r3, [r3]
 801 00e6 FA68     		ldr	r2, [r7, #12]
 802 00e8 1268     		ldr	r2, [r2]
 803 00ea 1268     		ldr	r2, [r2]
 804 00ec 42F40072 		orr	r2, r2, #512
 805 00f0 1A60     		str	r2, [r3]
 806              	.LBB44:
 807              	.LBB45:
  60:Drivers/CMSIS/Include/cmsis_gcc.h **** }
 808              		.loc 2 60 0
 809              		.syntax unified
 810              	@ 60 "Drivers/CMSIS/Include/cmsis_gcc.h" 1
 811 00f2 62B6     		cpsie i
 812              	@ 0 "" 2
 813              		.thumb
 814              		.syntax unified
 815              	.LBE45:
 816              	.LBE44:
 817 00f4 FCE0     		b	.L43
 818              	.L40:
 703:Drivers/STM32F1xx_HAL_Driver/Src/stm32f1xx_hal_i2c.c **** 	  
 704:Drivers/STM32F1xx_HAL_Driver/Src/stm32f1xx_hal_i2c.c ****       /* Re-enable IRQs */
 705:Drivers/STM32F1xx_HAL_Driver/Src/stm32f1xx_hal_i2c.c ****       __enable_irq(); 
 706:Drivers/STM32F1xx_HAL_Driver/Src/stm32f1xx_hal_i2c.c ****     }
 707:Drivers/STM32F1xx_HAL_Driver/Src/stm32f1xx_hal_i2c.c ****     else if(Size == 2)
 819              		.loc 1 707 0
 820 00f6 3B89     		ldrh	r3, [r7, #8]
 821 00f8 022B     		cmp	r3, #2
 822 00fa 1BD1     		bne	.L42
 708:Drivers/STM32F1xx_HAL_Driver/Src/stm32f1xx_hal_i2c.c ****     {
 709:Drivers/STM32F1xx_HAL_Driver/Src/stm32f1xx_hal_i2c.c ****       /* Enable Pos */
 710:Drivers/STM32F1xx_HAL_Driver/Src/stm32f1xx_hal_i2c.c ****       SET_BIT(hi2c->Instance->CR1, I2C_CR1_POS);
 823              		.loc 1 710 0
 824 00fc FB68     		ldr	r3, [r7, #12]
ARM GAS  /var/folders/kh/x4vltyy52lbg7p4pcyglc5080000gp/T//cccbl2Nm.s 			page 29


 825 00fe 1B68     		ldr	r3, [r3]
 826 0100 FA68     		ldr	r2, [r7, #12]
 827 0102 1268     		ldr	r2, [r2]
 828 0104 1268     		ldr	r2, [r2]
 829 0106 42F40062 		orr	r2, r2, #2048
 830 010a 1A60     		str	r2, [r3]
 831              	.LBB46:
 832              	.LBB47:
 833              		.loc 2 71 0
 834              		.syntax unified
 835              	@ 71 "Drivers/CMSIS/Include/cmsis_gcc.h" 1
 836 010c 72B6     		cpsid i
 837              	@ 0 "" 2
 838              		.thumb
 839              		.syntax unified
 840              	.LBE47:
 841              	.LBE46:
 842              	.LBB48:
 711:Drivers/STM32F1xx_HAL_Driver/Src/stm32f1xx_hal_i2c.c **** 
 712:Drivers/STM32F1xx_HAL_Driver/Src/stm32f1xx_hal_i2c.c ****       /* Disable all active IRQs around ADDR clearing and STOP programming because the EV6_3
 713:Drivers/STM32F1xx_HAL_Driver/Src/stm32f1xx_hal_i2c.c ****          software sequence must complete before the current byte end of transfer */
 714:Drivers/STM32F1xx_HAL_Driver/Src/stm32f1xx_hal_i2c.c ****       __disable_irq();
 715:Drivers/STM32F1xx_HAL_Driver/Src/stm32f1xx_hal_i2c.c **** 
 716:Drivers/STM32F1xx_HAL_Driver/Src/stm32f1xx_hal_i2c.c ****       /* Clear ADDR flag */
 717:Drivers/STM32F1xx_HAL_Driver/Src/stm32f1xx_hal_i2c.c ****       __HAL_I2C_CLEAR_ADDRFLAG(hi2c);
 843              		.loc 1 717 0
 844 010e FB68     		ldr	r3, [r7, #12]
 845 0110 1B68     		ldr	r3, [r3]
 846 0112 5B69     		ldr	r3, [r3, #20]
 847 0114 BB61     		str	r3, [r7, #24]
 848 0116 FB68     		ldr	r3, [r7, #12]
 849 0118 1B68     		ldr	r3, [r3]
 850 011a 9B69     		ldr	r3, [r3, #24]
 851 011c BB61     		str	r3, [r7, #24]
 852 011e BB69     		ldr	r3, [r7, #24]
 853              	.LBE48:
 718:Drivers/STM32F1xx_HAL_Driver/Src/stm32f1xx_hal_i2c.c **** 
 719:Drivers/STM32F1xx_HAL_Driver/Src/stm32f1xx_hal_i2c.c ****       /* Disable Acknowledge */
 720:Drivers/STM32F1xx_HAL_Driver/Src/stm32f1xx_hal_i2c.c ****       CLEAR_BIT(hi2c->Instance->CR1, I2C_CR1_ACK);
 854              		.loc 1 720 0
 855 0120 FB68     		ldr	r3, [r7, #12]
 856 0122 1B68     		ldr	r3, [r3]
 857 0124 FA68     		ldr	r2, [r7, #12]
 858 0126 1268     		ldr	r2, [r2]
 859 0128 1268     		ldr	r2, [r2]
 860 012a 22F48062 		bic	r2, r2, #1024
 861 012e 1A60     		str	r2, [r3]
 862              	.LBB49:
 863              	.LBB50:
  60:Drivers/CMSIS/Include/cmsis_gcc.h **** }
 864              		.loc 2 60 0
 865              		.syntax unified
 866              	@ 60 "Drivers/CMSIS/Include/cmsis_gcc.h" 1
 867 0130 62B6     		cpsie i
 868              	@ 0 "" 2
 869              		.thumb
 870              		.syntax unified
ARM GAS  /var/folders/kh/x4vltyy52lbg7p4pcyglc5080000gp/T//cccbl2Nm.s 			page 30


 871              	.LBE50:
 872              	.LBE49:
 873 0132 DDE0     		b	.L43
 874              	.L42:
 721:Drivers/STM32F1xx_HAL_Driver/Src/stm32f1xx_hal_i2c.c **** 
 722:Drivers/STM32F1xx_HAL_Driver/Src/stm32f1xx_hal_i2c.c ****        /* Re-enable IRQs */
 723:Drivers/STM32F1xx_HAL_Driver/Src/stm32f1xx_hal_i2c.c ****        __enable_irq(); 
 724:Drivers/STM32F1xx_HAL_Driver/Src/stm32f1xx_hal_i2c.c ****     }
 725:Drivers/STM32F1xx_HAL_Driver/Src/stm32f1xx_hal_i2c.c ****     else
 726:Drivers/STM32F1xx_HAL_Driver/Src/stm32f1xx_hal_i2c.c ****     {
 727:Drivers/STM32F1xx_HAL_Driver/Src/stm32f1xx_hal_i2c.c ****       /* Enable Acknowledge */
 728:Drivers/STM32F1xx_HAL_Driver/Src/stm32f1xx_hal_i2c.c ****       SET_BIT(hi2c->Instance->CR1, I2C_CR1_ACK);
 875              		.loc 1 728 0
 876 0134 FB68     		ldr	r3, [r7, #12]
 877 0136 1B68     		ldr	r3, [r3]
 878 0138 FA68     		ldr	r2, [r7, #12]
 879 013a 1268     		ldr	r2, [r2]
 880 013c 1268     		ldr	r2, [r2]
 881 013e 42F48062 		orr	r2, r2, #1024
 882 0142 1A60     		str	r2, [r3]
 883              	.LBB51:
 729:Drivers/STM32F1xx_HAL_Driver/Src/stm32f1xx_hal_i2c.c **** 
 730:Drivers/STM32F1xx_HAL_Driver/Src/stm32f1xx_hal_i2c.c ****       /* Clear ADDR flag */
 731:Drivers/STM32F1xx_HAL_Driver/Src/stm32f1xx_hal_i2c.c ****       __HAL_I2C_CLEAR_ADDRFLAG(hi2c);
 884              		.loc 1 731 0
 885 0144 FB68     		ldr	r3, [r7, #12]
 886 0146 1B68     		ldr	r3, [r3]
 887 0148 5B69     		ldr	r3, [r3, #20]
 888 014a 7B61     		str	r3, [r7, #20]
 889 014c FB68     		ldr	r3, [r7, #12]
 890 014e 1B68     		ldr	r3, [r3]
 891 0150 9B69     		ldr	r3, [r3, #24]
 892 0152 7B61     		str	r3, [r7, #20]
 893 0154 7B69     		ldr	r3, [r7, #20]
 894              	.LBE51:
 732:Drivers/STM32F1xx_HAL_Driver/Src/stm32f1xx_hal_i2c.c ****     }
 733:Drivers/STM32F1xx_HAL_Driver/Src/stm32f1xx_hal_i2c.c **** 
 734:Drivers/STM32F1xx_HAL_Driver/Src/stm32f1xx_hal_i2c.c ****     while(Size > 0)
 895              		.loc 1 734 0
 896 0156 CBE0     		b	.L43
 897              	.L55:
 735:Drivers/STM32F1xx_HAL_Driver/Src/stm32f1xx_hal_i2c.c ****     {
 736:Drivers/STM32F1xx_HAL_Driver/Src/stm32f1xx_hal_i2c.c ****       if(Size <= 3)
 898              		.loc 1 736 0
 899 0158 3B89     		ldrh	r3, [r7, #8]
 900 015a 032B     		cmp	r3, #3
 901 015c 00F29C80 		bhi	.L44
 737:Drivers/STM32F1xx_HAL_Driver/Src/stm32f1xx_hal_i2c.c ****       {
 738:Drivers/STM32F1xx_HAL_Driver/Src/stm32f1xx_hal_i2c.c ****         /* One byte */
 739:Drivers/STM32F1xx_HAL_Driver/Src/stm32f1xx_hal_i2c.c ****         if(Size == 1)
 902              		.loc 1 739 0
 903 0160 3B89     		ldrh	r3, [r7, #8]
 904 0162 012B     		cmp	r3, #1
 905 0164 1AD1     		bne	.L45
 740:Drivers/STM32F1xx_HAL_Driver/Src/stm32f1xx_hal_i2c.c ****         {
 741:Drivers/STM32F1xx_HAL_Driver/Src/stm32f1xx_hal_i2c.c ****           /* Wait until RXNE flag is set */
 742:Drivers/STM32F1xx_HAL_Driver/Src/stm32f1xx_hal_i2c.c ****           if(I2C_WaitOnRXNEFlagUntilTimeout(hi2c, Timeout) != HAL_OK)      
ARM GAS  /var/folders/kh/x4vltyy52lbg7p4pcyglc5080000gp/T//cccbl2Nm.s 			page 31


 906              		.loc 1 742 0
 907 0166 B96A     		ldr	r1, [r7, #40]
 908 0168 F868     		ldr	r0, [r7, #12]
 909 016a FFF7FEFF 		bl	I2C_WaitOnRXNEFlagUntilTimeout
 910 016e 0346     		mov	r3, r0
 911 0170 002B     		cmp	r3, #0
 912 0172 07D0     		beq	.L46
 743:Drivers/STM32F1xx_HAL_Driver/Src/stm32f1xx_hal_i2c.c ****           {
 744:Drivers/STM32F1xx_HAL_Driver/Src/stm32f1xx_hal_i2c.c ****             if(hi2c->ErrorCode == HAL_I2C_ERROR_TIMEOUT)
 913              		.loc 1 744 0
 914 0174 FB68     		ldr	r3, [r7, #12]
 915 0176 9B6B     		ldr	r3, [r3, #56]
 916 0178 202B     		cmp	r3, #32
 917 017a 01D1     		bne	.L47
 745:Drivers/STM32F1xx_HAL_Driver/Src/stm32f1xx_hal_i2c.c ****             {
 746:Drivers/STM32F1xx_HAL_Driver/Src/stm32f1xx_hal_i2c.c ****               return HAL_TIMEOUT;
 918              		.loc 1 746 0
 919 017c 0323     		movs	r3, #3
 920 017e CAE0     		b	.L35
 921              	.L47:
 747:Drivers/STM32F1xx_HAL_Driver/Src/stm32f1xx_hal_i2c.c ****             }
 748:Drivers/STM32F1xx_HAL_Driver/Src/stm32f1xx_hal_i2c.c ****             else
 749:Drivers/STM32F1xx_HAL_Driver/Src/stm32f1xx_hal_i2c.c ****             {
 750:Drivers/STM32F1xx_HAL_Driver/Src/stm32f1xx_hal_i2c.c ****               return HAL_ERROR;
 922              		.loc 1 750 0
 923 0180 0123     		movs	r3, #1
 924 0182 C8E0     		b	.L35
 925              	.L46:
 751:Drivers/STM32F1xx_HAL_Driver/Src/stm32f1xx_hal_i2c.c ****             }
 752:Drivers/STM32F1xx_HAL_Driver/Src/stm32f1xx_hal_i2c.c ****           }
 753:Drivers/STM32F1xx_HAL_Driver/Src/stm32f1xx_hal_i2c.c **** 
 754:Drivers/STM32F1xx_HAL_Driver/Src/stm32f1xx_hal_i2c.c ****           /* Read data from DR */
 755:Drivers/STM32F1xx_HAL_Driver/Src/stm32f1xx_hal_i2c.c ****           (*pData++) = hi2c->Instance->DR;
 926              		.loc 1 755 0
 927 0184 7B68     		ldr	r3, [r7, #4]
 928 0186 5A1C     		adds	r2, r3, #1
 929 0188 7A60     		str	r2, [r7, #4]
 930 018a FA68     		ldr	r2, [r7, #12]
 931 018c 1268     		ldr	r2, [r2]
 932 018e 1269     		ldr	r2, [r2, #16]
 933 0190 D2B2     		uxtb	r2, r2
 934 0192 1A70     		strb	r2, [r3]
 756:Drivers/STM32F1xx_HAL_Driver/Src/stm32f1xx_hal_i2c.c ****           Size--;
 935              		.loc 1 756 0
 936 0194 3B89     		ldrh	r3, [r7, #8]
 937 0196 013B     		subs	r3, r3, #1
 938 0198 3B81     		strh	r3, [r7, #8]	@ movhi
 939 019a A9E0     		b	.L43
 940              	.L45:
 757:Drivers/STM32F1xx_HAL_Driver/Src/stm32f1xx_hal_i2c.c ****         }
 758:Drivers/STM32F1xx_HAL_Driver/Src/stm32f1xx_hal_i2c.c ****         /* Two bytes */
 759:Drivers/STM32F1xx_HAL_Driver/Src/stm32f1xx_hal_i2c.c ****         else if(Size == 2)
 941              		.loc 1 759 0
 942 019c 3B89     		ldrh	r3, [r7, #8]
 943 019e 022B     		cmp	r3, #2
 944 01a0 2BD1     		bne	.L49
 760:Drivers/STM32F1xx_HAL_Driver/Src/stm32f1xx_hal_i2c.c ****         {
ARM GAS  /var/folders/kh/x4vltyy52lbg7p4pcyglc5080000gp/T//cccbl2Nm.s 			page 32


 761:Drivers/STM32F1xx_HAL_Driver/Src/stm32f1xx_hal_i2c.c ****           /* Wait until BTF flag is set */
 762:Drivers/STM32F1xx_HAL_Driver/Src/stm32f1xx_hal_i2c.c ****           if(I2C_WaitOnFlagUntilTimeout(hi2c, I2C_FLAG_BTF, RESET, Timeout) != HAL_OK)
 945              		.loc 1 762 0
 946 01a2 BB6A     		ldr	r3, [r7, #40]
 947 01a4 0022     		movs	r2, #0
 948 01a6 3B49     		ldr	r1, .L56+4
 949 01a8 F868     		ldr	r0, [r7, #12]
 950 01aa FFF7FEFF 		bl	I2C_WaitOnFlagUntilTimeout
 951 01ae 0346     		mov	r3, r0
 952 01b0 002B     		cmp	r3, #0
 953 01b2 01D0     		beq	.L50
 763:Drivers/STM32F1xx_HAL_Driver/Src/stm32f1xx_hal_i2c.c ****           {
 764:Drivers/STM32F1xx_HAL_Driver/Src/stm32f1xx_hal_i2c.c ****             return HAL_TIMEOUT;
 954              		.loc 1 764 0
 955 01b4 0323     		movs	r3, #3
 956 01b6 AEE0     		b	.L35
 957              	.L50:
 958              	.LBB52:
 959              	.LBB53:
 960              		.loc 2 71 0
 961              		.syntax unified
 962              	@ 71 "Drivers/CMSIS/Include/cmsis_gcc.h" 1
 963 01b8 72B6     		cpsid i
 964              	@ 0 "" 2
 965              		.thumb
 966              		.syntax unified
 967              	.LBE53:
 968              	.LBE52:
 765:Drivers/STM32F1xx_HAL_Driver/Src/stm32f1xx_hal_i2c.c ****           }
 766:Drivers/STM32F1xx_HAL_Driver/Src/stm32f1xx_hal_i2c.c **** 
 767:Drivers/STM32F1xx_HAL_Driver/Src/stm32f1xx_hal_i2c.c ****           /* Disable all active IRQs around ADDR clearing and STOP programming because the EV6_3
 768:Drivers/STM32F1xx_HAL_Driver/Src/stm32f1xx_hal_i2c.c ****              software sequence must complete before the current byte end of transfer */
 769:Drivers/STM32F1xx_HAL_Driver/Src/stm32f1xx_hal_i2c.c ****            __disable_irq();
 770:Drivers/STM32F1xx_HAL_Driver/Src/stm32f1xx_hal_i2c.c **** 
 771:Drivers/STM32F1xx_HAL_Driver/Src/stm32f1xx_hal_i2c.c ****           /* Generate Stop */
 772:Drivers/STM32F1xx_HAL_Driver/Src/stm32f1xx_hal_i2c.c ****           SET_BIT(hi2c->Instance->CR1, I2C_CR1_STOP);
 969              		.loc 1 772 0
 970 01ba FB68     		ldr	r3, [r7, #12]
 971 01bc 1B68     		ldr	r3, [r3]
 972 01be FA68     		ldr	r2, [r7, #12]
 973 01c0 1268     		ldr	r2, [r2]
 974 01c2 1268     		ldr	r2, [r2]
 975 01c4 42F40072 		orr	r2, r2, #512
 976 01c8 1A60     		str	r2, [r3]
 773:Drivers/STM32F1xx_HAL_Driver/Src/stm32f1xx_hal_i2c.c **** 
 774:Drivers/STM32F1xx_HAL_Driver/Src/stm32f1xx_hal_i2c.c ****           /* Read data from DR */
 775:Drivers/STM32F1xx_HAL_Driver/Src/stm32f1xx_hal_i2c.c ****           (*pData++) = hi2c->Instance->DR;
 977              		.loc 1 775 0
 978 01ca 7B68     		ldr	r3, [r7, #4]
 979 01cc 5A1C     		adds	r2, r3, #1
 980 01ce 7A60     		str	r2, [r7, #4]
 981 01d0 FA68     		ldr	r2, [r7, #12]
 982 01d2 1268     		ldr	r2, [r2]
 983 01d4 1269     		ldr	r2, [r2, #16]
 984 01d6 D2B2     		uxtb	r2, r2
 985 01d8 1A70     		strb	r2, [r3]
 776:Drivers/STM32F1xx_HAL_Driver/Src/stm32f1xx_hal_i2c.c ****           Size--;
ARM GAS  /var/folders/kh/x4vltyy52lbg7p4pcyglc5080000gp/T//cccbl2Nm.s 			page 33


 986              		.loc 1 776 0
 987 01da 3B89     		ldrh	r3, [r7, #8]
 988 01dc 013B     		subs	r3, r3, #1
 989 01de 3B81     		strh	r3, [r7, #8]	@ movhi
 990              	.LBB54:
 991              	.LBB55:
  60:Drivers/CMSIS/Include/cmsis_gcc.h **** }
 992              		.loc 2 60 0
 993              		.syntax unified
 994              	@ 60 "Drivers/CMSIS/Include/cmsis_gcc.h" 1
 995 01e0 62B6     		cpsie i
 996              	@ 0 "" 2
 997              		.thumb
 998              		.syntax unified
 999              	.LBE55:
 1000              	.LBE54:
 777:Drivers/STM32F1xx_HAL_Driver/Src/stm32f1xx_hal_i2c.c **** 
 778:Drivers/STM32F1xx_HAL_Driver/Src/stm32f1xx_hal_i2c.c ****           /* Re-enable IRQs */
 779:Drivers/STM32F1xx_HAL_Driver/Src/stm32f1xx_hal_i2c.c ****           __enable_irq();
 780:Drivers/STM32F1xx_HAL_Driver/Src/stm32f1xx_hal_i2c.c **** 
 781:Drivers/STM32F1xx_HAL_Driver/Src/stm32f1xx_hal_i2c.c ****           /* Read data from DR */
 782:Drivers/STM32F1xx_HAL_Driver/Src/stm32f1xx_hal_i2c.c ****           (*pData++) = hi2c->Instance->DR;
 1001              		.loc 1 782 0
 1002 01e2 7B68     		ldr	r3, [r7, #4]
 1003 01e4 5A1C     		adds	r2, r3, #1
 1004 01e6 7A60     		str	r2, [r7, #4]
 1005 01e8 FA68     		ldr	r2, [r7, #12]
 1006 01ea 1268     		ldr	r2, [r2]
 1007 01ec 1269     		ldr	r2, [r2, #16]
 1008 01ee D2B2     		uxtb	r2, r2
 1009 01f0 1A70     		strb	r2, [r3]
 783:Drivers/STM32F1xx_HAL_Driver/Src/stm32f1xx_hal_i2c.c ****           Size--;
 1010              		.loc 1 783 0
 1011 01f2 3B89     		ldrh	r3, [r7, #8]
 1012 01f4 013B     		subs	r3, r3, #1
 1013 01f6 3B81     		strh	r3, [r7, #8]	@ movhi
 1014 01f8 7AE0     		b	.L43
 1015              	.L49:
 784:Drivers/STM32F1xx_HAL_Driver/Src/stm32f1xx_hal_i2c.c ****         }
 785:Drivers/STM32F1xx_HAL_Driver/Src/stm32f1xx_hal_i2c.c ****         /* 3 Last bytes */
 786:Drivers/STM32F1xx_HAL_Driver/Src/stm32f1xx_hal_i2c.c ****         else
 787:Drivers/STM32F1xx_HAL_Driver/Src/stm32f1xx_hal_i2c.c ****         {
 788:Drivers/STM32F1xx_HAL_Driver/Src/stm32f1xx_hal_i2c.c ****           /* Wait until BTF flag is set */
 789:Drivers/STM32F1xx_HAL_Driver/Src/stm32f1xx_hal_i2c.c ****           if(I2C_WaitOnFlagUntilTimeout(hi2c, I2C_FLAG_BTF, RESET, Timeout) != HAL_OK)
 1016              		.loc 1 789 0
 1017 01fa BB6A     		ldr	r3, [r7, #40]
 1018 01fc 0022     		movs	r2, #0
 1019 01fe 2549     		ldr	r1, .L56+4
 1020 0200 F868     		ldr	r0, [r7, #12]
 1021 0202 FFF7FEFF 		bl	I2C_WaitOnFlagUntilTimeout
 1022 0206 0346     		mov	r3, r0
 1023 0208 002B     		cmp	r3, #0
 1024 020a 01D0     		beq	.L51
 790:Drivers/STM32F1xx_HAL_Driver/Src/stm32f1xx_hal_i2c.c ****           {
 791:Drivers/STM32F1xx_HAL_Driver/Src/stm32f1xx_hal_i2c.c ****             return HAL_TIMEOUT;
 1025              		.loc 1 791 0
 1026 020c 0323     		movs	r3, #3
ARM GAS  /var/folders/kh/x4vltyy52lbg7p4pcyglc5080000gp/T//cccbl2Nm.s 			page 34


 1027 020e 82E0     		b	.L35
 1028              	.L51:
 792:Drivers/STM32F1xx_HAL_Driver/Src/stm32f1xx_hal_i2c.c ****           }
 793:Drivers/STM32F1xx_HAL_Driver/Src/stm32f1xx_hal_i2c.c **** 
 794:Drivers/STM32F1xx_HAL_Driver/Src/stm32f1xx_hal_i2c.c ****           /* Disable Acknowledge */
 795:Drivers/STM32F1xx_HAL_Driver/Src/stm32f1xx_hal_i2c.c ****           CLEAR_BIT(hi2c->Instance->CR1, I2C_CR1_ACK);
 1029              		.loc 1 795 0
 1030 0210 FB68     		ldr	r3, [r7, #12]
 1031 0212 1B68     		ldr	r3, [r3]
 1032 0214 FA68     		ldr	r2, [r7, #12]
 1033 0216 1268     		ldr	r2, [r2]
 1034 0218 1268     		ldr	r2, [r2]
 1035 021a 22F48062 		bic	r2, r2, #1024
 1036 021e 1A60     		str	r2, [r3]
 1037              	.LBB56:
 1038              	.LBB57:
 1039              		.loc 2 71 0
 1040              		.syntax unified
 1041              	@ 71 "Drivers/CMSIS/Include/cmsis_gcc.h" 1
 1042 0220 72B6     		cpsid i
 1043              	@ 0 "" 2
 1044              		.thumb
 1045              		.syntax unified
 1046              	.LBE57:
 1047              	.LBE56:
 796:Drivers/STM32F1xx_HAL_Driver/Src/stm32f1xx_hal_i2c.c **** 
 797:Drivers/STM32F1xx_HAL_Driver/Src/stm32f1xx_hal_i2c.c ****           /* Disable all active IRQs around ADDR clearing and STOP programming because the EV6_3
 798:Drivers/STM32F1xx_HAL_Driver/Src/stm32f1xx_hal_i2c.c ****              software sequence must complete before the current byte end of transfer */
 799:Drivers/STM32F1xx_HAL_Driver/Src/stm32f1xx_hal_i2c.c ****           __disable_irq();
 800:Drivers/STM32F1xx_HAL_Driver/Src/stm32f1xx_hal_i2c.c **** 
 801:Drivers/STM32F1xx_HAL_Driver/Src/stm32f1xx_hal_i2c.c ****           /* Read data from DR */
 802:Drivers/STM32F1xx_HAL_Driver/Src/stm32f1xx_hal_i2c.c ****           (*pData++) = hi2c->Instance->DR;
 1048              		.loc 1 802 0
 1049 0222 7B68     		ldr	r3, [r7, #4]
 1050 0224 5A1C     		adds	r2, r3, #1
 1051 0226 7A60     		str	r2, [r7, #4]
 1052 0228 FA68     		ldr	r2, [r7, #12]
 1053 022a 1268     		ldr	r2, [r2]
 1054 022c 1269     		ldr	r2, [r2, #16]
 1055 022e D2B2     		uxtb	r2, r2
 1056 0230 1A70     		strb	r2, [r3]
 803:Drivers/STM32F1xx_HAL_Driver/Src/stm32f1xx_hal_i2c.c ****           Size--;
 1057              		.loc 1 803 0
 1058 0232 3B89     		ldrh	r3, [r7, #8]
 1059 0234 013B     		subs	r3, r3, #1
 1060 0236 3B81     		strh	r3, [r7, #8]	@ movhi
 804:Drivers/STM32F1xx_HAL_Driver/Src/stm32f1xx_hal_i2c.c **** 
 805:Drivers/STM32F1xx_HAL_Driver/Src/stm32f1xx_hal_i2c.c ****           /* Wait until BTF flag is set */
 806:Drivers/STM32F1xx_HAL_Driver/Src/stm32f1xx_hal_i2c.c ****           if(I2C_WaitOnFlagUntilTimeout(hi2c, I2C_FLAG_BTF, RESET, Timeout) != HAL_OK)
 1061              		.loc 1 806 0
 1062 0238 BB6A     		ldr	r3, [r7, #40]
 1063 023a 0022     		movs	r2, #0
 1064 023c 1549     		ldr	r1, .L56+4
 1065 023e F868     		ldr	r0, [r7, #12]
 1066 0240 FFF7FEFF 		bl	I2C_WaitOnFlagUntilTimeout
 1067 0244 0346     		mov	r3, r0
 1068 0246 002B     		cmp	r3, #0
ARM GAS  /var/folders/kh/x4vltyy52lbg7p4pcyglc5080000gp/T//cccbl2Nm.s 			page 35


 1069 0248 01D0     		beq	.L52
 807:Drivers/STM32F1xx_HAL_Driver/Src/stm32f1xx_hal_i2c.c ****           {
 808:Drivers/STM32F1xx_HAL_Driver/Src/stm32f1xx_hal_i2c.c ****             return HAL_TIMEOUT;
 1070              		.loc 1 808 0
 1071 024a 0323     		movs	r3, #3
 1072 024c 63E0     		b	.L35
 1073              	.L52:
 809:Drivers/STM32F1xx_HAL_Driver/Src/stm32f1xx_hal_i2c.c ****           }
 810:Drivers/STM32F1xx_HAL_Driver/Src/stm32f1xx_hal_i2c.c **** 
 811:Drivers/STM32F1xx_HAL_Driver/Src/stm32f1xx_hal_i2c.c ****           /* Generate Stop */
 812:Drivers/STM32F1xx_HAL_Driver/Src/stm32f1xx_hal_i2c.c ****           SET_BIT(hi2c->Instance->CR1, I2C_CR1_STOP);
 1074              		.loc 1 812 0
 1075 024e FB68     		ldr	r3, [r7, #12]
 1076 0250 1B68     		ldr	r3, [r3]
 1077 0252 FA68     		ldr	r2, [r7, #12]
 1078 0254 1268     		ldr	r2, [r2]
 1079 0256 1268     		ldr	r2, [r2]
 1080 0258 42F40072 		orr	r2, r2, #512
 1081 025c 1A60     		str	r2, [r3]
 813:Drivers/STM32F1xx_HAL_Driver/Src/stm32f1xx_hal_i2c.c **** 
 814:Drivers/STM32F1xx_HAL_Driver/Src/stm32f1xx_hal_i2c.c ****           /* Read data from DR */
 815:Drivers/STM32F1xx_HAL_Driver/Src/stm32f1xx_hal_i2c.c ****           (*pData++) = hi2c->Instance->DR;
 1082              		.loc 1 815 0
 1083 025e 7B68     		ldr	r3, [r7, #4]
 1084 0260 5A1C     		adds	r2, r3, #1
 1085 0262 7A60     		str	r2, [r7, #4]
 1086 0264 FA68     		ldr	r2, [r7, #12]
 1087 0266 1268     		ldr	r2, [r2]
 1088 0268 1269     		ldr	r2, [r2, #16]
 1089 026a D2B2     		uxtb	r2, r2
 1090 026c 1A70     		strb	r2, [r3]
 816:Drivers/STM32F1xx_HAL_Driver/Src/stm32f1xx_hal_i2c.c ****           Size--;
 1091              		.loc 1 816 0
 1092 026e 3B89     		ldrh	r3, [r7, #8]
 1093 0270 013B     		subs	r3, r3, #1
 1094 0272 3B81     		strh	r3, [r7, #8]	@ movhi
 1095              	.LBB58:
 1096              	.LBB59:
  60:Drivers/CMSIS/Include/cmsis_gcc.h **** }
 1097              		.loc 2 60 0
 1098              		.syntax unified
 1099              	@ 60 "Drivers/CMSIS/Include/cmsis_gcc.h" 1
 1100 0274 62B6     		cpsie i
 1101              	@ 0 "" 2
 1102              		.thumb
 1103              		.syntax unified
 1104              	.LBE59:
 1105              	.LBE58:
 817:Drivers/STM32F1xx_HAL_Driver/Src/stm32f1xx_hal_i2c.c **** 	  
 818:Drivers/STM32F1xx_HAL_Driver/Src/stm32f1xx_hal_i2c.c ****           /* Re-enable IRQs */
 819:Drivers/STM32F1xx_HAL_Driver/Src/stm32f1xx_hal_i2c.c ****           __enable_irq(); 
 820:Drivers/STM32F1xx_HAL_Driver/Src/stm32f1xx_hal_i2c.c **** 
 821:Drivers/STM32F1xx_HAL_Driver/Src/stm32f1xx_hal_i2c.c ****           /* Read data from DR */
 822:Drivers/STM32F1xx_HAL_Driver/Src/stm32f1xx_hal_i2c.c ****           (*pData++) = hi2c->Instance->DR;
 1106              		.loc 1 822 0
 1107 0276 7B68     		ldr	r3, [r7, #4]
 1108 0278 5A1C     		adds	r2, r3, #1
ARM GAS  /var/folders/kh/x4vltyy52lbg7p4pcyglc5080000gp/T//cccbl2Nm.s 			page 36


 1109 027a 7A60     		str	r2, [r7, #4]
 1110 027c FA68     		ldr	r2, [r7, #12]
 1111 027e 1268     		ldr	r2, [r2]
 1112 0280 1269     		ldr	r2, [r2, #16]
 1113 0282 D2B2     		uxtb	r2, r2
 1114 0284 1A70     		strb	r2, [r3]
 823:Drivers/STM32F1xx_HAL_Driver/Src/stm32f1xx_hal_i2c.c ****           Size--;
 1115              		.loc 1 823 0
 1116 0286 3B89     		ldrh	r3, [r7, #8]
 1117 0288 013B     		subs	r3, r3, #1
 1118 028a 3B81     		strh	r3, [r7, #8]	@ movhi
 1119 028c 30E0     		b	.L43
 1120              	.L57:
 1121 028e 00BF     		.align	2
 1122              	.L56:
 1123 0290 02001000 		.word	1048578
 1124 0294 04000100 		.word	65540
 1125              	.L44:
 824:Drivers/STM32F1xx_HAL_Driver/Src/stm32f1xx_hal_i2c.c ****         }
 825:Drivers/STM32F1xx_HAL_Driver/Src/stm32f1xx_hal_i2c.c ****       }
 826:Drivers/STM32F1xx_HAL_Driver/Src/stm32f1xx_hal_i2c.c ****       else
 827:Drivers/STM32F1xx_HAL_Driver/Src/stm32f1xx_hal_i2c.c ****       {
 828:Drivers/STM32F1xx_HAL_Driver/Src/stm32f1xx_hal_i2c.c ****         /* Wait until RXNE flag is set */
 829:Drivers/STM32F1xx_HAL_Driver/Src/stm32f1xx_hal_i2c.c ****         if(I2C_WaitOnRXNEFlagUntilTimeout(hi2c, Timeout) != HAL_OK)      
 1126              		.loc 1 829 0
 1127 0298 B96A     		ldr	r1, [r7, #40]
 1128 029a F868     		ldr	r0, [r7, #12]
 1129 029c FFF7FEFF 		bl	I2C_WaitOnRXNEFlagUntilTimeout
 1130 02a0 0346     		mov	r3, r0
 1131 02a2 002B     		cmp	r3, #0
 1132 02a4 07D0     		beq	.L53
 830:Drivers/STM32F1xx_HAL_Driver/Src/stm32f1xx_hal_i2c.c ****         {
 831:Drivers/STM32F1xx_HAL_Driver/Src/stm32f1xx_hal_i2c.c ****           if(hi2c->ErrorCode == HAL_I2C_ERROR_TIMEOUT)
 1133              		.loc 1 831 0
 1134 02a6 FB68     		ldr	r3, [r7, #12]
 1135 02a8 9B6B     		ldr	r3, [r3, #56]
 1136 02aa 202B     		cmp	r3, #32
 1137 02ac 01D1     		bne	.L54
 832:Drivers/STM32F1xx_HAL_Driver/Src/stm32f1xx_hal_i2c.c ****           {
 833:Drivers/STM32F1xx_HAL_Driver/Src/stm32f1xx_hal_i2c.c ****             return HAL_TIMEOUT;
 1138              		.loc 1 833 0
 1139 02ae 0323     		movs	r3, #3
 1140 02b0 31E0     		b	.L35
 1141              	.L54:
 834:Drivers/STM32F1xx_HAL_Driver/Src/stm32f1xx_hal_i2c.c ****           }
 835:Drivers/STM32F1xx_HAL_Driver/Src/stm32f1xx_hal_i2c.c ****           else
 836:Drivers/STM32F1xx_HAL_Driver/Src/stm32f1xx_hal_i2c.c ****           {
 837:Drivers/STM32F1xx_HAL_Driver/Src/stm32f1xx_hal_i2c.c ****             return HAL_ERROR;
 1142              		.loc 1 837 0
 1143 02b2 0123     		movs	r3, #1
 1144 02b4 2FE0     		b	.L35
 1145              	.L53:
 838:Drivers/STM32F1xx_HAL_Driver/Src/stm32f1xx_hal_i2c.c ****           }
 839:Drivers/STM32F1xx_HAL_Driver/Src/stm32f1xx_hal_i2c.c ****         }
 840:Drivers/STM32F1xx_HAL_Driver/Src/stm32f1xx_hal_i2c.c **** 
 841:Drivers/STM32F1xx_HAL_Driver/Src/stm32f1xx_hal_i2c.c ****         /* Read data from DR */
 842:Drivers/STM32F1xx_HAL_Driver/Src/stm32f1xx_hal_i2c.c ****         (*pData++) = hi2c->Instance->DR;
ARM GAS  /var/folders/kh/x4vltyy52lbg7p4pcyglc5080000gp/T//cccbl2Nm.s 			page 37


 1146              		.loc 1 842 0
 1147 02b6 7B68     		ldr	r3, [r7, #4]
 1148 02b8 5A1C     		adds	r2, r3, #1
 1149 02ba 7A60     		str	r2, [r7, #4]
 1150 02bc FA68     		ldr	r2, [r7, #12]
 1151 02be 1268     		ldr	r2, [r2]
 1152 02c0 1269     		ldr	r2, [r2, #16]
 1153 02c2 D2B2     		uxtb	r2, r2
 1154 02c4 1A70     		strb	r2, [r3]
 843:Drivers/STM32F1xx_HAL_Driver/Src/stm32f1xx_hal_i2c.c ****         Size--;
 1155              		.loc 1 843 0
 1156 02c6 3B89     		ldrh	r3, [r7, #8]
 1157 02c8 013B     		subs	r3, r3, #1
 1158 02ca 3B81     		strh	r3, [r7, #8]	@ movhi
 844:Drivers/STM32F1xx_HAL_Driver/Src/stm32f1xx_hal_i2c.c **** 
 845:Drivers/STM32F1xx_HAL_Driver/Src/stm32f1xx_hal_i2c.c ****         if(__HAL_I2C_GET_FLAG(hi2c, I2C_FLAG_BTF) == SET)
 1159              		.loc 1 845 0
 1160 02cc FB68     		ldr	r3, [r7, #12]
 1161 02ce 1B68     		ldr	r3, [r3]
 1162 02d0 5B69     		ldr	r3, [r3, #20]
 1163 02d2 03F00403 		and	r3, r3, #4
 1164 02d6 002B     		cmp	r3, #0
 1165 02d8 0AD0     		beq	.L43
 846:Drivers/STM32F1xx_HAL_Driver/Src/stm32f1xx_hal_i2c.c ****         {
 847:Drivers/STM32F1xx_HAL_Driver/Src/stm32f1xx_hal_i2c.c ****           /* Read data from DR */
 848:Drivers/STM32F1xx_HAL_Driver/Src/stm32f1xx_hal_i2c.c ****           (*pData++) = hi2c->Instance->DR;
 1166              		.loc 1 848 0
 1167 02da 7B68     		ldr	r3, [r7, #4]
 1168 02dc 5A1C     		adds	r2, r3, #1
 1169 02de 7A60     		str	r2, [r7, #4]
 1170 02e0 FA68     		ldr	r2, [r7, #12]
 1171 02e2 1268     		ldr	r2, [r2]
 1172 02e4 1269     		ldr	r2, [r2, #16]
 1173 02e6 D2B2     		uxtb	r2, r2
 1174 02e8 1A70     		strb	r2, [r3]
 849:Drivers/STM32F1xx_HAL_Driver/Src/stm32f1xx_hal_i2c.c ****           Size--;
 1175              		.loc 1 849 0
 1176 02ea 3B89     		ldrh	r3, [r7, #8]
 1177 02ec 013B     		subs	r3, r3, #1
 1178 02ee 3B81     		strh	r3, [r7, #8]	@ movhi
 1179              	.L43:
 734:Drivers/STM32F1xx_HAL_Driver/Src/stm32f1xx_hal_i2c.c ****     {
 1180              		.loc 1 734 0
 1181 02f0 3B89     		ldrh	r3, [r7, #8]
 1182 02f2 002B     		cmp	r3, #0
 1183 02f4 7FF430AF 		bne	.L55
 850:Drivers/STM32F1xx_HAL_Driver/Src/stm32f1xx_hal_i2c.c ****         }
 851:Drivers/STM32F1xx_HAL_Driver/Src/stm32f1xx_hal_i2c.c ****       }
 852:Drivers/STM32F1xx_HAL_Driver/Src/stm32f1xx_hal_i2c.c ****     }
 853:Drivers/STM32F1xx_HAL_Driver/Src/stm32f1xx_hal_i2c.c **** 
 854:Drivers/STM32F1xx_HAL_Driver/Src/stm32f1xx_hal_i2c.c ****     hi2c->State = HAL_I2C_STATE_READY;
 1184              		.loc 1 854 0
 1185 02f8 FB68     		ldr	r3, [r7, #12]
 1186 02fa 2022     		movs	r2, #32
 1187 02fc 83F83520 		strb	r2, [r3, #53]
 855:Drivers/STM32F1xx_HAL_Driver/Src/stm32f1xx_hal_i2c.c ****     hi2c->Mode = HAL_I2C_MODE_NONE;
 1188              		.loc 1 855 0
ARM GAS  /var/folders/kh/x4vltyy52lbg7p4pcyglc5080000gp/T//cccbl2Nm.s 			page 38


 1189 0300 FB68     		ldr	r3, [r7, #12]
 1190 0302 0022     		movs	r2, #0
 1191 0304 83F83620 		strb	r2, [r3, #54]
 856:Drivers/STM32F1xx_HAL_Driver/Src/stm32f1xx_hal_i2c.c **** 
 857:Drivers/STM32F1xx_HAL_Driver/Src/stm32f1xx_hal_i2c.c ****     /* Process Unlocked */
 858:Drivers/STM32F1xx_HAL_Driver/Src/stm32f1xx_hal_i2c.c ****     __HAL_UNLOCK(hi2c);
 1192              		.loc 1 858 0
 1193 0308 FB68     		ldr	r3, [r7, #12]
 1194 030a 0022     		movs	r2, #0
 1195 030c 83F83420 		strb	r2, [r3, #52]
 859:Drivers/STM32F1xx_HAL_Driver/Src/stm32f1xx_hal_i2c.c **** 
 860:Drivers/STM32F1xx_HAL_Driver/Src/stm32f1xx_hal_i2c.c ****     return HAL_OK;
 1196              		.loc 1 860 0
 1197 0310 0023     		movs	r3, #0
 1198 0312 00E0     		b	.L35
 1199              	.L32:
 861:Drivers/STM32F1xx_HAL_Driver/Src/stm32f1xx_hal_i2c.c ****   }
 862:Drivers/STM32F1xx_HAL_Driver/Src/stm32f1xx_hal_i2c.c ****   else
 863:Drivers/STM32F1xx_HAL_Driver/Src/stm32f1xx_hal_i2c.c ****   {
 864:Drivers/STM32F1xx_HAL_Driver/Src/stm32f1xx_hal_i2c.c ****     return HAL_BUSY;
 1200              		.loc 1 864 0
 1201 0314 0223     		movs	r3, #2
 1202              	.L35:
 865:Drivers/STM32F1xx_HAL_Driver/Src/stm32f1xx_hal_i2c.c ****   }
 866:Drivers/STM32F1xx_HAL_Driver/Src/stm32f1xx_hal_i2c.c **** }
 1203              		.loc 1 866 0
 1204 0316 1846     		mov	r0, r3
 1205 0318 2037     		adds	r7, r7, #32
 1206              	.LCFI30:
 1207              		.cfi_def_cfa_offset 8
 1208 031a BD46     		mov	sp, r7
 1209              	.LCFI31:
 1210              		.cfi_def_cfa_register 13
 1211              		@ sp needed
 1212 031c 80BD     		pop	{r7, pc}
 1213              		.cfi_endproc
 1214              	.LFE69:
 1216 031e 00BF     		.section	.text.HAL_I2C_Slave_Transmit,"ax",%progbits
 1217              		.align	2
 1218              		.global	HAL_I2C_Slave_Transmit
 1219              		.thumb
 1220              		.thumb_func
 1222              	HAL_I2C_Slave_Transmit:
 1223              	.LFB70:
 867:Drivers/STM32F1xx_HAL_Driver/Src/stm32f1xx_hal_i2c.c **** 
 868:Drivers/STM32F1xx_HAL_Driver/Src/stm32f1xx_hal_i2c.c **** /**
 869:Drivers/STM32F1xx_HAL_Driver/Src/stm32f1xx_hal_i2c.c ****   * @brief  Transmits in slave mode an amount of data in blocking mode. 
 870:Drivers/STM32F1xx_HAL_Driver/Src/stm32f1xx_hal_i2c.c ****   * @param  hi2c Pointer to a I2C_HandleTypeDef structure that contains
 871:Drivers/STM32F1xx_HAL_Driver/Src/stm32f1xx_hal_i2c.c ****   *                the configuration information for the specified I2C.
 872:Drivers/STM32F1xx_HAL_Driver/Src/stm32f1xx_hal_i2c.c ****   * @param  pData Pointer to data buffer
 873:Drivers/STM32F1xx_HAL_Driver/Src/stm32f1xx_hal_i2c.c ****   * @param  Size Amount of data to be sent
 874:Drivers/STM32F1xx_HAL_Driver/Src/stm32f1xx_hal_i2c.c ****   * @param  Timeout Timeout duration
 875:Drivers/STM32F1xx_HAL_Driver/Src/stm32f1xx_hal_i2c.c ****   * @retval HAL status
 876:Drivers/STM32F1xx_HAL_Driver/Src/stm32f1xx_hal_i2c.c ****   */
 877:Drivers/STM32F1xx_HAL_Driver/Src/stm32f1xx_hal_i2c.c **** HAL_StatusTypeDef HAL_I2C_Slave_Transmit(I2C_HandleTypeDef *hi2c, uint8_t *pData, uint16_t Size, ui
 878:Drivers/STM32F1xx_HAL_Driver/Src/stm32f1xx_hal_i2c.c **** {
 1224              		.loc 1 878 0
ARM GAS  /var/folders/kh/x4vltyy52lbg7p4pcyglc5080000gp/T//cccbl2Nm.s 			page 39


 1225              		.cfi_startproc
 1226              		@ args = 0, pretend = 0, frame = 24
 1227              		@ frame_needed = 1, uses_anonymous_args = 0
 1228 0000 80B5     		push	{r7, lr}
 1229              	.LCFI32:
 1230              		.cfi_def_cfa_offset 8
 1231              		.cfi_offset 7, -8
 1232              		.cfi_offset 14, -4
 1233 0002 86B0     		sub	sp, sp, #24
 1234              	.LCFI33:
 1235              		.cfi_def_cfa_offset 32
 1236 0004 00AF     		add	r7, sp, #0
 1237              	.LCFI34:
 1238              		.cfi_def_cfa_register 7
 1239 0006 F860     		str	r0, [r7, #12]
 1240 0008 B960     		str	r1, [r7, #8]
 1241 000a 3B60     		str	r3, [r7]
 1242 000c 1346     		mov	r3, r2	@ movhi
 1243 000e FB80     		strh	r3, [r7, #6]	@ movhi
 879:Drivers/STM32F1xx_HAL_Driver/Src/stm32f1xx_hal_i2c.c ****   if(hi2c->State == HAL_I2C_STATE_READY)
 1244              		.loc 1 879 0
 1245 0010 FB68     		ldr	r3, [r7, #12]
 1246 0012 93F83530 		ldrb	r3, [r3, #53]
 1247 0016 DBB2     		uxtb	r3, r3
 1248 0018 202B     		cmp	r3, #32
 1249 001a 40F0CA80 		bne	.L59
 880:Drivers/STM32F1xx_HAL_Driver/Src/stm32f1xx_hal_i2c.c ****   {
 881:Drivers/STM32F1xx_HAL_Driver/Src/stm32f1xx_hal_i2c.c ****     if((pData == NULL) || (Size == 0))
 1250              		.loc 1 881 0
 1251 001e BB68     		ldr	r3, [r7, #8]
 1252 0020 002B     		cmp	r3, #0
 1253 0022 02D0     		beq	.L60
 1254              		.loc 1 881 0 is_stmt 0 discriminator 1
 1255 0024 FB88     		ldrh	r3, [r7, #6]
 1256 0026 002B     		cmp	r3, #0
 1257 0028 01D1     		bne	.L61
 1258              	.L60:
 882:Drivers/STM32F1xx_HAL_Driver/Src/stm32f1xx_hal_i2c.c ****     {
 883:Drivers/STM32F1xx_HAL_Driver/Src/stm32f1xx_hal_i2c.c ****       return  HAL_ERROR;
 1259              		.loc 1 883 0 is_stmt 1
 1260 002a 0123     		movs	r3, #1
 1261 002c C2E0     		b	.L62
 1262              	.L61:
 884:Drivers/STM32F1xx_HAL_Driver/Src/stm32f1xx_hal_i2c.c ****     }
 885:Drivers/STM32F1xx_HAL_Driver/Src/stm32f1xx_hal_i2c.c **** 
 886:Drivers/STM32F1xx_HAL_Driver/Src/stm32f1xx_hal_i2c.c ****     /* Wait until BUSY flag is reset */
 887:Drivers/STM32F1xx_HAL_Driver/Src/stm32f1xx_hal_i2c.c ****     if(I2C_WaitOnFlagUntilTimeout(hi2c, I2C_FLAG_BUSY, SET, I2C_TIMEOUT_BUSY_FLAG) != HAL_OK)
 1263              		.loc 1 887 0
 1264 002e 42F21073 		movw	r3, #10000
 1265 0032 0122     		movs	r2, #1
 1266 0034 6149     		ldr	r1, .L73
 1267 0036 F868     		ldr	r0, [r7, #12]
 1268 0038 FFF7FEFF 		bl	I2C_WaitOnFlagUntilTimeout
 1269 003c 0346     		mov	r3, r0
 1270 003e 002B     		cmp	r3, #0
 1271 0040 01D0     		beq	.L63
 888:Drivers/STM32F1xx_HAL_Driver/Src/stm32f1xx_hal_i2c.c ****     {
ARM GAS  /var/folders/kh/x4vltyy52lbg7p4pcyglc5080000gp/T//cccbl2Nm.s 			page 40


 889:Drivers/STM32F1xx_HAL_Driver/Src/stm32f1xx_hal_i2c.c ****       return HAL_BUSY;
 1272              		.loc 1 889 0
 1273 0042 0223     		movs	r3, #2
 1274 0044 B6E0     		b	.L62
 1275              	.L63:
 890:Drivers/STM32F1xx_HAL_Driver/Src/stm32f1xx_hal_i2c.c ****     }
 891:Drivers/STM32F1xx_HAL_Driver/Src/stm32f1xx_hal_i2c.c **** 
 892:Drivers/STM32F1xx_HAL_Driver/Src/stm32f1xx_hal_i2c.c ****     /* Process Locked */
 893:Drivers/STM32F1xx_HAL_Driver/Src/stm32f1xx_hal_i2c.c ****     __HAL_LOCK(hi2c);
 1276              		.loc 1 893 0
 1277 0046 FB68     		ldr	r3, [r7, #12]
 1278 0048 93F83430 		ldrb	r3, [r3, #52]	@ zero_extendqisi2
 1279 004c 012B     		cmp	r3, #1
 1280 004e 01D1     		bne	.L64
 1281              		.loc 1 893 0 is_stmt 0 discriminator 1
 1282 0050 0223     		movs	r3, #2
 1283 0052 AFE0     		b	.L62
 1284              	.L64:
 1285              		.loc 1 893 0 discriminator 2
 1286 0054 FB68     		ldr	r3, [r7, #12]
 1287 0056 0122     		movs	r2, #1
 1288 0058 83F83420 		strb	r2, [r3, #52]
 894:Drivers/STM32F1xx_HAL_Driver/Src/stm32f1xx_hal_i2c.c **** 
 895:Drivers/STM32F1xx_HAL_Driver/Src/stm32f1xx_hal_i2c.c ****     /* Disable Pos */
 896:Drivers/STM32F1xx_HAL_Driver/Src/stm32f1xx_hal_i2c.c ****     CLEAR_BIT(hi2c->Instance->CR1, I2C_CR1_POS);
 1289              		.loc 1 896 0 is_stmt 1 discriminator 2
 1290 005c FB68     		ldr	r3, [r7, #12]
 1291 005e 1B68     		ldr	r3, [r3]
 1292 0060 FA68     		ldr	r2, [r7, #12]
 1293 0062 1268     		ldr	r2, [r2]
 1294 0064 1268     		ldr	r2, [r2]
 1295 0066 22F40062 		bic	r2, r2, #2048
 1296 006a 1A60     		str	r2, [r3]
 897:Drivers/STM32F1xx_HAL_Driver/Src/stm32f1xx_hal_i2c.c **** 
 898:Drivers/STM32F1xx_HAL_Driver/Src/stm32f1xx_hal_i2c.c ****     hi2c->State = HAL_I2C_STATE_BUSY_TX;
 1297              		.loc 1 898 0 discriminator 2
 1298 006c FB68     		ldr	r3, [r7, #12]
 1299 006e 2122     		movs	r2, #33
 1300 0070 83F83520 		strb	r2, [r3, #53]
 899:Drivers/STM32F1xx_HAL_Driver/Src/stm32f1xx_hal_i2c.c ****     hi2c->Mode = HAL_I2C_MODE_SLAVE;
 1301              		.loc 1 899 0 discriminator 2
 1302 0074 FB68     		ldr	r3, [r7, #12]
 1303 0076 2022     		movs	r2, #32
 1304 0078 83F83620 		strb	r2, [r3, #54]
 900:Drivers/STM32F1xx_HAL_Driver/Src/stm32f1xx_hal_i2c.c ****     hi2c->ErrorCode = HAL_I2C_ERROR_NONE;
 1305              		.loc 1 900 0 discriminator 2
 1306 007c FB68     		ldr	r3, [r7, #12]
 1307 007e 0022     		movs	r2, #0
 1308 0080 9A63     		str	r2, [r3, #56]
 901:Drivers/STM32F1xx_HAL_Driver/Src/stm32f1xx_hal_i2c.c **** 
 902:Drivers/STM32F1xx_HAL_Driver/Src/stm32f1xx_hal_i2c.c ****     /* Enable Address Acknowledge */
 903:Drivers/STM32F1xx_HAL_Driver/Src/stm32f1xx_hal_i2c.c ****     SET_BIT(hi2c->Instance->CR1, I2C_CR1_ACK);
 1309              		.loc 1 903 0 discriminator 2
 1310 0082 FB68     		ldr	r3, [r7, #12]
 1311 0084 1B68     		ldr	r3, [r3]
 1312 0086 FA68     		ldr	r2, [r7, #12]
 1313 0088 1268     		ldr	r2, [r2]
ARM GAS  /var/folders/kh/x4vltyy52lbg7p4pcyglc5080000gp/T//cccbl2Nm.s 			page 41


 1314 008a 1268     		ldr	r2, [r2]
 1315 008c 42F48062 		orr	r2, r2, #1024
 1316 0090 1A60     		str	r2, [r3]
 904:Drivers/STM32F1xx_HAL_Driver/Src/stm32f1xx_hal_i2c.c **** 
 905:Drivers/STM32F1xx_HAL_Driver/Src/stm32f1xx_hal_i2c.c ****     /* Wait until ADDR flag is set */
 906:Drivers/STM32F1xx_HAL_Driver/Src/stm32f1xx_hal_i2c.c ****     if(I2C_WaitOnFlagUntilTimeout(hi2c, I2C_FLAG_ADDR, RESET, Timeout) != HAL_OK)
 1317              		.loc 1 906 0 discriminator 2
 1318 0092 3B68     		ldr	r3, [r7]
 1319 0094 0022     		movs	r2, #0
 1320 0096 4A49     		ldr	r1, .L73+4
 1321 0098 F868     		ldr	r0, [r7, #12]
 1322 009a FFF7FEFF 		bl	I2C_WaitOnFlagUntilTimeout
 1323 009e 0346     		mov	r3, r0
 1324 00a0 002B     		cmp	r3, #0
 1325 00a2 01D0     		beq	.L65
 907:Drivers/STM32F1xx_HAL_Driver/Src/stm32f1xx_hal_i2c.c ****     {
 908:Drivers/STM32F1xx_HAL_Driver/Src/stm32f1xx_hal_i2c.c ****       return HAL_TIMEOUT;
 1326              		.loc 1 908 0
 1327 00a4 0323     		movs	r3, #3
 1328 00a6 85E0     		b	.L62
 1329              	.L65:
 1330              	.LBB60:
 909:Drivers/STM32F1xx_HAL_Driver/Src/stm32f1xx_hal_i2c.c ****     }
 910:Drivers/STM32F1xx_HAL_Driver/Src/stm32f1xx_hal_i2c.c **** 
 911:Drivers/STM32F1xx_HAL_Driver/Src/stm32f1xx_hal_i2c.c ****     /* Clear ADDR flag */
 912:Drivers/STM32F1xx_HAL_Driver/Src/stm32f1xx_hal_i2c.c ****     __HAL_I2C_CLEAR_ADDRFLAG(hi2c);
 1331              		.loc 1 912 0
 1332 00a8 FB68     		ldr	r3, [r7, #12]
 1333 00aa 1B68     		ldr	r3, [r3]
 1334 00ac 5B69     		ldr	r3, [r3, #20]
 1335 00ae 7B61     		str	r3, [r7, #20]
 1336 00b0 FB68     		ldr	r3, [r7, #12]
 1337 00b2 1B68     		ldr	r3, [r3]
 1338 00b4 9B69     		ldr	r3, [r3, #24]
 1339 00b6 7B61     		str	r3, [r7, #20]
 1340 00b8 7B69     		ldr	r3, [r7, #20]
 1341              	.LBE60:
 913:Drivers/STM32F1xx_HAL_Driver/Src/stm32f1xx_hal_i2c.c **** 
 914:Drivers/STM32F1xx_HAL_Driver/Src/stm32f1xx_hal_i2c.c ****     /* If 10bit addressing mode is selected */
 915:Drivers/STM32F1xx_HAL_Driver/Src/stm32f1xx_hal_i2c.c ****     if(hi2c->Init.AddressingMode == I2C_ADDRESSINGMODE_10BIT)
 1342              		.loc 1 915 0
 1343 00ba FB68     		ldr	r3, [r7, #12]
 1344 00bc 1B69     		ldr	r3, [r3, #16]
 1345 00be B3F5404F 		cmp	r3, #49152
 1346 00c2 49D1     		bne	.L68
 916:Drivers/STM32F1xx_HAL_Driver/Src/stm32f1xx_hal_i2c.c ****     {
 917:Drivers/STM32F1xx_HAL_Driver/Src/stm32f1xx_hal_i2c.c ****       /* Wait until ADDR flag is set */
 918:Drivers/STM32F1xx_HAL_Driver/Src/stm32f1xx_hal_i2c.c ****       if(I2C_WaitOnFlagUntilTimeout(hi2c, I2C_FLAG_ADDR, RESET, Timeout) != HAL_OK)
 1347              		.loc 1 918 0
 1348 00c4 3B68     		ldr	r3, [r7]
 1349 00c6 0022     		movs	r2, #0
 1350 00c8 3D49     		ldr	r1, .L73+4
 1351 00ca F868     		ldr	r0, [r7, #12]
 1352 00cc FFF7FEFF 		bl	I2C_WaitOnFlagUntilTimeout
 1353 00d0 0346     		mov	r3, r0
 1354 00d2 002B     		cmp	r3, #0
 1355 00d4 01D0     		beq	.L67
ARM GAS  /var/folders/kh/x4vltyy52lbg7p4pcyglc5080000gp/T//cccbl2Nm.s 			page 42


 919:Drivers/STM32F1xx_HAL_Driver/Src/stm32f1xx_hal_i2c.c ****       {
 920:Drivers/STM32F1xx_HAL_Driver/Src/stm32f1xx_hal_i2c.c ****         return HAL_TIMEOUT;
 1356              		.loc 1 920 0
 1357 00d6 0323     		movs	r3, #3
 1358 00d8 6CE0     		b	.L62
 1359              	.L67:
 1360              	.LBB61:
 921:Drivers/STM32F1xx_HAL_Driver/Src/stm32f1xx_hal_i2c.c ****       }
 922:Drivers/STM32F1xx_HAL_Driver/Src/stm32f1xx_hal_i2c.c **** 
 923:Drivers/STM32F1xx_HAL_Driver/Src/stm32f1xx_hal_i2c.c ****       /* Clear ADDR flag */
 924:Drivers/STM32F1xx_HAL_Driver/Src/stm32f1xx_hal_i2c.c ****       __HAL_I2C_CLEAR_ADDRFLAG(hi2c);
 1361              		.loc 1 924 0
 1362 00da FB68     		ldr	r3, [r7, #12]
 1363 00dc 1B68     		ldr	r3, [r3]
 1364 00de 5B69     		ldr	r3, [r3, #20]
 1365 00e0 3B61     		str	r3, [r7, #16]
 1366 00e2 FB68     		ldr	r3, [r7, #12]
 1367 00e4 1B68     		ldr	r3, [r3]
 1368 00e6 9B69     		ldr	r3, [r3, #24]
 1369 00e8 3B61     		str	r3, [r7, #16]
 1370 00ea 3B69     		ldr	r3, [r7, #16]
 1371              	.LBE61:
 925:Drivers/STM32F1xx_HAL_Driver/Src/stm32f1xx_hal_i2c.c ****     }
 926:Drivers/STM32F1xx_HAL_Driver/Src/stm32f1xx_hal_i2c.c **** 
 927:Drivers/STM32F1xx_HAL_Driver/Src/stm32f1xx_hal_i2c.c ****     while(Size > 0)
 1372              		.loc 1 927 0
 1373 00ec 34E0     		b	.L68
 1374              	.L71:
 928:Drivers/STM32F1xx_HAL_Driver/Src/stm32f1xx_hal_i2c.c ****     {
 929:Drivers/STM32F1xx_HAL_Driver/Src/stm32f1xx_hal_i2c.c ****       /* Wait until TXE flag is set */
 930:Drivers/STM32F1xx_HAL_Driver/Src/stm32f1xx_hal_i2c.c ****       if(I2C_WaitOnTXEFlagUntilTimeout(hi2c, Timeout) != HAL_OK)
 1375              		.loc 1 930 0
 1376 00ee 3968     		ldr	r1, [r7]
 1377 00f0 F868     		ldr	r0, [r7, #12]
 1378 00f2 FFF7FEFF 		bl	I2C_WaitOnTXEFlagUntilTimeout
 1379 00f6 0346     		mov	r3, r0
 1380 00f8 002B     		cmp	r3, #0
 1381 00fa 0FD0     		beq	.L69
 931:Drivers/STM32F1xx_HAL_Driver/Src/stm32f1xx_hal_i2c.c ****       {
 932:Drivers/STM32F1xx_HAL_Driver/Src/stm32f1xx_hal_i2c.c ****         /* Disable Address Acknowledge */
 933:Drivers/STM32F1xx_HAL_Driver/Src/stm32f1xx_hal_i2c.c ****         CLEAR_BIT(hi2c->Instance->CR1, I2C_CR1_ACK);
 1382              		.loc 1 933 0
 1383 00fc FB68     		ldr	r3, [r7, #12]
 1384 00fe 1B68     		ldr	r3, [r3]
 1385 0100 FA68     		ldr	r2, [r7, #12]
 1386 0102 1268     		ldr	r2, [r2]
 1387 0104 1268     		ldr	r2, [r2]
 1388 0106 22F48062 		bic	r2, r2, #1024
 1389 010a 1A60     		str	r2, [r3]
 934:Drivers/STM32F1xx_HAL_Driver/Src/stm32f1xx_hal_i2c.c ****         if(hi2c->ErrorCode == HAL_I2C_ERROR_AF)
 1390              		.loc 1 934 0
 1391 010c FB68     		ldr	r3, [r7, #12]
 1392 010e 9B6B     		ldr	r3, [r3, #56]
 1393 0110 042B     		cmp	r3, #4
 1394 0112 01D1     		bne	.L70
 935:Drivers/STM32F1xx_HAL_Driver/Src/stm32f1xx_hal_i2c.c ****         {
 936:Drivers/STM32F1xx_HAL_Driver/Src/stm32f1xx_hal_i2c.c ****           return HAL_ERROR;
ARM GAS  /var/folders/kh/x4vltyy52lbg7p4pcyglc5080000gp/T//cccbl2Nm.s 			page 43


 1395              		.loc 1 936 0
 1396 0114 0123     		movs	r3, #1
 1397 0116 4DE0     		b	.L62
 1398              	.L70:
 937:Drivers/STM32F1xx_HAL_Driver/Src/stm32f1xx_hal_i2c.c ****         }
 938:Drivers/STM32F1xx_HAL_Driver/Src/stm32f1xx_hal_i2c.c ****         else
 939:Drivers/STM32F1xx_HAL_Driver/Src/stm32f1xx_hal_i2c.c ****         {
 940:Drivers/STM32F1xx_HAL_Driver/Src/stm32f1xx_hal_i2c.c ****           return HAL_TIMEOUT;
 1399              		.loc 1 940 0
 1400 0118 0323     		movs	r3, #3
 1401 011a 4BE0     		b	.L62
 1402              	.L69:
 941:Drivers/STM32F1xx_HAL_Driver/Src/stm32f1xx_hal_i2c.c ****         }
 942:Drivers/STM32F1xx_HAL_Driver/Src/stm32f1xx_hal_i2c.c ****       }
 943:Drivers/STM32F1xx_HAL_Driver/Src/stm32f1xx_hal_i2c.c **** 
 944:Drivers/STM32F1xx_HAL_Driver/Src/stm32f1xx_hal_i2c.c ****       /* Write data to DR */
 945:Drivers/STM32F1xx_HAL_Driver/Src/stm32f1xx_hal_i2c.c ****       hi2c->Instance->DR = (*pData++);
 1403              		.loc 1 945 0
 1404 011c FB68     		ldr	r3, [r7, #12]
 1405 011e 1A68     		ldr	r2, [r3]
 1406 0120 BB68     		ldr	r3, [r7, #8]
 1407 0122 591C     		adds	r1, r3, #1
 1408 0124 B960     		str	r1, [r7, #8]
 1409 0126 1B78     		ldrb	r3, [r3]	@ zero_extendqisi2
 1410 0128 1361     		str	r3, [r2, #16]
 946:Drivers/STM32F1xx_HAL_Driver/Src/stm32f1xx_hal_i2c.c ****       Size--;
 1411              		.loc 1 946 0
 1412 012a FB88     		ldrh	r3, [r7, #6]
 1413 012c 013B     		subs	r3, r3, #1
 1414 012e FB80     		strh	r3, [r7, #6]	@ movhi
 947:Drivers/STM32F1xx_HAL_Driver/Src/stm32f1xx_hal_i2c.c **** 
 948:Drivers/STM32F1xx_HAL_Driver/Src/stm32f1xx_hal_i2c.c ****       if((__HAL_I2C_GET_FLAG(hi2c, I2C_FLAG_BTF) == SET) && (Size != 0))
 1415              		.loc 1 948 0
 1416 0130 FB68     		ldr	r3, [r7, #12]
 1417 0132 1B68     		ldr	r3, [r3]
 1418 0134 5B69     		ldr	r3, [r3, #20]
 1419 0136 03F00403 		and	r3, r3, #4
 1420 013a 002B     		cmp	r3, #0
 1421 013c 0CD0     		beq	.L68
 1422              		.loc 1 948 0 is_stmt 0 discriminator 1
 1423 013e FB88     		ldrh	r3, [r7, #6]
 1424 0140 002B     		cmp	r3, #0
 1425 0142 09D0     		beq	.L68
 949:Drivers/STM32F1xx_HAL_Driver/Src/stm32f1xx_hal_i2c.c ****       {
 950:Drivers/STM32F1xx_HAL_Driver/Src/stm32f1xx_hal_i2c.c ****         /* Write data to DR */
 951:Drivers/STM32F1xx_HAL_Driver/Src/stm32f1xx_hal_i2c.c ****         hi2c->Instance->DR = (*pData++);
 1426              		.loc 1 951 0 is_stmt 1
 1427 0144 FB68     		ldr	r3, [r7, #12]
 1428 0146 1A68     		ldr	r2, [r3]
 1429 0148 BB68     		ldr	r3, [r7, #8]
 1430 014a 591C     		adds	r1, r3, #1
 1431 014c B960     		str	r1, [r7, #8]
 1432 014e 1B78     		ldrb	r3, [r3]	@ zero_extendqisi2
 1433 0150 1361     		str	r3, [r2, #16]
 952:Drivers/STM32F1xx_HAL_Driver/Src/stm32f1xx_hal_i2c.c ****         Size--;
 1434              		.loc 1 952 0
 1435 0152 FB88     		ldrh	r3, [r7, #6]
ARM GAS  /var/folders/kh/x4vltyy52lbg7p4pcyglc5080000gp/T//cccbl2Nm.s 			page 44


 1436 0154 013B     		subs	r3, r3, #1
 1437 0156 FB80     		strh	r3, [r7, #6]	@ movhi
 1438              	.L68:
 927:Drivers/STM32F1xx_HAL_Driver/Src/stm32f1xx_hal_i2c.c ****     {
 1439              		.loc 1 927 0
 1440 0158 FB88     		ldrh	r3, [r7, #6]
 1441 015a 002B     		cmp	r3, #0
 1442 015c C7D1     		bne	.L71
 953:Drivers/STM32F1xx_HAL_Driver/Src/stm32f1xx_hal_i2c.c ****       }
 954:Drivers/STM32F1xx_HAL_Driver/Src/stm32f1xx_hal_i2c.c ****     }
 955:Drivers/STM32F1xx_HAL_Driver/Src/stm32f1xx_hal_i2c.c **** 
 956:Drivers/STM32F1xx_HAL_Driver/Src/stm32f1xx_hal_i2c.c ****     /* Wait until AF flag is set */
 957:Drivers/STM32F1xx_HAL_Driver/Src/stm32f1xx_hal_i2c.c ****     if(I2C_WaitOnFlagUntilTimeout(hi2c, I2C_FLAG_AF, RESET, Timeout) != HAL_OK)
 1443              		.loc 1 957 0
 1444 015e 3B68     		ldr	r3, [r7]
 1445 0160 0022     		movs	r2, #0
 1446 0162 4FF48231 		mov	r1, #66560
 1447 0166 F868     		ldr	r0, [r7, #12]
 1448 0168 FFF7FEFF 		bl	I2C_WaitOnFlagUntilTimeout
 1449 016c 0346     		mov	r3, r0
 1450 016e 002B     		cmp	r3, #0
 1451 0170 01D0     		beq	.L72
 958:Drivers/STM32F1xx_HAL_Driver/Src/stm32f1xx_hal_i2c.c ****     {
 959:Drivers/STM32F1xx_HAL_Driver/Src/stm32f1xx_hal_i2c.c ****       return HAL_TIMEOUT;
 1452              		.loc 1 959 0
 1453 0172 0323     		movs	r3, #3
 1454 0174 1EE0     		b	.L62
 1455              	.L72:
 960:Drivers/STM32F1xx_HAL_Driver/Src/stm32f1xx_hal_i2c.c ****     }
 961:Drivers/STM32F1xx_HAL_Driver/Src/stm32f1xx_hal_i2c.c **** 
 962:Drivers/STM32F1xx_HAL_Driver/Src/stm32f1xx_hal_i2c.c ****     /* Clear AF flag */
 963:Drivers/STM32F1xx_HAL_Driver/Src/stm32f1xx_hal_i2c.c ****     __HAL_I2C_CLEAR_FLAG(hi2c, I2C_FLAG_AF);
 1456              		.loc 1 963 0
 1457 0176 FB68     		ldr	r3, [r7, #12]
 1458 0178 1B68     		ldr	r3, [r3]
 1459 017a FA68     		ldr	r2, [r7, #12]
 1460 017c 1268     		ldr	r2, [r2]
 1461 017e 5269     		ldr	r2, [r2, #20]
 1462 0180 22F48062 		bic	r2, r2, #1024
 1463 0184 5A61     		str	r2, [r3, #20]
 964:Drivers/STM32F1xx_HAL_Driver/Src/stm32f1xx_hal_i2c.c **** 
 965:Drivers/STM32F1xx_HAL_Driver/Src/stm32f1xx_hal_i2c.c ****     /* Disable Address Acknowledge */
 966:Drivers/STM32F1xx_HAL_Driver/Src/stm32f1xx_hal_i2c.c ****     CLEAR_BIT(hi2c->Instance->CR1, I2C_CR1_ACK);
 1464              		.loc 1 966 0
 1465 0186 FB68     		ldr	r3, [r7, #12]
 1466 0188 1B68     		ldr	r3, [r3]
 1467 018a FA68     		ldr	r2, [r7, #12]
 1468 018c 1268     		ldr	r2, [r2]
 1469 018e 1268     		ldr	r2, [r2]
 1470 0190 22F48062 		bic	r2, r2, #1024
 1471 0194 1A60     		str	r2, [r3]
 967:Drivers/STM32F1xx_HAL_Driver/Src/stm32f1xx_hal_i2c.c **** 
 968:Drivers/STM32F1xx_HAL_Driver/Src/stm32f1xx_hal_i2c.c ****     hi2c->State = HAL_I2C_STATE_READY;
 1472              		.loc 1 968 0
 1473 0196 FB68     		ldr	r3, [r7, #12]
 1474 0198 2022     		movs	r2, #32
 1475 019a 83F83520 		strb	r2, [r3, #53]
ARM GAS  /var/folders/kh/x4vltyy52lbg7p4pcyglc5080000gp/T//cccbl2Nm.s 			page 45


 969:Drivers/STM32F1xx_HAL_Driver/Src/stm32f1xx_hal_i2c.c ****     hi2c->Mode = HAL_I2C_MODE_NONE;
 1476              		.loc 1 969 0
 1477 019e FB68     		ldr	r3, [r7, #12]
 1478 01a0 0022     		movs	r2, #0
 1479 01a2 83F83620 		strb	r2, [r3, #54]
 970:Drivers/STM32F1xx_HAL_Driver/Src/stm32f1xx_hal_i2c.c **** 
 971:Drivers/STM32F1xx_HAL_Driver/Src/stm32f1xx_hal_i2c.c ****     /* Process Unlocked */
 972:Drivers/STM32F1xx_HAL_Driver/Src/stm32f1xx_hal_i2c.c ****     __HAL_UNLOCK(hi2c);
 1480              		.loc 1 972 0
 1481 01a6 FB68     		ldr	r3, [r7, #12]
 1482 01a8 0022     		movs	r2, #0
 1483 01aa 83F83420 		strb	r2, [r3, #52]
 973:Drivers/STM32F1xx_HAL_Driver/Src/stm32f1xx_hal_i2c.c **** 
 974:Drivers/STM32F1xx_HAL_Driver/Src/stm32f1xx_hal_i2c.c ****     return HAL_OK;
 1484              		.loc 1 974 0
 1485 01ae 0023     		movs	r3, #0
 1486 01b0 00E0     		b	.L62
 1487              	.L59:
 975:Drivers/STM32F1xx_HAL_Driver/Src/stm32f1xx_hal_i2c.c ****   }
 976:Drivers/STM32F1xx_HAL_Driver/Src/stm32f1xx_hal_i2c.c ****   else
 977:Drivers/STM32F1xx_HAL_Driver/Src/stm32f1xx_hal_i2c.c ****   {
 978:Drivers/STM32F1xx_HAL_Driver/Src/stm32f1xx_hal_i2c.c ****     return HAL_BUSY;
 1488              		.loc 1 978 0
 1489 01b2 0223     		movs	r3, #2
 1490              	.L62:
 979:Drivers/STM32F1xx_HAL_Driver/Src/stm32f1xx_hal_i2c.c ****   }
 980:Drivers/STM32F1xx_HAL_Driver/Src/stm32f1xx_hal_i2c.c **** }
 1491              		.loc 1 980 0
 1492 01b4 1846     		mov	r0, r3
 1493 01b6 1837     		adds	r7, r7, #24
 1494              	.LCFI35:
 1495              		.cfi_def_cfa_offset 8
 1496 01b8 BD46     		mov	sp, r7
 1497              	.LCFI36:
 1498              		.cfi_def_cfa_register 13
 1499              		@ sp needed
 1500 01ba 80BD     		pop	{r7, pc}
 1501              	.L74:
 1502              		.align	2
 1503              	.L73:
 1504 01bc 02001000 		.word	1048578
 1505 01c0 02000100 		.word	65538
 1506              		.cfi_endproc
 1507              	.LFE70:
 1509              		.section	.text.HAL_I2C_Slave_Receive,"ax",%progbits
 1510              		.align	2
 1511              		.global	HAL_I2C_Slave_Receive
 1512              		.thumb
 1513              		.thumb_func
 1515              	HAL_I2C_Slave_Receive:
 1516              	.LFB71:
 981:Drivers/STM32F1xx_HAL_Driver/Src/stm32f1xx_hal_i2c.c **** 
 982:Drivers/STM32F1xx_HAL_Driver/Src/stm32f1xx_hal_i2c.c **** /**
 983:Drivers/STM32F1xx_HAL_Driver/Src/stm32f1xx_hal_i2c.c ****   * @brief  Receive in slave mode an amount of data in blocking mode 
 984:Drivers/STM32F1xx_HAL_Driver/Src/stm32f1xx_hal_i2c.c ****   * @param  hi2c Pointer to a I2C_HandleTypeDef structure that contains
 985:Drivers/STM32F1xx_HAL_Driver/Src/stm32f1xx_hal_i2c.c ****   *                the configuration information for the specified I2C.
 986:Drivers/STM32F1xx_HAL_Driver/Src/stm32f1xx_hal_i2c.c ****   * @param  pData Pointer to data buffer
ARM GAS  /var/folders/kh/x4vltyy52lbg7p4pcyglc5080000gp/T//cccbl2Nm.s 			page 46


 987:Drivers/STM32F1xx_HAL_Driver/Src/stm32f1xx_hal_i2c.c ****   * @param  Size Amount of data to be sent
 988:Drivers/STM32F1xx_HAL_Driver/Src/stm32f1xx_hal_i2c.c ****   * @param  Timeout Timeout duration
 989:Drivers/STM32F1xx_HAL_Driver/Src/stm32f1xx_hal_i2c.c ****   * @retval HAL status
 990:Drivers/STM32F1xx_HAL_Driver/Src/stm32f1xx_hal_i2c.c ****   */
 991:Drivers/STM32F1xx_HAL_Driver/Src/stm32f1xx_hal_i2c.c **** HAL_StatusTypeDef HAL_I2C_Slave_Receive(I2C_HandleTypeDef *hi2c, uint8_t *pData, uint16_t Size, uin
 992:Drivers/STM32F1xx_HAL_Driver/Src/stm32f1xx_hal_i2c.c **** {
 1517              		.loc 1 992 0
 1518              		.cfi_startproc
 1519              		@ args = 0, pretend = 0, frame = 24
 1520              		@ frame_needed = 1, uses_anonymous_args = 0
 1521 0000 80B5     		push	{r7, lr}
 1522              	.LCFI37:
 1523              		.cfi_def_cfa_offset 8
 1524              		.cfi_offset 7, -8
 1525              		.cfi_offset 14, -4
 1526 0002 86B0     		sub	sp, sp, #24
 1527              	.LCFI38:
 1528              		.cfi_def_cfa_offset 32
 1529 0004 00AF     		add	r7, sp, #0
 1530              	.LCFI39:
 1531              		.cfi_def_cfa_register 7
 1532 0006 F860     		str	r0, [r7, #12]
 1533 0008 B960     		str	r1, [r7, #8]
 1534 000a 3B60     		str	r3, [r7]
 1535 000c 1346     		mov	r3, r2	@ movhi
 1536 000e FB80     		strh	r3, [r7, #6]	@ movhi
 993:Drivers/STM32F1xx_HAL_Driver/Src/stm32f1xx_hal_i2c.c ****   if(hi2c->State == HAL_I2C_STATE_READY)
 1537              		.loc 1 993 0
 1538 0010 FB68     		ldr	r3, [r7, #12]
 1539 0012 93F83530 		ldrb	r3, [r3, #53]
 1540 0016 DBB2     		uxtb	r3, r3
 1541 0018 202B     		cmp	r3, #32
 1542 001a 40F0C480 		bne	.L76
 994:Drivers/STM32F1xx_HAL_Driver/Src/stm32f1xx_hal_i2c.c ****   {
 995:Drivers/STM32F1xx_HAL_Driver/Src/stm32f1xx_hal_i2c.c ****     if((pData == NULL) || (Size == 0))
 1543              		.loc 1 995 0
 1544 001e BB68     		ldr	r3, [r7, #8]
 1545 0020 002B     		cmp	r3, #0
 1546 0022 02D0     		beq	.L77
 1547              		.loc 1 995 0 is_stmt 0 discriminator 1
 1548 0024 FB88     		ldrh	r3, [r7, #6]
 1549 0026 002B     		cmp	r3, #0
 1550 0028 01D1     		bne	.L78
 1551              	.L77:
 996:Drivers/STM32F1xx_HAL_Driver/Src/stm32f1xx_hal_i2c.c ****     {
 997:Drivers/STM32F1xx_HAL_Driver/Src/stm32f1xx_hal_i2c.c ****       return  HAL_ERROR;
 1552              		.loc 1 997 0 is_stmt 1
 1553 002a 0123     		movs	r3, #1
 1554 002c BCE0     		b	.L79
 1555              	.L78:
 998:Drivers/STM32F1xx_HAL_Driver/Src/stm32f1xx_hal_i2c.c ****     }
 999:Drivers/STM32F1xx_HAL_Driver/Src/stm32f1xx_hal_i2c.c **** 
1000:Drivers/STM32F1xx_HAL_Driver/Src/stm32f1xx_hal_i2c.c ****     /* Wait until BUSY flag is reset */
1001:Drivers/STM32F1xx_HAL_Driver/Src/stm32f1xx_hal_i2c.c ****     if(I2C_WaitOnFlagUntilTimeout(hi2c, I2C_FLAG_BUSY, SET, I2C_TIMEOUT_BUSY_FLAG) != HAL_OK)
 1556              		.loc 1 1001 0
 1557 002e 42F21073 		movw	r3, #10000
 1558 0032 0122     		movs	r2, #1
ARM GAS  /var/folders/kh/x4vltyy52lbg7p4pcyglc5080000gp/T//cccbl2Nm.s 			page 47


 1559 0034 5E49     		ldr	r1, .L89
 1560 0036 F868     		ldr	r0, [r7, #12]
 1561 0038 FFF7FEFF 		bl	I2C_WaitOnFlagUntilTimeout
 1562 003c 0346     		mov	r3, r0
 1563 003e 002B     		cmp	r3, #0
 1564 0040 01D0     		beq	.L80
1002:Drivers/STM32F1xx_HAL_Driver/Src/stm32f1xx_hal_i2c.c ****     {
1003:Drivers/STM32F1xx_HAL_Driver/Src/stm32f1xx_hal_i2c.c ****       return HAL_BUSY;
 1565              		.loc 1 1003 0
 1566 0042 0223     		movs	r3, #2
 1567 0044 B0E0     		b	.L79
 1568              	.L80:
1004:Drivers/STM32F1xx_HAL_Driver/Src/stm32f1xx_hal_i2c.c ****     }
1005:Drivers/STM32F1xx_HAL_Driver/Src/stm32f1xx_hal_i2c.c **** 
1006:Drivers/STM32F1xx_HAL_Driver/Src/stm32f1xx_hal_i2c.c ****     /* Process Locked */
1007:Drivers/STM32F1xx_HAL_Driver/Src/stm32f1xx_hal_i2c.c ****     __HAL_LOCK(hi2c);
 1569              		.loc 1 1007 0
 1570 0046 FB68     		ldr	r3, [r7, #12]
 1571 0048 93F83430 		ldrb	r3, [r3, #52]	@ zero_extendqisi2
 1572 004c 012B     		cmp	r3, #1
 1573 004e 01D1     		bne	.L81
 1574              		.loc 1 1007 0 is_stmt 0 discriminator 1
 1575 0050 0223     		movs	r3, #2
 1576 0052 A9E0     		b	.L79
 1577              	.L81:
 1578              		.loc 1 1007 0 discriminator 2
 1579 0054 FB68     		ldr	r3, [r7, #12]
 1580 0056 0122     		movs	r2, #1
 1581 0058 83F83420 		strb	r2, [r3, #52]
1008:Drivers/STM32F1xx_HAL_Driver/Src/stm32f1xx_hal_i2c.c **** 
1009:Drivers/STM32F1xx_HAL_Driver/Src/stm32f1xx_hal_i2c.c ****     /* Disable Pos */
1010:Drivers/STM32F1xx_HAL_Driver/Src/stm32f1xx_hal_i2c.c ****     CLEAR_BIT(hi2c->Instance->CR1, I2C_CR1_POS);
 1582              		.loc 1 1010 0 is_stmt 1 discriminator 2
 1583 005c FB68     		ldr	r3, [r7, #12]
 1584 005e 1B68     		ldr	r3, [r3]
 1585 0060 FA68     		ldr	r2, [r7, #12]
 1586 0062 1268     		ldr	r2, [r2]
 1587 0064 1268     		ldr	r2, [r2]
 1588 0066 22F40062 		bic	r2, r2, #2048
 1589 006a 1A60     		str	r2, [r3]
1011:Drivers/STM32F1xx_HAL_Driver/Src/stm32f1xx_hal_i2c.c **** 
1012:Drivers/STM32F1xx_HAL_Driver/Src/stm32f1xx_hal_i2c.c ****     hi2c->State = HAL_I2C_STATE_BUSY_RX;
 1590              		.loc 1 1012 0 discriminator 2
 1591 006c FB68     		ldr	r3, [r7, #12]
 1592 006e 2222     		movs	r2, #34
 1593 0070 83F83520 		strb	r2, [r3, #53]
1013:Drivers/STM32F1xx_HAL_Driver/Src/stm32f1xx_hal_i2c.c ****     hi2c->Mode = HAL_I2C_MODE_SLAVE;
 1594              		.loc 1 1013 0 discriminator 2
 1595 0074 FB68     		ldr	r3, [r7, #12]
 1596 0076 2022     		movs	r2, #32
 1597 0078 83F83620 		strb	r2, [r3, #54]
1014:Drivers/STM32F1xx_HAL_Driver/Src/stm32f1xx_hal_i2c.c ****     hi2c->ErrorCode = HAL_I2C_ERROR_NONE;
 1598              		.loc 1 1014 0 discriminator 2
 1599 007c FB68     		ldr	r3, [r7, #12]
 1600 007e 0022     		movs	r2, #0
 1601 0080 9A63     		str	r2, [r3, #56]
1015:Drivers/STM32F1xx_HAL_Driver/Src/stm32f1xx_hal_i2c.c **** 
ARM GAS  /var/folders/kh/x4vltyy52lbg7p4pcyglc5080000gp/T//cccbl2Nm.s 			page 48


1016:Drivers/STM32F1xx_HAL_Driver/Src/stm32f1xx_hal_i2c.c ****     /* Enable Address Acknowledge */
1017:Drivers/STM32F1xx_HAL_Driver/Src/stm32f1xx_hal_i2c.c ****     SET_BIT(hi2c->Instance->CR1, I2C_CR1_ACK);
 1602              		.loc 1 1017 0 discriminator 2
 1603 0082 FB68     		ldr	r3, [r7, #12]
 1604 0084 1B68     		ldr	r3, [r3]
 1605 0086 FA68     		ldr	r2, [r7, #12]
 1606 0088 1268     		ldr	r2, [r2]
 1607 008a 1268     		ldr	r2, [r2]
 1608 008c 42F48062 		orr	r2, r2, #1024
 1609 0090 1A60     		str	r2, [r3]
1018:Drivers/STM32F1xx_HAL_Driver/Src/stm32f1xx_hal_i2c.c **** 
1019:Drivers/STM32F1xx_HAL_Driver/Src/stm32f1xx_hal_i2c.c ****     /* Wait until ADDR flag is set */
1020:Drivers/STM32F1xx_HAL_Driver/Src/stm32f1xx_hal_i2c.c ****     if(I2C_WaitOnFlagUntilTimeout(hi2c, I2C_FLAG_ADDR, RESET, Timeout) != HAL_OK)
 1610              		.loc 1 1020 0 discriminator 2
 1611 0092 3B68     		ldr	r3, [r7]
 1612 0094 0022     		movs	r2, #0
 1613 0096 4749     		ldr	r1, .L89+4
 1614 0098 F868     		ldr	r0, [r7, #12]
 1615 009a FFF7FEFF 		bl	I2C_WaitOnFlagUntilTimeout
 1616 009e 0346     		mov	r3, r0
 1617 00a0 002B     		cmp	r3, #0
 1618 00a2 01D0     		beq	.L82
1021:Drivers/STM32F1xx_HAL_Driver/Src/stm32f1xx_hal_i2c.c ****     {
1022:Drivers/STM32F1xx_HAL_Driver/Src/stm32f1xx_hal_i2c.c ****       return HAL_TIMEOUT;
 1619              		.loc 1 1022 0
 1620 00a4 0323     		movs	r3, #3
 1621 00a6 7FE0     		b	.L79
 1622              	.L82:
 1623              	.LBB62:
1023:Drivers/STM32F1xx_HAL_Driver/Src/stm32f1xx_hal_i2c.c ****     }
1024:Drivers/STM32F1xx_HAL_Driver/Src/stm32f1xx_hal_i2c.c **** 
1025:Drivers/STM32F1xx_HAL_Driver/Src/stm32f1xx_hal_i2c.c ****     /* Clear ADDR flag */
1026:Drivers/STM32F1xx_HAL_Driver/Src/stm32f1xx_hal_i2c.c ****     __HAL_I2C_CLEAR_ADDRFLAG(hi2c);
 1624              		.loc 1 1026 0
 1625 00a8 FB68     		ldr	r3, [r7, #12]
 1626 00aa 1B68     		ldr	r3, [r3]
 1627 00ac 5B69     		ldr	r3, [r3, #20]
 1628 00ae 7B61     		str	r3, [r7, #20]
 1629 00b0 FB68     		ldr	r3, [r7, #12]
 1630 00b2 1B68     		ldr	r3, [r3]
 1631 00b4 9B69     		ldr	r3, [r3, #24]
 1632 00b6 7B61     		str	r3, [r7, #20]
 1633 00b8 7B69     		ldr	r3, [r7, #20]
 1634              	.LBE62:
1027:Drivers/STM32F1xx_HAL_Driver/Src/stm32f1xx_hal_i2c.c **** 
1028:Drivers/STM32F1xx_HAL_Driver/Src/stm32f1xx_hal_i2c.c ****     while(Size > 0)
 1635              		.loc 1 1028 0
 1636 00ba 36E0     		b	.L83
 1637              	.L86:
1029:Drivers/STM32F1xx_HAL_Driver/Src/stm32f1xx_hal_i2c.c ****     {
1030:Drivers/STM32F1xx_HAL_Driver/Src/stm32f1xx_hal_i2c.c ****       /* Wait until RXNE flag is set */
1031:Drivers/STM32F1xx_HAL_Driver/Src/stm32f1xx_hal_i2c.c ****       if(I2C_WaitOnRXNEFlagUntilTimeout(hi2c, Timeout) != HAL_OK)      
 1638              		.loc 1 1031 0
 1639 00bc 3968     		ldr	r1, [r7]
 1640 00be F868     		ldr	r0, [r7, #12]
 1641 00c0 FFF7FEFF 		bl	I2C_WaitOnRXNEFlagUntilTimeout
 1642 00c4 0346     		mov	r3, r0
ARM GAS  /var/folders/kh/x4vltyy52lbg7p4pcyglc5080000gp/T//cccbl2Nm.s 			page 49


 1643 00c6 002B     		cmp	r3, #0
 1644 00c8 0FD0     		beq	.L84
1032:Drivers/STM32F1xx_HAL_Driver/Src/stm32f1xx_hal_i2c.c ****       {
1033:Drivers/STM32F1xx_HAL_Driver/Src/stm32f1xx_hal_i2c.c ****         /* Disable Address Acknowledge */
1034:Drivers/STM32F1xx_HAL_Driver/Src/stm32f1xx_hal_i2c.c ****         hi2c->Instance->CR1 &= ~I2C_CR1_ACK;
 1645              		.loc 1 1034 0
 1646 00ca FB68     		ldr	r3, [r7, #12]
 1647 00cc 1B68     		ldr	r3, [r3]
 1648 00ce FA68     		ldr	r2, [r7, #12]
 1649 00d0 1268     		ldr	r2, [r2]
 1650 00d2 1268     		ldr	r2, [r2]
 1651 00d4 22F48062 		bic	r2, r2, #1024
 1652 00d8 1A60     		str	r2, [r3]
1035:Drivers/STM32F1xx_HAL_Driver/Src/stm32f1xx_hal_i2c.c ****         if(hi2c->ErrorCode == HAL_I2C_ERROR_TIMEOUT)
 1653              		.loc 1 1035 0
 1654 00da FB68     		ldr	r3, [r7, #12]
 1655 00dc 9B6B     		ldr	r3, [r3, #56]
 1656 00de 202B     		cmp	r3, #32
 1657 00e0 01D1     		bne	.L85
1036:Drivers/STM32F1xx_HAL_Driver/Src/stm32f1xx_hal_i2c.c ****         {
1037:Drivers/STM32F1xx_HAL_Driver/Src/stm32f1xx_hal_i2c.c ****           return HAL_TIMEOUT;
 1658              		.loc 1 1037 0
 1659 00e2 0323     		movs	r3, #3
 1660 00e4 60E0     		b	.L79
 1661              	.L85:
1038:Drivers/STM32F1xx_HAL_Driver/Src/stm32f1xx_hal_i2c.c ****         }
1039:Drivers/STM32F1xx_HAL_Driver/Src/stm32f1xx_hal_i2c.c ****         else
1040:Drivers/STM32F1xx_HAL_Driver/Src/stm32f1xx_hal_i2c.c ****         {
1041:Drivers/STM32F1xx_HAL_Driver/Src/stm32f1xx_hal_i2c.c ****           return HAL_ERROR;
 1662              		.loc 1 1041 0
 1663 00e6 0123     		movs	r3, #1
 1664 00e8 5EE0     		b	.L79
 1665              	.L84:
1042:Drivers/STM32F1xx_HAL_Driver/Src/stm32f1xx_hal_i2c.c ****         }
1043:Drivers/STM32F1xx_HAL_Driver/Src/stm32f1xx_hal_i2c.c ****       }
1044:Drivers/STM32F1xx_HAL_Driver/Src/stm32f1xx_hal_i2c.c **** 
1045:Drivers/STM32F1xx_HAL_Driver/Src/stm32f1xx_hal_i2c.c ****       /* Read data from DR */
1046:Drivers/STM32F1xx_HAL_Driver/Src/stm32f1xx_hal_i2c.c ****       (*pData++) = hi2c->Instance->DR;
 1666              		.loc 1 1046 0
 1667 00ea BB68     		ldr	r3, [r7, #8]
 1668 00ec 5A1C     		adds	r2, r3, #1
 1669 00ee BA60     		str	r2, [r7, #8]
 1670 00f0 FA68     		ldr	r2, [r7, #12]
 1671 00f2 1268     		ldr	r2, [r2]
 1672 00f4 1269     		ldr	r2, [r2, #16]
 1673 00f6 D2B2     		uxtb	r2, r2
 1674 00f8 1A70     		strb	r2, [r3]
1047:Drivers/STM32F1xx_HAL_Driver/Src/stm32f1xx_hal_i2c.c ****       Size--;
 1675              		.loc 1 1047 0
 1676 00fa FB88     		ldrh	r3, [r7, #6]
 1677 00fc 013B     		subs	r3, r3, #1
 1678 00fe FB80     		strh	r3, [r7, #6]	@ movhi
1048:Drivers/STM32F1xx_HAL_Driver/Src/stm32f1xx_hal_i2c.c **** 
1049:Drivers/STM32F1xx_HAL_Driver/Src/stm32f1xx_hal_i2c.c ****       if((__HAL_I2C_GET_FLAG(hi2c, I2C_FLAG_BTF) == SET) && (Size != 0))
 1679              		.loc 1 1049 0
 1680 0100 FB68     		ldr	r3, [r7, #12]
 1681 0102 1B68     		ldr	r3, [r3]
ARM GAS  /var/folders/kh/x4vltyy52lbg7p4pcyglc5080000gp/T//cccbl2Nm.s 			page 50


 1682 0104 5B69     		ldr	r3, [r3, #20]
 1683 0106 03F00403 		and	r3, r3, #4
 1684 010a 002B     		cmp	r3, #0
 1685 010c 0DD0     		beq	.L83
 1686              		.loc 1 1049 0 is_stmt 0 discriminator 1
 1687 010e FB88     		ldrh	r3, [r7, #6]
 1688 0110 002B     		cmp	r3, #0
 1689 0112 0AD0     		beq	.L83
1050:Drivers/STM32F1xx_HAL_Driver/Src/stm32f1xx_hal_i2c.c ****       {
1051:Drivers/STM32F1xx_HAL_Driver/Src/stm32f1xx_hal_i2c.c ****         /* Read data from DR */
1052:Drivers/STM32F1xx_HAL_Driver/Src/stm32f1xx_hal_i2c.c ****         (*pData++) = hi2c->Instance->DR;
 1690              		.loc 1 1052 0 is_stmt 1
 1691 0114 BB68     		ldr	r3, [r7, #8]
 1692 0116 5A1C     		adds	r2, r3, #1
 1693 0118 BA60     		str	r2, [r7, #8]
 1694 011a FA68     		ldr	r2, [r7, #12]
 1695 011c 1268     		ldr	r2, [r2]
 1696 011e 1269     		ldr	r2, [r2, #16]
 1697 0120 D2B2     		uxtb	r2, r2
 1698 0122 1A70     		strb	r2, [r3]
1053:Drivers/STM32F1xx_HAL_Driver/Src/stm32f1xx_hal_i2c.c ****         Size--;
 1699              		.loc 1 1053 0
 1700 0124 FB88     		ldrh	r3, [r7, #6]
 1701 0126 013B     		subs	r3, r3, #1
 1702 0128 FB80     		strh	r3, [r7, #6]	@ movhi
 1703              	.L83:
1028:Drivers/STM32F1xx_HAL_Driver/Src/stm32f1xx_hal_i2c.c ****     {
 1704              		.loc 1 1028 0
 1705 012a FB88     		ldrh	r3, [r7, #6]
 1706 012c 002B     		cmp	r3, #0
 1707 012e C5D1     		bne	.L86
1054:Drivers/STM32F1xx_HAL_Driver/Src/stm32f1xx_hal_i2c.c ****       }
1055:Drivers/STM32F1xx_HAL_Driver/Src/stm32f1xx_hal_i2c.c ****     }
1056:Drivers/STM32F1xx_HAL_Driver/Src/stm32f1xx_hal_i2c.c **** 
1057:Drivers/STM32F1xx_HAL_Driver/Src/stm32f1xx_hal_i2c.c ****     /* Wait until STOP flag is set */
1058:Drivers/STM32F1xx_HAL_Driver/Src/stm32f1xx_hal_i2c.c ****     if(I2C_WaitOnSTOPFlagUntilTimeout(hi2c, I2C_TIMEOUT_FLAG) != HAL_OK)
 1708              		.loc 1 1058 0
 1709 0130 2321     		movs	r1, #35
 1710 0132 F868     		ldr	r0, [r7, #12]
 1711 0134 FFF7FEFF 		bl	I2C_WaitOnSTOPFlagUntilTimeout
 1712 0138 0346     		mov	r3, r0
 1713 013a 002B     		cmp	r3, #0
 1714 013c 0FD0     		beq	.L87
1059:Drivers/STM32F1xx_HAL_Driver/Src/stm32f1xx_hal_i2c.c ****     {
1060:Drivers/STM32F1xx_HAL_Driver/Src/stm32f1xx_hal_i2c.c ****       /* Disable Address Acknowledge */
1061:Drivers/STM32F1xx_HAL_Driver/Src/stm32f1xx_hal_i2c.c ****       hi2c->Instance->CR1 &= ~I2C_CR1_ACK;
 1715              		.loc 1 1061 0
 1716 013e FB68     		ldr	r3, [r7, #12]
 1717 0140 1B68     		ldr	r3, [r3]
 1718 0142 FA68     		ldr	r2, [r7, #12]
 1719 0144 1268     		ldr	r2, [r2]
 1720 0146 1268     		ldr	r2, [r2]
 1721 0148 22F48062 		bic	r2, r2, #1024
 1722 014c 1A60     		str	r2, [r3]
1062:Drivers/STM32F1xx_HAL_Driver/Src/stm32f1xx_hal_i2c.c **** 
1063:Drivers/STM32F1xx_HAL_Driver/Src/stm32f1xx_hal_i2c.c ****       if(hi2c->ErrorCode == HAL_I2C_ERROR_AF)
 1723              		.loc 1 1063 0
ARM GAS  /var/folders/kh/x4vltyy52lbg7p4pcyglc5080000gp/T//cccbl2Nm.s 			page 51


 1724 014e FB68     		ldr	r3, [r7, #12]
 1725 0150 9B6B     		ldr	r3, [r3, #56]
 1726 0152 042B     		cmp	r3, #4
 1727 0154 01D1     		bne	.L88
1064:Drivers/STM32F1xx_HAL_Driver/Src/stm32f1xx_hal_i2c.c ****       {
1065:Drivers/STM32F1xx_HAL_Driver/Src/stm32f1xx_hal_i2c.c ****         return HAL_ERROR;
 1728              		.loc 1 1065 0
 1729 0156 0123     		movs	r3, #1
 1730 0158 26E0     		b	.L79
 1731              	.L88:
1066:Drivers/STM32F1xx_HAL_Driver/Src/stm32f1xx_hal_i2c.c ****       }
1067:Drivers/STM32F1xx_HAL_Driver/Src/stm32f1xx_hal_i2c.c ****       else
1068:Drivers/STM32F1xx_HAL_Driver/Src/stm32f1xx_hal_i2c.c ****       {
1069:Drivers/STM32F1xx_HAL_Driver/Src/stm32f1xx_hal_i2c.c ****         return HAL_TIMEOUT;
 1732              		.loc 1 1069 0
 1733 015a 0323     		movs	r3, #3
 1734 015c 24E0     		b	.L79
 1735              	.L87:
 1736              	.LBB63:
1070:Drivers/STM32F1xx_HAL_Driver/Src/stm32f1xx_hal_i2c.c ****       }
1071:Drivers/STM32F1xx_HAL_Driver/Src/stm32f1xx_hal_i2c.c ****     }
1072:Drivers/STM32F1xx_HAL_Driver/Src/stm32f1xx_hal_i2c.c **** 
1073:Drivers/STM32F1xx_HAL_Driver/Src/stm32f1xx_hal_i2c.c ****     /* Clear STOP flag */
1074:Drivers/STM32F1xx_HAL_Driver/Src/stm32f1xx_hal_i2c.c ****     __HAL_I2C_CLEAR_STOPFLAG(hi2c);
 1737              		.loc 1 1074 0
 1738 015e FB68     		ldr	r3, [r7, #12]
 1739 0160 1B68     		ldr	r3, [r3]
 1740 0162 5B69     		ldr	r3, [r3, #20]
 1741 0164 3B61     		str	r3, [r7, #16]
 1742 0166 FB68     		ldr	r3, [r7, #12]
 1743 0168 1A68     		ldr	r2, [r3]
 1744 016a FB68     		ldr	r3, [r7, #12]
 1745 016c 1B68     		ldr	r3, [r3]
 1746 016e 1B68     		ldr	r3, [r3]
 1747 0170 43F00103 		orr	r3, r3, #1
 1748 0174 1360     		str	r3, [r2]
 1749 0176 3B61     		str	r3, [r7, #16]
 1750 0178 3B69     		ldr	r3, [r7, #16]
 1751              	.LBE63:
1075:Drivers/STM32F1xx_HAL_Driver/Src/stm32f1xx_hal_i2c.c **** 
1076:Drivers/STM32F1xx_HAL_Driver/Src/stm32f1xx_hal_i2c.c ****     /* Disable Address Acknowledge */
1077:Drivers/STM32F1xx_HAL_Driver/Src/stm32f1xx_hal_i2c.c ****     CLEAR_BIT(hi2c->Instance->CR1, I2C_CR1_ACK);
 1752              		.loc 1 1077 0
 1753 017a FB68     		ldr	r3, [r7, #12]
 1754 017c 1B68     		ldr	r3, [r3]
 1755 017e FA68     		ldr	r2, [r7, #12]
 1756 0180 1268     		ldr	r2, [r2]
 1757 0182 1268     		ldr	r2, [r2]
 1758 0184 22F48062 		bic	r2, r2, #1024
 1759 0188 1A60     		str	r2, [r3]
1078:Drivers/STM32F1xx_HAL_Driver/Src/stm32f1xx_hal_i2c.c **** 
1079:Drivers/STM32F1xx_HAL_Driver/Src/stm32f1xx_hal_i2c.c ****     hi2c->State = HAL_I2C_STATE_READY;
 1760              		.loc 1 1079 0
 1761 018a FB68     		ldr	r3, [r7, #12]
 1762 018c 2022     		movs	r2, #32
 1763 018e 83F83520 		strb	r2, [r3, #53]
1080:Drivers/STM32F1xx_HAL_Driver/Src/stm32f1xx_hal_i2c.c ****     hi2c->Mode = HAL_I2C_MODE_NONE;
ARM GAS  /var/folders/kh/x4vltyy52lbg7p4pcyglc5080000gp/T//cccbl2Nm.s 			page 52


 1764              		.loc 1 1080 0
 1765 0192 FB68     		ldr	r3, [r7, #12]
 1766 0194 0022     		movs	r2, #0
 1767 0196 83F83620 		strb	r2, [r3, #54]
1081:Drivers/STM32F1xx_HAL_Driver/Src/stm32f1xx_hal_i2c.c **** 
1082:Drivers/STM32F1xx_HAL_Driver/Src/stm32f1xx_hal_i2c.c ****     /* Process Unlocked */
1083:Drivers/STM32F1xx_HAL_Driver/Src/stm32f1xx_hal_i2c.c ****     __HAL_UNLOCK(hi2c);
 1768              		.loc 1 1083 0
 1769 019a FB68     		ldr	r3, [r7, #12]
 1770 019c 0022     		movs	r2, #0
 1771 019e 83F83420 		strb	r2, [r3, #52]
1084:Drivers/STM32F1xx_HAL_Driver/Src/stm32f1xx_hal_i2c.c **** 
1085:Drivers/STM32F1xx_HAL_Driver/Src/stm32f1xx_hal_i2c.c ****     return HAL_OK;
 1772              		.loc 1 1085 0
 1773 01a2 0023     		movs	r3, #0
 1774 01a4 00E0     		b	.L79
 1775              	.L76:
1086:Drivers/STM32F1xx_HAL_Driver/Src/stm32f1xx_hal_i2c.c ****   }
1087:Drivers/STM32F1xx_HAL_Driver/Src/stm32f1xx_hal_i2c.c ****   else
1088:Drivers/STM32F1xx_HAL_Driver/Src/stm32f1xx_hal_i2c.c ****   {
1089:Drivers/STM32F1xx_HAL_Driver/Src/stm32f1xx_hal_i2c.c ****     return HAL_BUSY;
 1776              		.loc 1 1089 0
 1777 01a6 0223     		movs	r3, #2
 1778              	.L79:
1090:Drivers/STM32F1xx_HAL_Driver/Src/stm32f1xx_hal_i2c.c ****   }
1091:Drivers/STM32F1xx_HAL_Driver/Src/stm32f1xx_hal_i2c.c **** }
 1779              		.loc 1 1091 0
 1780 01a8 1846     		mov	r0, r3
 1781 01aa 1837     		adds	r7, r7, #24
 1782              	.LCFI40:
 1783              		.cfi_def_cfa_offset 8
 1784 01ac BD46     		mov	sp, r7
 1785              	.LCFI41:
 1786              		.cfi_def_cfa_register 13
 1787              		@ sp needed
 1788 01ae 80BD     		pop	{r7, pc}
 1789              	.L90:
 1790              		.align	2
 1791              	.L89:
 1792 01b0 02001000 		.word	1048578
 1793 01b4 02000100 		.word	65538
 1794              		.cfi_endproc
 1795              	.LFE71:
 1797              		.section	.text.HAL_I2C_Master_Transmit_IT,"ax",%progbits
 1798              		.align	2
 1799              		.global	HAL_I2C_Master_Transmit_IT
 1800              		.thumb
 1801              		.thumb_func
 1803              	HAL_I2C_Master_Transmit_IT:
 1804              	.LFB72:
1092:Drivers/STM32F1xx_HAL_Driver/Src/stm32f1xx_hal_i2c.c **** 
1093:Drivers/STM32F1xx_HAL_Driver/Src/stm32f1xx_hal_i2c.c **** /**
1094:Drivers/STM32F1xx_HAL_Driver/Src/stm32f1xx_hal_i2c.c ****   * @brief  Transmit in master mode an amount of data in non-blocking mode with Interrupt
1095:Drivers/STM32F1xx_HAL_Driver/Src/stm32f1xx_hal_i2c.c ****   * @param  hi2c Pointer to a I2C_HandleTypeDef structure that contains
1096:Drivers/STM32F1xx_HAL_Driver/Src/stm32f1xx_hal_i2c.c ****   *                the configuration information for the specified I2C.
1097:Drivers/STM32F1xx_HAL_Driver/Src/stm32f1xx_hal_i2c.c ****   * @param  DevAddress Target device address
1098:Drivers/STM32F1xx_HAL_Driver/Src/stm32f1xx_hal_i2c.c ****   * @param  pData Pointer to data buffer
ARM GAS  /var/folders/kh/x4vltyy52lbg7p4pcyglc5080000gp/T//cccbl2Nm.s 			page 53


1099:Drivers/STM32F1xx_HAL_Driver/Src/stm32f1xx_hal_i2c.c ****   * @param  Size Amount of data to be sent
1100:Drivers/STM32F1xx_HAL_Driver/Src/stm32f1xx_hal_i2c.c ****   * @retval HAL status
1101:Drivers/STM32F1xx_HAL_Driver/Src/stm32f1xx_hal_i2c.c ****   */
1102:Drivers/STM32F1xx_HAL_Driver/Src/stm32f1xx_hal_i2c.c **** HAL_StatusTypeDef HAL_I2C_Master_Transmit_IT(I2C_HandleTypeDef *hi2c, uint16_t DevAddress, uint8_t 
1103:Drivers/STM32F1xx_HAL_Driver/Src/stm32f1xx_hal_i2c.c **** {
 1805              		.loc 1 1103 0
 1806              		.cfi_startproc
 1807              		@ args = 0, pretend = 0, frame = 24
 1808              		@ frame_needed = 1, uses_anonymous_args = 0
 1809 0000 80B5     		push	{r7, lr}
 1810              	.LCFI42:
 1811              		.cfi_def_cfa_offset 8
 1812              		.cfi_offset 7, -8
 1813              		.cfi_offset 14, -4
 1814 0002 86B0     		sub	sp, sp, #24
 1815              	.LCFI43:
 1816              		.cfi_def_cfa_offset 32
 1817 0004 00AF     		add	r7, sp, #0
 1818              	.LCFI44:
 1819              		.cfi_def_cfa_register 7
 1820 0006 F860     		str	r0, [r7, #12]
 1821 0008 7A60     		str	r2, [r7, #4]
 1822 000a 1A46     		mov	r2, r3
 1823 000c 0B46     		mov	r3, r1	@ movhi
 1824 000e 7B81     		strh	r3, [r7, #10]	@ movhi
 1825 0010 1346     		mov	r3, r2	@ movhi
 1826 0012 3B81     		strh	r3, [r7, #8]	@ movhi
1104:Drivers/STM32F1xx_HAL_Driver/Src/stm32f1xx_hal_i2c.c ****   if(hi2c->State == HAL_I2C_STATE_READY)
 1827              		.loc 1 1104 0
 1828 0014 FB68     		ldr	r3, [r7, #12]
 1829 0016 93F83530 		ldrb	r3, [r3, #53]
 1830 001a DBB2     		uxtb	r3, r3
 1831 001c 202B     		cmp	r3, #32
 1832 001e 6AD1     		bne	.L92
1105:Drivers/STM32F1xx_HAL_Driver/Src/stm32f1xx_hal_i2c.c ****   {
1106:Drivers/STM32F1xx_HAL_Driver/Src/stm32f1xx_hal_i2c.c ****     if((pData == NULL) || (Size == 0))
 1833              		.loc 1 1106 0
 1834 0020 7B68     		ldr	r3, [r7, #4]
 1835 0022 002B     		cmp	r3, #0
 1836 0024 02D0     		beq	.L93
 1837              		.loc 1 1106 0 is_stmt 0 discriminator 1
 1838 0026 3B89     		ldrh	r3, [r7, #8]
 1839 0028 002B     		cmp	r3, #0
 1840 002a 01D1     		bne	.L94
 1841              	.L93:
1107:Drivers/STM32F1xx_HAL_Driver/Src/stm32f1xx_hal_i2c.c ****     {
1108:Drivers/STM32F1xx_HAL_Driver/Src/stm32f1xx_hal_i2c.c ****       return  HAL_ERROR;
 1842              		.loc 1 1108 0 is_stmt 1
 1843 002c 0123     		movs	r3, #1
 1844 002e 63E0     		b	.L95
 1845              	.L94:
1109:Drivers/STM32F1xx_HAL_Driver/Src/stm32f1xx_hal_i2c.c ****     }
1110:Drivers/STM32F1xx_HAL_Driver/Src/stm32f1xx_hal_i2c.c **** 
1111:Drivers/STM32F1xx_HAL_Driver/Src/stm32f1xx_hal_i2c.c ****     /* Wait until BUSY flag is reset */
1112:Drivers/STM32F1xx_HAL_Driver/Src/stm32f1xx_hal_i2c.c ****     if(I2C_WaitOnFlagUntilTimeout(hi2c, I2C_FLAG_BUSY, SET, I2C_TIMEOUT_BUSY_FLAG) != HAL_OK)
 1846              		.loc 1 1112 0
 1847 0030 42F21073 		movw	r3, #10000
ARM GAS  /var/folders/kh/x4vltyy52lbg7p4pcyglc5080000gp/T//cccbl2Nm.s 			page 54


 1848 0034 0122     		movs	r2, #1
 1849 0036 3249     		ldr	r1, .L100
 1850 0038 F868     		ldr	r0, [r7, #12]
 1851 003a FFF7FEFF 		bl	I2C_WaitOnFlagUntilTimeout
 1852 003e 0346     		mov	r3, r0
 1853 0040 002B     		cmp	r3, #0
 1854 0042 01D0     		beq	.L96
1113:Drivers/STM32F1xx_HAL_Driver/Src/stm32f1xx_hal_i2c.c ****     {
1114:Drivers/STM32F1xx_HAL_Driver/Src/stm32f1xx_hal_i2c.c ****       return HAL_BUSY;
 1855              		.loc 1 1114 0
 1856 0044 0223     		movs	r3, #2
 1857 0046 57E0     		b	.L95
 1858              	.L96:
1115:Drivers/STM32F1xx_HAL_Driver/Src/stm32f1xx_hal_i2c.c ****     }
1116:Drivers/STM32F1xx_HAL_Driver/Src/stm32f1xx_hal_i2c.c **** 
1117:Drivers/STM32F1xx_HAL_Driver/Src/stm32f1xx_hal_i2c.c ****     /* Process Locked */
1118:Drivers/STM32F1xx_HAL_Driver/Src/stm32f1xx_hal_i2c.c ****     __HAL_LOCK(hi2c);
 1859              		.loc 1 1118 0
 1860 0048 FB68     		ldr	r3, [r7, #12]
 1861 004a 93F83430 		ldrb	r3, [r3, #52]	@ zero_extendqisi2
 1862 004e 012B     		cmp	r3, #1
 1863 0050 01D1     		bne	.L97
 1864              		.loc 1 1118 0 is_stmt 0 discriminator 1
 1865 0052 0223     		movs	r3, #2
 1866 0054 50E0     		b	.L95
 1867              	.L97:
 1868              		.loc 1 1118 0 discriminator 2
 1869 0056 FB68     		ldr	r3, [r7, #12]
 1870 0058 0122     		movs	r2, #1
 1871 005a 83F83420 		strb	r2, [r3, #52]
1119:Drivers/STM32F1xx_HAL_Driver/Src/stm32f1xx_hal_i2c.c **** 
1120:Drivers/STM32F1xx_HAL_Driver/Src/stm32f1xx_hal_i2c.c ****     /* Disable Pos */
1121:Drivers/STM32F1xx_HAL_Driver/Src/stm32f1xx_hal_i2c.c ****     CLEAR_BIT(hi2c->Instance->CR1, I2C_CR1_POS);
 1872              		.loc 1 1121 0 is_stmt 1 discriminator 2
 1873 005e FB68     		ldr	r3, [r7, #12]
 1874 0060 1B68     		ldr	r3, [r3]
 1875 0062 FA68     		ldr	r2, [r7, #12]
 1876 0064 1268     		ldr	r2, [r2]
 1877 0066 1268     		ldr	r2, [r2]
 1878 0068 22F40062 		bic	r2, r2, #2048
 1879 006c 1A60     		str	r2, [r3]
1122:Drivers/STM32F1xx_HAL_Driver/Src/stm32f1xx_hal_i2c.c **** 
1123:Drivers/STM32F1xx_HAL_Driver/Src/stm32f1xx_hal_i2c.c ****     hi2c->State = HAL_I2C_STATE_BUSY_TX;
 1880              		.loc 1 1123 0 discriminator 2
 1881 006e FB68     		ldr	r3, [r7, #12]
 1882 0070 2122     		movs	r2, #33
 1883 0072 83F83520 		strb	r2, [r3, #53]
1124:Drivers/STM32F1xx_HAL_Driver/Src/stm32f1xx_hal_i2c.c ****     hi2c->Mode = HAL_I2C_MODE_MASTER;
 1884              		.loc 1 1124 0 discriminator 2
 1885 0076 FB68     		ldr	r3, [r7, #12]
 1886 0078 1022     		movs	r2, #16
 1887 007a 83F83620 		strb	r2, [r3, #54]
1125:Drivers/STM32F1xx_HAL_Driver/Src/stm32f1xx_hal_i2c.c ****     hi2c->ErrorCode = HAL_I2C_ERROR_NONE;
 1888              		.loc 1 1125 0 discriminator 2
 1889 007e FB68     		ldr	r3, [r7, #12]
 1890 0080 0022     		movs	r2, #0
 1891 0082 9A63     		str	r2, [r3, #56]
ARM GAS  /var/folders/kh/x4vltyy52lbg7p4pcyglc5080000gp/T//cccbl2Nm.s 			page 55


1126:Drivers/STM32F1xx_HAL_Driver/Src/stm32f1xx_hal_i2c.c **** 
1127:Drivers/STM32F1xx_HAL_Driver/Src/stm32f1xx_hal_i2c.c ****     hi2c->pBuffPtr = pData;
 1892              		.loc 1 1127 0 discriminator 2
 1893 0084 FB68     		ldr	r3, [r7, #12]
 1894 0086 7A68     		ldr	r2, [r7, #4]
 1895 0088 5A62     		str	r2, [r3, #36]
1128:Drivers/STM32F1xx_HAL_Driver/Src/stm32f1xx_hal_i2c.c ****     hi2c->XferSize = Size;
 1896              		.loc 1 1128 0 discriminator 2
 1897 008a FB68     		ldr	r3, [r7, #12]
 1898 008c 3A89     		ldrh	r2, [r7, #8]	@ movhi
 1899 008e 1A85     		strh	r2, [r3, #40]	@ movhi
1129:Drivers/STM32F1xx_HAL_Driver/Src/stm32f1xx_hal_i2c.c ****     hi2c->XferCount = Size;
 1900              		.loc 1 1129 0 discriminator 2
 1901 0090 FB68     		ldr	r3, [r7, #12]
 1902 0092 3A89     		ldrh	r2, [r7, #8]	@ movhi
 1903 0094 5A85     		strh	r2, [r3, #42]	@ movhi
1130:Drivers/STM32F1xx_HAL_Driver/Src/stm32f1xx_hal_i2c.c **** 
1131:Drivers/STM32F1xx_HAL_Driver/Src/stm32f1xx_hal_i2c.c ****     /* Send Slave Address */
1132:Drivers/STM32F1xx_HAL_Driver/Src/stm32f1xx_hal_i2c.c ****     if(I2C_MasterRequestWrite(hi2c, DevAddress, I2C_TIMEOUT_FLAG) != HAL_OK)
 1904              		.loc 1 1132 0 discriminator 2
 1905 0096 7B89     		ldrh	r3, [r7, #10]
 1906 0098 2322     		movs	r2, #35
 1907 009a 1946     		mov	r1, r3
 1908 009c F868     		ldr	r0, [r7, #12]
 1909 009e FFF7FEFF 		bl	I2C_MasterRequestWrite
 1910 00a2 0346     		mov	r3, r0
 1911 00a4 002B     		cmp	r3, #0
 1912 00a6 0FD0     		beq	.L98
1133:Drivers/STM32F1xx_HAL_Driver/Src/stm32f1xx_hal_i2c.c ****     {
1134:Drivers/STM32F1xx_HAL_Driver/Src/stm32f1xx_hal_i2c.c ****       if(hi2c->ErrorCode == HAL_I2C_ERROR_AF)
 1913              		.loc 1 1134 0
 1914 00a8 FB68     		ldr	r3, [r7, #12]
 1915 00aa 9B6B     		ldr	r3, [r3, #56]
 1916 00ac 042B     		cmp	r3, #4
 1917 00ae 05D1     		bne	.L99
1135:Drivers/STM32F1xx_HAL_Driver/Src/stm32f1xx_hal_i2c.c ****       {
1136:Drivers/STM32F1xx_HAL_Driver/Src/stm32f1xx_hal_i2c.c ****         /* Process Unlocked */
1137:Drivers/STM32F1xx_HAL_Driver/Src/stm32f1xx_hal_i2c.c ****         __HAL_UNLOCK(hi2c);
 1918              		.loc 1 1137 0
 1919 00b0 FB68     		ldr	r3, [r7, #12]
 1920 00b2 0022     		movs	r2, #0
 1921 00b4 83F83420 		strb	r2, [r3, #52]
1138:Drivers/STM32F1xx_HAL_Driver/Src/stm32f1xx_hal_i2c.c ****         return HAL_ERROR;
 1922              		.loc 1 1138 0
 1923 00b8 0123     		movs	r3, #1
 1924 00ba 1DE0     		b	.L95
 1925              	.L99:
1139:Drivers/STM32F1xx_HAL_Driver/Src/stm32f1xx_hal_i2c.c ****       }
1140:Drivers/STM32F1xx_HAL_Driver/Src/stm32f1xx_hal_i2c.c ****       else
1141:Drivers/STM32F1xx_HAL_Driver/Src/stm32f1xx_hal_i2c.c ****       {
1142:Drivers/STM32F1xx_HAL_Driver/Src/stm32f1xx_hal_i2c.c ****         /* Process Unlocked */
1143:Drivers/STM32F1xx_HAL_Driver/Src/stm32f1xx_hal_i2c.c ****         __HAL_UNLOCK(hi2c);
 1926              		.loc 1 1143 0
 1927 00bc FB68     		ldr	r3, [r7, #12]
 1928 00be 0022     		movs	r2, #0
 1929 00c0 83F83420 		strb	r2, [r3, #52]
1144:Drivers/STM32F1xx_HAL_Driver/Src/stm32f1xx_hal_i2c.c ****         return HAL_TIMEOUT;
ARM GAS  /var/folders/kh/x4vltyy52lbg7p4pcyglc5080000gp/T//cccbl2Nm.s 			page 56


 1930              		.loc 1 1144 0
 1931 00c4 0323     		movs	r3, #3
 1932 00c6 17E0     		b	.L95
 1933              	.L98:
 1934              	.LBB64:
1145:Drivers/STM32F1xx_HAL_Driver/Src/stm32f1xx_hal_i2c.c ****       }
1146:Drivers/STM32F1xx_HAL_Driver/Src/stm32f1xx_hal_i2c.c ****     }
1147:Drivers/STM32F1xx_HAL_Driver/Src/stm32f1xx_hal_i2c.c **** 
1148:Drivers/STM32F1xx_HAL_Driver/Src/stm32f1xx_hal_i2c.c ****     /* Clear ADDR flag */
1149:Drivers/STM32F1xx_HAL_Driver/Src/stm32f1xx_hal_i2c.c ****     __HAL_I2C_CLEAR_ADDRFLAG(hi2c);
 1935              		.loc 1 1149 0
 1936 00c8 FB68     		ldr	r3, [r7, #12]
 1937 00ca 1B68     		ldr	r3, [r3]
 1938 00cc 5B69     		ldr	r3, [r3, #20]
 1939 00ce 7B61     		str	r3, [r7, #20]
 1940 00d0 FB68     		ldr	r3, [r7, #12]
 1941 00d2 1B68     		ldr	r3, [r3]
 1942 00d4 9B69     		ldr	r3, [r3, #24]
 1943 00d6 7B61     		str	r3, [r7, #20]
 1944 00d8 7B69     		ldr	r3, [r7, #20]
 1945              	.LBE64:
1150:Drivers/STM32F1xx_HAL_Driver/Src/stm32f1xx_hal_i2c.c **** 
1151:Drivers/STM32F1xx_HAL_Driver/Src/stm32f1xx_hal_i2c.c ****     /* Process Unlocked */
1152:Drivers/STM32F1xx_HAL_Driver/Src/stm32f1xx_hal_i2c.c ****     __HAL_UNLOCK(hi2c);
 1946              		.loc 1 1152 0
 1947 00da FB68     		ldr	r3, [r7, #12]
 1948 00dc 0022     		movs	r2, #0
 1949 00de 83F83420 		strb	r2, [r3, #52]
1153:Drivers/STM32F1xx_HAL_Driver/Src/stm32f1xx_hal_i2c.c **** 
1154:Drivers/STM32F1xx_HAL_Driver/Src/stm32f1xx_hal_i2c.c ****     /* Note : The I2C interrupts must be enabled after unlocking current process
1155:Drivers/STM32F1xx_HAL_Driver/Src/stm32f1xx_hal_i2c.c ****               to avoid the risk of I2C interrupt handle execution before current
1156:Drivers/STM32F1xx_HAL_Driver/Src/stm32f1xx_hal_i2c.c ****               process unlock */
1157:Drivers/STM32F1xx_HAL_Driver/Src/stm32f1xx_hal_i2c.c **** 
1158:Drivers/STM32F1xx_HAL_Driver/Src/stm32f1xx_hal_i2c.c ****     /* Enable EVT, BUF and ERR interrupt */
1159:Drivers/STM32F1xx_HAL_Driver/Src/stm32f1xx_hal_i2c.c ****     __HAL_I2C_ENABLE_IT(hi2c, I2C_IT_EVT | I2C_IT_BUF | I2C_IT_ERR);
 1950              		.loc 1 1159 0
 1951 00e2 FB68     		ldr	r3, [r7, #12]
 1952 00e4 1B68     		ldr	r3, [r3]
 1953 00e6 FA68     		ldr	r2, [r7, #12]
 1954 00e8 1268     		ldr	r2, [r2]
 1955 00ea 5268     		ldr	r2, [r2, #4]
 1956 00ec 42F4E062 		orr	r2, r2, #1792
 1957 00f0 5A60     		str	r2, [r3, #4]
1160:Drivers/STM32F1xx_HAL_Driver/Src/stm32f1xx_hal_i2c.c **** 
1161:Drivers/STM32F1xx_HAL_Driver/Src/stm32f1xx_hal_i2c.c ****     return HAL_OK;
 1958              		.loc 1 1161 0
 1959 00f2 0023     		movs	r3, #0
 1960 00f4 00E0     		b	.L95
 1961              	.L92:
1162:Drivers/STM32F1xx_HAL_Driver/Src/stm32f1xx_hal_i2c.c ****   }
1163:Drivers/STM32F1xx_HAL_Driver/Src/stm32f1xx_hal_i2c.c ****   else
1164:Drivers/STM32F1xx_HAL_Driver/Src/stm32f1xx_hal_i2c.c ****   {
1165:Drivers/STM32F1xx_HAL_Driver/Src/stm32f1xx_hal_i2c.c ****     return HAL_BUSY;
 1962              		.loc 1 1165 0
 1963 00f6 0223     		movs	r3, #2
 1964              	.L95:
1166:Drivers/STM32F1xx_HAL_Driver/Src/stm32f1xx_hal_i2c.c ****   }
ARM GAS  /var/folders/kh/x4vltyy52lbg7p4pcyglc5080000gp/T//cccbl2Nm.s 			page 57


1167:Drivers/STM32F1xx_HAL_Driver/Src/stm32f1xx_hal_i2c.c **** }
 1965              		.loc 1 1167 0
 1966 00f8 1846     		mov	r0, r3
 1967 00fa 1837     		adds	r7, r7, #24
 1968              	.LCFI45:
 1969              		.cfi_def_cfa_offset 8
 1970 00fc BD46     		mov	sp, r7
 1971              	.LCFI46:
 1972              		.cfi_def_cfa_register 13
 1973              		@ sp needed
 1974 00fe 80BD     		pop	{r7, pc}
 1975              	.L101:
 1976              		.align	2
 1977              	.L100:
 1978 0100 02001000 		.word	1048578
 1979              		.cfi_endproc
 1980              	.LFE72:
 1982              		.section	.text.HAL_I2C_Master_Receive_IT,"ax",%progbits
 1983              		.align	2
 1984              		.global	HAL_I2C_Master_Receive_IT
 1985              		.thumb
 1986              		.thumb_func
 1988              	HAL_I2C_Master_Receive_IT:
 1989              	.LFB73:
1168:Drivers/STM32F1xx_HAL_Driver/Src/stm32f1xx_hal_i2c.c **** 
1169:Drivers/STM32F1xx_HAL_Driver/Src/stm32f1xx_hal_i2c.c **** /**
1170:Drivers/STM32F1xx_HAL_Driver/Src/stm32f1xx_hal_i2c.c ****   * @brief  Receive in master mode an amount of data in non-blocking mode with Interrupt
1171:Drivers/STM32F1xx_HAL_Driver/Src/stm32f1xx_hal_i2c.c ****   * @param  hi2c Pointer to a I2C_HandleTypeDef structure that contains
1172:Drivers/STM32F1xx_HAL_Driver/Src/stm32f1xx_hal_i2c.c ****   *                the configuration information for the specified I2C.
1173:Drivers/STM32F1xx_HAL_Driver/Src/stm32f1xx_hal_i2c.c ****   * @param  DevAddress Target device address
1174:Drivers/STM32F1xx_HAL_Driver/Src/stm32f1xx_hal_i2c.c ****   * @param  pData Pointer to data buffer
1175:Drivers/STM32F1xx_HAL_Driver/Src/stm32f1xx_hal_i2c.c ****   * @param  Size Amount of data to be sent
1176:Drivers/STM32F1xx_HAL_Driver/Src/stm32f1xx_hal_i2c.c ****   * @retval HAL status
1177:Drivers/STM32F1xx_HAL_Driver/Src/stm32f1xx_hal_i2c.c ****   */
1178:Drivers/STM32F1xx_HAL_Driver/Src/stm32f1xx_hal_i2c.c **** HAL_StatusTypeDef HAL_I2C_Master_Receive_IT(I2C_HandleTypeDef *hi2c, uint16_t DevAddress, uint8_t *
1179:Drivers/STM32F1xx_HAL_Driver/Src/stm32f1xx_hal_i2c.c **** {
 1990              		.loc 1 1179 0
 1991              		.cfi_startproc
 1992              		@ args = 0, pretend = 0, frame = 32
 1993              		@ frame_needed = 1, uses_anonymous_args = 0
 1994 0000 80B5     		push	{r7, lr}
 1995              	.LCFI47:
 1996              		.cfi_def_cfa_offset 8
 1997              		.cfi_offset 7, -8
 1998              		.cfi_offset 14, -4
 1999 0002 88B0     		sub	sp, sp, #32
 2000              	.LCFI48:
 2001              		.cfi_def_cfa_offset 40
 2002 0004 00AF     		add	r7, sp, #0
 2003              	.LCFI49:
 2004              		.cfi_def_cfa_register 7
 2005 0006 F860     		str	r0, [r7, #12]
 2006 0008 7A60     		str	r2, [r7, #4]
 2007 000a 1A46     		mov	r2, r3
 2008 000c 0B46     		mov	r3, r1	@ movhi
 2009 000e 7B81     		strh	r3, [r7, #10]	@ movhi
 2010 0010 1346     		mov	r3, r2	@ movhi
ARM GAS  /var/folders/kh/x4vltyy52lbg7p4pcyglc5080000gp/T//cccbl2Nm.s 			page 58


 2011 0012 3B81     		strh	r3, [r7, #8]	@ movhi
1180:Drivers/STM32F1xx_HAL_Driver/Src/stm32f1xx_hal_i2c.c ****   if(hi2c->State == HAL_I2C_STATE_READY)
 2012              		.loc 1 1180 0
 2013 0014 FB68     		ldr	r3, [r7, #12]
 2014 0016 93F83530 		ldrb	r3, [r3, #53]
 2015 001a DBB2     		uxtb	r3, r3
 2016 001c 202B     		cmp	r3, #32
 2017 001e 40F0B180 		bne	.L103
1181:Drivers/STM32F1xx_HAL_Driver/Src/stm32f1xx_hal_i2c.c ****   {
1182:Drivers/STM32F1xx_HAL_Driver/Src/stm32f1xx_hal_i2c.c ****     if((pData == NULL) || (Size == 0))
 2018              		.loc 1 1182 0
 2019 0022 7B68     		ldr	r3, [r7, #4]
 2020 0024 002B     		cmp	r3, #0
 2021 0026 02D0     		beq	.L104
 2022              		.loc 1 1182 0 is_stmt 0 discriminator 1
 2023 0028 3B89     		ldrh	r3, [r7, #8]
 2024 002a 002B     		cmp	r3, #0
 2025 002c 01D1     		bne	.L105
 2026              	.L104:
1183:Drivers/STM32F1xx_HAL_Driver/Src/stm32f1xx_hal_i2c.c ****     {
1184:Drivers/STM32F1xx_HAL_Driver/Src/stm32f1xx_hal_i2c.c ****       return  HAL_ERROR;
 2027              		.loc 1 1184 0 is_stmt 1
 2028 002e 0123     		movs	r3, #1
 2029 0030 A9E0     		b	.L106
 2030              	.L105:
1185:Drivers/STM32F1xx_HAL_Driver/Src/stm32f1xx_hal_i2c.c ****     }
1186:Drivers/STM32F1xx_HAL_Driver/Src/stm32f1xx_hal_i2c.c **** 
1187:Drivers/STM32F1xx_HAL_Driver/Src/stm32f1xx_hal_i2c.c ****     /* Wait until BUSY flag is reset */
1188:Drivers/STM32F1xx_HAL_Driver/Src/stm32f1xx_hal_i2c.c ****     if(I2C_WaitOnFlagUntilTimeout(hi2c, I2C_FLAG_BUSY, SET, I2C_TIMEOUT_BUSY_FLAG) != HAL_OK)
 2031              		.loc 1 1188 0
 2032 0032 42F21073 		movw	r3, #10000
 2033 0036 0122     		movs	r2, #1
 2034 0038 5549     		ldr	r1, .L114
 2035 003a F868     		ldr	r0, [r7, #12]
 2036 003c FFF7FEFF 		bl	I2C_WaitOnFlagUntilTimeout
 2037 0040 0346     		mov	r3, r0
 2038 0042 002B     		cmp	r3, #0
 2039 0044 01D0     		beq	.L107
1189:Drivers/STM32F1xx_HAL_Driver/Src/stm32f1xx_hal_i2c.c ****     {
1190:Drivers/STM32F1xx_HAL_Driver/Src/stm32f1xx_hal_i2c.c ****       return HAL_BUSY;
 2040              		.loc 1 1190 0
 2041 0046 0223     		movs	r3, #2
 2042 0048 9DE0     		b	.L106
 2043              	.L107:
1191:Drivers/STM32F1xx_HAL_Driver/Src/stm32f1xx_hal_i2c.c ****     }
1192:Drivers/STM32F1xx_HAL_Driver/Src/stm32f1xx_hal_i2c.c **** 
1193:Drivers/STM32F1xx_HAL_Driver/Src/stm32f1xx_hal_i2c.c ****     /* Process Locked */
1194:Drivers/STM32F1xx_HAL_Driver/Src/stm32f1xx_hal_i2c.c ****     __HAL_LOCK(hi2c);
 2044              		.loc 1 1194 0
 2045 004a FB68     		ldr	r3, [r7, #12]
 2046 004c 93F83430 		ldrb	r3, [r3, #52]	@ zero_extendqisi2
 2047 0050 012B     		cmp	r3, #1
 2048 0052 01D1     		bne	.L108
 2049              		.loc 1 1194 0 is_stmt 0 discriminator 1
 2050 0054 0223     		movs	r3, #2
 2051 0056 96E0     		b	.L106
 2052              	.L108:
ARM GAS  /var/folders/kh/x4vltyy52lbg7p4pcyglc5080000gp/T//cccbl2Nm.s 			page 59


 2053              		.loc 1 1194 0 discriminator 2
 2054 0058 FB68     		ldr	r3, [r7, #12]
 2055 005a 0122     		movs	r2, #1
 2056 005c 83F83420 		strb	r2, [r3, #52]
1195:Drivers/STM32F1xx_HAL_Driver/Src/stm32f1xx_hal_i2c.c **** 
1196:Drivers/STM32F1xx_HAL_Driver/Src/stm32f1xx_hal_i2c.c ****     /* Disable Pos */
1197:Drivers/STM32F1xx_HAL_Driver/Src/stm32f1xx_hal_i2c.c ****     CLEAR_BIT(hi2c->Instance->CR1, I2C_CR1_POS);
 2057              		.loc 1 1197 0 is_stmt 1 discriminator 2
 2058 0060 FB68     		ldr	r3, [r7, #12]
 2059 0062 1B68     		ldr	r3, [r3]
 2060 0064 FA68     		ldr	r2, [r7, #12]
 2061 0066 1268     		ldr	r2, [r2]
 2062 0068 1268     		ldr	r2, [r2]
 2063 006a 22F40062 		bic	r2, r2, #2048
 2064 006e 1A60     		str	r2, [r3]
1198:Drivers/STM32F1xx_HAL_Driver/Src/stm32f1xx_hal_i2c.c **** 
1199:Drivers/STM32F1xx_HAL_Driver/Src/stm32f1xx_hal_i2c.c ****     hi2c->State = HAL_I2C_STATE_BUSY_RX;
 2065              		.loc 1 1199 0 discriminator 2
 2066 0070 FB68     		ldr	r3, [r7, #12]
 2067 0072 2222     		movs	r2, #34
 2068 0074 83F83520 		strb	r2, [r3, #53]
1200:Drivers/STM32F1xx_HAL_Driver/Src/stm32f1xx_hal_i2c.c ****     hi2c->Mode = HAL_I2C_MODE_MASTER;
 2069              		.loc 1 1200 0 discriminator 2
 2070 0078 FB68     		ldr	r3, [r7, #12]
 2071 007a 1022     		movs	r2, #16
 2072 007c 83F83620 		strb	r2, [r3, #54]
1201:Drivers/STM32F1xx_HAL_Driver/Src/stm32f1xx_hal_i2c.c ****     hi2c->ErrorCode = HAL_I2C_ERROR_NONE;
 2073              		.loc 1 1201 0 discriminator 2
 2074 0080 FB68     		ldr	r3, [r7, #12]
 2075 0082 0022     		movs	r2, #0
 2076 0084 9A63     		str	r2, [r3, #56]
1202:Drivers/STM32F1xx_HAL_Driver/Src/stm32f1xx_hal_i2c.c **** 
1203:Drivers/STM32F1xx_HAL_Driver/Src/stm32f1xx_hal_i2c.c ****     hi2c->pBuffPtr = pData;
 2077              		.loc 1 1203 0 discriminator 2
 2078 0086 FB68     		ldr	r3, [r7, #12]
 2079 0088 7A68     		ldr	r2, [r7, #4]
 2080 008a 5A62     		str	r2, [r3, #36]
1204:Drivers/STM32F1xx_HAL_Driver/Src/stm32f1xx_hal_i2c.c ****     hi2c->XferSize = Size;
 2081              		.loc 1 1204 0 discriminator 2
 2082 008c FB68     		ldr	r3, [r7, #12]
 2083 008e 3A89     		ldrh	r2, [r7, #8]	@ movhi
 2084 0090 1A85     		strh	r2, [r3, #40]	@ movhi
1205:Drivers/STM32F1xx_HAL_Driver/Src/stm32f1xx_hal_i2c.c ****     hi2c->XferCount = Size;
 2085              		.loc 1 1205 0 discriminator 2
 2086 0092 FB68     		ldr	r3, [r7, #12]
 2087 0094 3A89     		ldrh	r2, [r7, #8]	@ movhi
 2088 0096 5A85     		strh	r2, [r3, #42]	@ movhi
1206:Drivers/STM32F1xx_HAL_Driver/Src/stm32f1xx_hal_i2c.c **** 
1207:Drivers/STM32F1xx_HAL_Driver/Src/stm32f1xx_hal_i2c.c ****     /* Send Slave Address */
1208:Drivers/STM32F1xx_HAL_Driver/Src/stm32f1xx_hal_i2c.c ****     if(I2C_MasterRequestRead(hi2c, DevAddress, I2C_TIMEOUT_FLAG) != HAL_OK)
 2089              		.loc 1 1208 0 discriminator 2
 2090 0098 7B89     		ldrh	r3, [r7, #10]
 2091 009a 2322     		movs	r2, #35
 2092 009c 1946     		mov	r1, r3
 2093 009e F868     		ldr	r0, [r7, #12]
 2094 00a0 FFF7FEFF 		bl	I2C_MasterRequestRead
 2095 00a4 0346     		mov	r3, r0
ARM GAS  /var/folders/kh/x4vltyy52lbg7p4pcyglc5080000gp/T//cccbl2Nm.s 			page 60


 2096 00a6 002B     		cmp	r3, #0
 2097 00a8 0FD0     		beq	.L109
1209:Drivers/STM32F1xx_HAL_Driver/Src/stm32f1xx_hal_i2c.c ****     {
1210:Drivers/STM32F1xx_HAL_Driver/Src/stm32f1xx_hal_i2c.c ****       if(hi2c->ErrorCode == HAL_I2C_ERROR_AF)
 2098              		.loc 1 1210 0
 2099 00aa FB68     		ldr	r3, [r7, #12]
 2100 00ac 9B6B     		ldr	r3, [r3, #56]
 2101 00ae 042B     		cmp	r3, #4
 2102 00b0 05D1     		bne	.L110
1211:Drivers/STM32F1xx_HAL_Driver/Src/stm32f1xx_hal_i2c.c ****       {
1212:Drivers/STM32F1xx_HAL_Driver/Src/stm32f1xx_hal_i2c.c ****         /* Process Unlocked */
1213:Drivers/STM32F1xx_HAL_Driver/Src/stm32f1xx_hal_i2c.c ****         __HAL_UNLOCK(hi2c);
 2103              		.loc 1 1213 0
 2104 00b2 FB68     		ldr	r3, [r7, #12]
 2105 00b4 0022     		movs	r2, #0
 2106 00b6 83F83420 		strb	r2, [r3, #52]
1214:Drivers/STM32F1xx_HAL_Driver/Src/stm32f1xx_hal_i2c.c ****         return HAL_ERROR;
 2107              		.loc 1 1214 0
 2108 00ba 0123     		movs	r3, #1
 2109 00bc 63E0     		b	.L106
 2110              	.L110:
1215:Drivers/STM32F1xx_HAL_Driver/Src/stm32f1xx_hal_i2c.c ****       }
1216:Drivers/STM32F1xx_HAL_Driver/Src/stm32f1xx_hal_i2c.c ****       else
1217:Drivers/STM32F1xx_HAL_Driver/Src/stm32f1xx_hal_i2c.c ****       {
1218:Drivers/STM32F1xx_HAL_Driver/Src/stm32f1xx_hal_i2c.c ****         /* Process Unlocked */
1219:Drivers/STM32F1xx_HAL_Driver/Src/stm32f1xx_hal_i2c.c ****         __HAL_UNLOCK(hi2c);
 2111              		.loc 1 1219 0
 2112 00be FB68     		ldr	r3, [r7, #12]
 2113 00c0 0022     		movs	r2, #0
 2114 00c2 83F83420 		strb	r2, [r3, #52]
1220:Drivers/STM32F1xx_HAL_Driver/Src/stm32f1xx_hal_i2c.c ****         return HAL_TIMEOUT;
 2115              		.loc 1 1220 0
 2116 00c6 0323     		movs	r3, #3
 2117 00c8 5DE0     		b	.L106
 2118              	.L109:
1221:Drivers/STM32F1xx_HAL_Driver/Src/stm32f1xx_hal_i2c.c ****       }
1222:Drivers/STM32F1xx_HAL_Driver/Src/stm32f1xx_hal_i2c.c ****     }
1223:Drivers/STM32F1xx_HAL_Driver/Src/stm32f1xx_hal_i2c.c **** 
1224:Drivers/STM32F1xx_HAL_Driver/Src/stm32f1xx_hal_i2c.c ****     if(hi2c->XferCount == 1)
 2119              		.loc 1 1224 0
 2120 00ca FB68     		ldr	r3, [r7, #12]
 2121 00cc 5B8D     		ldrh	r3, [r3, #42]	@ movhi
 2122 00ce 9BB2     		uxth	r3, r3
 2123 00d0 012B     		cmp	r3, #1
 2124 00d2 19D1     		bne	.L111
1225:Drivers/STM32F1xx_HAL_Driver/Src/stm32f1xx_hal_i2c.c ****     {
1226:Drivers/STM32F1xx_HAL_Driver/Src/stm32f1xx_hal_i2c.c ****       /* Disable Acknowledge */
1227:Drivers/STM32F1xx_HAL_Driver/Src/stm32f1xx_hal_i2c.c ****       CLEAR_BIT(hi2c->Instance->CR1, I2C_CR1_ACK);
 2125              		.loc 1 1227 0
 2126 00d4 FB68     		ldr	r3, [r7, #12]
 2127 00d6 1B68     		ldr	r3, [r3]
 2128 00d8 FA68     		ldr	r2, [r7, #12]
 2129 00da 1268     		ldr	r2, [r2]
 2130 00dc 1268     		ldr	r2, [r2]
 2131 00de 22F48062 		bic	r2, r2, #1024
 2132 00e2 1A60     		str	r2, [r3]
 2133              	.LBB65:
ARM GAS  /var/folders/kh/x4vltyy52lbg7p4pcyglc5080000gp/T//cccbl2Nm.s 			page 61


1228:Drivers/STM32F1xx_HAL_Driver/Src/stm32f1xx_hal_i2c.c **** 
1229:Drivers/STM32F1xx_HAL_Driver/Src/stm32f1xx_hal_i2c.c ****       /* Clear ADDR flag */
1230:Drivers/STM32F1xx_HAL_Driver/Src/stm32f1xx_hal_i2c.c ****       __HAL_I2C_CLEAR_ADDRFLAG(hi2c);
 2134              		.loc 1 1230 0
 2135 00e4 FB68     		ldr	r3, [r7, #12]
 2136 00e6 1B68     		ldr	r3, [r3]
 2137 00e8 5B69     		ldr	r3, [r3, #20]
 2138 00ea FB61     		str	r3, [r7, #28]
 2139 00ec FB68     		ldr	r3, [r7, #12]
 2140 00ee 1B68     		ldr	r3, [r3]
 2141 00f0 9B69     		ldr	r3, [r3, #24]
 2142 00f2 FB61     		str	r3, [r7, #28]
 2143 00f4 FB69     		ldr	r3, [r7, #28]
 2144              	.LBE65:
1231:Drivers/STM32F1xx_HAL_Driver/Src/stm32f1xx_hal_i2c.c **** 
1232:Drivers/STM32F1xx_HAL_Driver/Src/stm32f1xx_hal_i2c.c ****       /* Generate Stop */
1233:Drivers/STM32F1xx_HAL_Driver/Src/stm32f1xx_hal_i2c.c ****       SET_BIT(hi2c->Instance->CR1, I2C_CR1_STOP);
 2145              		.loc 1 1233 0
 2146 00f6 FB68     		ldr	r3, [r7, #12]
 2147 00f8 1B68     		ldr	r3, [r3]
 2148 00fa FA68     		ldr	r2, [r7, #12]
 2149 00fc 1268     		ldr	r2, [r2]
 2150 00fe 1268     		ldr	r2, [r2]
 2151 0100 42F40072 		orr	r2, r2, #512
 2152 0104 1A60     		str	r2, [r3]
 2153 0106 2FE0     		b	.L112
 2154              	.L111:
1234:Drivers/STM32F1xx_HAL_Driver/Src/stm32f1xx_hal_i2c.c ****     }
1235:Drivers/STM32F1xx_HAL_Driver/Src/stm32f1xx_hal_i2c.c ****     else if(hi2c->XferCount == 2)
 2155              		.loc 1 1235 0
 2156 0108 FB68     		ldr	r3, [r7, #12]
 2157 010a 5B8D     		ldrh	r3, [r3, #42]	@ movhi
 2158 010c 9BB2     		uxth	r3, r3
 2159 010e 022B     		cmp	r3, #2
 2160 0110 19D1     		bne	.L113
1236:Drivers/STM32F1xx_HAL_Driver/Src/stm32f1xx_hal_i2c.c ****     {
1237:Drivers/STM32F1xx_HAL_Driver/Src/stm32f1xx_hal_i2c.c ****       /* Enable Pos */
1238:Drivers/STM32F1xx_HAL_Driver/Src/stm32f1xx_hal_i2c.c ****       SET_BIT(hi2c->Instance->CR1, I2C_CR1_POS);
 2161              		.loc 1 1238 0
 2162 0112 FB68     		ldr	r3, [r7, #12]
 2163 0114 1B68     		ldr	r3, [r3]
 2164 0116 FA68     		ldr	r2, [r7, #12]
 2165 0118 1268     		ldr	r2, [r2]
 2166 011a 1268     		ldr	r2, [r2]
 2167 011c 42F40062 		orr	r2, r2, #2048
 2168 0120 1A60     		str	r2, [r3]
 2169              	.LBB66:
1239:Drivers/STM32F1xx_HAL_Driver/Src/stm32f1xx_hal_i2c.c **** 
1240:Drivers/STM32F1xx_HAL_Driver/Src/stm32f1xx_hal_i2c.c ****       /* Clear ADDR flag */
1241:Drivers/STM32F1xx_HAL_Driver/Src/stm32f1xx_hal_i2c.c ****       __HAL_I2C_CLEAR_ADDRFLAG(hi2c);
 2170              		.loc 1 1241 0
 2171 0122 FB68     		ldr	r3, [r7, #12]
 2172 0124 1B68     		ldr	r3, [r3]
 2173 0126 5B69     		ldr	r3, [r3, #20]
 2174 0128 BB61     		str	r3, [r7, #24]
 2175 012a FB68     		ldr	r3, [r7, #12]
 2176 012c 1B68     		ldr	r3, [r3]
ARM GAS  /var/folders/kh/x4vltyy52lbg7p4pcyglc5080000gp/T//cccbl2Nm.s 			page 62


 2177 012e 9B69     		ldr	r3, [r3, #24]
 2178 0130 BB61     		str	r3, [r7, #24]
 2179 0132 BB69     		ldr	r3, [r7, #24]
 2180              	.LBE66:
1242:Drivers/STM32F1xx_HAL_Driver/Src/stm32f1xx_hal_i2c.c **** 
1243:Drivers/STM32F1xx_HAL_Driver/Src/stm32f1xx_hal_i2c.c ****       /* Disable Acknowledge */
1244:Drivers/STM32F1xx_HAL_Driver/Src/stm32f1xx_hal_i2c.c ****       CLEAR_BIT(hi2c->Instance->CR1, I2C_CR1_ACK);
 2181              		.loc 1 1244 0
 2182 0134 FB68     		ldr	r3, [r7, #12]
 2183 0136 1B68     		ldr	r3, [r3]
 2184 0138 FA68     		ldr	r2, [r7, #12]
 2185 013a 1268     		ldr	r2, [r2]
 2186 013c 1268     		ldr	r2, [r2]
 2187 013e 22F48062 		bic	r2, r2, #1024
 2188 0142 1A60     		str	r2, [r3]
 2189 0144 10E0     		b	.L112
 2190              	.L113:
1245:Drivers/STM32F1xx_HAL_Driver/Src/stm32f1xx_hal_i2c.c ****     }
1246:Drivers/STM32F1xx_HAL_Driver/Src/stm32f1xx_hal_i2c.c ****     else
1247:Drivers/STM32F1xx_HAL_Driver/Src/stm32f1xx_hal_i2c.c ****     {
1248:Drivers/STM32F1xx_HAL_Driver/Src/stm32f1xx_hal_i2c.c ****       /* Enable Acknowledge */
1249:Drivers/STM32F1xx_HAL_Driver/Src/stm32f1xx_hal_i2c.c ****       SET_BIT(hi2c->Instance->CR1, I2C_CR1_ACK);
 2191              		.loc 1 1249 0
 2192 0146 FB68     		ldr	r3, [r7, #12]
 2193 0148 1B68     		ldr	r3, [r3]
 2194 014a FA68     		ldr	r2, [r7, #12]
 2195 014c 1268     		ldr	r2, [r2]
 2196 014e 1268     		ldr	r2, [r2]
 2197 0150 42F48062 		orr	r2, r2, #1024
 2198 0154 1A60     		str	r2, [r3]
 2199              	.LBB67:
1250:Drivers/STM32F1xx_HAL_Driver/Src/stm32f1xx_hal_i2c.c **** 
1251:Drivers/STM32F1xx_HAL_Driver/Src/stm32f1xx_hal_i2c.c ****       /* Clear ADDR flag */
1252:Drivers/STM32F1xx_HAL_Driver/Src/stm32f1xx_hal_i2c.c ****       __HAL_I2C_CLEAR_ADDRFLAG(hi2c);
 2200              		.loc 1 1252 0
 2201 0156 FB68     		ldr	r3, [r7, #12]
 2202 0158 1B68     		ldr	r3, [r3]
 2203 015a 5B69     		ldr	r3, [r3, #20]
 2204 015c 7B61     		str	r3, [r7, #20]
 2205 015e FB68     		ldr	r3, [r7, #12]
 2206 0160 1B68     		ldr	r3, [r3]
 2207 0162 9B69     		ldr	r3, [r3, #24]
 2208 0164 7B61     		str	r3, [r7, #20]
 2209 0166 7B69     		ldr	r3, [r7, #20]
 2210              	.L112:
 2211              	.LBE67:
1253:Drivers/STM32F1xx_HAL_Driver/Src/stm32f1xx_hal_i2c.c ****     }
1254:Drivers/STM32F1xx_HAL_Driver/Src/stm32f1xx_hal_i2c.c **** 
1255:Drivers/STM32F1xx_HAL_Driver/Src/stm32f1xx_hal_i2c.c ****     /* Process Unlocked */
1256:Drivers/STM32F1xx_HAL_Driver/Src/stm32f1xx_hal_i2c.c ****     __HAL_UNLOCK(hi2c);
 2212              		.loc 1 1256 0
 2213 0168 FB68     		ldr	r3, [r7, #12]
 2214 016a 0022     		movs	r2, #0
 2215 016c 83F83420 		strb	r2, [r3, #52]
1257:Drivers/STM32F1xx_HAL_Driver/Src/stm32f1xx_hal_i2c.c **** 
1258:Drivers/STM32F1xx_HAL_Driver/Src/stm32f1xx_hal_i2c.c ****     /* Note : The I2C interrupts must be enabled after unlocking current process
1259:Drivers/STM32F1xx_HAL_Driver/Src/stm32f1xx_hal_i2c.c ****               to avoid the risk of I2C interrupt handle execution before current
ARM GAS  /var/folders/kh/x4vltyy52lbg7p4pcyglc5080000gp/T//cccbl2Nm.s 			page 63


1260:Drivers/STM32F1xx_HAL_Driver/Src/stm32f1xx_hal_i2c.c ****               process unlock */
1261:Drivers/STM32F1xx_HAL_Driver/Src/stm32f1xx_hal_i2c.c **** 
1262:Drivers/STM32F1xx_HAL_Driver/Src/stm32f1xx_hal_i2c.c ****     /* Enable EVT, BUF and ERR interrupt */
1263:Drivers/STM32F1xx_HAL_Driver/Src/stm32f1xx_hal_i2c.c ****     __HAL_I2C_ENABLE_IT(hi2c, I2C_IT_EVT | I2C_IT_BUF | I2C_IT_ERR);
 2216              		.loc 1 1263 0
 2217 0170 FB68     		ldr	r3, [r7, #12]
 2218 0172 1B68     		ldr	r3, [r3]
 2219 0174 FA68     		ldr	r2, [r7, #12]
 2220 0176 1268     		ldr	r2, [r2]
 2221 0178 5268     		ldr	r2, [r2, #4]
 2222 017a 42F4E062 		orr	r2, r2, #1792
 2223 017e 5A60     		str	r2, [r3, #4]
1264:Drivers/STM32F1xx_HAL_Driver/Src/stm32f1xx_hal_i2c.c **** 
1265:Drivers/STM32F1xx_HAL_Driver/Src/stm32f1xx_hal_i2c.c ****     return HAL_OK;
 2224              		.loc 1 1265 0
 2225 0180 0023     		movs	r3, #0
 2226 0182 00E0     		b	.L106
 2227              	.L103:
1266:Drivers/STM32F1xx_HAL_Driver/Src/stm32f1xx_hal_i2c.c ****   }
1267:Drivers/STM32F1xx_HAL_Driver/Src/stm32f1xx_hal_i2c.c ****   else
1268:Drivers/STM32F1xx_HAL_Driver/Src/stm32f1xx_hal_i2c.c ****   {
1269:Drivers/STM32F1xx_HAL_Driver/Src/stm32f1xx_hal_i2c.c ****     return HAL_BUSY;
 2228              		.loc 1 1269 0
 2229 0184 0223     		movs	r3, #2
 2230              	.L106:
1270:Drivers/STM32F1xx_HAL_Driver/Src/stm32f1xx_hal_i2c.c ****   }
1271:Drivers/STM32F1xx_HAL_Driver/Src/stm32f1xx_hal_i2c.c **** }
 2231              		.loc 1 1271 0
 2232 0186 1846     		mov	r0, r3
 2233 0188 2037     		adds	r7, r7, #32
 2234              	.LCFI50:
 2235              		.cfi_def_cfa_offset 8
 2236 018a BD46     		mov	sp, r7
 2237              	.LCFI51:
 2238              		.cfi_def_cfa_register 13
 2239              		@ sp needed
 2240 018c 80BD     		pop	{r7, pc}
 2241              	.L115:
 2242 018e 00BF     		.align	2
 2243              	.L114:
 2244 0190 02001000 		.word	1048578
 2245              		.cfi_endproc
 2246              	.LFE73:
 2248              		.section	.text.HAL_I2C_Slave_Transmit_IT,"ax",%progbits
 2249              		.align	2
 2250              		.global	HAL_I2C_Slave_Transmit_IT
 2251              		.thumb
 2252              		.thumb_func
 2254              	HAL_I2C_Slave_Transmit_IT:
 2255              	.LFB74:
1272:Drivers/STM32F1xx_HAL_Driver/Src/stm32f1xx_hal_i2c.c **** 
1273:Drivers/STM32F1xx_HAL_Driver/Src/stm32f1xx_hal_i2c.c **** /**
1274:Drivers/STM32F1xx_HAL_Driver/Src/stm32f1xx_hal_i2c.c ****   * @brief  Transmit in slave mode an amount of data in non-blocking mode with Interrupt 
1275:Drivers/STM32F1xx_HAL_Driver/Src/stm32f1xx_hal_i2c.c ****   * @param  hi2c Pointer to a I2C_HandleTypeDef structure that contains
1276:Drivers/STM32F1xx_HAL_Driver/Src/stm32f1xx_hal_i2c.c ****   *                the configuration information for the specified I2C.
1277:Drivers/STM32F1xx_HAL_Driver/Src/stm32f1xx_hal_i2c.c ****   * @param  pData Pointer to data buffer
1278:Drivers/STM32F1xx_HAL_Driver/Src/stm32f1xx_hal_i2c.c ****   * @param  Size Amount of data to be sent
ARM GAS  /var/folders/kh/x4vltyy52lbg7p4pcyglc5080000gp/T//cccbl2Nm.s 			page 64


1279:Drivers/STM32F1xx_HAL_Driver/Src/stm32f1xx_hal_i2c.c ****   * @retval HAL status
1280:Drivers/STM32F1xx_HAL_Driver/Src/stm32f1xx_hal_i2c.c ****   */
1281:Drivers/STM32F1xx_HAL_Driver/Src/stm32f1xx_hal_i2c.c **** HAL_StatusTypeDef HAL_I2C_Slave_Transmit_IT(I2C_HandleTypeDef *hi2c, uint8_t *pData, uint16_t Size)
1282:Drivers/STM32F1xx_HAL_Driver/Src/stm32f1xx_hal_i2c.c **** {
 2256              		.loc 1 1282 0
 2257              		.cfi_startproc
 2258              		@ args = 0, pretend = 0, frame = 16
 2259              		@ frame_needed = 1, uses_anonymous_args = 0
 2260 0000 80B5     		push	{r7, lr}
 2261              	.LCFI52:
 2262              		.cfi_def_cfa_offset 8
 2263              		.cfi_offset 7, -8
 2264              		.cfi_offset 14, -4
 2265 0002 84B0     		sub	sp, sp, #16
 2266              	.LCFI53:
 2267              		.cfi_def_cfa_offset 24
 2268 0004 00AF     		add	r7, sp, #0
 2269              	.LCFI54:
 2270              		.cfi_def_cfa_register 7
 2271 0006 F860     		str	r0, [r7, #12]
 2272 0008 B960     		str	r1, [r7, #8]
 2273 000a 1346     		mov	r3, r2
 2274 000c FB80     		strh	r3, [r7, #6]	@ movhi
1283:Drivers/STM32F1xx_HAL_Driver/Src/stm32f1xx_hal_i2c.c ****   if(hi2c->State == HAL_I2C_STATE_READY)
 2275              		.loc 1 1283 0
 2276 000e FB68     		ldr	r3, [r7, #12]
 2277 0010 93F83530 		ldrb	r3, [r3, #53]
 2278 0014 DBB2     		uxtb	r3, r3
 2279 0016 202B     		cmp	r3, #32
 2280 0018 50D1     		bne	.L117
1284:Drivers/STM32F1xx_HAL_Driver/Src/stm32f1xx_hal_i2c.c ****   {
1285:Drivers/STM32F1xx_HAL_Driver/Src/stm32f1xx_hal_i2c.c ****     if((pData == NULL) || (Size == 0))
 2281              		.loc 1 1285 0
 2282 001a BB68     		ldr	r3, [r7, #8]
 2283 001c 002B     		cmp	r3, #0
 2284 001e 02D0     		beq	.L118
 2285              		.loc 1 1285 0 is_stmt 0 discriminator 1
 2286 0020 FB88     		ldrh	r3, [r7, #6]
 2287 0022 002B     		cmp	r3, #0
 2288 0024 01D1     		bne	.L119
 2289              	.L118:
1286:Drivers/STM32F1xx_HAL_Driver/Src/stm32f1xx_hal_i2c.c ****     {
1287:Drivers/STM32F1xx_HAL_Driver/Src/stm32f1xx_hal_i2c.c ****       return  HAL_ERROR;
 2290              		.loc 1 1287 0 is_stmt 1
 2291 0026 0123     		movs	r3, #1
 2292 0028 49E0     		b	.L120
 2293              	.L119:
1288:Drivers/STM32F1xx_HAL_Driver/Src/stm32f1xx_hal_i2c.c ****     }
1289:Drivers/STM32F1xx_HAL_Driver/Src/stm32f1xx_hal_i2c.c **** 
1290:Drivers/STM32F1xx_HAL_Driver/Src/stm32f1xx_hal_i2c.c ****     /* Wait until BUSY flag is reset */
1291:Drivers/STM32F1xx_HAL_Driver/Src/stm32f1xx_hal_i2c.c ****     if(I2C_WaitOnFlagUntilTimeout(hi2c, I2C_FLAG_BUSY, SET, I2C_TIMEOUT_BUSY_FLAG) != HAL_OK)
 2294              		.loc 1 1291 0
 2295 002a 42F21073 		movw	r3, #10000
 2296 002e 0122     		movs	r2, #1
 2297 0030 2549     		ldr	r1, .L123
 2298 0032 F868     		ldr	r0, [r7, #12]
 2299 0034 FFF7FEFF 		bl	I2C_WaitOnFlagUntilTimeout
ARM GAS  /var/folders/kh/x4vltyy52lbg7p4pcyglc5080000gp/T//cccbl2Nm.s 			page 65


 2300 0038 0346     		mov	r3, r0
 2301 003a 002B     		cmp	r3, #0
 2302 003c 01D0     		beq	.L121
1292:Drivers/STM32F1xx_HAL_Driver/Src/stm32f1xx_hal_i2c.c ****     {
1293:Drivers/STM32F1xx_HAL_Driver/Src/stm32f1xx_hal_i2c.c ****       return HAL_BUSY;
 2303              		.loc 1 1293 0
 2304 003e 0223     		movs	r3, #2
 2305 0040 3DE0     		b	.L120
 2306              	.L121:
1294:Drivers/STM32F1xx_HAL_Driver/Src/stm32f1xx_hal_i2c.c ****     }
1295:Drivers/STM32F1xx_HAL_Driver/Src/stm32f1xx_hal_i2c.c **** 
1296:Drivers/STM32F1xx_HAL_Driver/Src/stm32f1xx_hal_i2c.c ****     /* Process Locked */
1297:Drivers/STM32F1xx_HAL_Driver/Src/stm32f1xx_hal_i2c.c ****     __HAL_LOCK(hi2c);
 2307              		.loc 1 1297 0
 2308 0042 FB68     		ldr	r3, [r7, #12]
 2309 0044 93F83430 		ldrb	r3, [r3, #52]	@ zero_extendqisi2
 2310 0048 012B     		cmp	r3, #1
 2311 004a 01D1     		bne	.L122
 2312              		.loc 1 1297 0 is_stmt 0 discriminator 1
 2313 004c 0223     		movs	r3, #2
 2314 004e 36E0     		b	.L120
 2315              	.L122:
 2316              		.loc 1 1297 0 discriminator 2
 2317 0050 FB68     		ldr	r3, [r7, #12]
 2318 0052 0122     		movs	r2, #1
 2319 0054 83F83420 		strb	r2, [r3, #52]
1298:Drivers/STM32F1xx_HAL_Driver/Src/stm32f1xx_hal_i2c.c **** 
1299:Drivers/STM32F1xx_HAL_Driver/Src/stm32f1xx_hal_i2c.c ****     /* Disable Pos */
1300:Drivers/STM32F1xx_HAL_Driver/Src/stm32f1xx_hal_i2c.c ****     CLEAR_BIT(hi2c->Instance->CR1, I2C_CR1_POS);
 2320              		.loc 1 1300 0 is_stmt 1 discriminator 2
 2321 0058 FB68     		ldr	r3, [r7, #12]
 2322 005a 1B68     		ldr	r3, [r3]
 2323 005c FA68     		ldr	r2, [r7, #12]
 2324 005e 1268     		ldr	r2, [r2]
 2325 0060 1268     		ldr	r2, [r2]
 2326 0062 22F40062 		bic	r2, r2, #2048
 2327 0066 1A60     		str	r2, [r3]
1301:Drivers/STM32F1xx_HAL_Driver/Src/stm32f1xx_hal_i2c.c **** 
1302:Drivers/STM32F1xx_HAL_Driver/Src/stm32f1xx_hal_i2c.c ****     hi2c->State = HAL_I2C_STATE_BUSY_TX;
 2328              		.loc 1 1302 0 discriminator 2
 2329 0068 FB68     		ldr	r3, [r7, #12]
 2330 006a 2122     		movs	r2, #33
 2331 006c 83F83520 		strb	r2, [r3, #53]
1303:Drivers/STM32F1xx_HAL_Driver/Src/stm32f1xx_hal_i2c.c ****     hi2c->Mode = HAL_I2C_MODE_SLAVE;
 2332              		.loc 1 1303 0 discriminator 2
 2333 0070 FB68     		ldr	r3, [r7, #12]
 2334 0072 2022     		movs	r2, #32
 2335 0074 83F83620 		strb	r2, [r3, #54]
1304:Drivers/STM32F1xx_HAL_Driver/Src/stm32f1xx_hal_i2c.c ****     hi2c->ErrorCode = HAL_I2C_ERROR_NONE;
 2336              		.loc 1 1304 0 discriminator 2
 2337 0078 FB68     		ldr	r3, [r7, #12]
 2338 007a 0022     		movs	r2, #0
 2339 007c 9A63     		str	r2, [r3, #56]
1305:Drivers/STM32F1xx_HAL_Driver/Src/stm32f1xx_hal_i2c.c **** 
1306:Drivers/STM32F1xx_HAL_Driver/Src/stm32f1xx_hal_i2c.c ****     hi2c->pBuffPtr = pData;
 2340              		.loc 1 1306 0 discriminator 2
 2341 007e FB68     		ldr	r3, [r7, #12]
ARM GAS  /var/folders/kh/x4vltyy52lbg7p4pcyglc5080000gp/T//cccbl2Nm.s 			page 66


 2342 0080 BA68     		ldr	r2, [r7, #8]
 2343 0082 5A62     		str	r2, [r3, #36]
1307:Drivers/STM32F1xx_HAL_Driver/Src/stm32f1xx_hal_i2c.c ****     hi2c->XferSize = Size;
 2344              		.loc 1 1307 0 discriminator 2
 2345 0084 FB68     		ldr	r3, [r7, #12]
 2346 0086 FA88     		ldrh	r2, [r7, #6]	@ movhi
 2347 0088 1A85     		strh	r2, [r3, #40]	@ movhi
1308:Drivers/STM32F1xx_HAL_Driver/Src/stm32f1xx_hal_i2c.c ****     hi2c->XferCount = Size;
 2348              		.loc 1 1308 0 discriminator 2
 2349 008a FB68     		ldr	r3, [r7, #12]
 2350 008c FA88     		ldrh	r2, [r7, #6]	@ movhi
 2351 008e 5A85     		strh	r2, [r3, #42]	@ movhi
1309:Drivers/STM32F1xx_HAL_Driver/Src/stm32f1xx_hal_i2c.c **** 
1310:Drivers/STM32F1xx_HAL_Driver/Src/stm32f1xx_hal_i2c.c ****     /* Enable Address Acknowledge */
1311:Drivers/STM32F1xx_HAL_Driver/Src/stm32f1xx_hal_i2c.c ****     SET_BIT(hi2c->Instance->CR1, I2C_CR1_ACK);
 2352              		.loc 1 1311 0 discriminator 2
 2353 0090 FB68     		ldr	r3, [r7, #12]
 2354 0092 1B68     		ldr	r3, [r3]
 2355 0094 FA68     		ldr	r2, [r7, #12]
 2356 0096 1268     		ldr	r2, [r2]
 2357 0098 1268     		ldr	r2, [r2]
 2358 009a 42F48062 		orr	r2, r2, #1024
 2359 009e 1A60     		str	r2, [r3]
1312:Drivers/STM32F1xx_HAL_Driver/Src/stm32f1xx_hal_i2c.c **** 
1313:Drivers/STM32F1xx_HAL_Driver/Src/stm32f1xx_hal_i2c.c ****     /* Process Unlocked */
1314:Drivers/STM32F1xx_HAL_Driver/Src/stm32f1xx_hal_i2c.c ****     __HAL_UNLOCK(hi2c);
 2360              		.loc 1 1314 0 discriminator 2
 2361 00a0 FB68     		ldr	r3, [r7, #12]
 2362 00a2 0022     		movs	r2, #0
 2363 00a4 83F83420 		strb	r2, [r3, #52]
1315:Drivers/STM32F1xx_HAL_Driver/Src/stm32f1xx_hal_i2c.c **** 
1316:Drivers/STM32F1xx_HAL_Driver/Src/stm32f1xx_hal_i2c.c ****     /* Note : The I2C interrupts must be enabled after unlocking current process
1317:Drivers/STM32F1xx_HAL_Driver/Src/stm32f1xx_hal_i2c.c ****               to avoid the risk of I2C interrupt handle execution before current
1318:Drivers/STM32F1xx_HAL_Driver/Src/stm32f1xx_hal_i2c.c ****               process unlock */
1319:Drivers/STM32F1xx_HAL_Driver/Src/stm32f1xx_hal_i2c.c **** 
1320:Drivers/STM32F1xx_HAL_Driver/Src/stm32f1xx_hal_i2c.c ****     /* Enable EVT, BUF and ERR interrupt */
1321:Drivers/STM32F1xx_HAL_Driver/Src/stm32f1xx_hal_i2c.c ****     __HAL_I2C_ENABLE_IT(hi2c, I2C_IT_EVT | I2C_IT_BUF | I2C_IT_ERR);
 2364              		.loc 1 1321 0 discriminator 2
 2365 00a8 FB68     		ldr	r3, [r7, #12]
 2366 00aa 1B68     		ldr	r3, [r3]
 2367 00ac FA68     		ldr	r2, [r7, #12]
 2368 00ae 1268     		ldr	r2, [r2]
 2369 00b0 5268     		ldr	r2, [r2, #4]
 2370 00b2 42F4E062 		orr	r2, r2, #1792
 2371 00b6 5A60     		str	r2, [r3, #4]
1322:Drivers/STM32F1xx_HAL_Driver/Src/stm32f1xx_hal_i2c.c **** 
1323:Drivers/STM32F1xx_HAL_Driver/Src/stm32f1xx_hal_i2c.c ****     return HAL_OK;
 2372              		.loc 1 1323 0 discriminator 2
 2373 00b8 0023     		movs	r3, #0
 2374 00ba 00E0     		b	.L120
 2375              	.L117:
1324:Drivers/STM32F1xx_HAL_Driver/Src/stm32f1xx_hal_i2c.c ****   }
1325:Drivers/STM32F1xx_HAL_Driver/Src/stm32f1xx_hal_i2c.c ****   else
1326:Drivers/STM32F1xx_HAL_Driver/Src/stm32f1xx_hal_i2c.c ****   {
1327:Drivers/STM32F1xx_HAL_Driver/Src/stm32f1xx_hal_i2c.c ****     return HAL_BUSY;
 2376              		.loc 1 1327 0
 2377 00bc 0223     		movs	r3, #2
ARM GAS  /var/folders/kh/x4vltyy52lbg7p4pcyglc5080000gp/T//cccbl2Nm.s 			page 67


 2378              	.L120:
1328:Drivers/STM32F1xx_HAL_Driver/Src/stm32f1xx_hal_i2c.c ****   }
1329:Drivers/STM32F1xx_HAL_Driver/Src/stm32f1xx_hal_i2c.c **** }
 2379              		.loc 1 1329 0
 2380 00be 1846     		mov	r0, r3
 2381 00c0 1037     		adds	r7, r7, #16
 2382              	.LCFI55:
 2383              		.cfi_def_cfa_offset 8
 2384 00c2 BD46     		mov	sp, r7
 2385              	.LCFI56:
 2386              		.cfi_def_cfa_register 13
 2387              		@ sp needed
 2388 00c4 80BD     		pop	{r7, pc}
 2389              	.L124:
 2390 00c6 00BF     		.align	2
 2391              	.L123:
 2392 00c8 02001000 		.word	1048578
 2393              		.cfi_endproc
 2394              	.LFE74:
 2396              		.section	.text.HAL_I2C_Slave_Receive_IT,"ax",%progbits
 2397              		.align	2
 2398              		.global	HAL_I2C_Slave_Receive_IT
 2399              		.thumb
 2400              		.thumb_func
 2402              	HAL_I2C_Slave_Receive_IT:
 2403              	.LFB75:
1330:Drivers/STM32F1xx_HAL_Driver/Src/stm32f1xx_hal_i2c.c **** 
1331:Drivers/STM32F1xx_HAL_Driver/Src/stm32f1xx_hal_i2c.c **** /**
1332:Drivers/STM32F1xx_HAL_Driver/Src/stm32f1xx_hal_i2c.c ****   * @brief  Receive in slave mode an amount of data in non-blocking mode with Interrupt 
1333:Drivers/STM32F1xx_HAL_Driver/Src/stm32f1xx_hal_i2c.c ****   * @param  hi2c Pointer to a I2C_HandleTypeDef structure that contains
1334:Drivers/STM32F1xx_HAL_Driver/Src/stm32f1xx_hal_i2c.c ****   *                the configuration information for the specified I2C.
1335:Drivers/STM32F1xx_HAL_Driver/Src/stm32f1xx_hal_i2c.c ****   * @param  pData Pointer to data buffer
1336:Drivers/STM32F1xx_HAL_Driver/Src/stm32f1xx_hal_i2c.c ****   * @param  Size Amount of data to be sent
1337:Drivers/STM32F1xx_HAL_Driver/Src/stm32f1xx_hal_i2c.c ****   * @retval HAL status
1338:Drivers/STM32F1xx_HAL_Driver/Src/stm32f1xx_hal_i2c.c ****   */
1339:Drivers/STM32F1xx_HAL_Driver/Src/stm32f1xx_hal_i2c.c **** HAL_StatusTypeDef HAL_I2C_Slave_Receive_IT(I2C_HandleTypeDef *hi2c, uint8_t *pData, uint16_t Size)
1340:Drivers/STM32F1xx_HAL_Driver/Src/stm32f1xx_hal_i2c.c **** {
 2404              		.loc 1 1340 0
 2405              		.cfi_startproc
 2406              		@ args = 0, pretend = 0, frame = 16
 2407              		@ frame_needed = 1, uses_anonymous_args = 0
 2408 0000 80B5     		push	{r7, lr}
 2409              	.LCFI57:
 2410              		.cfi_def_cfa_offset 8
 2411              		.cfi_offset 7, -8
 2412              		.cfi_offset 14, -4
 2413 0002 84B0     		sub	sp, sp, #16
 2414              	.LCFI58:
 2415              		.cfi_def_cfa_offset 24
 2416 0004 00AF     		add	r7, sp, #0
 2417              	.LCFI59:
 2418              		.cfi_def_cfa_register 7
 2419 0006 F860     		str	r0, [r7, #12]
 2420 0008 B960     		str	r1, [r7, #8]
 2421 000a 1346     		mov	r3, r2
 2422 000c FB80     		strh	r3, [r7, #6]	@ movhi
1341:Drivers/STM32F1xx_HAL_Driver/Src/stm32f1xx_hal_i2c.c ****   if(hi2c->State == HAL_I2C_STATE_READY)
ARM GAS  /var/folders/kh/x4vltyy52lbg7p4pcyglc5080000gp/T//cccbl2Nm.s 			page 68


 2423              		.loc 1 1341 0
 2424 000e FB68     		ldr	r3, [r7, #12]
 2425 0010 93F83530 		ldrb	r3, [r3, #53]
 2426 0014 DBB2     		uxtb	r3, r3
 2427 0016 202B     		cmp	r3, #32
 2428 0018 50D1     		bne	.L126
1342:Drivers/STM32F1xx_HAL_Driver/Src/stm32f1xx_hal_i2c.c ****   {
1343:Drivers/STM32F1xx_HAL_Driver/Src/stm32f1xx_hal_i2c.c ****     if((pData == NULL) || (Size == 0))
 2429              		.loc 1 1343 0
 2430 001a BB68     		ldr	r3, [r7, #8]
 2431 001c 002B     		cmp	r3, #0
 2432 001e 02D0     		beq	.L127
 2433              		.loc 1 1343 0 is_stmt 0 discriminator 1
 2434 0020 FB88     		ldrh	r3, [r7, #6]
 2435 0022 002B     		cmp	r3, #0
 2436 0024 01D1     		bne	.L128
 2437              	.L127:
1344:Drivers/STM32F1xx_HAL_Driver/Src/stm32f1xx_hal_i2c.c ****     {
1345:Drivers/STM32F1xx_HAL_Driver/Src/stm32f1xx_hal_i2c.c ****       return  HAL_ERROR;
 2438              		.loc 1 1345 0 is_stmt 1
 2439 0026 0123     		movs	r3, #1
 2440 0028 49E0     		b	.L129
 2441              	.L128:
1346:Drivers/STM32F1xx_HAL_Driver/Src/stm32f1xx_hal_i2c.c ****     }
1347:Drivers/STM32F1xx_HAL_Driver/Src/stm32f1xx_hal_i2c.c **** 
1348:Drivers/STM32F1xx_HAL_Driver/Src/stm32f1xx_hal_i2c.c ****     if(I2C_WaitOnFlagUntilTimeout(hi2c, I2C_FLAG_BUSY, SET, I2C_TIMEOUT_BUSY_FLAG) != HAL_OK)
 2442              		.loc 1 1348 0
 2443 002a 42F21073 		movw	r3, #10000
 2444 002e 0122     		movs	r2, #1
 2445 0030 2549     		ldr	r1, .L132
 2446 0032 F868     		ldr	r0, [r7, #12]
 2447 0034 FFF7FEFF 		bl	I2C_WaitOnFlagUntilTimeout
 2448 0038 0346     		mov	r3, r0
 2449 003a 002B     		cmp	r3, #0
 2450 003c 01D0     		beq	.L130
1349:Drivers/STM32F1xx_HAL_Driver/Src/stm32f1xx_hal_i2c.c ****     {
1350:Drivers/STM32F1xx_HAL_Driver/Src/stm32f1xx_hal_i2c.c ****       return HAL_BUSY;
 2451              		.loc 1 1350 0
 2452 003e 0223     		movs	r3, #2
 2453 0040 3DE0     		b	.L129
 2454              	.L130:
1351:Drivers/STM32F1xx_HAL_Driver/Src/stm32f1xx_hal_i2c.c ****     }
1352:Drivers/STM32F1xx_HAL_Driver/Src/stm32f1xx_hal_i2c.c **** 
1353:Drivers/STM32F1xx_HAL_Driver/Src/stm32f1xx_hal_i2c.c ****     /* Process Locked */
1354:Drivers/STM32F1xx_HAL_Driver/Src/stm32f1xx_hal_i2c.c ****     __HAL_LOCK(hi2c);
 2455              		.loc 1 1354 0
 2456 0042 FB68     		ldr	r3, [r7, #12]
 2457 0044 93F83430 		ldrb	r3, [r3, #52]	@ zero_extendqisi2
 2458 0048 012B     		cmp	r3, #1
 2459 004a 01D1     		bne	.L131
 2460              		.loc 1 1354 0 is_stmt 0 discriminator 1
 2461 004c 0223     		movs	r3, #2
 2462 004e 36E0     		b	.L129
 2463              	.L131:
 2464              		.loc 1 1354 0 discriminator 2
 2465 0050 FB68     		ldr	r3, [r7, #12]
 2466 0052 0122     		movs	r2, #1
ARM GAS  /var/folders/kh/x4vltyy52lbg7p4pcyglc5080000gp/T//cccbl2Nm.s 			page 69


 2467 0054 83F83420 		strb	r2, [r3, #52]
1355:Drivers/STM32F1xx_HAL_Driver/Src/stm32f1xx_hal_i2c.c **** 
1356:Drivers/STM32F1xx_HAL_Driver/Src/stm32f1xx_hal_i2c.c ****     /* Disable Pos */
1357:Drivers/STM32F1xx_HAL_Driver/Src/stm32f1xx_hal_i2c.c ****     CLEAR_BIT(hi2c->Instance->CR1, I2C_CR1_POS);
 2468              		.loc 1 1357 0 is_stmt 1 discriminator 2
 2469 0058 FB68     		ldr	r3, [r7, #12]
 2470 005a 1B68     		ldr	r3, [r3]
 2471 005c FA68     		ldr	r2, [r7, #12]
 2472 005e 1268     		ldr	r2, [r2]
 2473 0060 1268     		ldr	r2, [r2]
 2474 0062 22F40062 		bic	r2, r2, #2048
 2475 0066 1A60     		str	r2, [r3]
1358:Drivers/STM32F1xx_HAL_Driver/Src/stm32f1xx_hal_i2c.c **** 
1359:Drivers/STM32F1xx_HAL_Driver/Src/stm32f1xx_hal_i2c.c ****     hi2c->State = HAL_I2C_STATE_BUSY_RX;
 2476              		.loc 1 1359 0 discriminator 2
 2477 0068 FB68     		ldr	r3, [r7, #12]
 2478 006a 2222     		movs	r2, #34
 2479 006c 83F83520 		strb	r2, [r3, #53]
1360:Drivers/STM32F1xx_HAL_Driver/Src/stm32f1xx_hal_i2c.c ****     hi2c->Mode = HAL_I2C_MODE_SLAVE;
 2480              		.loc 1 1360 0 discriminator 2
 2481 0070 FB68     		ldr	r3, [r7, #12]
 2482 0072 2022     		movs	r2, #32
 2483 0074 83F83620 		strb	r2, [r3, #54]
1361:Drivers/STM32F1xx_HAL_Driver/Src/stm32f1xx_hal_i2c.c ****     hi2c->ErrorCode = HAL_I2C_ERROR_NONE;
 2484              		.loc 1 1361 0 discriminator 2
 2485 0078 FB68     		ldr	r3, [r7, #12]
 2486 007a 0022     		movs	r2, #0
 2487 007c 9A63     		str	r2, [r3, #56]
1362:Drivers/STM32F1xx_HAL_Driver/Src/stm32f1xx_hal_i2c.c **** 
1363:Drivers/STM32F1xx_HAL_Driver/Src/stm32f1xx_hal_i2c.c ****     hi2c->pBuffPtr = pData;
 2488              		.loc 1 1363 0 discriminator 2
 2489 007e FB68     		ldr	r3, [r7, #12]
 2490 0080 BA68     		ldr	r2, [r7, #8]
 2491 0082 5A62     		str	r2, [r3, #36]
1364:Drivers/STM32F1xx_HAL_Driver/Src/stm32f1xx_hal_i2c.c ****     hi2c->XferSize = Size;
 2492              		.loc 1 1364 0 discriminator 2
 2493 0084 FB68     		ldr	r3, [r7, #12]
 2494 0086 FA88     		ldrh	r2, [r7, #6]	@ movhi
 2495 0088 1A85     		strh	r2, [r3, #40]	@ movhi
1365:Drivers/STM32F1xx_HAL_Driver/Src/stm32f1xx_hal_i2c.c ****     hi2c->XferCount = Size;
 2496              		.loc 1 1365 0 discriminator 2
 2497 008a FB68     		ldr	r3, [r7, #12]
 2498 008c FA88     		ldrh	r2, [r7, #6]	@ movhi
 2499 008e 5A85     		strh	r2, [r3, #42]	@ movhi
1366:Drivers/STM32F1xx_HAL_Driver/Src/stm32f1xx_hal_i2c.c **** 
1367:Drivers/STM32F1xx_HAL_Driver/Src/stm32f1xx_hal_i2c.c ****     /* Enable Address Acknowledge */
1368:Drivers/STM32F1xx_HAL_Driver/Src/stm32f1xx_hal_i2c.c ****     SET_BIT(hi2c->Instance->CR1, I2C_CR1_ACK);
 2500              		.loc 1 1368 0 discriminator 2
 2501 0090 FB68     		ldr	r3, [r7, #12]
 2502 0092 1B68     		ldr	r3, [r3]
 2503 0094 FA68     		ldr	r2, [r7, #12]
 2504 0096 1268     		ldr	r2, [r2]
 2505 0098 1268     		ldr	r2, [r2]
 2506 009a 42F48062 		orr	r2, r2, #1024
 2507 009e 1A60     		str	r2, [r3]
1369:Drivers/STM32F1xx_HAL_Driver/Src/stm32f1xx_hal_i2c.c **** 
1370:Drivers/STM32F1xx_HAL_Driver/Src/stm32f1xx_hal_i2c.c ****     /* Process Unlocked */
ARM GAS  /var/folders/kh/x4vltyy52lbg7p4pcyglc5080000gp/T//cccbl2Nm.s 			page 70


1371:Drivers/STM32F1xx_HAL_Driver/Src/stm32f1xx_hal_i2c.c ****     __HAL_UNLOCK(hi2c);
 2508              		.loc 1 1371 0 discriminator 2
 2509 00a0 FB68     		ldr	r3, [r7, #12]
 2510 00a2 0022     		movs	r2, #0
 2511 00a4 83F83420 		strb	r2, [r3, #52]
1372:Drivers/STM32F1xx_HAL_Driver/Src/stm32f1xx_hal_i2c.c **** 
1373:Drivers/STM32F1xx_HAL_Driver/Src/stm32f1xx_hal_i2c.c ****     /* Note : The I2C interrupts must be enabled after unlocking current process
1374:Drivers/STM32F1xx_HAL_Driver/Src/stm32f1xx_hal_i2c.c ****               to avoid the risk of I2C interrupt handle execution before current
1375:Drivers/STM32F1xx_HAL_Driver/Src/stm32f1xx_hal_i2c.c ****               process unlock */
1376:Drivers/STM32F1xx_HAL_Driver/Src/stm32f1xx_hal_i2c.c **** 
1377:Drivers/STM32F1xx_HAL_Driver/Src/stm32f1xx_hal_i2c.c ****     /* Enable EVT, BUF and ERR interrupt */
1378:Drivers/STM32F1xx_HAL_Driver/Src/stm32f1xx_hal_i2c.c ****     __HAL_I2C_ENABLE_IT(hi2c, I2C_IT_EVT | I2C_IT_BUF | I2C_IT_ERR);
 2512              		.loc 1 1378 0 discriminator 2
 2513 00a8 FB68     		ldr	r3, [r7, #12]
 2514 00aa 1B68     		ldr	r3, [r3]
 2515 00ac FA68     		ldr	r2, [r7, #12]
 2516 00ae 1268     		ldr	r2, [r2]
 2517 00b0 5268     		ldr	r2, [r2, #4]
 2518 00b2 42F4E062 		orr	r2, r2, #1792
 2519 00b6 5A60     		str	r2, [r3, #4]
1379:Drivers/STM32F1xx_HAL_Driver/Src/stm32f1xx_hal_i2c.c **** 
1380:Drivers/STM32F1xx_HAL_Driver/Src/stm32f1xx_hal_i2c.c ****     return HAL_OK;
 2520              		.loc 1 1380 0 discriminator 2
 2521 00b8 0023     		movs	r3, #0
 2522 00ba 00E0     		b	.L129
 2523              	.L126:
1381:Drivers/STM32F1xx_HAL_Driver/Src/stm32f1xx_hal_i2c.c ****   }
1382:Drivers/STM32F1xx_HAL_Driver/Src/stm32f1xx_hal_i2c.c ****   else
1383:Drivers/STM32F1xx_HAL_Driver/Src/stm32f1xx_hal_i2c.c ****   {
1384:Drivers/STM32F1xx_HAL_Driver/Src/stm32f1xx_hal_i2c.c ****     return HAL_BUSY;
 2524              		.loc 1 1384 0
 2525 00bc 0223     		movs	r3, #2
 2526              	.L129:
1385:Drivers/STM32F1xx_HAL_Driver/Src/stm32f1xx_hal_i2c.c ****   }
1386:Drivers/STM32F1xx_HAL_Driver/Src/stm32f1xx_hal_i2c.c **** }
 2527              		.loc 1 1386 0
 2528 00be 1846     		mov	r0, r3
 2529 00c0 1037     		adds	r7, r7, #16
 2530              	.LCFI60:
 2531              		.cfi_def_cfa_offset 8
 2532 00c2 BD46     		mov	sp, r7
 2533              	.LCFI61:
 2534              		.cfi_def_cfa_register 13
 2535              		@ sp needed
 2536 00c4 80BD     		pop	{r7, pc}
 2537              	.L133:
 2538 00c6 00BF     		.align	2
 2539              	.L132:
 2540 00c8 02001000 		.word	1048578
 2541              		.cfi_endproc
 2542              	.LFE75:
 2544              		.section	.text.HAL_I2C_Master_Transmit_DMA,"ax",%progbits
 2545              		.align	2
 2546              		.global	HAL_I2C_Master_Transmit_DMA
 2547              		.thumb
 2548              		.thumb_func
 2550              	HAL_I2C_Master_Transmit_DMA:
ARM GAS  /var/folders/kh/x4vltyy52lbg7p4pcyglc5080000gp/T//cccbl2Nm.s 			page 71


 2551              	.LFB76:
1387:Drivers/STM32F1xx_HAL_Driver/Src/stm32f1xx_hal_i2c.c **** 
1388:Drivers/STM32F1xx_HAL_Driver/Src/stm32f1xx_hal_i2c.c ****  
1389:Drivers/STM32F1xx_HAL_Driver/Src/stm32f1xx_hal_i2c.c **** /**
1390:Drivers/STM32F1xx_HAL_Driver/Src/stm32f1xx_hal_i2c.c ****   * @brief  Transmit in master mode an amount of data in non-blocking mode with DMA
1391:Drivers/STM32F1xx_HAL_Driver/Src/stm32f1xx_hal_i2c.c ****   * @param  hi2c Pointer to a I2C_HandleTypeDef structure that contains
1392:Drivers/STM32F1xx_HAL_Driver/Src/stm32f1xx_hal_i2c.c ****   *                the configuration information for the specified I2C.
1393:Drivers/STM32F1xx_HAL_Driver/Src/stm32f1xx_hal_i2c.c ****   * @param  DevAddress Target device address
1394:Drivers/STM32F1xx_HAL_Driver/Src/stm32f1xx_hal_i2c.c ****   * @param  pData Pointer to data buffer
1395:Drivers/STM32F1xx_HAL_Driver/Src/stm32f1xx_hal_i2c.c ****   * @param  Size Amount of data to be sent
1396:Drivers/STM32F1xx_HAL_Driver/Src/stm32f1xx_hal_i2c.c ****   * @retval HAL status
1397:Drivers/STM32F1xx_HAL_Driver/Src/stm32f1xx_hal_i2c.c ****   */
1398:Drivers/STM32F1xx_HAL_Driver/Src/stm32f1xx_hal_i2c.c **** HAL_StatusTypeDef HAL_I2C_Master_Transmit_DMA(I2C_HandleTypeDef *hi2c, uint16_t DevAddress, uint8_t
1399:Drivers/STM32F1xx_HAL_Driver/Src/stm32f1xx_hal_i2c.c **** {
 2552              		.loc 1 1399 0
 2553              		.cfi_startproc
 2554              		@ args = 0, pretend = 0, frame = 24
 2555              		@ frame_needed = 1, uses_anonymous_args = 0
 2556 0000 80B5     		push	{r7, lr}
 2557              	.LCFI62:
 2558              		.cfi_def_cfa_offset 8
 2559              		.cfi_offset 7, -8
 2560              		.cfi_offset 14, -4
 2561 0002 86B0     		sub	sp, sp, #24
 2562              	.LCFI63:
 2563              		.cfi_def_cfa_offset 32
 2564 0004 00AF     		add	r7, sp, #0
 2565              	.LCFI64:
 2566              		.cfi_def_cfa_register 7
 2567 0006 F860     		str	r0, [r7, #12]
 2568 0008 7A60     		str	r2, [r7, #4]
 2569 000a 1A46     		mov	r2, r3
 2570 000c 0B46     		mov	r3, r1	@ movhi
 2571 000e 7B81     		strh	r3, [r7, #10]	@ movhi
 2572 0010 1346     		mov	r3, r2	@ movhi
 2573 0012 3B81     		strh	r3, [r7, #8]	@ movhi
1400:Drivers/STM32F1xx_HAL_Driver/Src/stm32f1xx_hal_i2c.c ****   if(hi2c->State == HAL_I2C_STATE_READY)
 2574              		.loc 1 1400 0
 2575 0014 FB68     		ldr	r3, [r7, #12]
 2576 0016 93F83530 		ldrb	r3, [r3, #53]
 2577 001a DBB2     		uxtb	r3, r3
 2578 001c 202B     		cmp	r3, #32
 2579 001e 7CD1     		bne	.L135
1401:Drivers/STM32F1xx_HAL_Driver/Src/stm32f1xx_hal_i2c.c ****   {
1402:Drivers/STM32F1xx_HAL_Driver/Src/stm32f1xx_hal_i2c.c ****     if((pData == NULL) || (Size == 0))
 2580              		.loc 1 1402 0
 2581 0020 7B68     		ldr	r3, [r7, #4]
 2582 0022 002B     		cmp	r3, #0
 2583 0024 02D0     		beq	.L136
 2584              		.loc 1 1402 0 is_stmt 0 discriminator 1
 2585 0026 3B89     		ldrh	r3, [r7, #8]
 2586 0028 002B     		cmp	r3, #0
 2587 002a 01D1     		bne	.L137
 2588              	.L136:
1403:Drivers/STM32F1xx_HAL_Driver/Src/stm32f1xx_hal_i2c.c ****     {
1404:Drivers/STM32F1xx_HAL_Driver/Src/stm32f1xx_hal_i2c.c ****       return  HAL_ERROR;
 2589              		.loc 1 1404 0 is_stmt 1
ARM GAS  /var/folders/kh/x4vltyy52lbg7p4pcyglc5080000gp/T//cccbl2Nm.s 			page 72


 2590 002c 0123     		movs	r3, #1
 2591 002e 75E0     		b	.L138
 2592              	.L137:
1405:Drivers/STM32F1xx_HAL_Driver/Src/stm32f1xx_hal_i2c.c ****     }
1406:Drivers/STM32F1xx_HAL_Driver/Src/stm32f1xx_hal_i2c.c **** 
1407:Drivers/STM32F1xx_HAL_Driver/Src/stm32f1xx_hal_i2c.c ****     /* Wait until BUSY flag is reset */
1408:Drivers/STM32F1xx_HAL_Driver/Src/stm32f1xx_hal_i2c.c ****     if(I2C_WaitOnFlagUntilTimeout(hi2c, I2C_FLAG_BUSY, SET, I2C_TIMEOUT_BUSY_FLAG) != HAL_OK)
 2593              		.loc 1 1408 0
 2594 0030 42F21073 		movw	r3, #10000
 2595 0034 0122     		movs	r2, #1
 2596 0036 3B49     		ldr	r1, .L143
 2597 0038 F868     		ldr	r0, [r7, #12]
 2598 003a FFF7FEFF 		bl	I2C_WaitOnFlagUntilTimeout
 2599 003e 0346     		mov	r3, r0
 2600 0040 002B     		cmp	r3, #0
 2601 0042 01D0     		beq	.L139
1409:Drivers/STM32F1xx_HAL_Driver/Src/stm32f1xx_hal_i2c.c ****     {
1410:Drivers/STM32F1xx_HAL_Driver/Src/stm32f1xx_hal_i2c.c ****       return HAL_BUSY;
 2602              		.loc 1 1410 0
 2603 0044 0223     		movs	r3, #2
 2604 0046 69E0     		b	.L138
 2605              	.L139:
1411:Drivers/STM32F1xx_HAL_Driver/Src/stm32f1xx_hal_i2c.c ****     }
1412:Drivers/STM32F1xx_HAL_Driver/Src/stm32f1xx_hal_i2c.c **** 
1413:Drivers/STM32F1xx_HAL_Driver/Src/stm32f1xx_hal_i2c.c ****     /* Process Locked */
1414:Drivers/STM32F1xx_HAL_Driver/Src/stm32f1xx_hal_i2c.c ****     __HAL_LOCK(hi2c);
 2606              		.loc 1 1414 0
 2607 0048 FB68     		ldr	r3, [r7, #12]
 2608 004a 93F83430 		ldrb	r3, [r3, #52]	@ zero_extendqisi2
 2609 004e 012B     		cmp	r3, #1
 2610 0050 01D1     		bne	.L140
 2611              		.loc 1 1414 0 is_stmt 0 discriminator 1
 2612 0052 0223     		movs	r3, #2
 2613 0054 62E0     		b	.L138
 2614              	.L140:
 2615              		.loc 1 1414 0 discriminator 2
 2616 0056 FB68     		ldr	r3, [r7, #12]
 2617 0058 0122     		movs	r2, #1
 2618 005a 83F83420 		strb	r2, [r3, #52]
1415:Drivers/STM32F1xx_HAL_Driver/Src/stm32f1xx_hal_i2c.c **** 
1416:Drivers/STM32F1xx_HAL_Driver/Src/stm32f1xx_hal_i2c.c ****     /* Disable Pos */
1417:Drivers/STM32F1xx_HAL_Driver/Src/stm32f1xx_hal_i2c.c ****     CLEAR_BIT(hi2c->Instance->CR1, I2C_CR1_POS);
 2619              		.loc 1 1417 0 is_stmt 1 discriminator 2
 2620 005e FB68     		ldr	r3, [r7, #12]
 2621 0060 1B68     		ldr	r3, [r3]
 2622 0062 FA68     		ldr	r2, [r7, #12]
 2623 0064 1268     		ldr	r2, [r2]
 2624 0066 1268     		ldr	r2, [r2]
 2625 0068 22F40062 		bic	r2, r2, #2048
 2626 006c 1A60     		str	r2, [r3]
1418:Drivers/STM32F1xx_HAL_Driver/Src/stm32f1xx_hal_i2c.c **** 
1419:Drivers/STM32F1xx_HAL_Driver/Src/stm32f1xx_hal_i2c.c ****     hi2c->State = HAL_I2C_STATE_BUSY_TX;
 2627              		.loc 1 1419 0 discriminator 2
 2628 006e FB68     		ldr	r3, [r7, #12]
 2629 0070 2122     		movs	r2, #33
 2630 0072 83F83520 		strb	r2, [r3, #53]
1420:Drivers/STM32F1xx_HAL_Driver/Src/stm32f1xx_hal_i2c.c ****     hi2c->Mode = HAL_I2C_MODE_MASTER;
ARM GAS  /var/folders/kh/x4vltyy52lbg7p4pcyglc5080000gp/T//cccbl2Nm.s 			page 73


 2631              		.loc 1 1420 0 discriminator 2
 2632 0076 FB68     		ldr	r3, [r7, #12]
 2633 0078 1022     		movs	r2, #16
 2634 007a 83F83620 		strb	r2, [r3, #54]
1421:Drivers/STM32F1xx_HAL_Driver/Src/stm32f1xx_hal_i2c.c ****     hi2c->ErrorCode = HAL_I2C_ERROR_NONE;
 2635              		.loc 1 1421 0 discriminator 2
 2636 007e FB68     		ldr	r3, [r7, #12]
 2637 0080 0022     		movs	r2, #0
 2638 0082 9A63     		str	r2, [r3, #56]
1422:Drivers/STM32F1xx_HAL_Driver/Src/stm32f1xx_hal_i2c.c **** 
1423:Drivers/STM32F1xx_HAL_Driver/Src/stm32f1xx_hal_i2c.c ****     hi2c->pBuffPtr = pData;
 2639              		.loc 1 1423 0 discriminator 2
 2640 0084 FB68     		ldr	r3, [r7, #12]
 2641 0086 7A68     		ldr	r2, [r7, #4]
 2642 0088 5A62     		str	r2, [r3, #36]
1424:Drivers/STM32F1xx_HAL_Driver/Src/stm32f1xx_hal_i2c.c ****     hi2c->XferSize = Size;
 2643              		.loc 1 1424 0 discriminator 2
 2644 008a FB68     		ldr	r3, [r7, #12]
 2645 008c 3A89     		ldrh	r2, [r7, #8]	@ movhi
 2646 008e 1A85     		strh	r2, [r3, #40]	@ movhi
1425:Drivers/STM32F1xx_HAL_Driver/Src/stm32f1xx_hal_i2c.c ****     hi2c->XferCount = Size;
 2647              		.loc 1 1425 0 discriminator 2
 2648 0090 FB68     		ldr	r3, [r7, #12]
 2649 0092 3A89     		ldrh	r2, [r7, #8]	@ movhi
 2650 0094 5A85     		strh	r2, [r3, #42]	@ movhi
1426:Drivers/STM32F1xx_HAL_Driver/Src/stm32f1xx_hal_i2c.c **** 
1427:Drivers/STM32F1xx_HAL_Driver/Src/stm32f1xx_hal_i2c.c ****     /* Set the I2C DMA transfert complete callback */
1428:Drivers/STM32F1xx_HAL_Driver/Src/stm32f1xx_hal_i2c.c ****     hi2c->hdmatx->XferCpltCallback = I2C_DMAMasterTransmitCplt;
 2651              		.loc 1 1428 0 discriminator 2
 2652 0096 FB68     		ldr	r3, [r7, #12]
 2653 0098 DB6A     		ldr	r3, [r3, #44]
 2654 009a 234A     		ldr	r2, .L143+4
 2655 009c 9A62     		str	r2, [r3, #40]
1429:Drivers/STM32F1xx_HAL_Driver/Src/stm32f1xx_hal_i2c.c **** 
1430:Drivers/STM32F1xx_HAL_Driver/Src/stm32f1xx_hal_i2c.c ****     /* Set the DMA error callback */
1431:Drivers/STM32F1xx_HAL_Driver/Src/stm32f1xx_hal_i2c.c ****     hi2c->hdmatx->XferErrorCallback = I2C_DMAError;
 2656              		.loc 1 1431 0 discriminator 2
 2657 009e FB68     		ldr	r3, [r7, #12]
 2658 00a0 DB6A     		ldr	r3, [r3, #44]
 2659 00a2 224A     		ldr	r2, .L143+8
 2660 00a4 1A63     		str	r2, [r3, #48]
1432:Drivers/STM32F1xx_HAL_Driver/Src/stm32f1xx_hal_i2c.c **** 
1433:Drivers/STM32F1xx_HAL_Driver/Src/stm32f1xx_hal_i2c.c ****     /* Enable the DMA channel */
1434:Drivers/STM32F1xx_HAL_Driver/Src/stm32f1xx_hal_i2c.c ****     HAL_DMA_Start_IT(hi2c->hdmatx, (uint32_t)pData, (uint32_t)&hi2c->Instance->DR, Size);
 2661              		.loc 1 1434 0 discriminator 2
 2662 00a6 FB68     		ldr	r3, [r7, #12]
 2663 00a8 D86A     		ldr	r0, [r3, #44]
 2664 00aa 7968     		ldr	r1, [r7, #4]
 2665 00ac FB68     		ldr	r3, [r7, #12]
 2666 00ae 1B68     		ldr	r3, [r3]
 2667 00b0 1033     		adds	r3, r3, #16
 2668 00b2 1A46     		mov	r2, r3
 2669 00b4 3B89     		ldrh	r3, [r7, #8]
 2670 00b6 FFF7FEFF 		bl	HAL_DMA_Start_IT
1435:Drivers/STM32F1xx_HAL_Driver/Src/stm32f1xx_hal_i2c.c **** 
1436:Drivers/STM32F1xx_HAL_Driver/Src/stm32f1xx_hal_i2c.c ****     /* Send Slave Address */
1437:Drivers/STM32F1xx_HAL_Driver/Src/stm32f1xx_hal_i2c.c ****     if(I2C_MasterRequestWrite(hi2c, DevAddress, I2C_TIMEOUT_FLAG) != HAL_OK)
ARM GAS  /var/folders/kh/x4vltyy52lbg7p4pcyglc5080000gp/T//cccbl2Nm.s 			page 74


 2671              		.loc 1 1437 0 discriminator 2
 2672 00ba 7B89     		ldrh	r3, [r7, #10]
 2673 00bc 2322     		movs	r2, #35
 2674 00be 1946     		mov	r1, r3
 2675 00c0 F868     		ldr	r0, [r7, #12]
 2676 00c2 FFF7FEFF 		bl	I2C_MasterRequestWrite
 2677 00c6 0346     		mov	r3, r0
 2678 00c8 002B     		cmp	r3, #0
 2679 00ca 0FD0     		beq	.L141
1438:Drivers/STM32F1xx_HAL_Driver/Src/stm32f1xx_hal_i2c.c ****     {
1439:Drivers/STM32F1xx_HAL_Driver/Src/stm32f1xx_hal_i2c.c ****       if(hi2c->ErrorCode == HAL_I2C_ERROR_AF)
 2680              		.loc 1 1439 0
 2681 00cc FB68     		ldr	r3, [r7, #12]
 2682 00ce 9B6B     		ldr	r3, [r3, #56]
 2683 00d0 042B     		cmp	r3, #4
 2684 00d2 05D1     		bne	.L142
1440:Drivers/STM32F1xx_HAL_Driver/Src/stm32f1xx_hal_i2c.c ****       {
1441:Drivers/STM32F1xx_HAL_Driver/Src/stm32f1xx_hal_i2c.c ****         /* Process Unlocked */
1442:Drivers/STM32F1xx_HAL_Driver/Src/stm32f1xx_hal_i2c.c ****         __HAL_UNLOCK(hi2c);
 2685              		.loc 1 1442 0
 2686 00d4 FB68     		ldr	r3, [r7, #12]
 2687 00d6 0022     		movs	r2, #0
 2688 00d8 83F83420 		strb	r2, [r3, #52]
1443:Drivers/STM32F1xx_HAL_Driver/Src/stm32f1xx_hal_i2c.c ****         return HAL_ERROR;
 2689              		.loc 1 1443 0
 2690 00dc 0123     		movs	r3, #1
 2691 00de 1DE0     		b	.L138
 2692              	.L142:
1444:Drivers/STM32F1xx_HAL_Driver/Src/stm32f1xx_hal_i2c.c ****       }
1445:Drivers/STM32F1xx_HAL_Driver/Src/stm32f1xx_hal_i2c.c ****       else
1446:Drivers/STM32F1xx_HAL_Driver/Src/stm32f1xx_hal_i2c.c ****       {
